(dp1
S'framenum'
p2
(dp3
S'type'
p4
S'integer'
p5
sS'sortable'
p6
I5
sS'sql'
p7
S'INTEGER'
p8
ssS'rnum'
p9
(dp10
g4
g5
sg6
I2
sg7
S'INTEGER UNIQUE'
p11
ssS'file'
p12
(dp13
g4
S'upload'
p14
sg6
I6
sg7
S'CHAR(512)'
p15
ssS'active'
p16
(dp17
g4
S'boolean'
p18
sg6
I4
sg7
S'CHAR(1)'
p19
ssS'flashfile'
p20
(dp21
g4
S'string'
p22
sg6
I7
sg7
S'CHAR(512)'
p23
ssS'vidurl'
p24
(dp25
g4
g22
sg6
I3
sg7
S'CHAR(512)'
p26
ssS'id'
p27
(dp28
g4
S'id'
p29
sg6
I1
sg7
S'INTEGER PRIMARY KEY AUTOINCREMENT'
p30
ss.