(dp1
S'username'
p2
(dp3
S'type'
p4
S'string'
p5
sS'sortable'
p6
I2
sS'sql'
p7
S'CHAR(512) UNIQUE'
p8
ssS'password'
p9
(dp10
g4
S'password'
p11
sg6
I3
sg7
S'CHAR(512)'
p12
ssS'rno'
p13
(dp14
g4
S'integer'
p15
sg6
I4
sg7
S'INTEGER'
p16
ssS'id'
p17
(dp18
g4
S'id'
p19
sg6
I1
sg7
S'INTEGER PRIMARY KEY AUTOINCREMENT'
p20
ssS'user'
p21
(dp22
S'type'
p23
S'string'
p24
sS'sortable'
p25
I2
sS'sql'
p26
S'CHAR(512) UNIQUE'
p27
ss.