(dp1
S'output'
p2
S"<type 'exceptions.NameError'> global name 'framenum' is not defined"
p3
sS'layer'
p4
S'/home/vishrut/web2py/applications/astra2/controllers/default.py'
p5
sS'code'
p6
S'# -*- coding: utf-8 -*-\n# this file is released under public domain and you can use without limitations\n\n#########################################################################\n## This is a samples controller\n## - index is the default action of any application\n## - user is required for authentication and authorization\n## - download is for downloading files uploaded in the db (does streaming)\n## - call exposes all registered services (none by default)\n#########################################################################\n\n\ndef index():\n    """\n    example action using the internationalization operator T and flash\n    rendered by views/default/index.html or views/generic.html\n    """\n    try:\n        session.username\n    except NameError:\n        redirect(URL(\'show\'))\n    else:\n        if(session.username==None):\n            form=SQLFORM(db.kids)\n            if form.process().accepted:\n                session.username = form.vars.username\n                response.flash= "Welcome "+str(session.name)\n                session.logged=1\n                redirect(URL(\'show\'))\n      #  response.flash = "Welcome to web2py!"\n       # return dict(message=T(\'Hello World\'))\n            usr = db().select(db.kids.username,db.kids.password)\n            return dict(usr=usr,form=form,message="yoo")\n        else:\n            redirect(URL(\'show\'))\n      \ndef draw():\n    return dict()  \ndef show():\n    try:\n        session.username\n    except NameError:\n        redirect(URL(\'index\'))\n    else:\n        response.flash= "Welcome "+str(session.name)\n        if(session.username==None):\n            redirect(URL(\'index\'))\n        else:\n            response.flash= "Welcome "+str(session.username)\n    #if(session.logged==0):\n     #   redirect(URL(\'index\'))\n    return dict()\n\ndef logout():\n    db(db.kids.username == session.username).delete()\n    session.username=None\n    redirect(URL(\'index\'))\n    \ndef cheat():\n    session.username=None\n\ndef enter():\n    hall = request.args(0)\n    row = db(db.kids.username == session.username).select().first()\n    row.update_record(rno=hall)\n    redirect(URL(\'index\'))\n    \ndef upframe():\n    kamra = db(db.kids.username == session.username).select().first().rno\n    current = db(db.rooms.rnum == kamra).select().first()\n    framenumber = current.framenum\n    current.update_record(framenum=framenumber+1)\n    return framenum\n    \n\ndef user():\n    """\n    exposes:\n    http://..../[app]/default/user/login\n    http://..../[app]/default/user/logout\n    http://..../[app]/default/user/register\n    http://..../[app]/default/user/profile\n    http://..../[app]/default/user/retrieve_password\n    http://..../[app]/default/user/change_password\n    use @auth.requires_login()\n        @auth.requires_membership(\'group name\')\n        @auth.requires_permission(\'read\',\'table name\',record_id)\n    to decorate functions that need access control\n    """\n    return dict(form=auth())\n\n\ndef download():\n    """\n    allows downloading of uploaded files\n    http://..../[app]/default/download/[filename]\n    """\n    return response.download(request,db)\n\n\ndef call():\n    """\n    exposes services. for example:\n    http://..../[app]/default/call/jsonrpc\n    decorate with @services.jsonrpc the functions to expose\n    supports xml, json, xmlrpc, jsonrpc, amfrpc, rss, csv\n    """\n    return service()\n\n\n@auth.requires_signature()\ndef data():\n    """\n    http://..../[app]/default/data/tables\n    http://..../[app]/default/data/create/[table]\n    http://..../[app]/default/data/read/[table]/[id]\n    http://..../[app]/default/data/update/[table]/[id]\n    http://..../[app]/default/data/delete/[table]/[id]\n    http://..../[app]/default/data/select/[table]\n    http://..../[app]/default/data/search/[table]\n    but URLs must be signed, i.e. linked with\n      A(\'table\',_href=URL(\'data/tables\',user_signature=True))\n    or with the signed load operator\n      LOAD(\'default\',\'data.load\',args=\'tables\',ajax=True,user_signature=True)\n    """\n    return dict(form=crud())\n\nresponse._vars=response._caller(upframe)\n'
p7
sS'snapshot'
p8
(dp9
S'exception'
p10
(dp11
S'__hash__'
p12
S"<method-wrapper '__hash__' of exceptions.NameError object>"
p13
sS'__setattr__'
p14
S"<method-wrapper '__setattr__' of exceptions.NameError object>"
p15
sS'__reduce_ex__'
p16
S'<built-in method __reduce_ex__ of exceptions.NameError object>'
p17
sS'__getslice__'
p18
S"<method-wrapper '__getslice__' of exceptions.NameError object>"
p19
sS'__getitem__'
p20
S"<method-wrapper '__getitem__' of exceptions.NameError object>"
p21
sS'__setstate__'
p22
S'<built-in method __setstate__ of exceptions.NameError object>'
p23
sS'__reduce__'
p24
S'<built-in method __reduce__ of exceptions.NameError object>'
p25
sS'__str__'
p26
S"<method-wrapper '__str__' of exceptions.NameError object>"
p27
sS'__format__'
p28
S'<built-in method __format__ of exceptions.NameError object>'
p29
sS'__getattribute__'
p30
S"<method-wrapper '__getattribute__' of exceptions.NameError object>"
p31
sS'__class__'
p32
S"<type 'exceptions.NameError'>"
p33
sS'__unicode__'
p34
S'<built-in method __unicode__ of exceptions.NameError object>'
p35
sS'__delattr__'
p36
S"<method-wrapper '__delattr__' of exceptions.NameError object>"
p37
sS'__subclasshook__'
p38
S'<built-in method __subclasshook__ of type object>'
p39
sS'__repr__'
p40
S"<method-wrapper '__repr__' of exceptions.NameError object>"
p41
sS'args'
p42
S'("global name \'framenum\' is not defined",)'
p43
sS'__dict__'
p44
S'{}'
p45
sS'__sizeof__'
p46
S'<built-in method __sizeof__ of exceptions.NameError object>'
p47
sS'__doc__'
p48
S"'Name not found globally.'"
p49
sS'__init__'
p50
S"<method-wrapper '__init__' of exceptions.NameError object>"
p51
sS'__new__'
p52
S'<built-in method __new__ of type object>'
p53
ssS'evalue'
p54
S"global name 'framenum' is not defined"
p55
sS'request'
p56
ccopy_reg
_reconstructor
p57
(cgluon.html
BEAUTIFY
p58
c__builtin__
object
p59
NtRp60
(dp61
S'attributes'
p62
(dp63
sS'components'
p64
(lp65
g57
(cgluon.html
TABLE
p66
g59
NtRp67
(dp68
g62
(dp69
S'level'
p70
I5
ssS'parent'
p71
Nsg64
(lp72
g57
(cgluon.html
TR
p73
g59
NtRp74
(dp75
g62
(dp76
sg71
g67
sg64
(lp77
g57
(cgluon.html
TD
p78
g59
NtRp79
(dp80
g62
(dp81
S'_style'
p82
S'font-weight:bold;vertical-align:top'
p83
ssg71
g74
sg64
(lp84
S'ajax'
p85
asbag57
(g78
g59
NtRp86
(dp87
g62
(dp88
S'_valign'
p89
S'top'
p90
ssg71
g74
sg64
(lp91
S':'
asbag57
(g78
g59
NtRp92
(dp93
g62
(dp94
sg71
g74
sg64
(lp95
g57
(g58
g59
NtRp96
(dp97
g62
(dp98
g70
I5
ssg71
g92
sg64
(lp99
S'False'
p100
asbasbasbag57
(g73
g59
NtRp101
(dp102
g62
(dp103
sg71
g67
sg64
(lp104
g57
(g78
g59
NtRp105
(dp106
g62
(dp107
g82
g83
ssg71
g101
sg64
(lp108
S'application'
p109
asbag57
(g78
g59
NtRp110
(dp111
g62
(dp112
g89
g90
ssg71
g101
sg64
(lp113
S':'
asbag57
(g78
g59
NtRp114
(dp115
g62
(dp116
sg71
g101
sg64
(lp117
g57
(g58
g59
NtRp118
(dp119
g62
(dp120
g70
I5
ssg71
g114
sg64
(lp121
S'astra2'
p122
asbasbasbag57
(g73
g59
NtRp123
(dp124
g62
(dp125
sg71
g67
sg64
(lp126
g57
(g78
g59
NtRp127
(dp128
g62
(dp129
g82
g83
ssg71
g123
sg64
(lp130
g42
asbag57
(g78
g59
NtRp131
(dp132
g62
(dp133
g89
g90
ssg71
g123
sg64
(lp134
S':'
asbag57
(g78
g59
NtRp135
(dp136
g62
(dp137
sg71
g123
sg64
(lp138
g57
(g58
g59
NtRp139
(dp140
g62
(dp141
g70
I5
ssg71
g135
sg64
(lp142
g57
(g66
g59
NtRp143
(dp144
g62
(dp145
g70
I4
ssg71
Nsg64
(lp146
sbasbasbasbag57
(g73
g59
NtRp147
(dp148
g62
(dp149
sg71
g67
sg64
(lp150
g57
(g78
g59
NtRp151
(dp152
g62
(dp153
g82
g83
ssg71
g147
sg64
(lp154
S'body'
p155
asbag57
(g78
g59
NtRp156
(dp157
g62
(dp158
g89
g90
ssg71
g147
sg64
(lp159
S':'
asbag57
(g78
g59
NtRp160
(dp161
g62
(dp162
sg71
g147
sg64
(lp163
g57
(g58
g59
NtRp164
(dp165
g62
(dp166
g70
I5
ssg71
g160
sg64
(lp167
S'<cStringIO.StringO object at 0xab22100>'
p168
asbasbasbag57
(g73
g59
NtRp169
(dp170
g62
(dp171
sg71
g67
sg64
(lp172
g57
(g78
g59
NtRp173
(dp174
g62
(dp175
g82
g83
ssg71
g169
sg64
(lp176
S'client'
p177
asbag57
(g78
g59
NtRp178
(dp179
g62
(dp180
g89
g90
ssg71
g169
sg64
(lp181
S':'
asbag57
(g78
g59
NtRp182
(dp183
g62
(dp184
sg71
g169
sg64
(lp185
g57
(g58
g59
NtRp186
(dp187
g62
(dp188
g70
I5
ssg71
g182
sg64
(lp189
S'10.1.40.173'
p190
asbasbasbag57
(g73
g59
NtRp191
(dp192
g62
(dp193
sg71
g67
sg64
(lp194
g57
(g78
g59
NtRp195
(dp196
g62
(dp197
g82
g83
ssg71
g191
sg64
(lp198
S'controller'
p199
asbag57
(g78
g59
NtRp200
(dp201
g62
(dp202
g89
g90
ssg71
g191
sg64
(lp203
S':'
asbag57
(g78
g59
NtRp204
(dp205
g62
(dp206
sg71
g191
sg64
(lp207
g57
(g58
g59
NtRp208
(dp209
g62
(dp210
g70
I5
ssg71
g204
sg64
(lp211
S'default'
p212
asbasbasbag57
(g73
g59
NtRp213
(dp214
g62
(dp215
sg71
g67
sg64
(lp216
g57
(g78
g59
NtRp217
(dp218
g62
(dp219
g82
g83
ssg71
g213
sg64
(lp220
S'cookies'
p221
asbag57
(g78
g59
NtRp222
(dp223
g62
(dp224
g89
g90
ssg71
g213
sg64
(lp225
S':'
asbag57
(g78
g59
NtRp226
(dp227
g62
(dp228
sg71
g213
sg64
(lp229
g57
(g58
g59
NtRp230
(dp231
g62
(dp232
g70
I5
ssg71
g226
sg64
(lp233
g57
(g66
g59
NtRp234
(dp235
g62
(dp236
g70
I4
ssg71
Nsg64
(lp237
g57
(g73
g59
NtRp238
(dp239
g62
(dp240
sg71
g234
sg64
(lp241
g57
(g78
g59
NtRp242
(dp243
g62
(dp244
g82
g83
ssg71
g238
sg64
(lp245
S'session_id_admin'
p246
asbag57
(g78
g59
NtRp247
(dp248
g62
(dp249
g89
g90
ssg71
g238
sg64
(lp250
S':'
asbag57
(g78
g59
NtRp251
(dp252
g62
(dp253
sg71
g238
sg64
(lp254
g57
(g58
g59
NtRp255
(dp256
g62
(dp257
g70
I4
ssg71
g251
sg64
(lp258
g57
(g66
g59
NtRp259
(dp260
g62
(dp261
g70
I3
ssg71
Nsg64
(lp262
g57
(g73
g59
NtRp263
(dp264
g62
(dp265
sg71
g259
sg64
(lp266
g57
(g78
g59
NtRp267
(dp268
g62
(dp269
g82
g83
ssg71
g263
sg64
(lp270
S'comment'
p271
asbag57
(g78
g59
NtRp272
(dp273
g62
(dp274
g89
g90
ssg71
g263
sg64
(lp275
S':'
asbag57
(g78
g59
NtRp276
(dp277
g62
(dp278
sg71
g263
sg64
(lp279
g57
(g58
g59
NtRp280
(dp281
g62
(dp282
g70
I3
ssg71
g276
sg64
(lp283
S''
asbasbasbag57
(g73
g59
NtRp284
(dp285
g62
(dp286
sg71
g259
sg64
(lp287
g57
(g78
g59
NtRp288
(dp289
g62
(dp290
g82
g83
ssg71
g284
sg64
(lp291
S'domain'
p292
asbag57
(g78
g59
NtRp293
(dp294
g62
(dp295
g89
g90
ssg71
g284
sg64
(lp296
S':'
asbag57
(g78
g59
NtRp297
(dp298
g62
(dp299
sg71
g284
sg64
(lp300
g57
(g58
g59
NtRp301
(dp302
g62
(dp303
g70
I3
ssg71
g297
sg64
(lp304
S''
asbasbasbag57
(g73
g59
NtRp305
(dp306
g62
(dp307
sg71
g259
sg64
(lp308
g57
(g78
g59
NtRp309
(dp310
g62
(dp311
g82
g83
ssg71
g305
sg64
(lp312
S'expires'
p313
asbag57
(g78
g59
NtRp314
(dp315
g62
(dp316
g89
g90
ssg71
g305
sg64
(lp317
S':'
asbag57
(g78
g59
NtRp318
(dp319
g62
(dp320
sg71
g305
sg64
(lp321
g57
(g58
g59
NtRp322
(dp323
g62
(dp324
g70
I3
ssg71
g318
sg64
(lp325
S''
asbasbasbag57
(g73
g59
NtRp326
(dp327
g62
(dp328
sg71
g259
sg64
(lp329
g57
(g78
g59
NtRp330
(dp331
g62
(dp332
g82
g83
ssg71
g326
sg64
(lp333
S'httponly'
p334
asbag57
(g78
g59
NtRp335
(dp336
g62
(dp337
g89
g90
ssg71
g326
sg64
(lp338
S':'
asbag57
(g78
g59
NtRp339
(dp340
g62
(dp341
sg71
g326
sg64
(lp342
g57
(g58
g59
NtRp343
(dp344
g62
(dp345
g70
I3
ssg71
g339
sg64
(lp346
S''
asbasbasbag57
(g73
g59
NtRp347
(dp348
g62
(dp349
sg71
g259
sg64
(lp350
g57
(g78
g59
NtRp351
(dp352
g62
(dp353
g82
g83
ssg71
g347
sg64
(lp354
S'max-age'
p355
asbag57
(g78
g59
NtRp356
(dp357
g62
(dp358
g89
g90
ssg71
g347
sg64
(lp359
S':'
asbag57
(g78
g59
NtRp360
(dp361
g62
(dp362
sg71
g347
sg64
(lp363
g57
(g58
g59
NtRp364
(dp365
g62
(dp366
g70
I3
ssg71
g360
sg64
(lp367
S''
asbasbasbag57
(g73
g59
NtRp368
(dp369
g62
(dp370
sg71
g259
sg64
(lp371
g57
(g78
g59
NtRp372
(dp373
g62
(dp374
g82
g83
ssg71
g368
sg64
(lp375
S'path'
p376
asbag57
(g78
g59
NtRp377
(dp378
g62
(dp379
g89
g90
ssg71
g368
sg64
(lp380
S':'
asbag57
(g78
g59
NtRp381
(dp382
g62
(dp383
sg71
g368
sg64
(lp384
g57
(g58
g59
NtRp385
(dp386
g62
(dp387
g70
I3
ssg71
g381
sg64
(lp388
S''
asbasbasbag57
(g73
g59
NtRp389
(dp390
g62
(dp391
sg71
g259
sg64
(lp392
g57
(g78
g59
NtRp393
(dp394
g62
(dp395
g82
g83
ssg71
g389
sg64
(lp396
S'secure'
p397
asbag57
(g78
g59
NtRp398
(dp399
g62
(dp400
g89
g90
ssg71
g389
sg64
(lp401
S':'
asbag57
(g78
g59
NtRp402
(dp403
g62
(dp404
sg71
g389
sg64
(lp405
g57
(g58
g59
NtRp406
(dp407
g62
(dp408
g70
I3
ssg71
g402
sg64
(lp409
S''
asbasbasbag57
(g73
g59
NtRp410
(dp411
g62
(dp412
sg71
g259
sg64
(lp413
g57
(g78
g59
NtRp414
(dp415
g62
(dp416
g82
g83
ssg71
g410
sg64
(lp417
S'version'
p418
asbag57
(g78
g59
NtRp419
(dp420
g62
(dp421
g89
g90
ssg71
g410
sg64
(lp422
S':'
asbag57
(g78
g59
NtRp423
(dp424
g62
(dp425
sg71
g410
sg64
(lp426
g57
(g58
g59
NtRp427
(dp428
g62
(dp429
g70
I3
ssg71
g423
sg64
(lp430
S''
asbasbasbasbasbasbasbag57
(g73
g59
NtRp431
(dp432
g62
(dp433
sg71
g234
sg64
(lp434
g57
(g78
g59
NtRp435
(dp436
g62
(dp437
g82
g83
ssg71
g431
sg64
(lp438
S'session_id_astra2'
p439
asbag57
(g78
g59
NtRp440
(dp441
g62
(dp442
g89
g90
ssg71
g431
sg64
(lp443
S':'
asbag57
(g78
g59
NtRp444
(dp445
g62
(dp446
sg71
g431
sg64
(lp447
g57
(g58
g59
NtRp448
(dp449
g62
(dp450
g70
I4
ssg71
g444
sg64
(lp451
g57
(g66
g59
NtRp452
(dp453
g62
(dp454
g70
I3
ssg71
Nsg64
(lp455
g57
(g73
g59
NtRp456
(dp457
g62
(dp458
sg71
g452
sg64
(lp459
g57
(g78
g59
NtRp460
(dp461
g62
(dp462
g82
g83
ssg71
g456
sg64
(lp463
g271
asbag57
(g78
g59
NtRp464
(dp465
g62
(dp466
g89
g90
ssg71
g456
sg64
(lp467
S':'
asbag57
(g78
g59
NtRp468
(dp469
g62
(dp470
sg71
g456
sg64
(lp471
g57
(g58
g59
NtRp472
(dp473
g62
(dp474
g70
I3
ssg71
g468
sg64
(lp475
S''
asbasbasbag57
(g73
g59
NtRp476
(dp477
g62
(dp478
sg71
g452
sg64
(lp479
g57
(g78
g59
NtRp480
(dp481
g62
(dp482
g82
g83
ssg71
g476
sg64
(lp483
g292
asbag57
(g78
g59
NtRp484
(dp485
g62
(dp486
g89
g90
ssg71
g476
sg64
(lp487
S':'
asbag57
(g78
g59
NtRp488
(dp489
g62
(dp490
sg71
g476
sg64
(lp491
g57
(g58
g59
NtRp492
(dp493
g62
(dp494
g70
I3
ssg71
g488
sg64
(lp495
S''
asbasbasbag57
(g73
g59
NtRp496
(dp497
g62
(dp498
sg71
g452
sg64
(lp499
g57
(g78
g59
NtRp500
(dp501
g62
(dp502
g82
g83
ssg71
g496
sg64
(lp503
g313
asbag57
(g78
g59
NtRp504
(dp505
g62
(dp506
g89
g90
ssg71
g496
sg64
(lp507
S':'
asbag57
(g78
g59
NtRp508
(dp509
g62
(dp510
sg71
g496
sg64
(lp511
g57
(g58
g59
NtRp512
(dp513
g62
(dp514
g70
I3
ssg71
g508
sg64
(lp515
S''
asbasbasbag57
(g73
g59
NtRp516
(dp517
g62
(dp518
sg71
g452
sg64
(lp519
g57
(g78
g59
NtRp520
(dp521
g62
(dp522
g82
g83
ssg71
g516
sg64
(lp523
g334
asbag57
(g78
g59
NtRp524
(dp525
g62
(dp526
g89
g90
ssg71
g516
sg64
(lp527
S':'
asbag57
(g78
g59
NtRp528
(dp529
g62
(dp530
sg71
g516
sg64
(lp531
g57
(g58
g59
NtRp532
(dp533
g62
(dp534
g70
I3
ssg71
g528
sg64
(lp535
S''
asbasbasbag57
(g73
g59
NtRp536
(dp537
g62
(dp538
sg71
g452
sg64
(lp539
g57
(g78
g59
NtRp540
(dp541
g62
(dp542
g82
g83
ssg71
g536
sg64
(lp543
g355
asbag57
(g78
g59
NtRp544
(dp545
g62
(dp546
g89
g90
ssg71
g536
sg64
(lp547
S':'
asbag57
(g78
g59
NtRp548
(dp549
g62
(dp550
sg71
g536
sg64
(lp551
g57
(g58
g59
NtRp552
(dp553
g62
(dp554
g70
I3
ssg71
g548
sg64
(lp555
S''
asbasbasbag57
(g73
g59
NtRp556
(dp557
g62
(dp558
sg71
g452
sg64
(lp559
g57
(g78
g59
NtRp560
(dp561
g62
(dp562
g82
g83
ssg71
g556
sg64
(lp563
g376
asbag57
(g78
g59
NtRp564
(dp565
g62
(dp566
g89
g90
ssg71
g556
sg64
(lp567
S':'
asbag57
(g78
g59
NtRp568
(dp569
g62
(dp570
sg71
g556
sg64
(lp571
g57
(g58
g59
NtRp572
(dp573
g62
(dp574
g70
I3
ssg71
g568
sg64
(lp575
S''
asbasbasbag57
(g73
g59
NtRp576
(dp577
g62
(dp578
sg71
g452
sg64
(lp579
g57
(g78
g59
NtRp580
(dp581
g62
(dp582
g82
g83
ssg71
g576
sg64
(lp583
g397
asbag57
(g78
g59
NtRp584
(dp585
g62
(dp586
g89
g90
ssg71
g576
sg64
(lp587
S':'
asbag57
(g78
g59
NtRp588
(dp589
g62
(dp590
sg71
g576
sg64
(lp591
g57
(g58
g59
NtRp592
(dp593
g62
(dp594
g70
I3
ssg71
g588
sg64
(lp595
S''
asbasbasbag57
(g73
g59
NtRp596
(dp597
g62
(dp598
sg71
g452
sg64
(lp599
g57
(g78
g59
NtRp600
(dp601
g62
(dp602
g82
g83
ssg71
g596
sg64
(lp603
g418
asbag57
(g78
g59
NtRp604
(dp605
g62
(dp606
g89
g90
ssg71
g596
sg64
(lp607
S':'
asbag57
(g78
g59
NtRp608
(dp609
g62
(dp610
sg71
g596
sg64
(lp611
g57
(g58
g59
NtRp612
(dp613
g62
(dp614
g70
I3
ssg71
g608
sg64
(lp615
S''
asbasbasbasbasbasbasbag57
(g73
g59
NtRp616
(dp617
g62
(dp618
sg71
g234
sg64
(lp619
g57
(g78
g59
NtRp620
(dp621
g62
(dp622
g82
g83
ssg71
g616
sg64
(lp623
S'session_id_welcome'
p624
asbag57
(g78
g59
NtRp625
(dp626
g62
(dp627
g89
g90
ssg71
g616
sg64
(lp628
S':'
asbag57
(g78
g59
NtRp629
(dp630
g62
(dp631
sg71
g616
sg64
(lp632
g57
(g58
g59
NtRp633
(dp634
g62
(dp635
g70
I4
ssg71
g629
sg64
(lp636
g57
(g66
g59
NtRp637
(dp638
g62
(dp639
g70
I3
ssg71
Nsg64
(lp640
g57
(g73
g59
NtRp641
(dp642
g62
(dp643
sg71
g637
sg64
(lp644
g57
(g78
g59
NtRp645
(dp646
g62
(dp647
g82
g83
ssg71
g641
sg64
(lp648
g271
asbag57
(g78
g59
NtRp649
(dp650
g62
(dp651
g89
g90
ssg71
g641
sg64
(lp652
S':'
asbag57
(g78
g59
NtRp653
(dp654
g62
(dp655
sg71
g641
sg64
(lp656
g57
(g58
g59
NtRp657
(dp658
g62
(dp659
g70
I3
ssg71
g653
sg64
(lp660
S''
asbasbasbag57
(g73
g59
NtRp661
(dp662
g62
(dp663
sg71
g637
sg64
(lp664
g57
(g78
g59
NtRp665
(dp666
g62
(dp667
g82
g83
ssg71
g661
sg64
(lp668
g292
asbag57
(g78
g59
NtRp669
(dp670
g62
(dp671
g89
g90
ssg71
g661
sg64
(lp672
S':'
asbag57
(g78
g59
NtRp673
(dp674
g62
(dp675
sg71
g661
sg64
(lp676
g57
(g58
g59
NtRp677
(dp678
g62
(dp679
g70
I3
ssg71
g673
sg64
(lp680
S''
asbasbasbag57
(g73
g59
NtRp681
(dp682
g62
(dp683
sg71
g637
sg64
(lp684
g57
(g78
g59
NtRp685
(dp686
g62
(dp687
g82
g83
ssg71
g681
sg64
(lp688
g313
asbag57
(g78
g59
NtRp689
(dp690
g62
(dp691
g89
g90
ssg71
g681
sg64
(lp692
S':'
asbag57
(g78
g59
NtRp693
(dp694
g62
(dp695
sg71
g681
sg64
(lp696
g57
(g58
g59
NtRp697
(dp698
g62
(dp699
g70
I3
ssg71
g693
sg64
(lp700
S''
asbasbasbag57
(g73
g59
NtRp701
(dp702
g62
(dp703
sg71
g637
sg64
(lp704
g57
(g78
g59
NtRp705
(dp706
g62
(dp707
g82
g83
ssg71
g701
sg64
(lp708
g334
asbag57
(g78
g59
NtRp709
(dp710
g62
(dp711
g89
g90
ssg71
g701
sg64
(lp712
S':'
asbag57
(g78
g59
NtRp713
(dp714
g62
(dp715
sg71
g701
sg64
(lp716
g57
(g58
g59
NtRp717
(dp718
g62
(dp719
g70
I3
ssg71
g713
sg64
(lp720
S''
asbasbasbag57
(g73
g59
NtRp721
(dp722
g62
(dp723
sg71
g637
sg64
(lp724
g57
(g78
g59
NtRp725
(dp726
g62
(dp727
g82
g83
ssg71
g721
sg64
(lp728
g355
asbag57
(g78
g59
NtRp729
(dp730
g62
(dp731
g89
g90
ssg71
g721
sg64
(lp732
S':'
asbag57
(g78
g59
NtRp733
(dp734
g62
(dp735
sg71
g721
sg64
(lp736
g57
(g58
g59
NtRp737
(dp738
g62
(dp739
g70
I3
ssg71
g733
sg64
(lp740
S''
asbasbasbag57
(g73
g59
NtRp741
(dp742
g62
(dp743
sg71
g637
sg64
(lp744
g57
(g78
g59
NtRp745
(dp746
g62
(dp747
g82
g83
ssg71
g741
sg64
(lp748
g376
asbag57
(g78
g59
NtRp749
(dp750
g62
(dp751
g89
g90
ssg71
g741
sg64
(lp752
S':'
asbag57
(g78
g59
NtRp753
(dp754
g62
(dp755
sg71
g741
sg64
(lp756
g57
(g58
g59
NtRp757
(dp758
g62
(dp759
g70
I3
ssg71
g753
sg64
(lp760
S''
asbasbasbag57
(g73
g59
NtRp761
(dp762
g62
(dp763
sg71
g637
sg64
(lp764
g57
(g78
g59
NtRp765
(dp766
g62
(dp767
g82
g83
ssg71
g761
sg64
(lp768
g397
asbag57
(g78
g59
NtRp769
(dp770
g62
(dp771
g89
g90
ssg71
g761
sg64
(lp772
S':'
asbag57
(g78
g59
NtRp773
(dp774
g62
(dp775
sg71
g761
sg64
(lp776
g57
(g58
g59
NtRp777
(dp778
g62
(dp779
g70
I3
ssg71
g773
sg64
(lp780
S''
asbasbasbag57
(g73
g59
NtRp781
(dp782
g62
(dp783
sg71
g637
sg64
(lp784
g57
(g78
g59
NtRp785
(dp786
g62
(dp787
g82
g83
ssg71
g781
sg64
(lp788
g418
asbag57
(g78
g59
NtRp789
(dp790
g62
(dp791
g89
g90
ssg71
g781
sg64
(lp792
S':'
asbag57
(g78
g59
NtRp793
(dp794
g62
(dp795
sg71
g781
sg64
(lp796
g57
(g58
g59
NtRp797
(dp798
g62
(dp799
g70
I3
ssg71
g793
sg64
(lp800
S''
asbasbasbasbasbasbasbasbasbasbasbag57
(g73
g59
NtRp801
(dp802
g62
(dp803
sg71
g67
sg64
(lp804
g57
(g78
g59
NtRp805
(dp806
g62
(dp807
g82
g83
ssg71
g801
sg64
(lp808
S'env'
p809
asbag57
(g78
g59
NtRp810
(dp811
g62
(dp812
g89
g90
ssg71
g801
sg64
(lp813
S':'
asbag57
(g78
g59
NtRp814
(dp815
g62
(dp816
sg71
g801
sg64
(lp817
g57
(g58
g59
NtRp818
(dp819
g62
(dp820
g70
I5
ssg71
g814
sg64
(lp821
g57
(g66
g59
NtRp822
(dp823
g62
(dp824
g70
I4
ssg71
Nsg64
(lp825
g57
(g73
g59
NtRp826
(dp827
g62
(dp828
sg71
g822
sg64
(lp829
g57
(g78
g59
NtRp830
(dp831
g62
(dp832
g82
g83
ssg71
g826
sg64
(lp833
S'app_folders'
p834
asbag57
(g78
g59
NtRp835
(dp836
g62
(dp837
g89
g90
ssg71
g826
sg64
(lp838
S':'
asbag57
(g78
g59
NtRp839
(dp840
g62
(dp841
sg71
g826
sg64
(lp842
g57
(g58
g59
NtRp843
(dp844
g62
(dp845
g70
I4
ssg71
g839
sg64
(lp846
S"set(['/home/vishrut/web2py/applications/astra2/', '/home/vishrut/web2py/applications/admin/', '/home/vishrut/web2py/applications/welcome/'])"
p847
asbasbasbag57
(g73
g59
NtRp848
(dp849
g62
(dp850
sg71
g822
sg64
(lp851
g57
(g78
g59
NtRp852
(dp853
g62
(dp854
g82
g83
ssg71
g848
sg64
(lp855
S'applications_parent'
p856
asbag57
(g78
g59
NtRp857
(dp858
g62
(dp859
g89
g90
ssg71
g848
sg64
(lp860
S':'
asbag57
(g78
g59
NtRp861
(dp862
g62
(dp863
sg71
g848
sg64
(lp864
g57
(g58
g59
NtRp865
(dp866
g62
(dp867
g70
I4
ssg71
g861
sg64
(lp868
S'/home/vishrut/web2py'
p869
asbasbasbag57
(g73
g59
NtRp870
(dp871
g62
(dp872
sg71
g822
sg64
(lp873
g57
(g78
g59
NtRp874
(dp875
g62
(dp876
g82
g83
ssg71
g870
sg64
(lp877
S'cmd_args'
p878
asbag57
(g78
g59
NtRp879
(dp880
g62
(dp881
g89
g90
ssg71
g870
sg64
(lp882
S':'
asbag57
(g78
g59
NtRp883
(dp884
g62
(dp885
sg71
g870
sg64
(lp886
g57
(g58
g59
NtRp887
(dp888
g62
(dp889
g70
I4
ssg71
g883
sg64
(lp890
g57
(g66
g59
NtRp891
(dp892
g62
(dp893
g70
I3
ssg71
Nsg64
(lp894
sbasbasbasbag57
(g73
g59
NtRp895
(dp896
g62
(dp897
sg71
g822
sg64
(lp898
g57
(g78
g59
NtRp899
(dp900
g62
(dp901
g82
g83
ssg71
g895
sg64
(lp902
S'cmd_options'
p903
asbag57
(g78
g59
NtRp904
(dp905
g62
(dp906
g89
g90
ssg71
g895
sg64
(lp907
S':'
asbag57
(g78
g59
NtRp908
(dp909
g62
(dp910
sg71
g895
sg64
(lp911
g57
(g58
g59
NtRp912
(dp913
g62
(dp914
g70
I4
ssg71
g908
sg64
(lp915
S"<Values at 0xa343c6c: {'verbose': False, 'ip': '10.1.40.173', 'shutdown_timeout': 5, 'taskbar': False, 'nocron': False, 'pid_filename': 'httpserver.pid', 'maxthreads': None, 'softcron': False, 'server_name': 'vishrut-Vostro-1015', 'bpython': False, 'nogui': False, 'port': 8000, 'extcron': False, 'debuglevel': 30, 'test': None, 'folder': '/home/vishrut/web2py', 'config': '', 'import_models': False, 'winservice': '', 'shell': None, 'run': '', 'log_filename': 'httpserver.log', 'args': [''], 'socket_timeout': 5, 'ssl_ca_certificate': None, 'scheduler': None, 'profiler_filename': None, 'ssl_private_key': '', 'password': '<ask>', 'request_queue_size': 5, 'ssl_certificate': '', 'cronjob': False, 'numthreads': None, 'quiet': False, 'interfaces': None, 'minthreads': None, 'timeout': 10, 'plain': False, 'nobanner': False}>"
p916
asbasbasbag57
(g73
g59
NtRp917
(dp918
g62
(dp919
sg71
g822
sg64
(lp920
g57
(g78
g59
NtRp921
(dp922
g62
(dp923
g82
g83
ssg71
g917
sg64
(lp924
S'db_sessions'
p925
asbag57
(g78
g59
NtRp926
(dp927
g62
(dp928
g89
g90
ssg71
g917
sg64
(lp929
S':'
asbag57
(g78
g59
NtRp930
(dp931
g62
(dp932
sg71
g917
sg64
(lp933
g57
(g58
g59
NtRp934
(dp935
g62
(dp936
g70
I4
ssg71
g930
sg64
(lp937
S'set([])'
p938
asbasbasbag57
(g73
g59
NtRp939
(dp940
g62
(dp941
sg71
g822
sg64
(lp942
g57
(g78
g59
NtRp943
(dp944
g62
(dp945
g82
g83
ssg71
g939
sg64
(lp946
S'debugging'
p947
asbag57
(g78
g59
NtRp948
(dp949
g62
(dp950
g89
g90
ssg71
g939
sg64
(lp951
S':'
asbag57
(g78
g59
NtRp952
(dp953
g62
(dp954
sg71
g939
sg64
(lp955
g57
(g58
g59
NtRp956
(dp957
g62
(dp958
g70
I4
ssg71
g952
sg64
(lp959
g100
asbasbasbag57
(g73
g59
NtRp960
(dp961
g62
(dp962
sg71
g822
sg64
(lp963
g57
(g78
g59
NtRp964
(dp965
g62
(dp966
g82
g83
ssg71
g960
sg64
(lp967
S'gluon_parent'
p968
asbag57
(g78
g59
NtRp969
(dp970
g62
(dp971
g89
g90
ssg71
g960
sg64
(lp972
S':'
asbag57
(g78
g59
NtRp973
(dp974
g62
(dp975
sg71
g960
sg64
(lp976
g57
(g58
g59
NtRp977
(dp978
g62
(dp979
g70
I4
ssg71
g973
sg64
(lp980
S'/home/vishrut/web2py'
p981
asbasbasbag57
(g73
g59
NtRp982
(dp983
g62
(dp984
sg71
g822
sg64
(lp985
g57
(g78
g59
NtRp986
(dp987
g62
(dp988
g82
g83
ssg71
g982
sg64
(lp989
S'http_accept'
p990
asbag57
(g78
g59
NtRp991
(dp992
g62
(dp993
g89
g90
ssg71
g982
sg64
(lp994
S':'
asbag57
(g78
g59
NtRp995
(dp996
g62
(dp997
sg71
g982
sg64
(lp998
g57
(g58
g59
NtRp999
(dp1000
g62
(dp1001
g70
I4
ssg71
g995
sg64
(lp1002
S'text/html,application/xhtml+xml,application/xml;q=0.9,*/*;q=0.8'
p1003
asbasbasbag57
(g73
g59
NtRp1004
(dp1005
g62
(dp1006
sg71
g822
sg64
(lp1007
g57
(g78
g59
NtRp1008
(dp1009
g62
(dp1010
g82
g83
ssg71
g1004
sg64
(lp1011
S'http_accept_encoding'
p1012
asbag57
(g78
g59
NtRp1013
(dp1014
g62
(dp1015
g89
g90
ssg71
g1004
sg64
(lp1016
S':'
asbag57
(g78
g59
NtRp1017
(dp1018
g62
(dp1019
sg71
g1004
sg64
(lp1020
g57
(g58
g59
NtRp1021
(dp1022
g62
(dp1023
g70
I4
ssg71
g1017
sg64
(lp1024
S'gzip, deflate'
p1025
asbasbasbag57
(g73
g59
NtRp1026
(dp1027
g62
(dp1028
sg71
g822
sg64
(lp1029
g57
(g78
g59
NtRp1030
(dp1031
g62
(dp1032
g82
g83
ssg71
g1026
sg64
(lp1033
S'http_accept_language'
p1034
asbag57
(g78
g59
NtRp1035
(dp1036
g62
(dp1037
g89
g90
ssg71
g1026
sg64
(lp1038
S':'
asbag57
(g78
g59
NtRp1039
(dp1040
g62
(dp1041
sg71
g1026
sg64
(lp1042
g57
(g58
g59
NtRp1043
(dp1044
g62
(dp1045
g70
I4
ssg71
g1039
sg64
(lp1046
S'en-US,en;q=0.5'
p1047
asbasbasbag57
(g73
g59
NtRp1048
(dp1049
g62
(dp1050
sg71
g822
sg64
(lp1051
g57
(g78
g59
NtRp1052
(dp1053
g62
(dp1054
g82
g83
ssg71
g1048
sg64
(lp1055
S'http_connection'
p1056
asbag57
(g78
g59
NtRp1057
(dp1058
g62
(dp1059
g89
g90
ssg71
g1048
sg64
(lp1060
S':'
asbag57
(g78
g59
NtRp1061
(dp1062
g62
(dp1063
sg71
g1048
sg64
(lp1064
g57
(g58
g59
NtRp1065
(dp1066
g62
(dp1067
g70
I4
ssg71
g1061
sg64
(lp1068
S'keep-alive'
p1069
asbasbasbag57
(g73
g59
NtRp1070
(dp1071
g62
(dp1072
sg71
g822
sg64
(lp1073
g57
(g78
g59
NtRp1074
(dp1075
g62
(dp1076
g82
g83
ssg71
g1070
sg64
(lp1077
S'http_cookie'
p1078
asbag57
(g78
g59
NtRp1079
(dp1080
g62
(dp1081
g89
g90
ssg71
g1070
sg64
(lp1082
S':'
asbag57
(g78
g59
NtRp1083
(dp1084
g62
(dp1085
sg71
g1070
sg64
(lp1086
g57
(g58
g59
NtRp1087
(dp1088
g62
(dp1089
g70
I4
ssg71
g1083
sg64
(lp1090
S'session_id_welcome=10.1.40.173-afcc1836-5a7d-4eb1-a12d-61f5100a7280; session_id_admin=10.1.40.173-dbecc580-826d-4646-a893-fb6eee251942; session_id_astra2=10.1.40.173-835f1450-57af-4327-bdec-96e214f52055'
p1091
asbasbasbag57
(g73
g59
NtRp1092
(dp1093
g62
(dp1094
sg71
g822
sg64
(lp1095
g57
(g78
g59
NtRp1096
(dp1097
g62
(dp1098
g82
g83
ssg71
g1092
sg64
(lp1099
S'http_host'
p1100
asbag57
(g78
g59
NtRp1101
(dp1102
g62
(dp1103
g89
g90
ssg71
g1092
sg64
(lp1104
S':'
asbag57
(g78
g59
NtRp1105
(dp1106
g62
(dp1107
sg71
g1092
sg64
(lp1108
g57
(g58
g59
NtRp1109
(dp1110
g62
(dp1111
g70
I4
ssg71
g1105
sg64
(lp1112
S'10.1.40.173:8000'
p1113
asbasbasbag57
(g73
g59
NtRp1114
(dp1115
g62
(dp1116
sg71
g822
sg64
(lp1117
g57
(g78
g59
NtRp1118
(dp1119
g62
(dp1120
g82
g83
ssg71
g1114
sg64
(lp1121
S'http_user_agent'
p1122
asbag57
(g78
g59
NtRp1123
(dp1124
g62
(dp1125
g89
g90
ssg71
g1114
sg64
(lp1126
S':'
asbag57
(g78
g59
NtRp1127
(dp1128
g62
(dp1129
sg71
g1114
sg64
(lp1130
g57
(g58
g59
NtRp1131
(dp1132
g62
(dp1133
g70
I4
ssg71
g1127
sg64
(lp1134
S'Mozilla/5.0 (X11; Ubuntu; Linux i686; rv:16.0) Gecko/20100101 Firefox/16.0'
p1135
asbasbasbag57
(g73
g59
NtRp1136
(dp1137
g62
(dp1138
sg71
g822
sg64
(lp1139
g57
(g78
g59
NtRp1140
(dp1141
g62
(dp1142
g82
g83
ssg71
g1136
sg64
(lp1143
S'is_jython'
p1144
asbag57
(g78
g59
NtRp1145
(dp1146
g62
(dp1147
g89
g90
ssg71
g1136
sg64
(lp1148
S':'
asbag57
(g78
g59
NtRp1149
(dp1150
g62
(dp1151
sg71
g1136
sg64
(lp1152
g57
(g58
g59
NtRp1153
(dp1154
g62
(dp1155
g70
I4
ssg71
g1149
sg64
(lp1156
g100
asbasbasbag57
(g73
g59
NtRp1157
(dp1158
g62
(dp1159
sg71
g822
sg64
(lp1160
g57
(g78
g59
NtRp1161
(dp1162
g62
(dp1163
g82
g83
ssg71
g1157
sg64
(lp1164
S'is_pypy'
p1165
asbag57
(g78
g59
NtRp1166
(dp1167
g62
(dp1168
g89
g90
ssg71
g1157
sg64
(lp1169
S':'
asbag57
(g78
g59
NtRp1170
(dp1171
g62
(dp1172
sg71
g1157
sg64
(lp1173
g57
(g58
g59
NtRp1174
(dp1175
g62
(dp1176
g70
I4
ssg71
g1170
sg64
(lp1177
g100
asbasbasbag57
(g73
g59
NtRp1178
(dp1179
g62
(dp1180
sg71
g822
sg64
(lp1181
g57
(g78
g59
NtRp1182
(dp1183
g62
(dp1184
g82
g83
ssg71
g1178
sg64
(lp1185
S'path_info'
p1186
asbag57
(g78
g59
NtRp1187
(dp1188
g62
(dp1189
g89
g90
ssg71
g1178
sg64
(lp1190
S':'
asbag57
(g78
g59
NtRp1191
(dp1192
g62
(dp1193
sg71
g1178
sg64
(lp1194
g57
(g58
g59
NtRp1195
(dp1196
g62
(dp1197
g70
I4
ssg71
g1191
sg64
(lp1198
S'/astra2/default/upframe.html'
p1199
asbasbasbag57
(g73
g59
NtRp1200
(dp1201
g62
(dp1202
sg71
g822
sg64
(lp1203
g57
(g78
g59
NtRp1204
(dp1205
g62
(dp1206
g82
g83
ssg71
g1200
sg64
(lp1207
S'query_string'
p1208
asbag57
(g78
g59
NtRp1209
(dp1210
g62
(dp1211
g89
g90
ssg71
g1200
sg64
(lp1212
S':'
asbag57
(g78
g59
NtRp1213
(dp1214
g62
(dp1215
sg71
g1200
sg64
(lp1216
g57
(g58
g59
NtRp1217
(dp1218
g62
(dp1219
g70
I4
ssg71
g1213
sg64
(lp1220
S''
asbasbasbag57
(g73
g59
NtRp1221
(dp1222
g62
(dp1223
sg71
g822
sg64
(lp1224
g57
(g78
g59
NtRp1225
(dp1226
g62
(dp1227
g82
g83
ssg71
g1221
sg64
(lp1228
S'remote_addr'
p1229
asbag57
(g78
g59
NtRp1230
(dp1231
g62
(dp1232
g89
g90
ssg71
g1221
sg64
(lp1233
S':'
asbag57
(g78
g59
NtRp1234
(dp1235
g62
(dp1236
sg71
g1221
sg64
(lp1237
g57
(g58
g59
NtRp1238
(dp1239
g62
(dp1240
g70
I4
ssg71
g1234
sg64
(lp1241
g190
asbasbasbag57
(g73
g59
NtRp1242
(dp1243
g62
(dp1244
sg71
g822
sg64
(lp1245
g57
(g78
g59
NtRp1246
(dp1247
g62
(dp1248
g82
g83
ssg71
g1242
sg64
(lp1249
S'remote_port'
p1250
asbag57
(g78
g59
NtRp1251
(dp1252
g62
(dp1253
g89
g90
ssg71
g1242
sg64
(lp1254
S':'
asbag57
(g78
g59
NtRp1255
(dp1256
g62
(dp1257
sg71
g1242
sg64
(lp1258
g57
(g58
g59
NtRp1259
(dp1260
g62
(dp1261
g70
I4
ssg71
g1255
sg64
(lp1262
S'39577'
p1263
asbasbasbag57
(g73
g59
NtRp1264
(dp1265
g62
(dp1266
sg71
g822
sg64
(lp1267
g57
(g78
g59
NtRp1268
(dp1269
g62
(dp1270
g82
g83
ssg71
g1264
sg64
(lp1271
S'request_method'
p1272
asbag57
(g78
g59
NtRp1273
(dp1274
g62
(dp1275
g89
g90
ssg71
g1264
sg64
(lp1276
S':'
asbag57
(g78
g59
NtRp1277
(dp1278
g62
(dp1279
sg71
g1264
sg64
(lp1280
g57
(g58
g59
NtRp1281
(dp1282
g62
(dp1283
g70
I4
ssg71
g1277
sg64
(lp1284
S'GET'
p1285
asbasbasbag57
(g73
g59
NtRp1286
(dp1287
g62
(dp1288
sg71
g822
sg64
(lp1289
g57
(g78
g59
NtRp1290
(dp1291
g62
(dp1292
g82
g83
ssg71
g1286
sg64
(lp1293
S'script_name'
p1294
asbag57
(g78
g59
NtRp1295
(dp1296
g62
(dp1297
g89
g90
ssg71
g1286
sg64
(lp1298
S':'
asbag57
(g78
g59
NtRp1299
(dp1300
g62
(dp1301
sg71
g1286
sg64
(lp1302
g57
(g58
g59
NtRp1303
(dp1304
g62
(dp1305
g70
I4
ssg71
g1299
sg64
(lp1306
S''
asbasbasbag57
(g73
g59
NtRp1307
(dp1308
g62
(dp1309
sg71
g822
sg64
(lp1310
g57
(g78
g59
NtRp1311
(dp1312
g62
(dp1313
g82
g83
ssg71
g1307
sg64
(lp1314
S'server_name'
p1315
asbag57
(g78
g59
NtRp1316
(dp1317
g62
(dp1318
g89
g90
ssg71
g1307
sg64
(lp1319
S':'
asbag57
(g78
g59
NtRp1320
(dp1321
g62
(dp1322
sg71
g1307
sg64
(lp1323
g57
(g58
g59
NtRp1324
(dp1325
g62
(dp1326
g70
I4
ssg71
g1320
sg64
(lp1327
S'vishrut-Vostro-1015'
p1328
asbasbasbag57
(g73
g59
NtRp1329
(dp1330
g62
(dp1331
sg71
g822
sg64
(lp1332
g57
(g78
g59
NtRp1333
(dp1334
g62
(dp1335
g82
g83
ssg71
g1329
sg64
(lp1336
S'server_port'
p1337
asbag57
(g78
g59
NtRp1338
(dp1339
g62
(dp1340
g89
g90
ssg71
g1329
sg64
(lp1341
S':'
asbag57
(g78
g59
NtRp1342
(dp1343
g62
(dp1344
sg71
g1329
sg64
(lp1345
g57
(g58
g59
NtRp1346
(dp1347
g62
(dp1348
g70
I4
ssg71
g1342
sg64
(lp1349
S'8000'
p1350
asbasbasbag57
(g73
g59
NtRp1351
(dp1352
g62
(dp1353
sg71
g822
sg64
(lp1354
g57
(g78
g59
NtRp1355
(dp1356
g62
(dp1357
g82
g83
ssg71
g1351
sg64
(lp1358
S'server_protocol'
p1359
asbag57
(g78
g59
NtRp1360
(dp1361
g62
(dp1362
g89
g90
ssg71
g1351
sg64
(lp1363
S':'
asbag57
(g78
g59
NtRp1364
(dp1365
g62
(dp1366
sg71
g1351
sg64
(lp1367
g57
(g58
g59
NtRp1368
(dp1369
g62
(dp1370
g70
I4
ssg71
g1364
sg64
(lp1371
S'HTTP/1.1'
p1372
asbasbasbag57
(g73
g59
NtRp1373
(dp1374
g62
(dp1375
sg71
g822
sg64
(lp1376
g57
(g78
g59
NtRp1377
(dp1378
g62
(dp1379
g82
g83
ssg71
g1373
sg64
(lp1380
S'server_software'
p1381
asbag57
(g78
g59
NtRp1382
(dp1383
g62
(dp1384
g89
g90
ssg71
g1373
sg64
(lp1385
S':'
asbag57
(g78
g59
NtRp1386
(dp1387
g62
(dp1388
sg71
g1373
sg64
(lp1389
g57
(g58
g59
NtRp1390
(dp1391
g62
(dp1392
g70
I4
ssg71
g1386
sg64
(lp1393
S'Rocket 1.2.4'
p1394
asbasbasbag57
(g73
g59
NtRp1395
(dp1396
g62
(dp1397
sg71
g822
sg64
(lp1398
g57
(g78
g59
NtRp1399
(dp1400
g62
(dp1401
g82
g83
ssg71
g1395
sg64
(lp1402
S'web2py_crontype'
p1403
asbag57
(g78
g59
NtRp1404
(dp1405
g62
(dp1406
g89
g90
ssg71
g1395
sg64
(lp1407
S':'
asbag57
(g78
g59
NtRp1408
(dp1409
g62
(dp1410
sg71
g1395
sg64
(lp1411
g57
(g58
g59
NtRp1412
(dp1413
g62
(dp1414
g70
I4
ssg71
g1408
sg64
(lp1415
S'hard'
p1416
asbasbasbag57
(g73
g59
NtRp1417
(dp1418
g62
(dp1419
sg71
g822
sg64
(lp1420
g57
(g78
g59
NtRp1421
(dp1422
g62
(dp1423
g82
g83
ssg71
g1417
sg64
(lp1424
S'web2py_path'
p1425
asbag57
(g78
g59
NtRp1426
(dp1427
g62
(dp1428
g89
g90
ssg71
g1417
sg64
(lp1429
S':'
asbag57
(g78
g59
NtRp1430
(dp1431
g62
(dp1432
sg71
g1417
sg64
(lp1433
g57
(g58
g59
NtRp1434
(dp1435
g62
(dp1436
g70
I4
ssg71
g1430
sg64
(lp1437
g869
asbasbasbag57
(g73
g59
NtRp1438
(dp1439
g62
(dp1440
sg71
g822
sg64
(lp1441
g57
(g78
g59
NtRp1442
(dp1443
g62
(dp1444
g82
g83
ssg71
g1438
sg64
(lp1445
S'web2py_version'
p1446
asbag57
(g78
g59
NtRp1447
(dp1448
g62
(dp1449
g89
g90
ssg71
g1438
sg64
(lp1450
S':'
asbag57
(g78
g59
NtRp1451
(dp1452
g62
(dp1453
sg71
g1438
sg64
(lp1454
g57
(g58
g59
NtRp1455
(dp1456
g62
(dp1457
g70
I4
ssg71
g1451
sg64
(lp1458
g57
(g66
g59
NtRp1459
(dp1460
g62
(dp1461
g70
I3
ssg71
Nsg64
(lp1462
g57
(g73
g59
NtRp1463
(dp1464
g62
(dp1465
sg71
g1459
sg64
(lp1466
g57
(g78
g59
NtRp1467
(dp1468
g62
(dp1469
sg71
g1463
sg64
(lp1470
g57
(g58
g59
NtRp1471
(dp1472
g62
(dp1473
g70
I3
ssg71
g1467
sg64
(lp1474
S'1'
asbasbasbag57
(g73
g59
NtRp1475
(dp1476
g62
(dp1477
sg71
g1459
sg64
(lp1478
g57
(g78
g59
NtRp1479
(dp1480
g62
(dp1481
sg71
g1475
sg64
(lp1482
g57
(g58
g59
NtRp1483
(dp1484
g62
(dp1485
g70
I3
ssg71
g1479
sg64
(lp1486
S'99'
p1487
asbasbasbag57
(g73
g59
NtRp1488
(dp1489
g62
(dp1490
sg71
g1459
sg64
(lp1491
g57
(g78
g59
NtRp1492
(dp1493
g62
(dp1494
sg71
g1488
sg64
(lp1495
g57
(g58
g59
NtRp1496
(dp1497
g62
(dp1498
g70
I3
ssg71
g1492
sg64
(lp1499
S'7'
asbasbasbag57
(g73
g59
NtRp1500
(dp1501
g62
(dp1502
sg71
g1459
sg64
(lp1503
g57
(g78
g59
NtRp1504
(dp1505
g62
(dp1506
sg71
g1500
sg64
(lp1507
g57
(g58
g59
NtRp1508
(dp1509
g62
(dp1510
g70
I3
ssg71
g1504
sg64
(lp1511
S'datetime.datetime(2012, 3, 4, 22, 12, 8)'
p1512
asbasbasbag57
(g73
g59
NtRp1513
(dp1514
g62
(dp1515
sg71
g1459
sg64
(lp1516
g57
(g78
g59
NtRp1517
(dp1518
g62
(dp1519
sg71
g1513
sg64
(lp1520
g57
(g58
g59
NtRp1521
(dp1522
g62
(dp1523
g70
I3
ssg71
g1517
sg64
(lp1524
S'stable'
p1525
asbasbasbasbasbasbasbag57
(g73
g59
NtRp1526
(dp1527
g62
(dp1528
sg71
g822
sg64
(lp1529
g57
(g78
g59
NtRp1530
(dp1531
g62
(dp1532
g82
g83
ssg71
g1526
sg64
(lp1533
S'wsgi_errors'
p1534
asbag57
(g78
g59
NtRp1535
(dp1536
g62
(dp1537
g89
g90
ssg71
g1526
sg64
(lp1538
S':'
asbag57
(g78
g59
NtRp1539
(dp1540
g62
(dp1541
sg71
g1526
sg64
(lp1542
g57
(g58
g59
NtRp1543
(dp1544
g62
(dp1545
g70
I4
ssg71
g1539
sg64
(lp1546
S"<open file '<stderr>', mode 'w' at 0xb76f20d0>"
p1547
asbasbasbag57
(g73
g59
NtRp1548
(dp1549
g62
(dp1550
sg71
g822
sg64
(lp1551
g57
(g78
g59
NtRp1552
(dp1553
g62
(dp1554
g82
g83
ssg71
g1548
sg64
(lp1555
S'wsgi_file_wrapper'
p1556
asbag57
(g78
g59
NtRp1557
(dp1558
g62
(dp1559
g89
g90
ssg71
g1548
sg64
(lp1560
S':'
asbag57
(g78
g59
NtRp1561
(dp1562
g62
(dp1563
sg71
g1548
sg64
(lp1564
g57
(g58
g59
NtRp1565
(dp1566
g62
(dp1567
g70
I4
ssg71
g1561
sg64
(lp1568
S'<class wsgiref.util.FileWrapper at 0xa263fbc>'
p1569
asbasbasbag57
(g73
g59
NtRp1570
(dp1571
g62
(dp1572
sg71
g822
sg64
(lp1573
g57
(g78
g59
NtRp1574
(dp1575
g62
(dp1576
g82
g83
ssg71
g1570
sg64
(lp1577
S'wsgi_input'
p1578
asbag57
(g78
g59
NtRp1579
(dp1580
g62
(dp1581
g89
g90
ssg71
g1570
sg64
(lp1582
S':'
asbag57
(g78
g59
NtRp1583
(dp1584
g62
(dp1585
sg71
g1570
sg64
(lp1586
g57
(g58
g59
NtRp1587
(dp1588
g62
(dp1589
g70
I4
ssg71
g1583
sg64
(lp1590
S'<socket._fileobject object at 0xa926a2c>'
p1591
asbasbasbag57
(g73
g59
NtRp1592
(dp1593
g62
(dp1594
sg71
g822
sg64
(lp1595
g57
(g78
g59
NtRp1596
(dp1597
g62
(dp1598
g82
g83
ssg71
g1592
sg64
(lp1599
S'wsgi_multiprocess'
p1600
asbag57
(g78
g59
NtRp1601
(dp1602
g62
(dp1603
g89
g90
ssg71
g1592
sg64
(lp1604
S':'
asbag57
(g78
g59
NtRp1605
(dp1606
g62
(dp1607
sg71
g1592
sg64
(lp1608
g57
(g58
g59
NtRp1609
(dp1610
g62
(dp1611
g70
I4
ssg71
g1605
sg64
(lp1612
g100
asbasbasbag57
(g73
g59
NtRp1613
(dp1614
g62
(dp1615
sg71
g822
sg64
(lp1616
g57
(g78
g59
NtRp1617
(dp1618
g62
(dp1619
g82
g83
ssg71
g1613
sg64
(lp1620
S'wsgi_multithread'
p1621
asbag57
(g78
g59
NtRp1622
(dp1623
g62
(dp1624
g89
g90
ssg71
g1613
sg64
(lp1625
S':'
asbag57
(g78
g59
NtRp1626
(dp1627
g62
(dp1628
sg71
g1613
sg64
(lp1629
g57
(g58
g59
NtRp1630
(dp1631
g62
(dp1632
g70
I4
ssg71
g1626
sg64
(lp1633
S'True'
p1634
asbasbasbag57
(g73
g59
NtRp1635
(dp1636
g62
(dp1637
sg71
g822
sg64
(lp1638
g57
(g78
g59
NtRp1639
(dp1640
g62
(dp1641
g82
g83
ssg71
g1635
sg64
(lp1642
S'wsgi_run_once'
p1643
asbag57
(g78
g59
NtRp1644
(dp1645
g62
(dp1646
g89
g90
ssg71
g1635
sg64
(lp1647
S':'
asbag57
(g78
g59
NtRp1648
(dp1649
g62
(dp1650
sg71
g1635
sg64
(lp1651
g57
(g58
g59
NtRp1652
(dp1653
g62
(dp1654
g70
I4
ssg71
g1648
sg64
(lp1655
g100
asbasbasbag57
(g73
g59
NtRp1656
(dp1657
g62
(dp1658
sg71
g822
sg64
(lp1659
g57
(g78
g59
NtRp1660
(dp1661
g62
(dp1662
g82
g83
ssg71
g1656
sg64
(lp1663
S'wsgi_url_scheme'
p1664
asbag57
(g78
g59
NtRp1665
(dp1666
g62
(dp1667
g89
g90
ssg71
g1656
sg64
(lp1668
S':'
asbag57
(g78
g59
NtRp1669
(dp1670
g62
(dp1671
sg71
g1656
sg64
(lp1672
g57
(g58
g59
NtRp1673
(dp1674
g62
(dp1675
g70
I4
ssg71
g1669
sg64
(lp1676
S'http'
p1677
asbasbasbag57
(g73
g59
NtRp1678
(dp1679
g62
(dp1680
sg71
g822
sg64
(lp1681
g57
(g78
g59
NtRp1682
(dp1683
g62
(dp1684
g82
g83
ssg71
g1678
sg64
(lp1685
S'wsgi_version'
p1686
asbag57
(g78
g59
NtRp1687
(dp1688
g62
(dp1689
g89
g90
ssg71
g1678
sg64
(lp1690
S':'
asbag57
(g78
g59
NtRp1691
(dp1692
g62
(dp1693
sg71
g1678
sg64
(lp1694
g57
(g58
g59
NtRp1695
(dp1696
g62
(dp1697
g70
I4
ssg71
g1691
sg64
(lp1698
g57
(g66
g59
NtRp1699
(dp1700
g62
(dp1701
g70
I3
ssg71
Nsg64
(lp1702
g57
(g73
g59
NtRp1703
(dp1704
g62
(dp1705
sg71
g1699
sg64
(lp1706
g57
(g78
g59
NtRp1707
(dp1708
g62
(dp1709
sg71
g1703
sg64
(lp1710
g57
(g58
g59
NtRp1711
(dp1712
g62
(dp1713
g70
I3
ssg71
g1707
sg64
(lp1714
S'1'
asbasbasbag57
(g73
g59
NtRp1715
(dp1716
g62
(dp1717
sg71
g1699
sg64
(lp1718
g57
(g78
g59
NtRp1719
(dp1720
g62
(dp1721
sg71
g1715
sg64
(lp1722
g57
(g58
g59
NtRp1723
(dp1724
g62
(dp1725
g70
I3
ssg71
g1719
sg64
(lp1726
S'0'
asbasbasbasbasbasbasbasbasbasbasbag57
(g73
g59
NtRp1727
(dp1728
g62
(dp1729
sg71
g67
sg64
(lp1730
g57
(g78
g59
NtRp1731
(dp1732
g62
(dp1733
g82
g83
ssg71
g1727
sg64
(lp1734
S'extension'
p1735
asbag57
(g78
g59
NtRp1736
(dp1737
g62
(dp1738
g89
g90
ssg71
g1727
sg64
(lp1739
S':'
asbag57
(g78
g59
NtRp1740
(dp1741
g62
(dp1742
sg71
g1727
sg64
(lp1743
g57
(g58
g59
NtRp1744
(dp1745
g62
(dp1746
g70
I5
ssg71
g1740
sg64
(lp1747
S'html'
p1748
asbasbasbag57
(g73
g59
NtRp1749
(dp1750
g62
(dp1751
sg71
g67
sg64
(lp1752
g57
(g78
g59
NtRp1753
(dp1754
g62
(dp1755
g82
g83
ssg71
g1749
sg64
(lp1756
S'folder'
p1757
asbag57
(g78
g59
NtRp1758
(dp1759
g62
(dp1760
g89
g90
ssg71
g1749
sg64
(lp1761
S':'
asbag57
(g78
g59
NtRp1762
(dp1763
g62
(dp1764
sg71
g1749
sg64
(lp1765
g57
(g58
g59
NtRp1766
(dp1767
g62
(dp1768
g70
I5
ssg71
g1762
sg64
(lp1769
S'/home/vishrut/web2py/applications/astra2/'
p1770
asbasbasbag57
(g73
g59
NtRp1771
(dp1772
g62
(dp1773
sg71
g67
sg64
(lp1774
g57
(g78
g59
NtRp1775
(dp1776
g62
(dp1777
g82
g83
ssg71
g1771
sg64
(lp1778
S'function'
p1779
asbag57
(g78
g59
NtRp1780
(dp1781
g62
(dp1782
g89
g90
ssg71
g1771
sg64
(lp1783
S':'
asbag57
(g78
g59
NtRp1784
(dp1785
g62
(dp1786
sg71
g1771
sg64
(lp1787
g57
(g58
g59
NtRp1788
(dp1789
g62
(dp1790
g70
I5
ssg71
g1784
sg64
(lp1791
S'upframe'
p1792
asbasbasbag57
(g73
g59
NtRp1793
(dp1794
g62
(dp1795
sg71
g67
sg64
(lp1796
g57
(g78
g59
NtRp1797
(dp1798
g62
(dp1799
g82
g83
ssg71
g1793
sg64
(lp1800
S'get_vars'
p1801
asbag57
(g78
g59
NtRp1802
(dp1803
g62
(dp1804
g89
g90
ssg71
g1793
sg64
(lp1805
S':'
asbag57
(g78
g59
NtRp1806
(dp1807
g62
(dp1808
sg71
g1793
sg64
(lp1809
g57
(g58
g59
NtRp1810
(dp1811
g62
(dp1812
g70
I5
ssg71
g1806
sg64
(lp1813
g57
(g66
g59
NtRp1814
(dp1815
g62
(dp1816
g70
I4
ssg71
Nsg64
(lp1817
sbasbasbasbag57
(g73
g59
NtRp1818
(dp1819
g62
(dp1820
sg71
g67
sg64
(lp1821
g57
(g78
g59
NtRp1822
(dp1823
g62
(dp1824
g82
g83
ssg71
g1818
sg64
(lp1825
S'global_settings'
p1826
asbag57
(g78
g59
NtRp1827
(dp1828
g62
(dp1829
g89
g90
ssg71
g1818
sg64
(lp1830
S':'
asbag57
(g78
g59
NtRp1831
(dp1832
g62
(dp1833
sg71
g1818
sg64
(lp1834
g57
(g58
g59
NtRp1835
(dp1836
g62
(dp1837
g70
I5
ssg71
g1831
sg64
(lp1838
g57
(g66
g59
NtRp1839
(dp1840
g62
(dp1841
g70
I4
ssg71
Nsg64
(lp1842
g57
(g73
g59
NtRp1843
(dp1844
g62
(dp1845
sg71
g1839
sg64
(lp1846
g57
(g78
g59
NtRp1847
(dp1848
g62
(dp1849
g82
g83
ssg71
g1843
sg64
(lp1850
g834
asbag57
(g78
g59
NtRp1851
(dp1852
g62
(dp1853
g89
g90
ssg71
g1843
sg64
(lp1854
S':'
asbag57
(g78
g59
NtRp1855
(dp1856
g62
(dp1857
sg71
g1843
sg64
(lp1858
g57
(g58
g59
NtRp1859
(dp1860
g62
(dp1861
g70
I4
ssg71
g1855
sg64
(lp1862
S"set(['/home/vishrut/web2py/applications/astra2/', '/home/vishrut/web2py/applications/admin/', '/home/vishrut/web2py/applications/welcome/'])"
p1863
asbasbasbag57
(g73
g59
NtRp1864
(dp1865
g62
(dp1866
sg71
g1839
sg64
(lp1867
g57
(g78
g59
NtRp1868
(dp1869
g62
(dp1870
g82
g83
ssg71
g1864
sg64
(lp1871
g856
asbag57
(g78
g59
NtRp1872
(dp1873
g62
(dp1874
g89
g90
ssg71
g1864
sg64
(lp1875
S':'
asbag57
(g78
g59
NtRp1876
(dp1877
g62
(dp1878
sg71
g1864
sg64
(lp1879
g57
(g58
g59
NtRp1880
(dp1881
g62
(dp1882
g70
I4
ssg71
g1876
sg64
(lp1883
g869
asbasbasbag57
(g73
g59
NtRp1884
(dp1885
g62
(dp1886
sg71
g1839
sg64
(lp1887
g57
(g78
g59
NtRp1888
(dp1889
g62
(dp1890
g82
g83
ssg71
g1884
sg64
(lp1891
g878
asbag57
(g78
g59
NtRp1892
(dp1893
g62
(dp1894
g89
g90
ssg71
g1884
sg64
(lp1895
S':'
asbag57
(g78
g59
NtRp1896
(dp1897
g62
(dp1898
sg71
g1884
sg64
(lp1899
g57
(g58
g59
NtRp1900
(dp1901
g62
(dp1902
g70
I4
ssg71
g1896
sg64
(lp1903
g57
(g66
g59
NtRp1904
(dp1905
g62
(dp1906
g70
I3
ssg71
Nsg64
(lp1907
sbasbasbasbag57
(g73
g59
NtRp1908
(dp1909
g62
(dp1910
sg71
g1839
sg64
(lp1911
g57
(g78
g59
NtRp1912
(dp1913
g62
(dp1914
g82
g83
ssg71
g1908
sg64
(lp1915
g903
asbag57
(g78
g59
NtRp1916
(dp1917
g62
(dp1918
g89
g90
ssg71
g1908
sg64
(lp1919
S':'
asbag57
(g78
g59
NtRp1920
(dp1921
g62
(dp1922
sg71
g1908
sg64
(lp1923
g57
(g58
g59
NtRp1924
(dp1925
g62
(dp1926
g70
I4
ssg71
g1920
sg64
(lp1927
S"<Values at 0xa343c6c: {'verbose': False, 'ip': '10.1.40.173', 'shutdown_timeout': 5, 'taskbar': False, 'nocron': False, 'pid_filename': 'httpserver.pid', 'maxthreads': None, 'softcron': False, 'server_name': 'vishrut-Vostro-1015', 'bpython': False, 'nogui': False, 'port': 8000, 'extcron': False, 'debuglevel': 30, 'test': None, 'folder': '/home/vishrut/web2py', 'config': '', 'import_models': False, 'winservice': '', 'shell': None, 'run': '', 'log_filename': 'httpserver.log', 'args': [''], 'socket_timeout': 5, 'ssl_ca_certificate': None, 'scheduler': None, 'profiler_filename': None, 'ssl_private_key': '', 'password': '<ask>', 'request_queue_size': 5, 'ssl_certificate': '', 'cronjob': False, 'numthreads': None, 'quiet': False, 'interfaces': None, 'minthreads': None, 'timeout': 10, 'plain': False, 'nobanner': False}>"
p1928
asbasbasbag57
(g73
g59
NtRp1929
(dp1930
g62
(dp1931
sg71
g1839
sg64
(lp1932
g57
(g78
g59
NtRp1933
(dp1934
g62
(dp1935
g82
g83
ssg71
g1929
sg64
(lp1936
g925
asbag57
(g78
g59
NtRp1937
(dp1938
g62
(dp1939
g89
g90
ssg71
g1929
sg64
(lp1940
S':'
asbag57
(g78
g59
NtRp1941
(dp1942
g62
(dp1943
sg71
g1929
sg64
(lp1944
g57
(g58
g59
NtRp1945
(dp1946
g62
(dp1947
g70
I4
ssg71
g1941
sg64
(lp1948
S'set([])'
p1949
asbasbasbag57
(g73
g59
NtRp1950
(dp1951
g62
(dp1952
sg71
g1839
sg64
(lp1953
g57
(g78
g59
NtRp1954
(dp1955
g62
(dp1956
g82
g83
ssg71
g1950
sg64
(lp1957
g947
asbag57
(g78
g59
NtRp1958
(dp1959
g62
(dp1960
g89
g90
ssg71
g1950
sg64
(lp1961
S':'
asbag57
(g78
g59
NtRp1962
(dp1963
g62
(dp1964
sg71
g1950
sg64
(lp1965
g57
(g58
g59
NtRp1966
(dp1967
g62
(dp1968
g70
I4
ssg71
g1962
sg64
(lp1969
g100
asbasbasbag57
(g73
g59
NtRp1970
(dp1971
g62
(dp1972
sg71
g1839
sg64
(lp1973
g57
(g78
g59
NtRp1974
(dp1975
g62
(dp1976
g82
g83
ssg71
g1970
sg64
(lp1977
g968
asbag57
(g78
g59
NtRp1978
(dp1979
g62
(dp1980
g89
g90
ssg71
g1970
sg64
(lp1981
S':'
asbag57
(g78
g59
NtRp1982
(dp1983
g62
(dp1984
sg71
g1970
sg64
(lp1985
g57
(g58
g59
NtRp1986
(dp1987
g62
(dp1988
g70
I4
ssg71
g1982
sg64
(lp1989
g981
asbasbasbag57
(g73
g59
NtRp1990
(dp1991
g62
(dp1992
sg71
g1839
sg64
(lp1993
g57
(g78
g59
NtRp1994
(dp1995
g62
(dp1996
g82
g83
ssg71
g1990
sg64
(lp1997
g1144
asbag57
(g78
g59
NtRp1998
(dp1999
g62
(dp2000
g89
g90
ssg71
g1990
sg64
(lp2001
S':'
asbag57
(g78
g59
NtRp2002
(dp2003
g62
(dp2004
sg71
g1990
sg64
(lp2005
g57
(g58
g59
NtRp2006
(dp2007
g62
(dp2008
g70
I4
ssg71
g2002
sg64
(lp2009
g100
asbasbasbag57
(g73
g59
NtRp2010
(dp2011
g62
(dp2012
sg71
g1839
sg64
(lp2013
g57
(g78
g59
NtRp2014
(dp2015
g62
(dp2016
g82
g83
ssg71
g2010
sg64
(lp2017
g1165
asbag57
(g78
g59
NtRp2018
(dp2019
g62
(dp2020
g89
g90
ssg71
g2010
sg64
(lp2021
S':'
asbag57
(g78
g59
NtRp2022
(dp2023
g62
(dp2024
sg71
g2010
sg64
(lp2025
g57
(g58
g59
NtRp2026
(dp2027
g62
(dp2028
g70
I4
ssg71
g2022
sg64
(lp2029
g100
asbasbasbag57
(g73
g59
NtRp2030
(dp2031
g62
(dp2032
sg71
g1839
sg64
(lp2033
g57
(g78
g59
NtRp2034
(dp2035
g62
(dp2036
g82
g83
ssg71
g2030
sg64
(lp2037
g1403
asbag57
(g78
g59
NtRp2038
(dp2039
g62
(dp2040
g89
g90
ssg71
g2030
sg64
(lp2041
S':'
asbag57
(g78
g59
NtRp2042
(dp2043
g62
(dp2044
sg71
g2030
sg64
(lp2045
g57
(g58
g59
NtRp2046
(dp2047
g62
(dp2048
g70
I4
ssg71
g2042
sg64
(lp2049
g1416
asbasbasbag57
(g73
g59
NtRp2050
(dp2051
g62
(dp2052
sg71
g1839
sg64
(lp2053
g57
(g78
g59
NtRp2054
(dp2055
g62
(dp2056
g82
g83
ssg71
g2050
sg64
(lp2057
g1446
asbag57
(g78
g59
NtRp2058
(dp2059
g62
(dp2060
g89
g90
ssg71
g2050
sg64
(lp2061
S':'
asbag57
(g78
g59
NtRp2062
(dp2063
g62
(dp2064
sg71
g2050
sg64
(lp2065
g57
(g58
g59
NtRp2066
(dp2067
g62
(dp2068
g70
I4
ssg71
g2062
sg64
(lp2069
g57
(g66
g59
NtRp2070
(dp2071
g62
(dp2072
g70
I3
ssg71
Nsg64
(lp2073
g57
(g73
g59
NtRp2074
(dp2075
g62
(dp2076
sg71
g2070
sg64
(lp2077
g57
(g78
g59
NtRp2078
(dp2079
g62
(dp2080
sg71
g2074
sg64
(lp2081
g57
(g58
g59
NtRp2082
(dp2083
g62
(dp2084
g70
I3
ssg71
g2078
sg64
(lp2085
S'1'
asbasbasbag57
(g73
g59
NtRp2086
(dp2087
g62
(dp2088
sg71
g2070
sg64
(lp2089
g57
(g78
g59
NtRp2090
(dp2091
g62
(dp2092
sg71
g2086
sg64
(lp2093
g57
(g58
g59
NtRp2094
(dp2095
g62
(dp2096
g70
I3
ssg71
g2090
sg64
(lp2097
S'99'
p2098
asbasbasbag57
(g73
g59
NtRp2099
(dp2100
g62
(dp2101
sg71
g2070
sg64
(lp2102
g57
(g78
g59
NtRp2103
(dp2104
g62
(dp2105
sg71
g2099
sg64
(lp2106
g57
(g58
g59
NtRp2107
(dp2108
g62
(dp2109
g70
I3
ssg71
g2103
sg64
(lp2110
S'7'
asbasbasbag57
(g73
g59
NtRp2111
(dp2112
g62
(dp2113
sg71
g2070
sg64
(lp2114
g57
(g78
g59
NtRp2115
(dp2116
g62
(dp2117
sg71
g2111
sg64
(lp2118
g57
(g58
g59
NtRp2119
(dp2120
g62
(dp2121
g70
I3
ssg71
g2115
sg64
(lp2122
S'datetime.datetime(2012, 3, 4, 22, 12, 8)'
p2123
asbasbasbag57
(g73
g59
NtRp2124
(dp2125
g62
(dp2126
sg71
g2070
sg64
(lp2127
g57
(g78
g59
NtRp2128
(dp2129
g62
(dp2130
sg71
g2124
sg64
(lp2131
g57
(g58
g59
NtRp2132
(dp2133
g62
(dp2134
g70
I3
ssg71
g2128
sg64
(lp2135
g1525
asbasbasbasbasbasbasbasbasbasbasbag57
(g73
g59
NtRp2136
(dp2137
g62
(dp2138
sg71
g67
sg64
(lp2139
g57
(g78
g59
NtRp2140
(dp2141
g62
(dp2142
g82
g83
ssg71
g2136
sg64
(lp2143
S'is_https'
p2144
asbag57
(g78
g59
NtRp2145
(dp2146
g62
(dp2147
g89
g90
ssg71
g2136
sg64
(lp2148
S':'
asbag57
(g78
g59
NtRp2149
(dp2150
g62
(dp2151
sg71
g2136
sg64
(lp2152
g57
(g58
g59
NtRp2153
(dp2154
g62
(dp2155
g70
I5
ssg71
g2149
sg64
(lp2156
g100
asbasbasbag57
(g73
g59
NtRp2157
(dp2158
g62
(dp2159
sg71
g67
sg64
(lp2160
g57
(g78
g59
NtRp2161
(dp2162
g62
(dp2163
g82
g83
ssg71
g2157
sg64
(lp2164
S'is_local'
p2165
asbag57
(g78
g59
NtRp2166
(dp2167
g62
(dp2168
g89
g90
ssg71
g2157
sg64
(lp2169
S':'
asbag57
(g78
g59
NtRp2170
(dp2171
g62
(dp2172
sg71
g2157
sg64
(lp2173
g57
(g58
g59
NtRp2174
(dp2175
g62
(dp2176
g70
I5
ssg71
g2170
sg64
(lp2177
g1634
asbasbasbag57
(g73
g59
NtRp2178
(dp2179
g62
(dp2180
sg71
g67
sg64
(lp2181
g57
(g78
g59
NtRp2182
(dp2183
g62
(dp2184
g82
g83
ssg71
g2178
sg64
(lp2185
S'is_restful'
p2186
asbag57
(g78
g59
NtRp2187
(dp2188
g62
(dp2189
g89
g90
ssg71
g2178
sg64
(lp2190
S':'
asbag57
(g78
g59
NtRp2191
(dp2192
g62
(dp2193
sg71
g2178
sg64
(lp2194
g57
(g58
g59
NtRp2195
(dp2196
g62
(dp2197
g70
I5
ssg71
g2191
sg64
(lp2198
g100
asbasbasbag57
(g73
g59
NtRp2199
(dp2200
g62
(dp2201
sg71
g67
sg64
(lp2202
g57
(g78
g59
NtRp2203
(dp2204
g62
(dp2205
g82
g83
ssg71
g2199
sg64
(lp2206
S'now'
p2207
asbag57
(g78
g59
NtRp2208
(dp2209
g62
(dp2210
g89
g90
ssg71
g2199
sg64
(lp2211
S':'
asbag57
(g78
g59
NtRp2212
(dp2213
g62
(dp2214
sg71
g2199
sg64
(lp2215
g57
(g58
g59
NtRp2216
(dp2217
g62
(dp2218
g70
I5
ssg71
g2212
sg64
(lp2219
S'datetime.datetime(2012, 11, 15, 1, 1, 13, 80448)'
p2220
asbasbasbag57
(g73
g59
NtRp2221
(dp2222
g62
(dp2223
sg71
g67
sg64
(lp2224
g57
(g78
g59
NtRp2225
(dp2226
g62
(dp2227
g82
g83
ssg71
g2221
sg64
(lp2228
S'post_vars'
p2229
asbag57
(g78
g59
NtRp2230
(dp2231
g62
(dp2232
g89
g90
ssg71
g2221
sg64
(lp2233
S':'
asbag57
(g78
g59
NtRp2234
(dp2235
g62
(dp2236
sg71
g2221
sg64
(lp2237
g57
(g58
g59
NtRp2238
(dp2239
g62
(dp2240
g70
I5
ssg71
g2234
sg64
(lp2241
g57
(g66
g59
NtRp2242
(dp2243
g62
(dp2244
g70
I4
ssg71
Nsg64
(lp2245
sbasbasbasbag57
(g73
g59
NtRp2246
(dp2247
g62
(dp2248
sg71
g67
sg64
(lp2249
g57
(g78
g59
NtRp2250
(dp2251
g62
(dp2252
g82
g83
ssg71
g2246
sg64
(lp2253
S'raw_extension'
p2254
asbag57
(g78
g59
NtRp2255
(dp2256
g62
(dp2257
g89
g90
ssg71
g2246
sg64
(lp2258
S':'
asbag57
(g78
g59
NtRp2259
(dp2260
g62
(dp2261
sg71
g2246
sg64
(lp2262
g57
(g58
g59
NtRp2263
(dp2264
g62
(dp2265
g70
I5
ssg71
g2259
sg64
(lp2266
g1748
asbasbasbag57
(g73
g59
NtRp2267
(dp2268
g62
(dp2269
sg71
g67
sg64
(lp2270
g57
(g78
g59
NtRp2271
(dp2272
g62
(dp2273
g82
g83
ssg71
g2267
sg64
(lp2274
S'url'
p2275
asbag57
(g78
g59
NtRp2276
(dp2277
g62
(dp2278
g89
g90
ssg71
g2267
sg64
(lp2279
S':'
asbag57
(g78
g59
NtRp2280
(dp2281
g62
(dp2282
sg71
g2267
sg64
(lp2283
g57
(g58
g59
NtRp2284
(dp2285
g62
(dp2286
g70
I5
ssg71
g2280
sg64
(lp2287
S'/astra2/default/upframe.html'
p2288
asbasbasbag57
(g73
g59
NtRp2289
(dp2290
g62
(dp2291
sg71
g67
sg64
(lp2292
g57
(g78
g59
NtRp2293
(dp2294
g62
(dp2295
g82
g83
ssg71
g2289
sg64
(lp2296
S'utcnow'
p2297
asbag57
(g78
g59
NtRp2298
(dp2299
g62
(dp2300
g89
g90
ssg71
g2289
sg64
(lp2301
S':'
asbag57
(g78
g59
NtRp2302
(dp2303
g62
(dp2304
sg71
g2289
sg64
(lp2305
g57
(g58
g59
NtRp2306
(dp2307
g62
(dp2308
g70
I5
ssg71
g2302
sg64
(lp2309
S'datetime.datetime(2012, 11, 14, 20, 1, 13, 80484)'
p2310
asbasbasbag57
(g73
g59
NtRp2311
(dp2312
g62
(dp2313
sg71
g67
sg64
(lp2314
g57
(g78
g59
NtRp2315
(dp2316
g62
(dp2317
g82
g83
ssg71
g2311
sg64
(lp2318
S'uuid'
p2319
asbag57
(g78
g59
NtRp2320
(dp2321
g62
(dp2322
g89
g90
ssg71
g2311
sg64
(lp2323
S':'
asbag57
(g78
g59
NtRp2324
(dp2325
g62
(dp2326
sg71
g2311
sg64
(lp2327
g57
(g58
g59
NtRp2328
(dp2329
g62
(dp2330
g70
I5
ssg71
g2324
sg64
(lp2331
S'astra2/10.1.40.173.2012-11-15.01-01-13.a01bd063-0618-432d-899a-d4659d5effd7'
p2332
asbasbasbag57
(g73
g59
NtRp2333
(dp2334
g62
(dp2335
sg71
g67
sg64
(lp2336
g57
(g78
g59
NtRp2337
(dp2338
g62
(dp2339
g82
g83
ssg71
g2333
sg64
(lp2340
S'vars'
p2341
asbag57
(g78
g59
NtRp2342
(dp2343
g62
(dp2344
g89
g90
ssg71
g2333
sg64
(lp2345
S':'
asbag57
(g78
g59
NtRp2346
(dp2347
g62
(dp2348
sg71
g2333
sg64
(lp2349
g57
(g58
g59
NtRp2350
(dp2351
g62
(dp2352
g70
I5
ssg71
g2346
sg64
(lp2353
g57
(g66
g59
NtRp2354
(dp2355
g62
(dp2356
g70
I4
ssg71
Nsg64
(lp2357
sbasbasbasbag57
(g73
g59
NtRp2358
(dp2359
g62
(dp2360
sg71
g67
sg64
(lp2361
g57
(g78
g59
NtRp2362
(dp2363
g62
(dp2364
g82
g83
ssg71
g2358
sg64
(lp2365
S'wsgi'
p2366
asbag57
(g78
g59
NtRp2367
(dp2368
g62
(dp2369
g89
g90
ssg71
g2358
sg64
(lp2370
S':'
asbag57
(g78
g59
NtRp2371
(dp2372
g62
(dp2373
sg71
g2358
sg64
(lp2374
g57
(g58
g59
NtRp2375
(dp2376
g62
(dp2377
g70
I5
ssg71
g2371
sg64
(lp2378
g57
(g66
g59
NtRp2379
(dp2380
g62
(dp2381
g70
I4
ssg71
Nsg64
(lp2382
g57
(g73
g59
NtRp2383
(dp2384
g62
(dp2385
sg71
g2379
sg64
(lp2386
g57
(g78
g59
NtRp2387
(dp2388
g62
(dp2389
g82
g83
ssg71
g2383
sg64
(lp2390
S'environ'
p2391
asbag57
(g78
g59
NtRp2392
(dp2393
g62
(dp2394
g89
g90
ssg71
g2383
sg64
(lp2395
S':'
asbag57
(g78
g59
NtRp2396
(dp2397
g62
(dp2398
sg71
g2383
sg64
(lp2399
g57
(g58
g59
NtRp2400
(dp2401
g62
(dp2402
g70
I4
ssg71
g2396
sg64
(lp2403
g57
(g66
g59
NtRp2404
(dp2405
g62
(dp2406
g70
I3
ssg71
Nsg64
(lp2407
g57
(g73
g59
NtRp2408
(dp2409
g62
(dp2410
sg71
g2404
sg64
(lp2411
g57
(g78
g59
NtRp2412
(dp2413
g62
(dp2414
g82
g83
ssg71
g2408
sg64
(lp2415
S'HTTP_ACCEPT'
p2416
asbag57
(g78
g59
NtRp2417
(dp2418
g62
(dp2419
g89
g90
ssg71
g2408
sg64
(lp2420
S':'
asbag57
(g78
g59
NtRp2421
(dp2422
g62
(dp2423
sg71
g2408
sg64
(lp2424
g57
(g58
g59
NtRp2425
(dp2426
g62
(dp2427
g70
I3
ssg71
g2421
sg64
(lp2428
g1003
asbasbasbag57
(g73
g59
NtRp2429
(dp2430
g62
(dp2431
sg71
g2404
sg64
(lp2432
g57
(g78
g59
NtRp2433
(dp2434
g62
(dp2435
g82
g83
ssg71
g2429
sg64
(lp2436
S'HTTP_ACCEPT_ENCODING'
p2437
asbag57
(g78
g59
NtRp2438
(dp2439
g62
(dp2440
g89
g90
ssg71
g2429
sg64
(lp2441
S':'
asbag57
(g78
g59
NtRp2442
(dp2443
g62
(dp2444
sg71
g2429
sg64
(lp2445
g57
(g58
g59
NtRp2446
(dp2447
g62
(dp2448
g70
I3
ssg71
g2442
sg64
(lp2449
g1025
asbasbasbag57
(g73
g59
NtRp2450
(dp2451
g62
(dp2452
sg71
g2404
sg64
(lp2453
g57
(g78
g59
NtRp2454
(dp2455
g62
(dp2456
g82
g83
ssg71
g2450
sg64
(lp2457
S'HTTP_ACCEPT_LANGUAGE'
p2458
asbag57
(g78
g59
NtRp2459
(dp2460
g62
(dp2461
g89
g90
ssg71
g2450
sg64
(lp2462
S':'
asbag57
(g78
g59
NtRp2463
(dp2464
g62
(dp2465
sg71
g2450
sg64
(lp2466
g57
(g58
g59
NtRp2467
(dp2468
g62
(dp2469
g70
I3
ssg71
g2463
sg64
(lp2470
g1047
asbasbasbag57
(g73
g59
NtRp2471
(dp2472
g62
(dp2473
sg71
g2404
sg64
(lp2474
g57
(g78
g59
NtRp2475
(dp2476
g62
(dp2477
g82
g83
ssg71
g2471
sg64
(lp2478
S'HTTP_CONNECTION'
p2479
asbag57
(g78
g59
NtRp2480
(dp2481
g62
(dp2482
g89
g90
ssg71
g2471
sg64
(lp2483
S':'
asbag57
(g78
g59
NtRp2484
(dp2485
g62
(dp2486
sg71
g2471
sg64
(lp2487
g57
(g58
g59
NtRp2488
(dp2489
g62
(dp2490
g70
I3
ssg71
g2484
sg64
(lp2491
g1069
asbasbasbag57
(g73
g59
NtRp2492
(dp2493
g62
(dp2494
sg71
g2404
sg64
(lp2495
g57
(g78
g59
NtRp2496
(dp2497
g62
(dp2498
g82
g83
ssg71
g2492
sg64
(lp2499
S'HTTP_COOKIE'
p2500
asbag57
(g78
g59
NtRp2501
(dp2502
g62
(dp2503
g89
g90
ssg71
g2492
sg64
(lp2504
S':'
asbag57
(g78
g59
NtRp2505
(dp2506
g62
(dp2507
sg71
g2492
sg64
(lp2508
g57
(g58
g59
NtRp2509
(dp2510
g62
(dp2511
g70
I3
ssg71
g2505
sg64
(lp2512
g1091
asbasbasbag57
(g73
g59
NtRp2513
(dp2514
g62
(dp2515
sg71
g2404
sg64
(lp2516
g57
(g78
g59
NtRp2517
(dp2518
g62
(dp2519
g82
g83
ssg71
g2513
sg64
(lp2520
S'HTTP_HOST'
p2521
asbag57
(g78
g59
NtRp2522
(dp2523
g62
(dp2524
g89
g90
ssg71
g2513
sg64
(lp2525
S':'
asbag57
(g78
g59
NtRp2526
(dp2527
g62
(dp2528
sg71
g2513
sg64
(lp2529
g57
(g58
g59
NtRp2530
(dp2531
g62
(dp2532
g70
I3
ssg71
g2526
sg64
(lp2533
g1113
asbasbasbag57
(g73
g59
NtRp2534
(dp2535
g62
(dp2536
sg71
g2404
sg64
(lp2537
g57
(g78
g59
NtRp2538
(dp2539
g62
(dp2540
g82
g83
ssg71
g2534
sg64
(lp2541
S'HTTP_USER_AGENT'
p2542
asbag57
(g78
g59
NtRp2543
(dp2544
g62
(dp2545
g89
g90
ssg71
g2534
sg64
(lp2546
S':'
asbag57
(g78
g59
NtRp2547
(dp2548
g62
(dp2549
sg71
g2534
sg64
(lp2550
g57
(g58
g59
NtRp2551
(dp2552
g62
(dp2553
g70
I3
ssg71
g2547
sg64
(lp2554
g1135
asbasbasbag57
(g73
g59
NtRp2555
(dp2556
g62
(dp2557
sg71
g2404
sg64
(lp2558
g57
(g78
g59
NtRp2559
(dp2560
g62
(dp2561
g82
g83
ssg71
g2555
sg64
(lp2562
S'PATH_INFO'
p2563
asbag57
(g78
g59
NtRp2564
(dp2565
g62
(dp2566
g89
g90
ssg71
g2555
sg64
(lp2567
S':'
asbag57
(g78
g59
NtRp2568
(dp2569
g62
(dp2570
sg71
g2555
sg64
(lp2571
g57
(g58
g59
NtRp2572
(dp2573
g62
(dp2574
g70
I3
ssg71
g2568
sg64
(lp2575
g1199
asbasbasbag57
(g73
g59
NtRp2576
(dp2577
g62
(dp2578
sg71
g2404
sg64
(lp2579
g57
(g78
g59
NtRp2580
(dp2581
g62
(dp2582
g82
g83
ssg71
g2576
sg64
(lp2583
S'QUERY_STRING'
p2584
asbag57
(g78
g59
NtRp2585
(dp2586
g62
(dp2587
g89
g90
ssg71
g2576
sg64
(lp2588
S':'
asbag57
(g78
g59
NtRp2589
(dp2590
g62
(dp2591
sg71
g2576
sg64
(lp2592
g57
(g58
g59
NtRp2593
(dp2594
g62
(dp2595
g70
I3
ssg71
g2589
sg64
(lp2596
S''
asbasbasbag57
(g73
g59
NtRp2597
(dp2598
g62
(dp2599
sg71
g2404
sg64
(lp2600
g57
(g78
g59
NtRp2601
(dp2602
g62
(dp2603
g82
g83
ssg71
g2597
sg64
(lp2604
S'REMOTE_ADDR'
p2605
asbag57
(g78
g59
NtRp2606
(dp2607
g62
(dp2608
g89
g90
ssg71
g2597
sg64
(lp2609
S':'
asbag57
(g78
g59
NtRp2610
(dp2611
g62
(dp2612
sg71
g2597
sg64
(lp2613
g57
(g58
g59
NtRp2614
(dp2615
g62
(dp2616
g70
I3
ssg71
g2610
sg64
(lp2617
g190
asbasbasbag57
(g73
g59
NtRp2618
(dp2619
g62
(dp2620
sg71
g2404
sg64
(lp2621
g57
(g78
g59
NtRp2622
(dp2623
g62
(dp2624
g82
g83
ssg71
g2618
sg64
(lp2625
S'REMOTE_PORT'
p2626
asbag57
(g78
g59
NtRp2627
(dp2628
g62
(dp2629
g89
g90
ssg71
g2618
sg64
(lp2630
S':'
asbag57
(g78
g59
NtRp2631
(dp2632
g62
(dp2633
sg71
g2618
sg64
(lp2634
g57
(g58
g59
NtRp2635
(dp2636
g62
(dp2637
g70
I3
ssg71
g2631
sg64
(lp2638
g1263
asbasbasbag57
(g73
g59
NtRp2639
(dp2640
g62
(dp2641
sg71
g2404
sg64
(lp2642
g57
(g78
g59
NtRp2643
(dp2644
g62
(dp2645
g82
g83
ssg71
g2639
sg64
(lp2646
S'REQUEST_METHOD'
p2647
asbag57
(g78
g59
NtRp2648
(dp2649
g62
(dp2650
g89
g90
ssg71
g2639
sg64
(lp2651
S':'
asbag57
(g78
g59
NtRp2652
(dp2653
g62
(dp2654
sg71
g2639
sg64
(lp2655
g57
(g58
g59
NtRp2656
(dp2657
g62
(dp2658
g70
I3
ssg71
g2652
sg64
(lp2659
g1285
asbasbasbag57
(g73
g59
NtRp2660
(dp2661
g62
(dp2662
sg71
g2404
sg64
(lp2663
g57
(g78
g59
NtRp2664
(dp2665
g62
(dp2666
g82
g83
ssg71
g2660
sg64
(lp2667
S'SCRIPT_NAME'
p2668
asbag57
(g78
g59
NtRp2669
(dp2670
g62
(dp2671
g89
g90
ssg71
g2660
sg64
(lp2672
S':'
asbag57
(g78
g59
NtRp2673
(dp2674
g62
(dp2675
sg71
g2660
sg64
(lp2676
g57
(g58
g59
NtRp2677
(dp2678
g62
(dp2679
g70
I3
ssg71
g2673
sg64
(lp2680
S''
asbasbasbag57
(g73
g59
NtRp2681
(dp2682
g62
(dp2683
sg71
g2404
sg64
(lp2684
g57
(g78
g59
NtRp2685
(dp2686
g62
(dp2687
g82
g83
ssg71
g2681
sg64
(lp2688
S'SERVER_NAME'
p2689
asbag57
(g78
g59
NtRp2690
(dp2691
g62
(dp2692
g89
g90
ssg71
g2681
sg64
(lp2693
S':'
asbag57
(g78
g59
NtRp2694
(dp2695
g62
(dp2696
sg71
g2681
sg64
(lp2697
g57
(g58
g59
NtRp2698
(dp2699
g62
(dp2700
g70
I3
ssg71
g2694
sg64
(lp2701
g1328
asbasbasbag57
(g73
g59
NtRp2702
(dp2703
g62
(dp2704
sg71
g2404
sg64
(lp2705
g57
(g78
g59
NtRp2706
(dp2707
g62
(dp2708
g82
g83
ssg71
g2702
sg64
(lp2709
S'SERVER_PORT'
p2710
asbag57
(g78
g59
NtRp2711
(dp2712
g62
(dp2713
g89
g90
ssg71
g2702
sg64
(lp2714
S':'
asbag57
(g78
g59
NtRp2715
(dp2716
g62
(dp2717
sg71
g2702
sg64
(lp2718
g57
(g58
g59
NtRp2719
(dp2720
g62
(dp2721
g70
I3
ssg71
g2715
sg64
(lp2722
g1350
asbasbasbag57
(g73
g59
NtRp2723
(dp2724
g62
(dp2725
sg71
g2404
sg64
(lp2726
g57
(g78
g59
NtRp2727
(dp2728
g62
(dp2729
g82
g83
ssg71
g2723
sg64
(lp2730
S'SERVER_PROTOCOL'
p2731
asbag57
(g78
g59
NtRp2732
(dp2733
g62
(dp2734
g89
g90
ssg71
g2723
sg64
(lp2735
S':'
asbag57
(g78
g59
NtRp2736
(dp2737
g62
(dp2738
sg71
g2723
sg64
(lp2739
g57
(g58
g59
NtRp2740
(dp2741
g62
(dp2742
g70
I3
ssg71
g2736
sg64
(lp2743
g1372
asbasbasbag57
(g73
g59
NtRp2744
(dp2745
g62
(dp2746
sg71
g2404
sg64
(lp2747
g57
(g78
g59
NtRp2748
(dp2749
g62
(dp2750
g82
g83
ssg71
g2744
sg64
(lp2751
S'SERVER_SOFTWARE'
p2752
asbag57
(g78
g59
NtRp2753
(dp2754
g62
(dp2755
g89
g90
ssg71
g2744
sg64
(lp2756
S':'
asbag57
(g78
g59
NtRp2757
(dp2758
g62
(dp2759
sg71
g2744
sg64
(lp2760
g57
(g58
g59
NtRp2761
(dp2762
g62
(dp2763
g70
I3
ssg71
g2757
sg64
(lp2764
g1394
asbasbasbag57
(g73
g59
NtRp2765
(dp2766
g62
(dp2767
sg71
g2404
sg64
(lp2768
g57
(g78
g59
NtRp2769
(dp2770
g62
(dp2771
g82
g83
ssg71
g2765
sg64
(lp2772
S'wsgi.errors'
p2773
asbag57
(g78
g59
NtRp2774
(dp2775
g62
(dp2776
g89
g90
ssg71
g2765
sg64
(lp2777
S':'
asbag57
(g78
g59
NtRp2778
(dp2779
g62
(dp2780
sg71
g2765
sg64
(lp2781
g57
(g58
g59
NtRp2782
(dp2783
g62
(dp2784
g70
I3
ssg71
g2778
sg64
(lp2785
S"<open file '<stderr>', mode 'w' at 0xb76f20d0>"
p2786
asbasbasbag57
(g73
g59
NtRp2787
(dp2788
g62
(dp2789
sg71
g2404
sg64
(lp2790
g57
(g78
g59
NtRp2791
(dp2792
g62
(dp2793
g82
g83
ssg71
g2787
sg64
(lp2794
S'wsgi.file_wrapper'
p2795
asbag57
(g78
g59
NtRp2796
(dp2797
g62
(dp2798
g89
g90
ssg71
g2787
sg64
(lp2799
S':'
asbag57
(g78
g59
NtRp2800
(dp2801
g62
(dp2802
sg71
g2787
sg64
(lp2803
g57
(g58
g59
NtRp2804
(dp2805
g62
(dp2806
g70
I3
ssg71
g2800
sg64
(lp2807
S'<class wsgiref.util.FileWrapper at 0xa263fbc>'
p2808
asbasbasbag57
(g73
g59
NtRp2809
(dp2810
g62
(dp2811
sg71
g2404
sg64
(lp2812
g57
(g78
g59
NtRp2813
(dp2814
g62
(dp2815
g82
g83
ssg71
g2809
sg64
(lp2816
S'wsgi.input'
p2817
asbag57
(g78
g59
NtRp2818
(dp2819
g62
(dp2820
g89
g90
ssg71
g2809
sg64
(lp2821
S':'
asbag57
(g78
g59
NtRp2822
(dp2823
g62
(dp2824
sg71
g2809
sg64
(lp2825
g57
(g58
g59
NtRp2826
(dp2827
g62
(dp2828
g70
I3
ssg71
g2822
sg64
(lp2829
S'<cStringIO.StringO object at 0xab22100>'
p2830
asbasbasbag57
(g73
g59
NtRp2831
(dp2832
g62
(dp2833
sg71
g2404
sg64
(lp2834
g57
(g78
g59
NtRp2835
(dp2836
g62
(dp2837
g82
g83
ssg71
g2831
sg64
(lp2838
S'wsgi.multiprocess'
p2839
asbag57
(g78
g59
NtRp2840
(dp2841
g62
(dp2842
g89
g90
ssg71
g2831
sg64
(lp2843
S':'
asbag57
(g78
g59
NtRp2844
(dp2845
g62
(dp2846
sg71
g2831
sg64
(lp2847
g57
(g58
g59
NtRp2848
(dp2849
g62
(dp2850
g70
I3
ssg71
g2844
sg64
(lp2851
g100
asbasbasbag57
(g73
g59
NtRp2852
(dp2853
g62
(dp2854
sg71
g2404
sg64
(lp2855
g57
(g78
g59
NtRp2856
(dp2857
g62
(dp2858
g82
g83
ssg71
g2852
sg64
(lp2859
S'wsgi.multithread'
p2860
asbag57
(g78
g59
NtRp2861
(dp2862
g62
(dp2863
g89
g90
ssg71
g2852
sg64
(lp2864
S':'
asbag57
(g78
g59
NtRp2865
(dp2866
g62
(dp2867
sg71
g2852
sg64
(lp2868
g57
(g58
g59
NtRp2869
(dp2870
g62
(dp2871
g70
I3
ssg71
g2865
sg64
(lp2872
g1634
asbasbasbag57
(g73
g59
NtRp2873
(dp2874
g62
(dp2875
sg71
g2404
sg64
(lp2876
g57
(g78
g59
NtRp2877
(dp2878
g62
(dp2879
g82
g83
ssg71
g2873
sg64
(lp2880
S'wsgi.run_once'
p2881
asbag57
(g78
g59
NtRp2882
(dp2883
g62
(dp2884
g89
g90
ssg71
g2873
sg64
(lp2885
S':'
asbag57
(g78
g59
NtRp2886
(dp2887
g62
(dp2888
sg71
g2873
sg64
(lp2889
g57
(g58
g59
NtRp2890
(dp2891
g62
(dp2892
g70
I3
ssg71
g2886
sg64
(lp2893
g100
asbasbasbag57
(g73
g59
NtRp2894
(dp2895
g62
(dp2896
sg71
g2404
sg64
(lp2897
g57
(g78
g59
NtRp2898
(dp2899
g62
(dp2900
g82
g83
ssg71
g2894
sg64
(lp2901
S'wsgi.url_scheme'
p2902
asbag57
(g78
g59
NtRp2903
(dp2904
g62
(dp2905
g89
g90
ssg71
g2894
sg64
(lp2906
S':'
asbag57
(g78
g59
NtRp2907
(dp2908
g62
(dp2909
sg71
g2894
sg64
(lp2910
g57
(g58
g59
NtRp2911
(dp2912
g62
(dp2913
g70
I3
ssg71
g2907
sg64
(lp2914
g1677
asbasbasbag57
(g73
g59
NtRp2915
(dp2916
g62
(dp2917
sg71
g2404
sg64
(lp2918
g57
(g78
g59
NtRp2919
(dp2920
g62
(dp2921
g82
g83
ssg71
g2915
sg64
(lp2922
S'wsgi.version'
p2923
asbag57
(g78
g59
NtRp2924
(dp2925
g62
(dp2926
g89
g90
ssg71
g2915
sg64
(lp2927
S':'
asbag57
(g78
g59
NtRp2928
(dp2929
g62
(dp2930
sg71
g2915
sg64
(lp2931
g57
(g58
g59
NtRp2932
(dp2933
g62
(dp2934
g70
I3
ssg71
g2928
sg64
(lp2935
S'1'
asbasbasbasbasbasbasbasbasbasbasbasbasbsS'frames'
p2936
(lp2937
(dp2938
S'file'
p2939
S'/home/vishrut/web2py/gluon/restricted.py'
p2940
sS'dump'
p2941
(dp2942
S'environment'
p2943
S"{'A': <class 'gluon.html.A'>, 'Auth': <class 'gluon.tools.Auth'>, 'B': <class 'gluon.html.B'>, 'BEAUTIFY': <class 'gluon.html.BEAUTIFY'>, 'BODY': <class 'gluon.html.BODY'>, 'BR': <class 'gluon.html.BR'>, 'BUTTON': <class 'gluon.html.BUTTON'>, 'CAT': <class 'gluon.html.CAT'>, 'CENTER': <class 'gluon.html.CENTER'>, 'CLEANUP': <class 'gluon.validators.CLEANUP'>, ...}"
p2944
sS'ccode'
p2945
S'<code object <module> at 0xab204a0, file "/home/...ications/astra2/controllers/default.py", line 13>'
p2946
ssS'lnum'
p2947
I205
sS'lines'
p2948
(dp2949
I200
S'    try:'
p2950
sI201
S'        if type(code) == types.CodeType:'
p2951
sI202
S'            ccode = code'
p2952
sI203
S'        else:'
p2953
sI204
S'            ccode = compile2(code,layer)'
p2954
sI205
S'        exec ccode in environment'
p2955
sI206
S'    except HTTP:'
p2956
sI207
S'        raise'
p2957
sI208
S'    except RestrictedError:'
p2958
sI209
S'        # do not encapsulate (obfuscate) the original RestrictedError'
p2959
ssS'call'
p2960
S"(code='# -*- coding: utf-8 -*-\\n# this file is released ...rud())\\n\\nresponse._vars=response._caller(upframe)\\n', environment={'A': <class 'gluon.html.A'>, 'Auth': <class 'gluon.tools.Auth'>, 'B': <class 'gluon.html.B'>, 'BEAUTIFY': <class 'gluon.html.BEAUTIFY'>, 'BODY': <class 'gluon.html.BODY'>, 'BR': <class 'gluon.html.BR'>, 'BUTTON': <class 'gluon.html.BUTTON'>, 'CAT': <class 'gluon.html.CAT'>, 'CENTER': <class 'gluon.html.CENTER'>, 'CLEANUP': <class 'gluon.validators.CLEANUP'>, ...}, layer='/home/vishrut/web2py/applications/astra2/controllers/default.py')"
p2961
sS'func'
p2962
S'restricted'
p2963
sa(dp2964
g2939
S'/home/vishrut/web2py/applications/astra2/controllers/default.py'
p2965
sg2941
(dp2966
sg2947
I128
sg2948
(dp2967
I117
S'    http://..../[app]/default/data/update/[table]/[id]'
p2968
sI118
S'    http://..../[app]/default/data/delete/[table]/[id]'
p2969
sI119
S'    http://..../[app]/default/data/select/[table]'
p2970
sI120
S'    http://..../[app]/default/data/search/[table]'
p2971
sI121
S'    but URLs must be signed, i.e. linked with'
p2972
sI122
S"      A('table',_href=URL('data/tables',user_signature=True))"
p2973
sI123
S'    or with the signed load operator'
p2974
sI124
S"      LOAD('default','data.load',args='tables',ajax=True,user_signature=True)"
p2975
sI125
S'    """'
p2976
sI126
S'    return dict(form=crud())'
p2977
ssg2960
S'()'
p2978
sg2962
S'<module>'
p2979
sa(dp2980
g2939
S'/home/vishrut/web2py/gluon/globals.py'
p2981
sg2941
(dp2982
S'self'
p2983
S'undefined'
p2984
sS'f'
S'<function upframe>'
p2985
ssg2947
I173
sg2948
(dp2986
I168
S'        self.menu = []             # used by the default view layout'
p2987
sI169
S'        self.files = []            # used by web2py_ajax.html'
p2988
sI170
S'        self.generic_patterns = [] # patterns to allow generic views'
p2989
sI171
S"        self.delimiters = ('{{','}}')"
p2990
sI172
S'        self._vars = None'
p2991
sI173
S'        self._caller = lambda f: f()'
p2992
sI174
S'        self._view_environment = None'
p2993
sI175
S'        self._custom_commit = None'
p2994
sI176
S'        self._custom_rollback = None'
p2995
sI177
S''
ssg2960
S'(f=<function upframe>)'
p2996
sg2962
S'<lambda>'
p2997
sa(dp2998
g2939
S'/home/vishrut/web2py/applications/astra2/controllers/default.py'
p2999
sg2941
(dp3000
S'framenum'
p3001
g2984
ssg2947
I73
sg2948
(dp3002
I68
S'def upframe():'
p3003
sI69
S'    kamra = db(db.kids.username == session.username).select().first().rno'
p3004
sI70
S'    current = db(db.rooms.rnum == kamra).select().first()'
p3005
sI71
S'    framenumber = current.framenum'
p3006
sI72
S'    current.update_record(framenum=framenumber+1)'
p3007
sI73
S'    return framenum'
p3008
sI74
S''
sI75
S''
sI76
S'def user():'
p3009
sI77
S'    """'
p3010
ssg2960
S'()'
p3011
sg2962
S'upframe'
p3012
sasS'pyver'
p3013
S'Python 2.7.2+: /usr/bin/python'
p3014
sS'session'
p3015
g57
(g58
g59
NtRp3016
(dp3017
g62
(dp3018
sg64
(lp3019
g57
(g66
g59
NtRp3020
(dp3021
g62
(dp3022
g70
I5
ssg71
Nsg64
(lp3023
g57
(g73
g59
NtRp3024
(dp3025
g62
(dp3026
sg71
g3020
sg64
(lp3027
g57
(g78
g59
NtRp3028
(dp3029
g62
(dp3030
g82
g83
ssg71
g3024
sg64
(lp3031
S'logged'
p3032
asbag57
(g78
g59
NtRp3033
(dp3034
g62
(dp3035
g89
g90
ssg71
g3024
sg64
(lp3036
S':'
asbag57
(g78
g59
NtRp3037
(dp3038
g62
(dp3039
sg71
g3024
sg64
(lp3040
g57
(g58
g59
NtRp3041
(dp3042
g62
(dp3043
g70
I5
ssg71
g3037
sg64
(lp3044
S'0'
asbasbasbag57
(g73
g59
NtRp3045
(dp3046
g62
(dp3047
sg71
g3020
sg64
(lp3048
g57
(g78
g59
NtRp3049
(dp3050
g62
(dp3051
g82
g83
ssg71
g3045
sg64
(lp3052
S'username'
p3053
asbag57
(g78
g59
NtRp3054
(dp3055
g62
(dp3056
g89
g90
ssg71
g3045
sg64
(lp3057
S':'
asbag57
(g78
g59
NtRp3058
(dp3059
g62
(dp3060
sg71
g3045
sg64
(lp3061
g57
(g58
g59
NtRp3062
(dp3063
g62
(dp3064
g70
I5
ssg71
g3058
sg64
(lp3065
S'qwerty'
p3066
asbasbasbasbasbsS'etype'
p3067
S"<type 'exceptions.NameError'>"
p3068
sS'date'
p3069
S'Thu Nov 15 01:01:13 2012'
p3070
sS'response'
p3071
g57
(g58
g59
NtRp3072
(dp3073
g62
(dp3074
sg64
(lp3075
g57
(g66
g59
NtRp3076
(dp3077
g62
(dp3078
g70
I5
ssg71
Nsg64
(lp3079
g57
(g73
g59
NtRp3080
(dp3081
g62
(dp3082
sg71
g3076
sg64
(lp3083
g57
(g78
g59
NtRp3084
(dp3085
g62
(dp3086
g82
g83
ssg71
g3080
sg64
(lp3087
g155
asbag57
(g78
g59
NtRp3088
(dp3089
g62
(dp3090
g89
g90
ssg71
g3080
sg64
(lp3091
S':'
asbag57
(g78
g59
NtRp3092
(dp3093
g62
(dp3094
sg71
g3080
sg64
(lp3095
g57
(g58
g59
NtRp3096
(dp3097
g62
(dp3098
g70
I5
ssg71
g3092
sg64
(lp3099
S'<cStringIO.StringO object at 0xab0d560>'
p3100
asbasbasbag57
(g73
g59
NtRp3101
(dp3102
g62
(dp3103
sg71
g3076
sg64
(lp3104
g57
(g78
g59
NtRp3105
(dp3106
g62
(dp3107
g82
g83
ssg71
g3101
sg64
(lp3108
g221
asbag57
(g78
g59
NtRp3109
(dp3110
g62
(dp3111
g89
g90
ssg71
g3101
sg64
(lp3112
S':'
asbag57
(g78
g59
NtRp3113
(dp3114
g62
(dp3115
sg71
g3101
sg64
(lp3116
g57
(g58
g59
NtRp3117
(dp3118
g62
(dp3119
g70
I5
ssg71
g3113
sg64
(lp3120
g57
(g66
g59
NtRp3121
(dp3122
g62
(dp3123
g70
I4
ssg71
Nsg64
(lp3124
g57
(g73
g59
NtRp3125
(dp3126
g62
(dp3127
sg71
g3121
sg64
(lp3128
g57
(g78
g59
NtRp3129
(dp3130
g62
(dp3131
g82
g83
ssg71
g3125
sg64
(lp3132
S'session_id_astra2'
p3133
asbag57
(g78
g59
NtRp3134
(dp3135
g62
(dp3136
g89
g90
ssg71
g3125
sg64
(lp3137
S':'
asbag57
(g78
g59
NtRp3138
(dp3139
g62
(dp3140
sg71
g3125
sg64
(lp3141
g57
(g58
g59
NtRp3142
(dp3143
g62
(dp3144
g70
I4
ssg71
g3138
sg64
(lp3145
g57
(g66
g59
NtRp3146
(dp3147
g62
(dp3148
g70
I3
ssg71
Nsg64
(lp3149
g57
(g73
g59
NtRp3150
(dp3151
g62
(dp3152
sg71
g3146
sg64
(lp3153
g57
(g78
g59
NtRp3154
(dp3155
g62
(dp3156
g82
g83
ssg71
g3150
sg64
(lp3157
g271
asbag57
(g78
g59
NtRp3158
(dp3159
g62
(dp3160
g89
g90
ssg71
g3150
sg64
(lp3161
S':'
asbag57
(g78
g59
NtRp3162
(dp3163
g62
(dp3164
sg71
g3150
sg64
(lp3165
g57
(g58
g59
NtRp3166
(dp3167
g62
(dp3168
g70
I3
ssg71
g3162
sg64
(lp3169
S''
asbasbasbag57
(g73
g59
NtRp3170
(dp3171
g62
(dp3172
sg71
g3146
sg64
(lp3173
g57
(g78
g59
NtRp3174
(dp3175
g62
(dp3176
g82
g83
ssg71
g3170
sg64
(lp3177
g292
asbag57
(g78
g59
NtRp3178
(dp3179
g62
(dp3180
g89
g90
ssg71
g3170
sg64
(lp3181
S':'
asbag57
(g78
g59
NtRp3182
(dp3183
g62
(dp3184
sg71
g3170
sg64
(lp3185
g57
(g58
g59
NtRp3186
(dp3187
g62
(dp3188
g70
I3
ssg71
g3182
sg64
(lp3189
S''
asbasbasbag57
(g73
g59
NtRp3190
(dp3191
g62
(dp3192
sg71
g3146
sg64
(lp3193
g57
(g78
g59
NtRp3194
(dp3195
g62
(dp3196
g82
g83
ssg71
g3190
sg64
(lp3197
g313
asbag57
(g78
g59
NtRp3198
(dp3199
g62
(dp3200
g89
g90
ssg71
g3190
sg64
(lp3201
S':'
asbag57
(g78
g59
NtRp3202
(dp3203
g62
(dp3204
sg71
g3190
sg64
(lp3205
g57
(g58
g59
NtRp3206
(dp3207
g62
(dp3208
g70
I3
ssg71
g3202
sg64
(lp3209
S''
asbasbasbag57
(g73
g59
NtRp3210
(dp3211
g62
(dp3212
sg71
g3146
sg64
(lp3213
g57
(g78
g59
NtRp3214
(dp3215
g62
(dp3216
g82
g83
ssg71
g3210
sg64
(lp3217
g334
asbag57
(g78
g59
NtRp3218
(dp3219
g62
(dp3220
g89
g90
ssg71
g3210
sg64
(lp3221
S':'
asbag57
(g78
g59
NtRp3222
(dp3223
g62
(dp3224
sg71
g3210
sg64
(lp3225
g57
(g58
g59
NtRp3226
(dp3227
g62
(dp3228
g70
I3
ssg71
g3222
sg64
(lp3229
S''
asbasbasbag57
(g73
g59
NtRp3230
(dp3231
g62
(dp3232
sg71
g3146
sg64
(lp3233
g57
(g78
g59
NtRp3234
(dp3235
g62
(dp3236
g82
g83
ssg71
g3230
sg64
(lp3237
g355
asbag57
(g78
g59
NtRp3238
(dp3239
g62
(dp3240
g89
g90
ssg71
g3230
sg64
(lp3241
S':'
asbag57
(g78
g59
NtRp3242
(dp3243
g62
(dp3244
sg71
g3230
sg64
(lp3245
g57
(g58
g59
NtRp3246
(dp3247
g62
(dp3248
g70
I3
ssg71
g3242
sg64
(lp3249
S''
asbasbasbag57
(g73
g59
NtRp3250
(dp3251
g62
(dp3252
sg71
g3146
sg64
(lp3253
g57
(g78
g59
NtRp3254
(dp3255
g62
(dp3256
g82
g83
ssg71
g3250
sg64
(lp3257
g376
asbag57
(g78
g59
NtRp3258
(dp3259
g62
(dp3260
g89
g90
ssg71
g3250
sg64
(lp3261
S':'
asbag57
(g78
g59
NtRp3262
(dp3263
g62
(dp3264
sg71
g3250
sg64
(lp3265
g57
(g58
g59
NtRp3266
(dp3267
g62
(dp3268
g70
I3
ssg71
g3262
sg64
(lp3269
S'/'
asbasbasbag57
(g73
g59
NtRp3270
(dp3271
g62
(dp3272
sg71
g3146
sg64
(lp3273
g57
(g78
g59
NtRp3274
(dp3275
g62
(dp3276
g82
g83
ssg71
g3270
sg64
(lp3277
g397
asbag57
(g78
g59
NtRp3278
(dp3279
g62
(dp3280
g89
g90
ssg71
g3270
sg64
(lp3281
S':'
asbag57
(g78
g59
NtRp3282
(dp3283
g62
(dp3284
sg71
g3270
sg64
(lp3285
g57
(g58
g59
NtRp3286
(dp3287
g62
(dp3288
g70
I3
ssg71
g3282
sg64
(lp3289
S''
asbasbasbag57
(g73
g59
NtRp3290
(dp3291
g62
(dp3292
sg71
g3146
sg64
(lp3293
g57
(g78
g59
NtRp3294
(dp3295
g62
(dp3296
g82
g83
ssg71
g3290
sg64
(lp3297
g418
asbag57
(g78
g59
NtRp3298
(dp3299
g62
(dp3300
g89
g90
ssg71
g3290
sg64
(lp3301
S':'
asbag57
(g78
g59
NtRp3302
(dp3303
g62
(dp3304
sg71
g3290
sg64
(lp3305
g57
(g58
g59
NtRp3306
(dp3307
g62
(dp3308
g70
I3
ssg71
g3302
sg64
(lp3309
S''
asbasbasbasbasbasbasbasbasbasbasbag57
(g73
g59
NtRp3310
(dp3311
g62
(dp3312
sg71
g3076
sg64
(lp3313
g57
(g78
g59
NtRp3314
(dp3315
g62
(dp3316
g82
g83
ssg71
g3310
sg64
(lp3317
S'delimiters'
p3318
asbag57
(g78
g59
NtRp3319
(dp3320
g62
(dp3321
g89
g90
ssg71
g3310
sg64
(lp3322
S':'
asbag57
(g78
g59
NtRp3323
(dp3324
g62
(dp3325
sg71
g3310
sg64
(lp3326
g57
(g58
g59
NtRp3327
(dp3328
g62
(dp3329
g70
I5
ssg71
g3323
sg64
(lp3330
g57
(g66
g59
NtRp3331
(dp3332
g62
(dp3333
g70
I4
ssg71
Nsg64
(lp3334
g57
(g73
g59
NtRp3335
(dp3336
g62
(dp3337
sg71
g3331
sg64
(lp3338
g57
(g78
g59
NtRp3339
(dp3340
g62
(dp3341
sg71
g3335
sg64
(lp3342
g57
(g58
g59
NtRp3343
(dp3344
g62
(dp3345
g70
I4
ssg71
g3339
sg64
(lp3346
S'{{'
p3347
asbasbasbag57
(g73
g59
NtRp3348
(dp3349
g62
(dp3350
sg71
g3331
sg64
(lp3351
g57
(g78
g59
NtRp3352
(dp3353
g62
(dp3354
sg71
g3348
sg64
(lp3355
g57
(g58
g59
NtRp3356
(dp3357
g62
(dp3358
g70
I4
ssg71
g3352
sg64
(lp3359
S'}}'
p3360
asbasbasbasbasbasbasbag57
(g73
g59
NtRp3361
(dp3362
g62
(dp3363
sg71
g3076
sg64
(lp3364
g57
(g78
g59
NtRp3365
(dp3366
g62
(dp3367
g82
g83
ssg71
g3361
sg64
(lp3368
S'files'
p3369
asbag57
(g78
g59
NtRp3370
(dp3371
g62
(dp3372
g89
g90
ssg71
g3361
sg64
(lp3373
S':'
asbag57
(g78
g59
NtRp3374
(dp3375
g62
(dp3376
sg71
g3361
sg64
(lp3377
g57
(g58
g59
NtRp3378
(dp3379
g62
(dp3380
g70
I5
ssg71
g3374
sg64
(lp3381
g57
(g66
g59
NtRp3382
(dp3383
g62
(dp3384
g70
I4
ssg71
Nsg64
(lp3385
sbasbasbasbag57
(g73
g59
NtRp3386
(dp3387
g62
(dp3388
sg71
g3076
sg64
(lp3389
g57
(g78
g59
NtRp3390
(dp3391
g62
(dp3392
g82
g83
ssg71
g3386
sg64
(lp3393
S'flash'
p3394
asbag57
(g78
g59
NtRp3395
(dp3396
g62
(dp3397
g89
g90
ssg71
g3386
sg64
(lp3398
S':'
asbag57
(g78
g59
NtRp3399
(dp3400
g62
(dp3401
sg71
g3386
sg64
(lp3402
g57
(g58
g59
NtRp3403
(dp3404
g62
(dp3405
g70
I5
ssg71
g3399
sg64
(lp3406
S''
asbasbasbag57
(g73
g59
NtRp3407
(dp3408
g62
(dp3409
sg71
g3076
sg64
(lp3410
g57
(g78
g59
NtRp3411
(dp3412
g62
(dp3413
g82
g83
ssg71
g3407
sg64
(lp3414
S'generic_patterns'
p3415
asbag57
(g78
g59
NtRp3416
(dp3417
g62
(dp3418
g89
g90
ssg71
g3407
sg64
(lp3419
S':'
asbag57
(g78
g59
NtRp3420
(dp3421
g62
(dp3422
sg71
g3407
sg64
(lp3423
g57
(g58
g59
NtRp3424
(dp3425
g62
(dp3426
g70
I5
ssg71
g3420
sg64
(lp3427
g57
(g66
g59
NtRp3428
(dp3429
g62
(dp3430
g70
I4
ssg71
Nsg64
(lp3431
g57
(g73
g59
NtRp3432
(dp3433
g62
(dp3434
sg71
g3428
sg64
(lp3435
g57
(g78
g59
NtRp3436
(dp3437
g62
(dp3438
sg71
g3432
sg64
(lp3439
g57
(g58
g59
NtRp3440
(dp3441
g62
(dp3442
g70
I4
ssg71
g3436
sg64
(lp3443
S'*'
asbasbasbasbasbasbasbag57
(g73
g59
NtRp3444
(dp3445
g62
(dp3446
sg71
g3076
sg64
(lp3447
g57
(g78
g59
NtRp3448
(dp3449
g62
(dp3450
g82
g83
ssg71
g3444
sg64
(lp3451
S'headers'
p3452
asbag57
(g78
g59
NtRp3453
(dp3454
g62
(dp3455
g89
g90
ssg71
g3444
sg64
(lp3456
S':'
asbag57
(g78
g59
NtRp3457
(dp3458
g62
(dp3459
sg71
g3444
sg64
(lp3460
g57
(g58
g59
NtRp3461
(dp3462
g62
(dp3463
g70
I5
ssg71
g3457
sg64
(lp3464
g57
(g66
g59
NtRp3465
(dp3466
g62
(dp3467
g70
I4
ssg71
Nsg64
(lp3468
g57
(g73
g59
NtRp3469
(dp3470
g62
(dp3471
sg71
g3465
sg64
(lp3472
g57
(g78
g59
NtRp3473
(dp3474
g62
(dp3475
g82
g83
ssg71
g3469
sg64
(lp3476
S'Cache-Control'
p3477
asbag57
(g78
g59
NtRp3478
(dp3479
g62
(dp3480
g89
g90
ssg71
g3469
sg64
(lp3481
S':'
asbag57
(g78
g59
NtRp3482
(dp3483
g62
(dp3484
sg71
g3469
sg64
(lp3485
g57
(g58
g59
NtRp3486
(dp3487
g62
(dp3488
g70
I4
ssg71
g3482
sg64
(lp3489
S'no-store, no-cache, must-revalidate, post-check=0, pre-check=0'
p3490
asbasbasbag57
(g73
g59
NtRp3491
(dp3492
g62
(dp3493
sg71
g3465
sg64
(lp3494
g57
(g78
g59
NtRp3495
(dp3496
g62
(dp3497
g82
g83
ssg71
g3491
sg64
(lp3498
S'Content-Type'
p3499
asbag57
(g78
g59
NtRp3500
(dp3501
g62
(dp3502
g89
g90
ssg71
g3491
sg64
(lp3503
S':'
asbag57
(g78
g59
NtRp3504
(dp3505
g62
(dp3506
sg71
g3491
sg64
(lp3507
g57
(g58
g59
NtRp3508
(dp3509
g62
(dp3510
g70
I4
ssg71
g3504
sg64
(lp3511
S'text/html; charset=utf-8'
p3512
asbasbasbag57
(g73
g59
NtRp3513
(dp3514
g62
(dp3515
sg71
g3465
sg64
(lp3516
g57
(g78
g59
NtRp3517
(dp3518
g62
(dp3519
g82
g83
ssg71
g3513
sg64
(lp3520
S'Expires'
p3521
asbag57
(g78
g59
NtRp3522
(dp3523
g62
(dp3524
g89
g90
ssg71
g3513
sg64
(lp3525
S':'
asbag57
(g78
g59
NtRp3526
(dp3527
g62
(dp3528
sg71
g3513
sg64
(lp3529
g57
(g58
g59
NtRp3530
(dp3531
g62
(dp3532
g70
I4
ssg71
g3526
sg64
(lp3533
S'Wed, 14 Nov 2012 20:01:13 GMT'
p3534
asbasbasbag57
(g73
g59
NtRp3535
(dp3536
g62
(dp3537
sg71
g3465
sg64
(lp3538
g57
(g78
g59
NtRp3539
(dp3540
g62
(dp3541
g82
g83
ssg71
g3535
sg64
(lp3542
S'Pragma'
p3543
asbag57
(g78
g59
NtRp3544
(dp3545
g62
(dp3546
g89
g90
ssg71
g3535
sg64
(lp3547
S':'
asbag57
(g78
g59
NtRp3548
(dp3549
g62
(dp3550
sg71
g3535
sg64
(lp3551
g57
(g58
g59
NtRp3552
(dp3553
g62
(dp3554
g70
I4
ssg71
g3548
sg64
(lp3555
S'no-cache'
p3556
asbasbasbag57
(g73
g59
NtRp3557
(dp3558
g62
(dp3559
sg71
g3465
sg64
(lp3560
g57
(g78
g59
NtRp3561
(dp3562
g62
(dp3563
g82
g83
ssg71
g3557
sg64
(lp3564
S'X-Powered-By'
p3565
asbag57
(g78
g59
NtRp3566
(dp3567
g62
(dp3568
g89
g90
ssg71
g3557
sg64
(lp3569
S':'
asbag57
(g78
g59
NtRp3570
(dp3571
g62
(dp3572
sg71
g3557
sg64
(lp3573
g57
(g58
g59
NtRp3574
(dp3575
g62
(dp3576
g70
I4
ssg71
g3570
sg64
(lp3577
S'web2py'
p3578
asbasbasbasbasbasbasbag57
(g73
g59
NtRp3579
(dp3580
g62
(dp3581
sg71
g3076
sg64
(lp3582
g57
(g78
g59
NtRp3583
(dp3584
g62
(dp3585
g82
g83
ssg71
g3579
sg64
(lp3586
S'menu'
p3587
asbag57
(g78
g59
NtRp3588
(dp3589
g62
(dp3590
g89
g90
ssg71
g3579
sg64
(lp3591
S':'
asbag57
(g78
g59
NtRp3592
(dp3593
g62
(dp3594
sg71
g3579
sg64
(lp3595
g57
(g58
g59
NtRp3596
(dp3597
g62
(dp3598
g70
I5
ssg71
g3592
sg64
(lp3599
g57
(g66
g59
NtRp3600
(dp3601
g62
(dp3602
g70
I4
ssg71
Nsg64
(lp3603
sbasbasbasbag57
(g73
g59
NtRp3604
(dp3605
g62
(dp3606
sg71
g3076
sg64
(lp3607
g57
(g78
g59
NtRp3608
(dp3609
g62
(dp3610
g82
g83
ssg71
g3604
sg64
(lp3611
S'meta'
p3612
asbag57
(g78
g59
NtRp3613
(dp3614
g62
(dp3615
g89
g90
ssg71
g3604
sg64
(lp3616
S':'
asbag57
(g78
g59
NtRp3617
(dp3618
g62
(dp3619
sg71
g3604
sg64
(lp3620
g57
(g58
g59
NtRp3621
(dp3622
g62
(dp3623
g70
I5
ssg71
g3617
sg64
(lp3624
g57
(g66
g59
NtRp3625
(dp3626
g62
(dp3627
g70
I4
ssg71
Nsg64
(lp3628
sbasbasbasbag57
(g73
g59
NtRp3629
(dp3630
g62
(dp3631
sg71
g3076
sg64
(lp3632
g57
(g78
g59
NtRp3633
(dp3634
g62
(dp3635
g82
g83
ssg71
g3629
sg64
(lp3636
S'postprocessing'
p3637
asbag57
(g78
g59
NtRp3638
(dp3639
g62
(dp3640
g89
g90
ssg71
g3629
sg64
(lp3641
S':'
asbag57
(g78
g59
NtRp3642
(dp3643
g62
(dp3644
sg71
g3629
sg64
(lp3645
g57
(g58
g59
NtRp3646
(dp3647
g62
(dp3648
g70
I5
ssg71
g3642
sg64
(lp3649
g57
(g66
g59
NtRp3650
(dp3651
g62
(dp3652
g70
I4
ssg71
Nsg64
(lp3653
sbasbasbasbag57
(g73
g59
NtRp3654
(dp3655
g62
(dp3656
sg71
g3076
sg64
(lp3657
g57
(g78
g59
NtRp3658
(dp3659
g62
(dp3660
g82
g83
ssg71
g3654
sg64
(lp3661
S'session_file'
p3662
asbag57
(g78
g59
NtRp3663
(dp3664
g62
(dp3665
g89
g90
ssg71
g3654
sg64
(lp3666
S':'
asbag57
(g78
g59
NtRp3667
(dp3668
g62
(dp3669
sg71
g3654
sg64
(lp3670
g57
(g58
g59
NtRp3671
(dp3672
g62
(dp3673
g70
I5
ssg71
g3667
sg64
(lp3674
S"<open file '/home/vishrut/web2py/applications/astra2/sessions/10.1.40.173-835f1450-57af-4327-bdec-96e214f52055', mode 'rb+' at 0xa90f3e8>"
p3675
asbasbasbag57
(g73
g59
NtRp3676
(dp3677
g62
(dp3678
sg71
g3076
sg64
(lp3679
g57
(g78
g59
NtRp3680
(dp3681
g62
(dp3682
g82
g83
ssg71
g3676
sg64
(lp3683
S'session_filename'
p3684
asbag57
(g78
g59
NtRp3685
(dp3686
g62
(dp3687
g89
g90
ssg71
g3676
sg64
(lp3688
S':'
asbag57
(g78
g59
NtRp3689
(dp3690
g62
(dp3691
sg71
g3676
sg64
(lp3692
g57
(g58
g59
NtRp3693
(dp3694
g62
(dp3695
g70
I5
ssg71
g3689
sg64
(lp3696
S'/home/vishrut/web2py/applications/astra2/sessions/10.1.40.173-835f1450-57af-4327-bdec-96e214f52055'
p3697
asbasbasbag57
(g73
g59
NtRp3698
(dp3699
g62
(dp3700
sg71
g3076
sg64
(lp3701
g57
(g78
g59
NtRp3702
(dp3703
g62
(dp3704
g82
g83
ssg71
g3698
sg64
(lp3705
S'session_id'
p3706
asbag57
(g78
g59
NtRp3707
(dp3708
g62
(dp3709
g89
g90
ssg71
g3698
sg64
(lp3710
S':'
asbag57
(g78
g59
NtRp3711
(dp3712
g62
(dp3713
sg71
g3698
sg64
(lp3714
g57
(g58
g59
NtRp3715
(dp3716
g62
(dp3717
g70
I5
ssg71
g3711
sg64
(lp3718
S'10.1.40.173-835f1450-57af-4327-bdec-96e214f52055'
p3719
asbasbasbag57
(g73
g59
NtRp3720
(dp3721
g62
(dp3722
sg71
g3076
sg64
(lp3723
g57
(g78
g59
NtRp3724
(dp3725
g62
(dp3726
g82
g83
ssg71
g3720
sg64
(lp3727
S'session_id_name'
p3728
asbag57
(g78
g59
NtRp3729
(dp3730
g62
(dp3731
g89
g90
ssg71
g3720
sg64
(lp3732
S':'
asbag57
(g78
g59
NtRp3733
(dp3734
g62
(dp3735
sg71
g3720
sg64
(lp3736
g57
(g58
g59
NtRp3737
(dp3738
g62
(dp3739
g70
I5
ssg71
g3733
sg64
(lp3740
g3133
asbasbasbag57
(g73
g59
NtRp3741
(dp3742
g62
(dp3743
sg71
g3076
sg64
(lp3744
g57
(g78
g59
NtRp3745
(dp3746
g62
(dp3747
g82
g83
ssg71
g3741
sg64
(lp3748
S'session_locked'
p3749
asbag57
(g78
g59
NtRp3750
(dp3751
g62
(dp3752
g89
g90
ssg71
g3741
sg64
(lp3753
S':'
asbag57
(g78
g59
NtRp3754
(dp3755
g62
(dp3756
sg71
g3741
sg64
(lp3757
g57
(g58
g59
NtRp3758
(dp3759
g62
(dp3760
g70
I5
ssg71
g3754
sg64
(lp3761
g1634
asbasbasbag57
(g73
g59
NtRp3762
(dp3763
g62
(dp3764
sg71
g3076
sg64
(lp3765
g57
(g78
g59
NtRp3766
(dp3767
g62
(dp3768
g82
g83
ssg71
g3762
sg64
(lp3769
S'session_new'
p3770
asbag57
(g78
g59
NtRp3771
(dp3772
g62
(dp3773
g89
g90
ssg71
g3762
sg64
(lp3774
S':'
asbag57
(g78
g59
NtRp3775
(dp3776
g62
(dp3777
sg71
g3762
sg64
(lp3778
g57
(g58
g59
NtRp3779
(dp3780
g62
(dp3781
g70
I5
ssg71
g3775
sg64
(lp3782
g100
asbasbasbag57
(g73
g59
NtRp3783
(dp3784
g62
(dp3785
sg71
g3076
sg64
(lp3786
g57
(g78
g59
NtRp3787
(dp3788
g62
(dp3789
g82
g83
ssg71
g3783
sg64
(lp3790
S'status'
p3791
asbag57
(g78
g59
NtRp3792
(dp3793
g62
(dp3794
g89
g90
ssg71
g3783
sg64
(lp3795
S':'
asbag57
(g78
g59
NtRp3796
(dp3797
g62
(dp3798
sg71
g3783
sg64
(lp3799
g57
(g58
g59
NtRp3800
(dp3801
g62
(dp3802
g70
I5
ssg71
g3796
sg64
(lp3803
S'200'
p3804
asbasbasbag57
(g73
g59
NtRp3805
(dp3806
g62
(dp3807
sg71
g3076
sg64
(lp3808
g57
(g78
g59
NtRp3809
(dp3810
g62
(dp3811
g82
g83
ssg71
g3805
sg64
(lp3812
g2319
asbag57
(g78
g59
NtRp3813
(dp3814
g62
(dp3815
g89
g90
ssg71
g3805
sg64
(lp3816
S':'
asbag57
(g78
g59
NtRp3817
(dp3818
g62
(dp3819
sg71
g3805
sg64
(lp3820
g57
(g58
g59
NtRp3821
(dp3822
g62
(dp3823
g70
I5
ssg71
g3817
sg64
(lp3824
g2332
asbasbasbag57
(g73
g59
NtRp3825
(dp3826
g62
(dp3827
sg71
g3076
sg64
(lp3828
g57
(g78
g59
NtRp3829
(dp3830
g62
(dp3831
g82
g83
ssg71
g3825
sg64
(lp3832
S'view'
p3833
asbag57
(g78
g59
NtRp3834
(dp3835
g62
(dp3836
g89
g90
ssg71
g3825
sg64
(lp3837
S':'
asbag57
(g78
g59
NtRp3838
(dp3839
g62
(dp3840
sg71
g3825
sg64
(lp3841
g57
(g58
g59
NtRp3842
(dp3843
g62
(dp3844
g70
I5
ssg71
g3838
sg64
(lp3845
S'default/upframe.html'
p3846
asbasbasbasbasbsS'locals'
p3847
(dp3848
S'current'
p3849
S"<Row {'vidurl': 'apple', 'update_record': <funct...0xa90dfb4>, 'active': True, 'id': 1, 'rnum': 12}>"
p3850
sS'framenumber'
p3851
S'2'
sS'kamra'
p3852
S'12'
p3853
sssS'traceback'
p3854
S'Traceback (most recent call last):\n  File "/home/vishrut/web2py/gluon/restricted.py", line 205, in restricted\n    exec ccode in environment\n  File "/home/vishrut/web2py/applications/astra2/controllers/default.py", line 128, in <module>\n  File "/home/vishrut/web2py/gluon/globals.py", line 173, in <lambda>\n    self._caller = lambda f: f()\n  File "/home/vishrut/web2py/applications/astra2/controllers/default.py", line 73, in upframe\n    return framenum\nNameError: global name \'framenum\' is not defined\n'
p3855
s.