(dp1
S'output'
p2
S"<type 'exceptions.AttributeError'> 'NoneType' object has no attribute 'rno'"
p3
sS'layer'
p4
S'/home/vishrut/web2py/applications/astra2/views/default/show.html'
p5
sS'code'
p6
S'response.write(\'<!DOCTYPE html PUBLIC "-//W3C//DTD XHTML 1.0 Transitional//EN" "http://www.w3.org/TR/xhtml1/DTD/xhtml1-transitional.dtd">\\n<html xmlns="http://www.w3.org/1999/xhtml">\\n<head>\\n<meta http-equiv="Content-Type" content="text/html; charset=utf-8" />\\n<title>ASTRA</title>\\n<link href="/astra2/static/INTERACTIVE.CSS" rel="stylesheet" type="text/css" />\\n<script type="text/javascript" src="/astra2/static/jquery-1.8.2.min.js"></script>\\n<script type="text/javascript" src="/astra2/static/interactive.js"></script>\\n\\n\\n</head>\\n<div style="margin-left:1220px">\\n<button type="button" onclick="document.location=\\\'\', escape=False)\nresponse.write(URL("logout"))\nresponse.write(\'\\\'">Logout</button>\\n<body class="photo_container">\\n\\n</div>\\n  \\n<!--  <a class="Play" style="left: 320px; top: 100px;"></a>\\n<a class="Pause" style="left: 390px; top: 100px;"></a>\\n<a class="Stop" style="left: 470px; top: 100px;"></a> -->\\n\\n<a class="media_containers" >\\n\', escape=False)\nxxx=db(db.kids.username==session.username).select().first().rno\nresponse.write(\'\\n\', escape=False)\nif xxx==None:\n    response.write(\'\\n<img src="/astra2/static/bookworm.gif" width="640" height="480"> </img>\\n\', escape=False)\nelse:\n    response.write(\'\\n\', escape=False)\n    vid=db(db.rooms.rnum==xxx).select().first().vidurl\n    response.write(\'\\n<video width="640" height="400" controls="controls">  \\n        <source src="\', escape=False)\n    response.write(URL(\'static\', vid+\'.ogv\'))\n    response.write(\'" type="video/ogg">\\n</video>\\n\', escape=False)\n    pass\nresponse.write(\'</a>\\n\\n<div class="members_containers">Roommates\\n\', escape=False)\nxxx=db(db.kids.username==session.username).select().first().rno\nresponse.write(\'\\n\', escape=False)\nif xxx==None:\n    response.write(\'\\n\', escape=False)\nelse:\n    response.write(\'\\n\', escape=False)\n    for mate in db(db.kids.rno==xxx).select():\n        response.write(\'\\n\', escape=False)\n        if mate.username!=session.username:\n            response.write(\'\\n<p>\', escape=False)\n            response.write(mate.username)\n            response.write(\'</p>\\n\', escape=False)\n            pass\n        response.write(\'\\n\', escape=False)\n        pass\n    response.write(\'\\n\', escape=False)\n    pass\nresponse.write(\'\\n</div>\\n\\n<div class="story_containers">virtual rooms</br>\\n\', escape=False)\nfor row in db(db.rooms.active==True).select(orderby=db.rooms.rnum):\n    response.write(\'\\n<a href=\', escape=False)\n    response.write(URL(\'enter\', args=row.rnum))\n    response.write(\'>\', escape=False)\n    response.write(row.rnum)\n    response.write(\'</a>&nbsp;&nbsp;&nbsp;&nbsp;&nbsp;&nbsp;\\n\', escape=False)\n    pass\nresponse.write(\'</div>\\n<!--<a class="home" style="left: 67px; top: 15px;"></a>\\n  <a class="duck" style="right: 126px; top: 207px;"></a>\\n  \\n<a class="horse" style="left: 350px; bottom: -190px;"></a>-->\\n<a class="poo" style="left:71px; bottom: 10px;"></a>\\n\\n\\n</div>\\n<!--<button onclick="hide()" class="play">Play</button> \\n<button onckick="unhide()" class="play1">Pause</button>-->\\n\\n</body>\\n\\n\', escape=False)\nresponse.write(BEAUTIFY(response._vars))\nresponse.write(\'\\n</html>\\n\', escape=False)'
p7
sS'snapshot'
p8
(dp9
S'exception'
p10
(dp11
S'__hash__'
p12
S"<method-wrapper '__hash__' of exceptions.AttributeError object>"
p13
sS'__setattr__'
p14
S"<method-wrapper '__setattr__' of exceptions.AttributeError object>"
p15
sS'__reduce_ex__'
p16
S'<built-in method __reduce_ex__ of exceptions.AttributeError object>'
p17
sS'__getslice__'
p18
S"<method-wrapper '__getslice__' of exceptions.AttributeError object>"
p19
sS'__getitem__'
p20
S"<method-wrapper '__getitem__' of exceptions.AttributeError object>"
p21
sS'__setstate__'
p22
S'<built-in method __setstate__ of exceptions.AttributeError object>'
p23
sS'__reduce__'
p24
S'<built-in method __reduce__ of exceptions.AttributeError object>'
p25
sS'__str__'
p26
S"<method-wrapper '__str__' of exceptions.AttributeError object>"
p27
sS'__format__'
p28
S'<built-in method __format__ of exceptions.AttributeError object>'
p29
sS'__getattribute__'
p30
S"<method-wrapper '__getattribute__' of exceptions.AttributeError object>"
p31
sS'__class__'
p32
S"<type 'exceptions.AttributeError'>"
p33
sS'__unicode__'
p34
S'<built-in method __unicode__ of exceptions.AttributeError object>'
p35
sS'__delattr__'
p36
S"<method-wrapper '__delattr__' of exceptions.AttributeError object>"
p37
sS'__subclasshook__'
p38
S'<built-in method __subclasshook__ of type object>'
p39
sS'__repr__'
p40
S"<method-wrapper '__repr__' of exceptions.AttributeError object>"
p41
sS'args'
p42
S'("\'NoneType\' object has no attribute \'rno\'",)'
p43
sS'__dict__'
p44
S'{}'
p45
sS'__sizeof__'
p46
S'<built-in method __sizeof__ of exceptions.AttributeError object>'
p47
sS'__doc__'
p48
S"'Attribute not found.'"
p49
sS'__init__'
p50
S"<method-wrapper '__init__' of exceptions.AttributeError object>"
p51
sS'__new__'
p52
S'<built-in method __new__ of type object>'
p53
ssS'evalue'
p54
S"'NoneType' object has no attribute 'rno'"
p55
sS'request'
p56
ccopy_reg
_reconstructor
p57
(cgluon.html
BEAUTIFY
p58
c__builtin__
object
p59
NtRp60
(dp61
S'attributes'
p62
(dp63
sS'components'
p64
(lp65
g57
(cgluon.html
TABLE
p66
g59
NtRp67
(dp68
g62
(dp69
S'level'
p70
I5
ssS'parent'
p71
Nsg64
(lp72
g57
(cgluon.html
TR
p73
g59
NtRp74
(dp75
g62
(dp76
sg71
g67
sg64
(lp77
g57
(cgluon.html
TD
p78
g59
NtRp79
(dp80
g62
(dp81
S'_style'
p82
S'font-weight:bold;vertical-align:top'
p83
ssg71
g74
sg64
(lp84
S'ajax'
p85
asbag57
(g78
g59
NtRp86
(dp87
g62
(dp88
S'_valign'
p89
S'top'
p90
ssg71
g74
sg64
(lp91
S':'
asbag57
(g78
g59
NtRp92
(dp93
g62
(dp94
sg71
g74
sg64
(lp95
g57
(g58
g59
NtRp96
(dp97
g62
(dp98
g70
I5
ssg71
g92
sg64
(lp99
S'False'
p100
asbasbasbag57
(g73
g59
NtRp101
(dp102
g62
(dp103
sg71
g67
sg64
(lp104
g57
(g78
g59
NtRp105
(dp106
g62
(dp107
g82
g83
ssg71
g101
sg64
(lp108
S'application'
p109
asbag57
(g78
g59
NtRp110
(dp111
g62
(dp112
g89
g90
ssg71
g101
sg64
(lp113
S':'
asbag57
(g78
g59
NtRp114
(dp115
g62
(dp116
sg71
g101
sg64
(lp117
g57
(g58
g59
NtRp118
(dp119
g62
(dp120
g70
I5
ssg71
g114
sg64
(lp121
S'astra2'
p122
asbasbasbag57
(g73
g59
NtRp123
(dp124
g62
(dp125
sg71
g67
sg64
(lp126
g57
(g78
g59
NtRp127
(dp128
g62
(dp129
g82
g83
ssg71
g123
sg64
(lp130
g42
asbag57
(g78
g59
NtRp131
(dp132
g62
(dp133
g89
g90
ssg71
g123
sg64
(lp134
S':'
asbag57
(g78
g59
NtRp135
(dp136
g62
(dp137
sg71
g123
sg64
(lp138
g57
(g58
g59
NtRp139
(dp140
g62
(dp141
g70
I5
ssg71
g135
sg64
(lp142
g57
(g66
g59
NtRp143
(dp144
g62
(dp145
g70
I4
ssg71
Nsg64
(lp146
sbasbasbasbag57
(g73
g59
NtRp147
(dp148
g62
(dp149
sg71
g67
sg64
(lp150
g57
(g78
g59
NtRp151
(dp152
g62
(dp153
g82
g83
ssg71
g147
sg64
(lp154
S'body'
p155
asbag57
(g78
g59
NtRp156
(dp157
g62
(dp158
g89
g90
ssg71
g147
sg64
(lp159
S':'
asbag57
(g78
g59
NtRp160
(dp161
g62
(dp162
sg71
g147
sg64
(lp163
g57
(g58
g59
NtRp164
(dp165
g62
(dp166
g70
I5
ssg71
g160
sg64
(lp167
S'<cStringIO.StringO object at 0xa60b3c0>'
p168
asbasbasbag57
(g73
g59
NtRp169
(dp170
g62
(dp171
sg71
g67
sg64
(lp172
g57
(g78
g59
NtRp173
(dp174
g62
(dp175
g82
g83
ssg71
g169
sg64
(lp176
S'client'
p177
asbag57
(g78
g59
NtRp178
(dp179
g62
(dp180
g89
g90
ssg71
g169
sg64
(lp181
S':'
asbag57
(g78
g59
NtRp182
(dp183
g62
(dp184
sg71
g169
sg64
(lp185
g57
(g58
g59
NtRp186
(dp187
g62
(dp188
g70
I5
ssg71
g182
sg64
(lp189
S'10.1.40.240'
p190
asbasbasbag57
(g73
g59
NtRp191
(dp192
g62
(dp193
sg71
g67
sg64
(lp194
g57
(g78
g59
NtRp195
(dp196
g62
(dp197
g82
g83
ssg71
g191
sg64
(lp198
S'controller'
p199
asbag57
(g78
g59
NtRp200
(dp201
g62
(dp202
g89
g90
ssg71
g191
sg64
(lp203
S':'
asbag57
(g78
g59
NtRp204
(dp205
g62
(dp206
sg71
g191
sg64
(lp207
g57
(g58
g59
NtRp208
(dp209
g62
(dp210
g70
I5
ssg71
g204
sg64
(lp211
S'default'
p212
asbasbasbag57
(g73
g59
NtRp213
(dp214
g62
(dp215
sg71
g67
sg64
(lp216
g57
(g78
g59
NtRp217
(dp218
g62
(dp219
g82
g83
ssg71
g213
sg64
(lp220
S'cookies'
p221
asbag57
(g78
g59
NtRp222
(dp223
g62
(dp224
g89
g90
ssg71
g213
sg64
(lp225
S':'
asbag57
(g78
g59
NtRp226
(dp227
g62
(dp228
sg71
g213
sg64
(lp229
g57
(g58
g59
NtRp230
(dp231
g62
(dp232
g70
I5
ssg71
g226
sg64
(lp233
g57
(g66
g59
NtRp234
(dp235
g62
(dp236
g70
I4
ssg71
Nsg64
(lp237
g57
(g73
g59
NtRp238
(dp239
g62
(dp240
sg71
g234
sg64
(lp241
g57
(g78
g59
NtRp242
(dp243
g62
(dp244
g82
g83
ssg71
g238
sg64
(lp245
S'session_id_astra2'
p246
asbag57
(g78
g59
NtRp247
(dp248
g62
(dp249
g89
g90
ssg71
g238
sg64
(lp250
S':'
asbag57
(g78
g59
NtRp251
(dp252
g62
(dp253
sg71
g238
sg64
(lp254
g57
(g58
g59
NtRp255
(dp256
g62
(dp257
g70
I4
ssg71
g251
sg64
(lp258
g57
(g66
g59
NtRp259
(dp260
g62
(dp261
g70
I3
ssg71
Nsg64
(lp262
g57
(g73
g59
NtRp263
(dp264
g62
(dp265
sg71
g259
sg64
(lp266
g57
(g78
g59
NtRp267
(dp268
g62
(dp269
g82
g83
ssg71
g263
sg64
(lp270
S'comment'
p271
asbag57
(g78
g59
NtRp272
(dp273
g62
(dp274
g89
g90
ssg71
g263
sg64
(lp275
S':'
asbag57
(g78
g59
NtRp276
(dp277
g62
(dp278
sg71
g263
sg64
(lp279
g57
(g58
g59
NtRp280
(dp281
g62
(dp282
g70
I3
ssg71
g276
sg64
(lp283
S''
asbasbasbag57
(g73
g59
NtRp284
(dp285
g62
(dp286
sg71
g259
sg64
(lp287
g57
(g78
g59
NtRp288
(dp289
g62
(dp290
g82
g83
ssg71
g284
sg64
(lp291
S'domain'
p292
asbag57
(g78
g59
NtRp293
(dp294
g62
(dp295
g89
g90
ssg71
g284
sg64
(lp296
S':'
asbag57
(g78
g59
NtRp297
(dp298
g62
(dp299
sg71
g284
sg64
(lp300
g57
(g58
g59
NtRp301
(dp302
g62
(dp303
g70
I3
ssg71
g297
sg64
(lp304
S''
asbasbasbag57
(g73
g59
NtRp305
(dp306
g62
(dp307
sg71
g259
sg64
(lp308
g57
(g78
g59
NtRp309
(dp310
g62
(dp311
g82
g83
ssg71
g305
sg64
(lp312
S'expires'
p313
asbag57
(g78
g59
NtRp314
(dp315
g62
(dp316
g89
g90
ssg71
g305
sg64
(lp317
S':'
asbag57
(g78
g59
NtRp318
(dp319
g62
(dp320
sg71
g305
sg64
(lp321
g57
(g58
g59
NtRp322
(dp323
g62
(dp324
g70
I3
ssg71
g318
sg64
(lp325
S''
asbasbasbag57
(g73
g59
NtRp326
(dp327
g62
(dp328
sg71
g259
sg64
(lp329
g57
(g78
g59
NtRp330
(dp331
g62
(dp332
g82
g83
ssg71
g326
sg64
(lp333
S'httponly'
p334
asbag57
(g78
g59
NtRp335
(dp336
g62
(dp337
g89
g90
ssg71
g326
sg64
(lp338
S':'
asbag57
(g78
g59
NtRp339
(dp340
g62
(dp341
sg71
g326
sg64
(lp342
g57
(g58
g59
NtRp343
(dp344
g62
(dp345
g70
I3
ssg71
g339
sg64
(lp346
S''
asbasbasbag57
(g73
g59
NtRp347
(dp348
g62
(dp349
sg71
g259
sg64
(lp350
g57
(g78
g59
NtRp351
(dp352
g62
(dp353
g82
g83
ssg71
g347
sg64
(lp354
S'max-age'
p355
asbag57
(g78
g59
NtRp356
(dp357
g62
(dp358
g89
g90
ssg71
g347
sg64
(lp359
S':'
asbag57
(g78
g59
NtRp360
(dp361
g62
(dp362
sg71
g347
sg64
(lp363
g57
(g58
g59
NtRp364
(dp365
g62
(dp366
g70
I3
ssg71
g360
sg64
(lp367
S''
asbasbasbag57
(g73
g59
NtRp368
(dp369
g62
(dp370
sg71
g259
sg64
(lp371
g57
(g78
g59
NtRp372
(dp373
g62
(dp374
g82
g83
ssg71
g368
sg64
(lp375
S'path'
p376
asbag57
(g78
g59
NtRp377
(dp378
g62
(dp379
g89
g90
ssg71
g368
sg64
(lp380
S':'
asbag57
(g78
g59
NtRp381
(dp382
g62
(dp383
sg71
g368
sg64
(lp384
g57
(g58
g59
NtRp385
(dp386
g62
(dp387
g70
I3
ssg71
g381
sg64
(lp388
S''
asbasbasbag57
(g73
g59
NtRp389
(dp390
g62
(dp391
sg71
g259
sg64
(lp392
g57
(g78
g59
NtRp393
(dp394
g62
(dp395
g82
g83
ssg71
g389
sg64
(lp396
S'secure'
p397
asbag57
(g78
g59
NtRp398
(dp399
g62
(dp400
g89
g90
ssg71
g389
sg64
(lp401
S':'
asbag57
(g78
g59
NtRp402
(dp403
g62
(dp404
sg71
g389
sg64
(lp405
g57
(g58
g59
NtRp406
(dp407
g62
(dp408
g70
I3
ssg71
g402
sg64
(lp409
S''
asbasbasbag57
(g73
g59
NtRp410
(dp411
g62
(dp412
sg71
g259
sg64
(lp413
g57
(g78
g59
NtRp414
(dp415
g62
(dp416
g82
g83
ssg71
g410
sg64
(lp417
S'version'
p418
asbag57
(g78
g59
NtRp419
(dp420
g62
(dp421
g89
g90
ssg71
g410
sg64
(lp422
S':'
asbag57
(g78
g59
NtRp423
(dp424
g62
(dp425
sg71
g410
sg64
(lp426
g57
(g58
g59
NtRp427
(dp428
g62
(dp429
g70
I3
ssg71
g423
sg64
(lp430
S''
asbasbasbasbasbasbasbasbasbasbasbag57
(g73
g59
NtRp431
(dp432
g62
(dp433
sg71
g67
sg64
(lp434
g57
(g78
g59
NtRp435
(dp436
g62
(dp437
g82
g83
ssg71
g431
sg64
(lp438
S'env'
p439
asbag57
(g78
g59
NtRp440
(dp441
g62
(dp442
g89
g90
ssg71
g431
sg64
(lp443
S':'
asbag57
(g78
g59
NtRp444
(dp445
g62
(dp446
sg71
g431
sg64
(lp447
g57
(g58
g59
NtRp448
(dp449
g62
(dp450
g70
I5
ssg71
g444
sg64
(lp451
g57
(g66
g59
NtRp452
(dp453
g62
(dp454
g70
I4
ssg71
Nsg64
(lp455
g57
(g73
g59
NtRp456
(dp457
g62
(dp458
sg71
g452
sg64
(lp459
g57
(g78
g59
NtRp460
(dp461
g62
(dp462
g82
g83
ssg71
g456
sg64
(lp463
S'app_folders'
p464
asbag57
(g78
g59
NtRp465
(dp466
g62
(dp467
g89
g90
ssg71
g456
sg64
(lp468
S':'
asbag57
(g78
g59
NtRp469
(dp470
g62
(dp471
sg71
g456
sg64
(lp472
g57
(g58
g59
NtRp473
(dp474
g62
(dp475
g70
I4
ssg71
g469
sg64
(lp476
S"set(['/home/vishrut/web2py/applications/astra2/', '/home/vishrut/web2py/applications/admin/', '/home/vishrut/web2py/applications/welcome/'])"
p477
asbasbasbag57
(g73
g59
NtRp478
(dp479
g62
(dp480
sg71
g452
sg64
(lp481
g57
(g78
g59
NtRp482
(dp483
g62
(dp484
g82
g83
ssg71
g478
sg64
(lp485
S'applications_parent'
p486
asbag57
(g78
g59
NtRp487
(dp488
g62
(dp489
g89
g90
ssg71
g478
sg64
(lp490
S':'
asbag57
(g78
g59
NtRp491
(dp492
g62
(dp493
sg71
g478
sg64
(lp494
g57
(g58
g59
NtRp495
(dp496
g62
(dp497
g70
I4
ssg71
g491
sg64
(lp498
S'/home/vishrut/web2py'
p499
asbasbasbag57
(g73
g59
NtRp500
(dp501
g62
(dp502
sg71
g452
sg64
(lp503
g57
(g78
g59
NtRp504
(dp505
g62
(dp506
g82
g83
ssg71
g500
sg64
(lp507
S'cmd_args'
p508
asbag57
(g78
g59
NtRp509
(dp510
g62
(dp511
g89
g90
ssg71
g500
sg64
(lp512
S':'
asbag57
(g78
g59
NtRp513
(dp514
g62
(dp515
sg71
g500
sg64
(lp516
g57
(g58
g59
NtRp517
(dp518
g62
(dp519
g70
I4
ssg71
g513
sg64
(lp520
g57
(g66
g59
NtRp521
(dp522
g62
(dp523
g70
I3
ssg71
Nsg64
(lp524
sbasbasbasbag57
(g73
g59
NtRp525
(dp526
g62
(dp527
sg71
g452
sg64
(lp528
g57
(g78
g59
NtRp529
(dp530
g62
(dp531
g82
g83
ssg71
g525
sg64
(lp532
S'cmd_options'
p533
asbag57
(g78
g59
NtRp534
(dp535
g62
(dp536
g89
g90
ssg71
g525
sg64
(lp537
S':'
asbag57
(g78
g59
NtRp538
(dp539
g62
(dp540
sg71
g525
sg64
(lp541
g57
(g58
g59
NtRp542
(dp543
g62
(dp544
g70
I4
ssg71
g538
sg64
(lp545
S"<Values at 0xa2b142c: {'verbose': False, 'ip': '10.1.39.88', 'shutdown_timeout': 5, 'taskbar': False, 'nocron': False, 'pid_filename': 'httpserver.pid', 'maxthreads': None, 'softcron': False, 'server_name': 'vishrut-Vostro-1015', 'bpython': False, 'nogui': False, 'port': 8000, 'extcron': False, 'debuglevel': 30, 'test': None, 'folder': '/home/vishrut/web2py', 'config': '', 'import_models': False, 'winservice': '', 'shell': None, 'run': '', 'log_filename': 'httpserver.log', 'args': [''], 'socket_timeout': 5, 'ssl_ca_certificate': None, 'scheduler': None, 'profiler_filename': None, 'ssl_private_key': '', 'password': 'mehta123', 'request_queue_size': 5, 'ssl_certificate': '', 'cronjob': False, 'numthreads': None, 'quiet': False, 'interfaces': None, 'minthreads': None, 'timeout': 10, 'plain': False, 'nobanner': False}>"
p546
asbasbasbag57
(g73
g59
NtRp547
(dp548
g62
(dp549
sg71
g452
sg64
(lp550
g57
(g78
g59
NtRp551
(dp552
g62
(dp553
g82
g83
ssg71
g547
sg64
(lp554
S'db_sessions'
p555
asbag57
(g78
g59
NtRp556
(dp557
g62
(dp558
g89
g90
ssg71
g547
sg64
(lp559
S':'
asbag57
(g78
g59
NtRp560
(dp561
g62
(dp562
sg71
g547
sg64
(lp563
g57
(g58
g59
NtRp564
(dp565
g62
(dp566
g70
I4
ssg71
g560
sg64
(lp567
S'set([])'
p568
asbasbasbag57
(g73
g59
NtRp569
(dp570
g62
(dp571
sg71
g452
sg64
(lp572
g57
(g78
g59
NtRp573
(dp574
g62
(dp575
g82
g83
ssg71
g569
sg64
(lp576
S'debugging'
p577
asbag57
(g78
g59
NtRp578
(dp579
g62
(dp580
g89
g90
ssg71
g569
sg64
(lp581
S':'
asbag57
(g78
g59
NtRp582
(dp583
g62
(dp584
sg71
g569
sg64
(lp585
g57
(g58
g59
NtRp586
(dp587
g62
(dp588
g70
I4
ssg71
g582
sg64
(lp589
g100
asbasbasbag57
(g73
g59
NtRp590
(dp591
g62
(dp592
sg71
g452
sg64
(lp593
g57
(g78
g59
NtRp594
(dp595
g62
(dp596
g82
g83
ssg71
g590
sg64
(lp597
S'gluon_parent'
p598
asbag57
(g78
g59
NtRp599
(dp600
g62
(dp601
g89
g90
ssg71
g590
sg64
(lp602
S':'
asbag57
(g78
g59
NtRp603
(dp604
g62
(dp605
sg71
g590
sg64
(lp606
g57
(g58
g59
NtRp607
(dp608
g62
(dp609
g70
I4
ssg71
g603
sg64
(lp610
S'/home/vishrut/web2py'
p611
asbasbasbag57
(g73
g59
NtRp612
(dp613
g62
(dp614
sg71
g452
sg64
(lp615
g57
(g78
g59
NtRp616
(dp617
g62
(dp618
g82
g83
ssg71
g612
sg64
(lp619
S'http_accept'
p620
asbag57
(g78
g59
NtRp621
(dp622
g62
(dp623
g89
g90
ssg71
g612
sg64
(lp624
S':'
asbag57
(g78
g59
NtRp625
(dp626
g62
(dp627
sg71
g612
sg64
(lp628
g57
(g58
g59
NtRp629
(dp630
g62
(dp631
g70
I4
ssg71
g625
sg64
(lp632
S'text/html,application/xhtml+xml,application/xml;q=0.9,*/*;q=0.8'
p633
asbasbasbag57
(g73
g59
NtRp634
(dp635
g62
(dp636
sg71
g452
sg64
(lp637
g57
(g78
g59
NtRp638
(dp639
g62
(dp640
g82
g83
ssg71
g634
sg64
(lp641
S'http_accept_encoding'
p642
asbag57
(g78
g59
NtRp643
(dp644
g62
(dp645
g89
g90
ssg71
g634
sg64
(lp646
S':'
asbag57
(g78
g59
NtRp647
(dp648
g62
(dp649
sg71
g634
sg64
(lp650
g57
(g58
g59
NtRp651
(dp652
g62
(dp653
g70
I4
ssg71
g647
sg64
(lp654
S'gzip, deflate'
p655
asbasbasbag57
(g73
g59
NtRp656
(dp657
g62
(dp658
sg71
g452
sg64
(lp659
g57
(g78
g59
NtRp660
(dp661
g62
(dp662
g82
g83
ssg71
g656
sg64
(lp663
S'http_accept_language'
p664
asbag57
(g78
g59
NtRp665
(dp666
g62
(dp667
g89
g90
ssg71
g656
sg64
(lp668
S':'
asbag57
(g78
g59
NtRp669
(dp670
g62
(dp671
sg71
g656
sg64
(lp672
g57
(g58
g59
NtRp673
(dp674
g62
(dp675
g70
I4
ssg71
g669
sg64
(lp676
S'en-us,en;q=0.5'
p677
asbasbasbag57
(g73
g59
NtRp678
(dp679
g62
(dp680
sg71
g452
sg64
(lp681
g57
(g78
g59
NtRp682
(dp683
g62
(dp684
g82
g83
ssg71
g678
sg64
(lp685
S'http_connection'
p686
asbag57
(g78
g59
NtRp687
(dp688
g62
(dp689
g89
g90
ssg71
g678
sg64
(lp690
S':'
asbag57
(g78
g59
NtRp691
(dp692
g62
(dp693
sg71
g678
sg64
(lp694
g57
(g58
g59
NtRp695
(dp696
g62
(dp697
g70
I4
ssg71
g691
sg64
(lp698
S'keep-alive'
p699
asbasbasbag57
(g73
g59
NtRp700
(dp701
g62
(dp702
sg71
g452
sg64
(lp703
g57
(g78
g59
NtRp704
(dp705
g62
(dp706
g82
g83
ssg71
g700
sg64
(lp707
S'http_cookie'
p708
asbag57
(g78
g59
NtRp709
(dp710
g62
(dp711
g89
g90
ssg71
g700
sg64
(lp712
S':'
asbag57
(g78
g59
NtRp713
(dp714
g62
(dp715
sg71
g700
sg64
(lp716
g57
(g58
g59
NtRp717
(dp718
g62
(dp719
g70
I4
ssg71
g713
sg64
(lp720
S'session_id_astra2=10.1.40.240-772653b4-baef-464f-a28a-f40048fbf917'
p721
asbasbasbag57
(g73
g59
NtRp722
(dp723
g62
(dp724
sg71
g452
sg64
(lp725
g57
(g78
g59
NtRp726
(dp727
g62
(dp728
g82
g83
ssg71
g722
sg64
(lp729
S'http_host'
p730
asbag57
(g78
g59
NtRp731
(dp732
g62
(dp733
g89
g90
ssg71
g722
sg64
(lp734
S':'
asbag57
(g78
g59
NtRp735
(dp736
g62
(dp737
sg71
g722
sg64
(lp738
g57
(g58
g59
NtRp739
(dp740
g62
(dp741
g70
I4
ssg71
g735
sg64
(lp742
S'10.1.39.88:8000'
p743
asbasbasbag57
(g73
g59
NtRp744
(dp745
g62
(dp746
sg71
g452
sg64
(lp747
g57
(g78
g59
NtRp748
(dp749
g62
(dp750
g82
g83
ssg71
g744
sg64
(lp751
S'http_referer'
p752
asbag57
(g78
g59
NtRp753
(dp754
g62
(dp755
g89
g90
ssg71
g744
sg64
(lp756
S':'
asbag57
(g78
g59
NtRp757
(dp758
g62
(dp759
sg71
g744
sg64
(lp760
g57
(g58
g59
NtRp761
(dp762
g62
(dp763
g70
I4
ssg71
g757
sg64
(lp764
S'http://10.1.39.88:8000/astra2/default/show'
p765
asbasbasbag57
(g73
g59
NtRp766
(dp767
g62
(dp768
sg71
g452
sg64
(lp769
g57
(g78
g59
NtRp770
(dp771
g62
(dp772
g82
g83
ssg71
g766
sg64
(lp773
S'http_user_agent'
p774
asbag57
(g78
g59
NtRp775
(dp776
g62
(dp777
g89
g90
ssg71
g766
sg64
(lp778
S':'
asbag57
(g78
g59
NtRp779
(dp780
g62
(dp781
sg71
g766
sg64
(lp782
g57
(g58
g59
NtRp783
(dp784
g62
(dp785
g70
I4
ssg71
g779
sg64
(lp786
S'Mozilla/5.0 (Windows NT 6.1; WOW64; rv:12.0) Gecko/20100101 Firefox/12.0'
p787
asbasbasbag57
(g73
g59
NtRp788
(dp789
g62
(dp790
sg71
g452
sg64
(lp791
g57
(g78
g59
NtRp792
(dp793
g62
(dp794
g82
g83
ssg71
g788
sg64
(lp795
S'is_jython'
p796
asbag57
(g78
g59
NtRp797
(dp798
g62
(dp799
g89
g90
ssg71
g788
sg64
(lp800
S':'
asbag57
(g78
g59
NtRp801
(dp802
g62
(dp803
sg71
g788
sg64
(lp804
g57
(g58
g59
NtRp805
(dp806
g62
(dp807
g70
I4
ssg71
g801
sg64
(lp808
g100
asbasbasbag57
(g73
g59
NtRp809
(dp810
g62
(dp811
sg71
g452
sg64
(lp812
g57
(g78
g59
NtRp813
(dp814
g62
(dp815
g82
g83
ssg71
g809
sg64
(lp816
S'is_pypy'
p817
asbag57
(g78
g59
NtRp818
(dp819
g62
(dp820
g89
g90
ssg71
g809
sg64
(lp821
S':'
asbag57
(g78
g59
NtRp822
(dp823
g62
(dp824
sg71
g809
sg64
(lp825
g57
(g58
g59
NtRp826
(dp827
g62
(dp828
g70
I4
ssg71
g822
sg64
(lp829
g100
asbasbasbag57
(g73
g59
NtRp830
(dp831
g62
(dp832
sg71
g452
sg64
(lp833
g57
(g78
g59
NtRp834
(dp835
g62
(dp836
g82
g83
ssg71
g830
sg64
(lp837
S'path_info'
p838
asbag57
(g78
g59
NtRp839
(dp840
g62
(dp841
g89
g90
ssg71
g830
sg64
(lp842
S':'
asbag57
(g78
g59
NtRp843
(dp844
g62
(dp845
sg71
g830
sg64
(lp846
g57
(g58
g59
NtRp847
(dp848
g62
(dp849
g70
I4
ssg71
g843
sg64
(lp850
S'/astra2/default/show'
p851
asbasbasbag57
(g73
g59
NtRp852
(dp853
g62
(dp854
sg71
g452
sg64
(lp855
g57
(g78
g59
NtRp856
(dp857
g62
(dp858
g82
g83
ssg71
g852
sg64
(lp859
S'query_string'
p860
asbag57
(g78
g59
NtRp861
(dp862
g62
(dp863
g89
g90
ssg71
g852
sg64
(lp864
S':'
asbag57
(g78
g59
NtRp865
(dp866
g62
(dp867
sg71
g852
sg64
(lp868
g57
(g58
g59
NtRp869
(dp870
g62
(dp871
g70
I4
ssg71
g865
sg64
(lp872
S''
asbasbasbag57
(g73
g59
NtRp873
(dp874
g62
(dp875
sg71
g452
sg64
(lp876
g57
(g78
g59
NtRp877
(dp878
g62
(dp879
g82
g83
ssg71
g873
sg64
(lp880
S'remote_addr'
p881
asbag57
(g78
g59
NtRp882
(dp883
g62
(dp884
g89
g90
ssg71
g873
sg64
(lp885
S':'
asbag57
(g78
g59
NtRp886
(dp887
g62
(dp888
sg71
g873
sg64
(lp889
g57
(g58
g59
NtRp890
(dp891
g62
(dp892
g70
I4
ssg71
g886
sg64
(lp893
g190
asbasbasbag57
(g73
g59
NtRp894
(dp895
g62
(dp896
sg71
g452
sg64
(lp897
g57
(g78
g59
NtRp898
(dp899
g62
(dp900
g82
g83
ssg71
g894
sg64
(lp901
S'remote_port'
p902
asbag57
(g78
g59
NtRp903
(dp904
g62
(dp905
g89
g90
ssg71
g894
sg64
(lp906
S':'
asbag57
(g78
g59
NtRp907
(dp908
g62
(dp909
sg71
g894
sg64
(lp910
g57
(g58
g59
NtRp911
(dp912
g62
(dp913
g70
I4
ssg71
g907
sg64
(lp914
S'49601'
p915
asbasbasbag57
(g73
g59
NtRp916
(dp917
g62
(dp918
sg71
g452
sg64
(lp919
g57
(g78
g59
NtRp920
(dp921
g62
(dp922
g82
g83
ssg71
g916
sg64
(lp923
S'request_method'
p924
asbag57
(g78
g59
NtRp925
(dp926
g62
(dp927
g89
g90
ssg71
g916
sg64
(lp928
S':'
asbag57
(g78
g59
NtRp929
(dp930
g62
(dp931
sg71
g916
sg64
(lp932
g57
(g58
g59
NtRp933
(dp934
g62
(dp935
g70
I4
ssg71
g929
sg64
(lp936
S'GET'
p937
asbasbasbag57
(g73
g59
NtRp938
(dp939
g62
(dp940
sg71
g452
sg64
(lp941
g57
(g78
g59
NtRp942
(dp943
g62
(dp944
g82
g83
ssg71
g938
sg64
(lp945
S'script_name'
p946
asbag57
(g78
g59
NtRp947
(dp948
g62
(dp949
g89
g90
ssg71
g938
sg64
(lp950
S':'
asbag57
(g78
g59
NtRp951
(dp952
g62
(dp953
sg71
g938
sg64
(lp954
g57
(g58
g59
NtRp955
(dp956
g62
(dp957
g70
I4
ssg71
g951
sg64
(lp958
S''
asbasbasbag57
(g73
g59
NtRp959
(dp960
g62
(dp961
sg71
g452
sg64
(lp962
g57
(g78
g59
NtRp963
(dp964
g62
(dp965
g82
g83
ssg71
g959
sg64
(lp966
S'server_name'
p967
asbag57
(g78
g59
NtRp968
(dp969
g62
(dp970
g89
g90
ssg71
g959
sg64
(lp971
S':'
asbag57
(g78
g59
NtRp972
(dp973
g62
(dp974
sg71
g959
sg64
(lp975
g57
(g58
g59
NtRp976
(dp977
g62
(dp978
g70
I4
ssg71
g972
sg64
(lp979
S'vishrut-Vostro-1015'
p980
asbasbasbag57
(g73
g59
NtRp981
(dp982
g62
(dp983
sg71
g452
sg64
(lp984
g57
(g78
g59
NtRp985
(dp986
g62
(dp987
g82
g83
ssg71
g981
sg64
(lp988
S'server_port'
p989
asbag57
(g78
g59
NtRp990
(dp991
g62
(dp992
g89
g90
ssg71
g981
sg64
(lp993
S':'
asbag57
(g78
g59
NtRp994
(dp995
g62
(dp996
sg71
g981
sg64
(lp997
g57
(g58
g59
NtRp998
(dp999
g62
(dp1000
g70
I4
ssg71
g994
sg64
(lp1001
S'8000'
p1002
asbasbasbag57
(g73
g59
NtRp1003
(dp1004
g62
(dp1005
sg71
g452
sg64
(lp1006
g57
(g78
g59
NtRp1007
(dp1008
g62
(dp1009
g82
g83
ssg71
g1003
sg64
(lp1010
S'server_protocol'
p1011
asbag57
(g78
g59
NtRp1012
(dp1013
g62
(dp1014
g89
g90
ssg71
g1003
sg64
(lp1015
S':'
asbag57
(g78
g59
NtRp1016
(dp1017
g62
(dp1018
sg71
g1003
sg64
(lp1019
g57
(g58
g59
NtRp1020
(dp1021
g62
(dp1022
g70
I4
ssg71
g1016
sg64
(lp1023
S'HTTP/1.1'
p1024
asbasbasbag57
(g73
g59
NtRp1025
(dp1026
g62
(dp1027
sg71
g452
sg64
(lp1028
g57
(g78
g59
NtRp1029
(dp1030
g62
(dp1031
g82
g83
ssg71
g1025
sg64
(lp1032
S'server_software'
p1033
asbag57
(g78
g59
NtRp1034
(dp1035
g62
(dp1036
g89
g90
ssg71
g1025
sg64
(lp1037
S':'
asbag57
(g78
g59
NtRp1038
(dp1039
g62
(dp1040
sg71
g1025
sg64
(lp1041
g57
(g58
g59
NtRp1042
(dp1043
g62
(dp1044
g70
I4
ssg71
g1038
sg64
(lp1045
S'Rocket 1.2.4'
p1046
asbasbasbag57
(g73
g59
NtRp1047
(dp1048
g62
(dp1049
sg71
g452
sg64
(lp1050
g57
(g78
g59
NtRp1051
(dp1052
g62
(dp1053
g82
g83
ssg71
g1047
sg64
(lp1054
S'web2py_crontype'
p1055
asbag57
(g78
g59
NtRp1056
(dp1057
g62
(dp1058
g89
g90
ssg71
g1047
sg64
(lp1059
S':'
asbag57
(g78
g59
NtRp1060
(dp1061
g62
(dp1062
sg71
g1047
sg64
(lp1063
g57
(g58
g59
NtRp1064
(dp1065
g62
(dp1066
g70
I4
ssg71
g1060
sg64
(lp1067
S'hard'
p1068
asbasbasbag57
(g73
g59
NtRp1069
(dp1070
g62
(dp1071
sg71
g452
sg64
(lp1072
g57
(g78
g59
NtRp1073
(dp1074
g62
(dp1075
g82
g83
ssg71
g1069
sg64
(lp1076
S'web2py_path'
p1077
asbag57
(g78
g59
NtRp1078
(dp1079
g62
(dp1080
g89
g90
ssg71
g1069
sg64
(lp1081
S':'
asbag57
(g78
g59
NtRp1082
(dp1083
g62
(dp1084
sg71
g1069
sg64
(lp1085
g57
(g58
g59
NtRp1086
(dp1087
g62
(dp1088
g70
I4
ssg71
g1082
sg64
(lp1089
g499
asbasbasbag57
(g73
g59
NtRp1090
(dp1091
g62
(dp1092
sg71
g452
sg64
(lp1093
g57
(g78
g59
NtRp1094
(dp1095
g62
(dp1096
g82
g83
ssg71
g1090
sg64
(lp1097
S'web2py_version'
p1098
asbag57
(g78
g59
NtRp1099
(dp1100
g62
(dp1101
g89
g90
ssg71
g1090
sg64
(lp1102
S':'
asbag57
(g78
g59
NtRp1103
(dp1104
g62
(dp1105
sg71
g1090
sg64
(lp1106
g57
(g58
g59
NtRp1107
(dp1108
g62
(dp1109
g70
I4
ssg71
g1103
sg64
(lp1110
g57
(g66
g59
NtRp1111
(dp1112
g62
(dp1113
g70
I3
ssg71
Nsg64
(lp1114
g57
(g73
g59
NtRp1115
(dp1116
g62
(dp1117
sg71
g1111
sg64
(lp1118
g57
(g78
g59
NtRp1119
(dp1120
g62
(dp1121
sg71
g1115
sg64
(lp1122
g57
(g58
g59
NtRp1123
(dp1124
g62
(dp1125
g70
I3
ssg71
g1119
sg64
(lp1126
S'1'
asbasbasbag57
(g73
g59
NtRp1127
(dp1128
g62
(dp1129
sg71
g1111
sg64
(lp1130
g57
(g78
g59
NtRp1131
(dp1132
g62
(dp1133
sg71
g1127
sg64
(lp1134
g57
(g58
g59
NtRp1135
(dp1136
g62
(dp1137
g70
I3
ssg71
g1131
sg64
(lp1138
S'99'
p1139
asbasbasbag57
(g73
g59
NtRp1140
(dp1141
g62
(dp1142
sg71
g1111
sg64
(lp1143
g57
(g78
g59
NtRp1144
(dp1145
g62
(dp1146
sg71
g1140
sg64
(lp1147
g57
(g58
g59
NtRp1148
(dp1149
g62
(dp1150
g70
I3
ssg71
g1144
sg64
(lp1151
S'7'
asbasbasbag57
(g73
g59
NtRp1152
(dp1153
g62
(dp1154
sg71
g1111
sg64
(lp1155
g57
(g78
g59
NtRp1156
(dp1157
g62
(dp1158
sg71
g1152
sg64
(lp1159
g57
(g58
g59
NtRp1160
(dp1161
g62
(dp1162
g70
I3
ssg71
g1156
sg64
(lp1163
S'datetime.datetime(2012, 3, 4, 22, 12, 8)'
p1164
asbasbasbag57
(g73
g59
NtRp1165
(dp1166
g62
(dp1167
sg71
g1111
sg64
(lp1168
g57
(g78
g59
NtRp1169
(dp1170
g62
(dp1171
sg71
g1165
sg64
(lp1172
g57
(g58
g59
NtRp1173
(dp1174
g62
(dp1175
g70
I3
ssg71
g1169
sg64
(lp1176
S'stable'
p1177
asbasbasbasbasbasbasbag57
(g73
g59
NtRp1178
(dp1179
g62
(dp1180
sg71
g452
sg64
(lp1181
g57
(g78
g59
NtRp1182
(dp1183
g62
(dp1184
g82
g83
ssg71
g1178
sg64
(lp1185
S'wsgi_errors'
p1186
asbag57
(g78
g59
NtRp1187
(dp1188
g62
(dp1189
g89
g90
ssg71
g1178
sg64
(lp1190
S':'
asbag57
(g78
g59
NtRp1191
(dp1192
g62
(dp1193
sg71
g1178
sg64
(lp1194
g57
(g58
g59
NtRp1195
(dp1196
g62
(dp1197
g70
I4
ssg71
g1191
sg64
(lp1198
S"<open file '<stderr>', mode 'w' at 0xb77860d0>"
p1199
asbasbasbag57
(g73
g59
NtRp1200
(dp1201
g62
(dp1202
sg71
g452
sg64
(lp1203
g57
(g78
g59
NtRp1204
(dp1205
g62
(dp1206
g82
g83
ssg71
g1200
sg64
(lp1207
S'wsgi_file_wrapper'
p1208
asbag57
(g78
g59
NtRp1209
(dp1210
g62
(dp1211
g89
g90
ssg71
g1200
sg64
(lp1212
S':'
asbag57
(g78
g59
NtRp1213
(dp1214
g62
(dp1215
sg71
g1200
sg64
(lp1216
g57
(g58
g59
NtRp1217
(dp1218
g62
(dp1219
g70
I4
ssg71
g1213
sg64
(lp1220
S'<class wsgiref.util.FileWrapper at 0xa1ddaac>'
p1221
asbasbasbag57
(g73
g59
NtRp1222
(dp1223
g62
(dp1224
sg71
g452
sg64
(lp1225
g57
(g78
g59
NtRp1226
(dp1227
g62
(dp1228
g82
g83
ssg71
g1222
sg64
(lp1229
S'wsgi_input'
p1230
asbag57
(g78
g59
NtRp1231
(dp1232
g62
(dp1233
g89
g90
ssg71
g1222
sg64
(lp1234
S':'
asbag57
(g78
g59
NtRp1235
(dp1236
g62
(dp1237
sg71
g1222
sg64
(lp1238
g57
(g58
g59
NtRp1239
(dp1240
g62
(dp1241
g70
I4
ssg71
g1235
sg64
(lp1242
S'<socket._fileobject object at 0xa423dac>'
p1243
asbasbasbag57
(g73
g59
NtRp1244
(dp1245
g62
(dp1246
sg71
g452
sg64
(lp1247
g57
(g78
g59
NtRp1248
(dp1249
g62
(dp1250
g82
g83
ssg71
g1244
sg64
(lp1251
S'wsgi_multiprocess'
p1252
asbag57
(g78
g59
NtRp1253
(dp1254
g62
(dp1255
g89
g90
ssg71
g1244
sg64
(lp1256
S':'
asbag57
(g78
g59
NtRp1257
(dp1258
g62
(dp1259
sg71
g1244
sg64
(lp1260
g57
(g58
g59
NtRp1261
(dp1262
g62
(dp1263
g70
I4
ssg71
g1257
sg64
(lp1264
g100
asbasbasbag57
(g73
g59
NtRp1265
(dp1266
g62
(dp1267
sg71
g452
sg64
(lp1268
g57
(g78
g59
NtRp1269
(dp1270
g62
(dp1271
g82
g83
ssg71
g1265
sg64
(lp1272
S'wsgi_multithread'
p1273
asbag57
(g78
g59
NtRp1274
(dp1275
g62
(dp1276
g89
g90
ssg71
g1265
sg64
(lp1277
S':'
asbag57
(g78
g59
NtRp1278
(dp1279
g62
(dp1280
sg71
g1265
sg64
(lp1281
g57
(g58
g59
NtRp1282
(dp1283
g62
(dp1284
g70
I4
ssg71
g1278
sg64
(lp1285
S'True'
p1286
asbasbasbag57
(g73
g59
NtRp1287
(dp1288
g62
(dp1289
sg71
g452
sg64
(lp1290
g57
(g78
g59
NtRp1291
(dp1292
g62
(dp1293
g82
g83
ssg71
g1287
sg64
(lp1294
S'wsgi_run_once'
p1295
asbag57
(g78
g59
NtRp1296
(dp1297
g62
(dp1298
g89
g90
ssg71
g1287
sg64
(lp1299
S':'
asbag57
(g78
g59
NtRp1300
(dp1301
g62
(dp1302
sg71
g1287
sg64
(lp1303
g57
(g58
g59
NtRp1304
(dp1305
g62
(dp1306
g70
I4
ssg71
g1300
sg64
(lp1307
g100
asbasbasbag57
(g73
g59
NtRp1308
(dp1309
g62
(dp1310
sg71
g452
sg64
(lp1311
g57
(g78
g59
NtRp1312
(dp1313
g62
(dp1314
g82
g83
ssg71
g1308
sg64
(lp1315
S'wsgi_url_scheme'
p1316
asbag57
(g78
g59
NtRp1317
(dp1318
g62
(dp1319
g89
g90
ssg71
g1308
sg64
(lp1320
S':'
asbag57
(g78
g59
NtRp1321
(dp1322
g62
(dp1323
sg71
g1308
sg64
(lp1324
g57
(g58
g59
NtRp1325
(dp1326
g62
(dp1327
g70
I4
ssg71
g1321
sg64
(lp1328
S'http'
p1329
asbasbasbag57
(g73
g59
NtRp1330
(dp1331
g62
(dp1332
sg71
g452
sg64
(lp1333
g57
(g78
g59
NtRp1334
(dp1335
g62
(dp1336
g82
g83
ssg71
g1330
sg64
(lp1337
S'wsgi_version'
p1338
asbag57
(g78
g59
NtRp1339
(dp1340
g62
(dp1341
g89
g90
ssg71
g1330
sg64
(lp1342
S':'
asbag57
(g78
g59
NtRp1343
(dp1344
g62
(dp1345
sg71
g1330
sg64
(lp1346
g57
(g58
g59
NtRp1347
(dp1348
g62
(dp1349
g70
I4
ssg71
g1343
sg64
(lp1350
g57
(g66
g59
NtRp1351
(dp1352
g62
(dp1353
g70
I3
ssg71
Nsg64
(lp1354
g57
(g73
g59
NtRp1355
(dp1356
g62
(dp1357
sg71
g1351
sg64
(lp1358
g57
(g78
g59
NtRp1359
(dp1360
g62
(dp1361
sg71
g1355
sg64
(lp1362
g57
(g58
g59
NtRp1363
(dp1364
g62
(dp1365
g70
I3
ssg71
g1359
sg64
(lp1366
S'1'
asbasbasbag57
(g73
g59
NtRp1367
(dp1368
g62
(dp1369
sg71
g1351
sg64
(lp1370
g57
(g78
g59
NtRp1371
(dp1372
g62
(dp1373
sg71
g1367
sg64
(lp1374
g57
(g58
g59
NtRp1375
(dp1376
g62
(dp1377
g70
I3
ssg71
g1371
sg64
(lp1378
S'0'
asbasbasbasbasbasbasbasbasbasbasbag57
(g73
g59
NtRp1379
(dp1380
g62
(dp1381
sg71
g67
sg64
(lp1382
g57
(g78
g59
NtRp1383
(dp1384
g62
(dp1385
g82
g83
ssg71
g1379
sg64
(lp1386
S'extension'
p1387
asbag57
(g78
g59
NtRp1388
(dp1389
g62
(dp1390
g89
g90
ssg71
g1379
sg64
(lp1391
S':'
asbag57
(g78
g59
NtRp1392
(dp1393
g62
(dp1394
sg71
g1379
sg64
(lp1395
g57
(g58
g59
NtRp1396
(dp1397
g62
(dp1398
g70
I5
ssg71
g1392
sg64
(lp1399
S'html'
p1400
asbasbasbag57
(g73
g59
NtRp1401
(dp1402
g62
(dp1403
sg71
g67
sg64
(lp1404
g57
(g78
g59
NtRp1405
(dp1406
g62
(dp1407
g82
g83
ssg71
g1401
sg64
(lp1408
S'folder'
p1409
asbag57
(g78
g59
NtRp1410
(dp1411
g62
(dp1412
g89
g90
ssg71
g1401
sg64
(lp1413
S':'
asbag57
(g78
g59
NtRp1414
(dp1415
g62
(dp1416
sg71
g1401
sg64
(lp1417
g57
(g58
g59
NtRp1418
(dp1419
g62
(dp1420
g70
I5
ssg71
g1414
sg64
(lp1421
S'/home/vishrut/web2py/applications/astra2/'
p1422
asbasbasbag57
(g73
g59
NtRp1423
(dp1424
g62
(dp1425
sg71
g67
sg64
(lp1426
g57
(g78
g59
NtRp1427
(dp1428
g62
(dp1429
g82
g83
ssg71
g1423
sg64
(lp1430
S'function'
p1431
asbag57
(g78
g59
NtRp1432
(dp1433
g62
(dp1434
g89
g90
ssg71
g1423
sg64
(lp1435
S':'
asbag57
(g78
g59
NtRp1436
(dp1437
g62
(dp1438
sg71
g1423
sg64
(lp1439
g57
(g58
g59
NtRp1440
(dp1441
g62
(dp1442
g70
I5
ssg71
g1436
sg64
(lp1443
S'show'
p1444
asbasbasbag57
(g73
g59
NtRp1445
(dp1446
g62
(dp1447
sg71
g67
sg64
(lp1448
g57
(g78
g59
NtRp1449
(dp1450
g62
(dp1451
g82
g83
ssg71
g1445
sg64
(lp1452
S'get_vars'
p1453
asbag57
(g78
g59
NtRp1454
(dp1455
g62
(dp1456
g89
g90
ssg71
g1445
sg64
(lp1457
S':'
asbag57
(g78
g59
NtRp1458
(dp1459
g62
(dp1460
sg71
g1445
sg64
(lp1461
g57
(g58
g59
NtRp1462
(dp1463
g62
(dp1464
g70
I5
ssg71
g1458
sg64
(lp1465
g57
(g66
g59
NtRp1466
(dp1467
g62
(dp1468
g70
I4
ssg71
Nsg64
(lp1469
sbasbasbasbag57
(g73
g59
NtRp1470
(dp1471
g62
(dp1472
sg71
g67
sg64
(lp1473
g57
(g78
g59
NtRp1474
(dp1475
g62
(dp1476
g82
g83
ssg71
g1470
sg64
(lp1477
S'global_settings'
p1478
asbag57
(g78
g59
NtRp1479
(dp1480
g62
(dp1481
g89
g90
ssg71
g1470
sg64
(lp1482
S':'
asbag57
(g78
g59
NtRp1483
(dp1484
g62
(dp1485
sg71
g1470
sg64
(lp1486
g57
(g58
g59
NtRp1487
(dp1488
g62
(dp1489
g70
I5
ssg71
g1483
sg64
(lp1490
g57
(g66
g59
NtRp1491
(dp1492
g62
(dp1493
g70
I4
ssg71
Nsg64
(lp1494
g57
(g73
g59
NtRp1495
(dp1496
g62
(dp1497
sg71
g1491
sg64
(lp1498
g57
(g78
g59
NtRp1499
(dp1500
g62
(dp1501
g82
g83
ssg71
g1495
sg64
(lp1502
g464
asbag57
(g78
g59
NtRp1503
(dp1504
g62
(dp1505
g89
g90
ssg71
g1495
sg64
(lp1506
S':'
asbag57
(g78
g59
NtRp1507
(dp1508
g62
(dp1509
sg71
g1495
sg64
(lp1510
g57
(g58
g59
NtRp1511
(dp1512
g62
(dp1513
g70
I4
ssg71
g1507
sg64
(lp1514
S"set(['/home/vishrut/web2py/applications/astra2/', '/home/vishrut/web2py/applications/admin/', '/home/vishrut/web2py/applications/welcome/'])"
p1515
asbasbasbag57
(g73
g59
NtRp1516
(dp1517
g62
(dp1518
sg71
g1491
sg64
(lp1519
g57
(g78
g59
NtRp1520
(dp1521
g62
(dp1522
g82
g83
ssg71
g1516
sg64
(lp1523
g486
asbag57
(g78
g59
NtRp1524
(dp1525
g62
(dp1526
g89
g90
ssg71
g1516
sg64
(lp1527
S':'
asbag57
(g78
g59
NtRp1528
(dp1529
g62
(dp1530
sg71
g1516
sg64
(lp1531
g57
(g58
g59
NtRp1532
(dp1533
g62
(dp1534
g70
I4
ssg71
g1528
sg64
(lp1535
g499
asbasbasbag57
(g73
g59
NtRp1536
(dp1537
g62
(dp1538
sg71
g1491
sg64
(lp1539
g57
(g78
g59
NtRp1540
(dp1541
g62
(dp1542
g82
g83
ssg71
g1536
sg64
(lp1543
g508
asbag57
(g78
g59
NtRp1544
(dp1545
g62
(dp1546
g89
g90
ssg71
g1536
sg64
(lp1547
S':'
asbag57
(g78
g59
NtRp1548
(dp1549
g62
(dp1550
sg71
g1536
sg64
(lp1551
g57
(g58
g59
NtRp1552
(dp1553
g62
(dp1554
g70
I4
ssg71
g1548
sg64
(lp1555
g57
(g66
g59
NtRp1556
(dp1557
g62
(dp1558
g70
I3
ssg71
Nsg64
(lp1559
sbasbasbasbag57
(g73
g59
NtRp1560
(dp1561
g62
(dp1562
sg71
g1491
sg64
(lp1563
g57
(g78
g59
NtRp1564
(dp1565
g62
(dp1566
g82
g83
ssg71
g1560
sg64
(lp1567
g533
asbag57
(g78
g59
NtRp1568
(dp1569
g62
(dp1570
g89
g90
ssg71
g1560
sg64
(lp1571
S':'
asbag57
(g78
g59
NtRp1572
(dp1573
g62
(dp1574
sg71
g1560
sg64
(lp1575
g57
(g58
g59
NtRp1576
(dp1577
g62
(dp1578
g70
I4
ssg71
g1572
sg64
(lp1579
S"<Values at 0xa2b142c: {'verbose': False, 'ip': '10.1.39.88', 'shutdown_timeout': 5, 'taskbar': False, 'nocron': False, 'pid_filename': 'httpserver.pid', 'maxthreads': None, 'softcron': False, 'server_name': 'vishrut-Vostro-1015', 'bpython': False, 'nogui': False, 'port': 8000, 'extcron': False, 'debuglevel': 30, 'test': None, 'folder': '/home/vishrut/web2py', 'config': '', 'import_models': False, 'winservice': '', 'shell': None, 'run': '', 'log_filename': 'httpserver.log', 'args': [''], 'socket_timeout': 5, 'ssl_ca_certificate': None, 'scheduler': None, 'profiler_filename': None, 'ssl_private_key': '', 'password': 'mehta123', 'request_queue_size': 5, 'ssl_certificate': '', 'cronjob': False, 'numthreads': None, 'quiet': False, 'interfaces': None, 'minthreads': None, 'timeout': 10, 'plain': False, 'nobanner': False}>"
p1580
asbasbasbag57
(g73
g59
NtRp1581
(dp1582
g62
(dp1583
sg71
g1491
sg64
(lp1584
g57
(g78
g59
NtRp1585
(dp1586
g62
(dp1587
g82
g83
ssg71
g1581
sg64
(lp1588
g555
asbag57
(g78
g59
NtRp1589
(dp1590
g62
(dp1591
g89
g90
ssg71
g1581
sg64
(lp1592
S':'
asbag57
(g78
g59
NtRp1593
(dp1594
g62
(dp1595
sg71
g1581
sg64
(lp1596
g57
(g58
g59
NtRp1597
(dp1598
g62
(dp1599
g70
I4
ssg71
g1593
sg64
(lp1600
S'set([])'
p1601
asbasbasbag57
(g73
g59
NtRp1602
(dp1603
g62
(dp1604
sg71
g1491
sg64
(lp1605
g57
(g78
g59
NtRp1606
(dp1607
g62
(dp1608
g82
g83
ssg71
g1602
sg64
(lp1609
g577
asbag57
(g78
g59
NtRp1610
(dp1611
g62
(dp1612
g89
g90
ssg71
g1602
sg64
(lp1613
S':'
asbag57
(g78
g59
NtRp1614
(dp1615
g62
(dp1616
sg71
g1602
sg64
(lp1617
g57
(g58
g59
NtRp1618
(dp1619
g62
(dp1620
g70
I4
ssg71
g1614
sg64
(lp1621
g100
asbasbasbag57
(g73
g59
NtRp1622
(dp1623
g62
(dp1624
sg71
g1491
sg64
(lp1625
g57
(g78
g59
NtRp1626
(dp1627
g62
(dp1628
g82
g83
ssg71
g1622
sg64
(lp1629
g598
asbag57
(g78
g59
NtRp1630
(dp1631
g62
(dp1632
g89
g90
ssg71
g1622
sg64
(lp1633
S':'
asbag57
(g78
g59
NtRp1634
(dp1635
g62
(dp1636
sg71
g1622
sg64
(lp1637
g57
(g58
g59
NtRp1638
(dp1639
g62
(dp1640
g70
I4
ssg71
g1634
sg64
(lp1641
g611
asbasbasbag57
(g73
g59
NtRp1642
(dp1643
g62
(dp1644
sg71
g1491
sg64
(lp1645
g57
(g78
g59
NtRp1646
(dp1647
g62
(dp1648
g82
g83
ssg71
g1642
sg64
(lp1649
g796
asbag57
(g78
g59
NtRp1650
(dp1651
g62
(dp1652
g89
g90
ssg71
g1642
sg64
(lp1653
S':'
asbag57
(g78
g59
NtRp1654
(dp1655
g62
(dp1656
sg71
g1642
sg64
(lp1657
g57
(g58
g59
NtRp1658
(dp1659
g62
(dp1660
g70
I4
ssg71
g1654
sg64
(lp1661
g100
asbasbasbag57
(g73
g59
NtRp1662
(dp1663
g62
(dp1664
sg71
g1491
sg64
(lp1665
g57
(g78
g59
NtRp1666
(dp1667
g62
(dp1668
g82
g83
ssg71
g1662
sg64
(lp1669
g817
asbag57
(g78
g59
NtRp1670
(dp1671
g62
(dp1672
g89
g90
ssg71
g1662
sg64
(lp1673
S':'
asbag57
(g78
g59
NtRp1674
(dp1675
g62
(dp1676
sg71
g1662
sg64
(lp1677
g57
(g58
g59
NtRp1678
(dp1679
g62
(dp1680
g70
I4
ssg71
g1674
sg64
(lp1681
g100
asbasbasbag57
(g73
g59
NtRp1682
(dp1683
g62
(dp1684
sg71
g1491
sg64
(lp1685
g57
(g78
g59
NtRp1686
(dp1687
g62
(dp1688
g82
g83
ssg71
g1682
sg64
(lp1689
g1055
asbag57
(g78
g59
NtRp1690
(dp1691
g62
(dp1692
g89
g90
ssg71
g1682
sg64
(lp1693
S':'
asbag57
(g78
g59
NtRp1694
(dp1695
g62
(dp1696
sg71
g1682
sg64
(lp1697
g57
(g58
g59
NtRp1698
(dp1699
g62
(dp1700
g70
I4
ssg71
g1694
sg64
(lp1701
g1068
asbasbasbag57
(g73
g59
NtRp1702
(dp1703
g62
(dp1704
sg71
g1491
sg64
(lp1705
g57
(g78
g59
NtRp1706
(dp1707
g62
(dp1708
g82
g83
ssg71
g1702
sg64
(lp1709
g1098
asbag57
(g78
g59
NtRp1710
(dp1711
g62
(dp1712
g89
g90
ssg71
g1702
sg64
(lp1713
S':'
asbag57
(g78
g59
NtRp1714
(dp1715
g62
(dp1716
sg71
g1702
sg64
(lp1717
g57
(g58
g59
NtRp1718
(dp1719
g62
(dp1720
g70
I4
ssg71
g1714
sg64
(lp1721
g57
(g66
g59
NtRp1722
(dp1723
g62
(dp1724
g70
I3
ssg71
Nsg64
(lp1725
g57
(g73
g59
NtRp1726
(dp1727
g62
(dp1728
sg71
g1722
sg64
(lp1729
g57
(g78
g59
NtRp1730
(dp1731
g62
(dp1732
sg71
g1726
sg64
(lp1733
g57
(g58
g59
NtRp1734
(dp1735
g62
(dp1736
g70
I3
ssg71
g1730
sg64
(lp1737
S'1'
asbasbasbag57
(g73
g59
NtRp1738
(dp1739
g62
(dp1740
sg71
g1722
sg64
(lp1741
g57
(g78
g59
NtRp1742
(dp1743
g62
(dp1744
sg71
g1738
sg64
(lp1745
g57
(g58
g59
NtRp1746
(dp1747
g62
(dp1748
g70
I3
ssg71
g1742
sg64
(lp1749
S'99'
p1750
asbasbasbag57
(g73
g59
NtRp1751
(dp1752
g62
(dp1753
sg71
g1722
sg64
(lp1754
g57
(g78
g59
NtRp1755
(dp1756
g62
(dp1757
sg71
g1751
sg64
(lp1758
g57
(g58
g59
NtRp1759
(dp1760
g62
(dp1761
g70
I3
ssg71
g1755
sg64
(lp1762
S'7'
asbasbasbag57
(g73
g59
NtRp1763
(dp1764
g62
(dp1765
sg71
g1722
sg64
(lp1766
g57
(g78
g59
NtRp1767
(dp1768
g62
(dp1769
sg71
g1763
sg64
(lp1770
g57
(g58
g59
NtRp1771
(dp1772
g62
(dp1773
g70
I3
ssg71
g1767
sg64
(lp1774
S'datetime.datetime(2012, 3, 4, 22, 12, 8)'
p1775
asbasbasbag57
(g73
g59
NtRp1776
(dp1777
g62
(dp1778
sg71
g1722
sg64
(lp1779
g57
(g78
g59
NtRp1780
(dp1781
g62
(dp1782
sg71
g1776
sg64
(lp1783
g57
(g58
g59
NtRp1784
(dp1785
g62
(dp1786
g70
I3
ssg71
g1780
sg64
(lp1787
g1177
asbasbasbasbasbasbasbasbasbasbasbag57
(g73
g59
NtRp1788
(dp1789
g62
(dp1790
sg71
g67
sg64
(lp1791
g57
(g78
g59
NtRp1792
(dp1793
g62
(dp1794
g82
g83
ssg71
g1788
sg64
(lp1795
S'is_https'
p1796
asbag57
(g78
g59
NtRp1797
(dp1798
g62
(dp1799
g89
g90
ssg71
g1788
sg64
(lp1800
S':'
asbag57
(g78
g59
NtRp1801
(dp1802
g62
(dp1803
sg71
g1788
sg64
(lp1804
g57
(g58
g59
NtRp1805
(dp1806
g62
(dp1807
g70
I5
ssg71
g1801
sg64
(lp1808
g100
asbasbasbag57
(g73
g59
NtRp1809
(dp1810
g62
(dp1811
sg71
g67
sg64
(lp1812
g57
(g78
g59
NtRp1813
(dp1814
g62
(dp1815
g82
g83
ssg71
g1809
sg64
(lp1816
S'is_local'
p1817
asbag57
(g78
g59
NtRp1818
(dp1819
g62
(dp1820
g89
g90
ssg71
g1809
sg64
(lp1821
S':'
asbag57
(g78
g59
NtRp1822
(dp1823
g62
(dp1824
sg71
g1809
sg64
(lp1825
g57
(g58
g59
NtRp1826
(dp1827
g62
(dp1828
g70
I5
ssg71
g1822
sg64
(lp1829
g100
asbasbasbag57
(g73
g59
NtRp1830
(dp1831
g62
(dp1832
sg71
g67
sg64
(lp1833
g57
(g78
g59
NtRp1834
(dp1835
g62
(dp1836
g82
g83
ssg71
g1830
sg64
(lp1837
S'is_restful'
p1838
asbag57
(g78
g59
NtRp1839
(dp1840
g62
(dp1841
g89
g90
ssg71
g1830
sg64
(lp1842
S':'
asbag57
(g78
g59
NtRp1843
(dp1844
g62
(dp1845
sg71
g1830
sg64
(lp1846
g57
(g58
g59
NtRp1847
(dp1848
g62
(dp1849
g70
I5
ssg71
g1843
sg64
(lp1850
g100
asbasbasbag57
(g73
g59
NtRp1851
(dp1852
g62
(dp1853
sg71
g67
sg64
(lp1854
g57
(g78
g59
NtRp1855
(dp1856
g62
(dp1857
g82
g83
ssg71
g1851
sg64
(lp1858
S'now'
p1859
asbag57
(g78
g59
NtRp1860
(dp1861
g62
(dp1862
g89
g90
ssg71
g1851
sg64
(lp1863
S':'
asbag57
(g78
g59
NtRp1864
(dp1865
g62
(dp1866
sg71
g1851
sg64
(lp1867
g57
(g58
g59
NtRp1868
(dp1869
g62
(dp1870
g70
I5
ssg71
g1864
sg64
(lp1871
S'datetime.datetime(2012, 10, 15, 11, 2, 38, 450239)'
p1872
asbasbasbag57
(g73
g59
NtRp1873
(dp1874
g62
(dp1875
sg71
g67
sg64
(lp1876
g57
(g78
g59
NtRp1877
(dp1878
g62
(dp1879
g82
g83
ssg71
g1873
sg64
(lp1880
S'post_vars'
p1881
asbag57
(g78
g59
NtRp1882
(dp1883
g62
(dp1884
g89
g90
ssg71
g1873
sg64
(lp1885
S':'
asbag57
(g78
g59
NtRp1886
(dp1887
g62
(dp1888
sg71
g1873
sg64
(lp1889
g57
(g58
g59
NtRp1890
(dp1891
g62
(dp1892
g70
I5
ssg71
g1886
sg64
(lp1893
g57
(g66
g59
NtRp1894
(dp1895
g62
(dp1896
g70
I4
ssg71
Nsg64
(lp1897
sbasbasbasbag57
(g73
g59
NtRp1898
(dp1899
g62
(dp1900
sg71
g67
sg64
(lp1901
g57
(g78
g59
NtRp1902
(dp1903
g62
(dp1904
g82
g83
ssg71
g1898
sg64
(lp1905
S'url'
p1906
asbag57
(g78
g59
NtRp1907
(dp1908
g62
(dp1909
g89
g90
ssg71
g1898
sg64
(lp1910
S':'
asbag57
(g78
g59
NtRp1911
(dp1912
g62
(dp1913
sg71
g1898
sg64
(lp1914
g57
(g58
g59
NtRp1915
(dp1916
g62
(dp1917
g70
I5
ssg71
g1911
sg64
(lp1918
S'/astra2/default/show'
p1919
asbasbasbag57
(g73
g59
NtRp1920
(dp1921
g62
(dp1922
sg71
g67
sg64
(lp1923
g57
(g78
g59
NtRp1924
(dp1925
g62
(dp1926
g82
g83
ssg71
g1920
sg64
(lp1927
S'utcnow'
p1928
asbag57
(g78
g59
NtRp1929
(dp1930
g62
(dp1931
g89
g90
ssg71
g1920
sg64
(lp1932
S':'
asbag57
(g78
g59
NtRp1933
(dp1934
g62
(dp1935
sg71
g1920
sg64
(lp1936
g57
(g58
g59
NtRp1937
(dp1938
g62
(dp1939
g70
I5
ssg71
g1933
sg64
(lp1940
S'datetime.datetime(2012, 10, 15, 6, 2, 38, 450281)'
p1941
asbasbasbag57
(g73
g59
NtRp1942
(dp1943
g62
(dp1944
sg71
g67
sg64
(lp1945
g57
(g78
g59
NtRp1946
(dp1947
g62
(dp1948
g82
g83
ssg71
g1942
sg64
(lp1949
S'uuid'
p1950
asbag57
(g78
g59
NtRp1951
(dp1952
g62
(dp1953
g89
g90
ssg71
g1942
sg64
(lp1954
S':'
asbag57
(g78
g59
NtRp1955
(dp1956
g62
(dp1957
sg71
g1942
sg64
(lp1958
g57
(g58
g59
NtRp1959
(dp1960
g62
(dp1961
g70
I5
ssg71
g1955
sg64
(lp1962
S'astra2/10.1.40.240.2012-10-15.11-02-38.e2f46ef7-80b3-4a66-b2a2-de0e1f2125a5'
p1963
asbasbasbag57
(g73
g59
NtRp1964
(dp1965
g62
(dp1966
sg71
g67
sg64
(lp1967
g57
(g78
g59
NtRp1968
(dp1969
g62
(dp1970
g82
g83
ssg71
g1964
sg64
(lp1971
S'vars'
p1972
asbag57
(g78
g59
NtRp1973
(dp1974
g62
(dp1975
g89
g90
ssg71
g1964
sg64
(lp1976
S':'
asbag57
(g78
g59
NtRp1977
(dp1978
g62
(dp1979
sg71
g1964
sg64
(lp1980
g57
(g58
g59
NtRp1981
(dp1982
g62
(dp1983
g70
I5
ssg71
g1977
sg64
(lp1984
g57
(g66
g59
NtRp1985
(dp1986
g62
(dp1987
g70
I4
ssg71
Nsg64
(lp1988
sbasbasbasbag57
(g73
g59
NtRp1989
(dp1990
g62
(dp1991
sg71
g67
sg64
(lp1992
g57
(g78
g59
NtRp1993
(dp1994
g62
(dp1995
g82
g83
ssg71
g1989
sg64
(lp1996
S'wsgi'
p1997
asbag57
(g78
g59
NtRp1998
(dp1999
g62
(dp2000
g89
g90
ssg71
g1989
sg64
(lp2001
S':'
asbag57
(g78
g59
NtRp2002
(dp2003
g62
(dp2004
sg71
g1989
sg64
(lp2005
g57
(g58
g59
NtRp2006
(dp2007
g62
(dp2008
g70
I5
ssg71
g2002
sg64
(lp2009
g57
(g66
g59
NtRp2010
(dp2011
g62
(dp2012
g70
I4
ssg71
Nsg64
(lp2013
g57
(g73
g59
NtRp2014
(dp2015
g62
(dp2016
sg71
g2010
sg64
(lp2017
g57
(g78
g59
NtRp2018
(dp2019
g62
(dp2020
g82
g83
ssg71
g2014
sg64
(lp2021
S'environ'
p2022
asbag57
(g78
g59
NtRp2023
(dp2024
g62
(dp2025
g89
g90
ssg71
g2014
sg64
(lp2026
S':'
asbag57
(g78
g59
NtRp2027
(dp2028
g62
(dp2029
sg71
g2014
sg64
(lp2030
g57
(g58
g59
NtRp2031
(dp2032
g62
(dp2033
g70
I4
ssg71
g2027
sg64
(lp2034
g57
(g66
g59
NtRp2035
(dp2036
g62
(dp2037
g70
I3
ssg71
Nsg64
(lp2038
g57
(g73
g59
NtRp2039
(dp2040
g62
(dp2041
sg71
g2035
sg64
(lp2042
g57
(g78
g59
NtRp2043
(dp2044
g62
(dp2045
g82
g83
ssg71
g2039
sg64
(lp2046
S'HTTP_ACCEPT'
p2047
asbag57
(g78
g59
NtRp2048
(dp2049
g62
(dp2050
g89
g90
ssg71
g2039
sg64
(lp2051
S':'
asbag57
(g78
g59
NtRp2052
(dp2053
g62
(dp2054
sg71
g2039
sg64
(lp2055
g57
(g58
g59
NtRp2056
(dp2057
g62
(dp2058
g70
I3
ssg71
g2052
sg64
(lp2059
g633
asbasbasbag57
(g73
g59
NtRp2060
(dp2061
g62
(dp2062
sg71
g2035
sg64
(lp2063
g57
(g78
g59
NtRp2064
(dp2065
g62
(dp2066
g82
g83
ssg71
g2060
sg64
(lp2067
S'HTTP_ACCEPT_ENCODING'
p2068
asbag57
(g78
g59
NtRp2069
(dp2070
g62
(dp2071
g89
g90
ssg71
g2060
sg64
(lp2072
S':'
asbag57
(g78
g59
NtRp2073
(dp2074
g62
(dp2075
sg71
g2060
sg64
(lp2076
g57
(g58
g59
NtRp2077
(dp2078
g62
(dp2079
g70
I3
ssg71
g2073
sg64
(lp2080
g655
asbasbasbag57
(g73
g59
NtRp2081
(dp2082
g62
(dp2083
sg71
g2035
sg64
(lp2084
g57
(g78
g59
NtRp2085
(dp2086
g62
(dp2087
g82
g83
ssg71
g2081
sg64
(lp2088
S'HTTP_ACCEPT_LANGUAGE'
p2089
asbag57
(g78
g59
NtRp2090
(dp2091
g62
(dp2092
g89
g90
ssg71
g2081
sg64
(lp2093
S':'
asbag57
(g78
g59
NtRp2094
(dp2095
g62
(dp2096
sg71
g2081
sg64
(lp2097
g57
(g58
g59
NtRp2098
(dp2099
g62
(dp2100
g70
I3
ssg71
g2094
sg64
(lp2101
g677
asbasbasbag57
(g73
g59
NtRp2102
(dp2103
g62
(dp2104
sg71
g2035
sg64
(lp2105
g57
(g78
g59
NtRp2106
(dp2107
g62
(dp2108
g82
g83
ssg71
g2102
sg64
(lp2109
S'HTTP_CONNECTION'
p2110
asbag57
(g78
g59
NtRp2111
(dp2112
g62
(dp2113
g89
g90
ssg71
g2102
sg64
(lp2114
S':'
asbag57
(g78
g59
NtRp2115
(dp2116
g62
(dp2117
sg71
g2102
sg64
(lp2118
g57
(g58
g59
NtRp2119
(dp2120
g62
(dp2121
g70
I3
ssg71
g2115
sg64
(lp2122
g699
asbasbasbag57
(g73
g59
NtRp2123
(dp2124
g62
(dp2125
sg71
g2035
sg64
(lp2126
g57
(g78
g59
NtRp2127
(dp2128
g62
(dp2129
g82
g83
ssg71
g2123
sg64
(lp2130
S'HTTP_COOKIE'
p2131
asbag57
(g78
g59
NtRp2132
(dp2133
g62
(dp2134
g89
g90
ssg71
g2123
sg64
(lp2135
S':'
asbag57
(g78
g59
NtRp2136
(dp2137
g62
(dp2138
sg71
g2123
sg64
(lp2139
g57
(g58
g59
NtRp2140
(dp2141
g62
(dp2142
g70
I3
ssg71
g2136
sg64
(lp2143
g721
asbasbasbag57
(g73
g59
NtRp2144
(dp2145
g62
(dp2146
sg71
g2035
sg64
(lp2147
g57
(g78
g59
NtRp2148
(dp2149
g62
(dp2150
g82
g83
ssg71
g2144
sg64
(lp2151
S'HTTP_HOST'
p2152
asbag57
(g78
g59
NtRp2153
(dp2154
g62
(dp2155
g89
g90
ssg71
g2144
sg64
(lp2156
S':'
asbag57
(g78
g59
NtRp2157
(dp2158
g62
(dp2159
sg71
g2144
sg64
(lp2160
g57
(g58
g59
NtRp2161
(dp2162
g62
(dp2163
g70
I3
ssg71
g2157
sg64
(lp2164
g743
asbasbasbag57
(g73
g59
NtRp2165
(dp2166
g62
(dp2167
sg71
g2035
sg64
(lp2168
g57
(g78
g59
NtRp2169
(dp2170
g62
(dp2171
g82
g83
ssg71
g2165
sg64
(lp2172
S'HTTP_REFERER'
p2173
asbag57
(g78
g59
NtRp2174
(dp2175
g62
(dp2176
g89
g90
ssg71
g2165
sg64
(lp2177
S':'
asbag57
(g78
g59
NtRp2178
(dp2179
g62
(dp2180
sg71
g2165
sg64
(lp2181
g57
(g58
g59
NtRp2182
(dp2183
g62
(dp2184
g70
I3
ssg71
g2178
sg64
(lp2185
g765
asbasbasbag57
(g73
g59
NtRp2186
(dp2187
g62
(dp2188
sg71
g2035
sg64
(lp2189
g57
(g78
g59
NtRp2190
(dp2191
g62
(dp2192
g82
g83
ssg71
g2186
sg64
(lp2193
S'HTTP_USER_AGENT'
p2194
asbag57
(g78
g59
NtRp2195
(dp2196
g62
(dp2197
g89
g90
ssg71
g2186
sg64
(lp2198
S':'
asbag57
(g78
g59
NtRp2199
(dp2200
g62
(dp2201
sg71
g2186
sg64
(lp2202
g57
(g58
g59
NtRp2203
(dp2204
g62
(dp2205
g70
I3
ssg71
g2199
sg64
(lp2206
g787
asbasbasbag57
(g73
g59
NtRp2207
(dp2208
g62
(dp2209
sg71
g2035
sg64
(lp2210
g57
(g78
g59
NtRp2211
(dp2212
g62
(dp2213
g82
g83
ssg71
g2207
sg64
(lp2214
S'PATH_INFO'
p2215
asbag57
(g78
g59
NtRp2216
(dp2217
g62
(dp2218
g89
g90
ssg71
g2207
sg64
(lp2219
S':'
asbag57
(g78
g59
NtRp2220
(dp2221
g62
(dp2222
sg71
g2207
sg64
(lp2223
g57
(g58
g59
NtRp2224
(dp2225
g62
(dp2226
g70
I3
ssg71
g2220
sg64
(lp2227
g851
asbasbasbag57
(g73
g59
NtRp2228
(dp2229
g62
(dp2230
sg71
g2035
sg64
(lp2231
g57
(g78
g59
NtRp2232
(dp2233
g62
(dp2234
g82
g83
ssg71
g2228
sg64
(lp2235
S'QUERY_STRING'
p2236
asbag57
(g78
g59
NtRp2237
(dp2238
g62
(dp2239
g89
g90
ssg71
g2228
sg64
(lp2240
S':'
asbag57
(g78
g59
NtRp2241
(dp2242
g62
(dp2243
sg71
g2228
sg64
(lp2244
g57
(g58
g59
NtRp2245
(dp2246
g62
(dp2247
g70
I3
ssg71
g2241
sg64
(lp2248
S''
asbasbasbag57
(g73
g59
NtRp2249
(dp2250
g62
(dp2251
sg71
g2035
sg64
(lp2252
g57
(g78
g59
NtRp2253
(dp2254
g62
(dp2255
g82
g83
ssg71
g2249
sg64
(lp2256
S'REMOTE_ADDR'
p2257
asbag57
(g78
g59
NtRp2258
(dp2259
g62
(dp2260
g89
g90
ssg71
g2249
sg64
(lp2261
S':'
asbag57
(g78
g59
NtRp2262
(dp2263
g62
(dp2264
sg71
g2249
sg64
(lp2265
g57
(g58
g59
NtRp2266
(dp2267
g62
(dp2268
g70
I3
ssg71
g2262
sg64
(lp2269
g190
asbasbasbag57
(g73
g59
NtRp2270
(dp2271
g62
(dp2272
sg71
g2035
sg64
(lp2273
g57
(g78
g59
NtRp2274
(dp2275
g62
(dp2276
g82
g83
ssg71
g2270
sg64
(lp2277
S'REMOTE_PORT'
p2278
asbag57
(g78
g59
NtRp2279
(dp2280
g62
(dp2281
g89
g90
ssg71
g2270
sg64
(lp2282
S':'
asbag57
(g78
g59
NtRp2283
(dp2284
g62
(dp2285
sg71
g2270
sg64
(lp2286
g57
(g58
g59
NtRp2287
(dp2288
g62
(dp2289
g70
I3
ssg71
g2283
sg64
(lp2290
g915
asbasbasbag57
(g73
g59
NtRp2291
(dp2292
g62
(dp2293
sg71
g2035
sg64
(lp2294
g57
(g78
g59
NtRp2295
(dp2296
g62
(dp2297
g82
g83
ssg71
g2291
sg64
(lp2298
S'REQUEST_METHOD'
p2299
asbag57
(g78
g59
NtRp2300
(dp2301
g62
(dp2302
g89
g90
ssg71
g2291
sg64
(lp2303
S':'
asbag57
(g78
g59
NtRp2304
(dp2305
g62
(dp2306
sg71
g2291
sg64
(lp2307
g57
(g58
g59
NtRp2308
(dp2309
g62
(dp2310
g70
I3
ssg71
g2304
sg64
(lp2311
g937
asbasbasbag57
(g73
g59
NtRp2312
(dp2313
g62
(dp2314
sg71
g2035
sg64
(lp2315
g57
(g78
g59
NtRp2316
(dp2317
g62
(dp2318
g82
g83
ssg71
g2312
sg64
(lp2319
S'SCRIPT_NAME'
p2320
asbag57
(g78
g59
NtRp2321
(dp2322
g62
(dp2323
g89
g90
ssg71
g2312
sg64
(lp2324
S':'
asbag57
(g78
g59
NtRp2325
(dp2326
g62
(dp2327
sg71
g2312
sg64
(lp2328
g57
(g58
g59
NtRp2329
(dp2330
g62
(dp2331
g70
I3
ssg71
g2325
sg64
(lp2332
S''
asbasbasbag57
(g73
g59
NtRp2333
(dp2334
g62
(dp2335
sg71
g2035
sg64
(lp2336
g57
(g78
g59
NtRp2337
(dp2338
g62
(dp2339
g82
g83
ssg71
g2333
sg64
(lp2340
S'SERVER_NAME'
p2341
asbag57
(g78
g59
NtRp2342
(dp2343
g62
(dp2344
g89
g90
ssg71
g2333
sg64
(lp2345
S':'
asbag57
(g78
g59
NtRp2346
(dp2347
g62
(dp2348
sg71
g2333
sg64
(lp2349
g57
(g58
g59
NtRp2350
(dp2351
g62
(dp2352
g70
I3
ssg71
g2346
sg64
(lp2353
g980
asbasbasbag57
(g73
g59
NtRp2354
(dp2355
g62
(dp2356
sg71
g2035
sg64
(lp2357
g57
(g78
g59
NtRp2358
(dp2359
g62
(dp2360
g82
g83
ssg71
g2354
sg64
(lp2361
S'SERVER_PORT'
p2362
asbag57
(g78
g59
NtRp2363
(dp2364
g62
(dp2365
g89
g90
ssg71
g2354
sg64
(lp2366
S':'
asbag57
(g78
g59
NtRp2367
(dp2368
g62
(dp2369
sg71
g2354
sg64
(lp2370
g57
(g58
g59
NtRp2371
(dp2372
g62
(dp2373
g70
I3
ssg71
g2367
sg64
(lp2374
g1002
asbasbasbag57
(g73
g59
NtRp2375
(dp2376
g62
(dp2377
sg71
g2035
sg64
(lp2378
g57
(g78
g59
NtRp2379
(dp2380
g62
(dp2381
g82
g83
ssg71
g2375
sg64
(lp2382
S'SERVER_PROTOCOL'
p2383
asbag57
(g78
g59
NtRp2384
(dp2385
g62
(dp2386
g89
g90
ssg71
g2375
sg64
(lp2387
S':'
asbag57
(g78
g59
NtRp2388
(dp2389
g62
(dp2390
sg71
g2375
sg64
(lp2391
g57
(g58
g59
NtRp2392
(dp2393
g62
(dp2394
g70
I3
ssg71
g2388
sg64
(lp2395
g1024
asbasbasbag57
(g73
g59
NtRp2396
(dp2397
g62
(dp2398
sg71
g2035
sg64
(lp2399
g57
(g78
g59
NtRp2400
(dp2401
g62
(dp2402
g82
g83
ssg71
g2396
sg64
(lp2403
S'SERVER_SOFTWARE'
p2404
asbag57
(g78
g59
NtRp2405
(dp2406
g62
(dp2407
g89
g90
ssg71
g2396
sg64
(lp2408
S':'
asbag57
(g78
g59
NtRp2409
(dp2410
g62
(dp2411
sg71
g2396
sg64
(lp2412
g57
(g58
g59
NtRp2413
(dp2414
g62
(dp2415
g70
I3
ssg71
g2409
sg64
(lp2416
g1046
asbasbasbag57
(g73
g59
NtRp2417
(dp2418
g62
(dp2419
sg71
g2035
sg64
(lp2420
g57
(g78
g59
NtRp2421
(dp2422
g62
(dp2423
g82
g83
ssg71
g2417
sg64
(lp2424
S'wsgi.errors'
p2425
asbag57
(g78
g59
NtRp2426
(dp2427
g62
(dp2428
g89
g90
ssg71
g2417
sg64
(lp2429
S':'
asbag57
(g78
g59
NtRp2430
(dp2431
g62
(dp2432
sg71
g2417
sg64
(lp2433
g57
(g58
g59
NtRp2434
(dp2435
g62
(dp2436
g70
I3
ssg71
g2430
sg64
(lp2437
S"<open file '<stderr>', mode 'w' at 0xb77860d0>"
p2438
asbasbasbag57
(g73
g59
NtRp2439
(dp2440
g62
(dp2441
sg71
g2035
sg64
(lp2442
g57
(g78
g59
NtRp2443
(dp2444
g62
(dp2445
g82
g83
ssg71
g2439
sg64
(lp2446
S'wsgi.file_wrapper'
p2447
asbag57
(g78
g59
NtRp2448
(dp2449
g62
(dp2450
g89
g90
ssg71
g2439
sg64
(lp2451
S':'
asbag57
(g78
g59
NtRp2452
(dp2453
g62
(dp2454
sg71
g2439
sg64
(lp2455
g57
(g58
g59
NtRp2456
(dp2457
g62
(dp2458
g70
I3
ssg71
g2452
sg64
(lp2459
S'<class wsgiref.util.FileWrapper at 0xa1ddaac>'
p2460
asbasbasbag57
(g73
g59
NtRp2461
(dp2462
g62
(dp2463
sg71
g2035
sg64
(lp2464
g57
(g78
g59
NtRp2465
(dp2466
g62
(dp2467
g82
g83
ssg71
g2461
sg64
(lp2468
S'wsgi.input'
p2469
asbag57
(g78
g59
NtRp2470
(dp2471
g62
(dp2472
g89
g90
ssg71
g2461
sg64
(lp2473
S':'
asbag57
(g78
g59
NtRp2474
(dp2475
g62
(dp2476
sg71
g2461
sg64
(lp2477
g57
(g58
g59
NtRp2478
(dp2479
g62
(dp2480
g70
I3
ssg71
g2474
sg64
(lp2481
S'<cStringIO.StringO object at 0xa60b3c0>'
p2482
asbasbasbag57
(g73
g59
NtRp2483
(dp2484
g62
(dp2485
sg71
g2035
sg64
(lp2486
g57
(g78
g59
NtRp2487
(dp2488
g62
(dp2489
g82
g83
ssg71
g2483
sg64
(lp2490
S'wsgi.multiprocess'
p2491
asbag57
(g78
g59
NtRp2492
(dp2493
g62
(dp2494
g89
g90
ssg71
g2483
sg64
(lp2495
S':'
asbag57
(g78
g59
NtRp2496
(dp2497
g62
(dp2498
sg71
g2483
sg64
(lp2499
g57
(g58
g59
NtRp2500
(dp2501
g62
(dp2502
g70
I3
ssg71
g2496
sg64
(lp2503
g100
asbasbasbag57
(g73
g59
NtRp2504
(dp2505
g62
(dp2506
sg71
g2035
sg64
(lp2507
g57
(g78
g59
NtRp2508
(dp2509
g62
(dp2510
g82
g83
ssg71
g2504
sg64
(lp2511
S'wsgi.multithread'
p2512
asbag57
(g78
g59
NtRp2513
(dp2514
g62
(dp2515
g89
g90
ssg71
g2504
sg64
(lp2516
S':'
asbag57
(g78
g59
NtRp2517
(dp2518
g62
(dp2519
sg71
g2504
sg64
(lp2520
g57
(g58
g59
NtRp2521
(dp2522
g62
(dp2523
g70
I3
ssg71
g2517
sg64
(lp2524
g1286
asbasbasbag57
(g73
g59
NtRp2525
(dp2526
g62
(dp2527
sg71
g2035
sg64
(lp2528
g57
(g78
g59
NtRp2529
(dp2530
g62
(dp2531
g82
g83
ssg71
g2525
sg64
(lp2532
S'wsgi.run_once'
p2533
asbag57
(g78
g59
NtRp2534
(dp2535
g62
(dp2536
g89
g90
ssg71
g2525
sg64
(lp2537
S':'
asbag57
(g78
g59
NtRp2538
(dp2539
g62
(dp2540
sg71
g2525
sg64
(lp2541
g57
(g58
g59
NtRp2542
(dp2543
g62
(dp2544
g70
I3
ssg71
g2538
sg64
(lp2545
g100
asbasbasbag57
(g73
g59
NtRp2546
(dp2547
g62
(dp2548
sg71
g2035
sg64
(lp2549
g57
(g78
g59
NtRp2550
(dp2551
g62
(dp2552
g82
g83
ssg71
g2546
sg64
(lp2553
S'wsgi.url_scheme'
p2554
asbag57
(g78
g59
NtRp2555
(dp2556
g62
(dp2557
g89
g90
ssg71
g2546
sg64
(lp2558
S':'
asbag57
(g78
g59
NtRp2559
(dp2560
g62
(dp2561
sg71
g2546
sg64
(lp2562
g57
(g58
g59
NtRp2563
(dp2564
g62
(dp2565
g70
I3
ssg71
g2559
sg64
(lp2566
g1329
asbasbasbag57
(g73
g59
NtRp2567
(dp2568
g62
(dp2569
sg71
g2035
sg64
(lp2570
g57
(g78
g59
NtRp2571
(dp2572
g62
(dp2573
g82
g83
ssg71
g2567
sg64
(lp2574
S'wsgi.version'
p2575
asbag57
(g78
g59
NtRp2576
(dp2577
g62
(dp2578
g89
g90
ssg71
g2567
sg64
(lp2579
S':'
asbag57
(g78
g59
NtRp2580
(dp2581
g62
(dp2582
sg71
g2567
sg64
(lp2583
g57
(g58
g59
NtRp2584
(dp2585
g62
(dp2586
g70
I3
ssg71
g2580
sg64
(lp2587
S'1'
asbasbasbasbasbasbasbasbasbasbasbasbasbsS'frames'
p2588
(lp2589
(dp2590
S'file'
p2591
S'/home/vishrut/web2py/gluon/restricted.py'
p2592
sS'dump'
p2593
(dp2594
S'environment'
p2595
S"{'A': <class 'gluon.html.A'>, 'Auth': <class 'gluon.tools.Auth'>, 'B': <class 'gluon.html.B'>, 'BEAUTIFY': <class 'gluon.html.BEAUTIFY'>, 'BODY': <class 'gluon.html.BODY'>, 'BR': <class 'gluon.html.BR'>, 'BUTTON': <class 'gluon.html.BUTTON'>, 'CAT': <class 'gluon.html.CAT'>, 'CENTER': <class 'gluon.html.CENTER'>, 'CLEANUP': <class 'gluon.validators.CLEANUP'>, ...}"
p2596
sS'ccode'
p2597
S'<code object <module> at 0xa61a5c0, file "/home/...ications/astra2/views/default/show.html", line 1>'
p2598
ssS'lnum'
p2599
I205
sS'lines'
p2600
(dp2601
I200
S'    try:'
p2602
sI201
S'        if type(code) == types.CodeType:'
p2603
sI202
S'            ccode = code'
p2604
sI203
S'        else:'
p2605
sI204
S'            ccode = compile2(code,layer)'
p2606
sI205
S'        exec ccode in environment'
p2607
sI206
S'    except HTTP:'
p2608
sI207
S'        raise'
p2609
sI208
S'    except RestrictedError:'
p2610
sI209
S'        # do not encapsulate (obfuscate) the original RestrictedError'
p2611
ssS'call'
p2612
S'(code=\'response.write(\\\'<!DOCTYPE html PUBLIC "-//W3C//D...ars))\\nresponse.write(\\\'\\\\n</html>\\\\n\\\', escape=False)\', environment={\'A\': <class \'gluon.html.A\'>, \'Auth\': <class \'gluon.tools.Auth\'>, \'B\': <class \'gluon.html.B\'>, \'BEAUTIFY\': <class \'gluon.html.BEAUTIFY\'>, \'BODY\': <class \'gluon.html.BODY\'>, \'BR\': <class \'gluon.html.BR\'>, \'BUTTON\': <class \'gluon.html.BUTTON\'>, \'CAT\': <class \'gluon.html.CAT\'>, \'CENTER\': <class \'gluon.html.CENTER\'>, \'CLEANUP\': <class \'gluon.validators.CLEANUP\'>, ...}, layer=\'/home/vishrut/web2py/applications/astra2/views/default/show.html\')'
p2613
sS'func'
p2614
S'restricted'
p2615
sa(dp2616
g2591
S'/home/vishrut/web2py/applications/astra2/views/default/show.html'
p2617
sg2593
(dp2618
S'content'
p2619
S'undefined'
p2620
sS'meta'
p2621
g2620
sS'http'
p2622
g2620
sS'equiv'
p2623
g2620
ssg2599
I4
sg2600
(dp2624
I1
S'response.write(\'<!DOCTYPE html PUBLIC "-//W3C//DTD XHTML 1.0 Transitional//EN" "http://www.w3.org/TR/xhtml1/DTD/xhtml1-transitional.dtd">\\n<html xmlns="http://www.w3.org/1999/xhtml">\\n<head>\\n<meta http-equiv="Content-Type" content="text/html; charset=utf-8" />\\n<title>ASTRA</title>\\n<link href="/astra2/static/INTERACTIVE.CSS" rel="stylesheet" type="text/css" />\\n<script type="text/javascript" src="/astra2/static/jquery-1.8.2.min.js"></script>\\n<script type="text/javascript" src="/astra2/static/interactive.js"></script>\\n\\n\\n</head>\\n<div style="margin-left:1220px">\\n<button type="button" onclick="document.location=\\\'\', escape=False)'
p2625
sI2
S'response.write(URL("logout"))'
p2626
sI3
S'response.write(\'\\\'">Logout</button>\\n<body class="photo_container">\\n\\n</div>\\n  \\n<!--  <a class="Play" style="left: 320px; top: 100px;"></a>\\n<a class="Pause" style="left: 390px; top: 100px;"></a>\\n<a class="Stop" style="left: 470px; top: 100px;"></a> -->\\n\\n<a class="media_containers" >\\n\', escape=False)'
p2627
sI4
S'xxx=db(db.kids.username==session.username).select().first().rno'
p2628
sI5
S"response.write('\\n', escape=False)"
p2629
sI6
S'if xxx==None:'
p2630
sI7
S'    response.write(\'\\n<img src="/astra2/static/bookworm.gif" width="640" height="480"> </img>\\n\', escape=False)'
p2631
sI8
S'else:'
p2632
sI9
S"    response.write('\\n', escape=False)"
p2633
sI10
S'    vid=db(db.rooms.rnum==xxx).select().first().vidurl'
p2634
sI11
S'    response.write(\'\\n<video width="640" height="400" controls="controls">  \\n        <source src="\', escape=False)'
p2635
sI12
S"    response.write(URL('static', vid+'.ogv'))"
p2636
sI13
S'    response.write(\'" type="video/ogg">\\n</video>\\n\', escape=False)'
p2637
sI14
S'    pass'
p2638
ssg2612
S'()'
p2639
sg2614
S'<module>'
p2640
sasS'pyver'
p2641
S'Python 2.7.2+: /usr/bin/python'
p2642
sS'session'
p2643
g57
(g58
g59
NtRp2644
(dp2645
g62
(dp2646
sg64
(lp2647
g57
(g66
g59
NtRp2648
(dp2649
g62
(dp2650
g70
I5
ssg71
Nsg64
(lp2651
g57
(g73
g59
NtRp2652
(dp2653
g62
(dp2654
sg71
g2648
sg64
(lp2655
g57
(g78
g59
NtRp2656
(dp2657
g62
(dp2658
g82
g83
ssg71
g2652
sg64
(lp2659
S'logged'
p2660
asbag57
(g78
g59
NtRp2661
(dp2662
g62
(dp2663
g89
g90
ssg71
g2652
sg64
(lp2664
S':'
asbag57
(g78
g59
NtRp2665
(dp2666
g62
(dp2667
sg71
g2652
sg64
(lp2668
g57
(g58
g59
NtRp2669
(dp2670
g62
(dp2671
g70
I5
ssg71
g2665
sg64
(lp2672
S'0'
asbasbasbag57
(g73
g59
NtRp2673
(dp2674
g62
(dp2675
sg71
g2648
sg64
(lp2676
g57
(g78
g59
NtRp2677
(dp2678
g62
(dp2679
g82
g83
ssg71
g2673
sg64
(lp2680
S'username'
p2681
asbag57
(g78
g59
NtRp2682
(dp2683
g62
(dp2684
g89
g90
ssg71
g2673
sg64
(lp2685
S':'
asbag57
(g78
g59
NtRp2686
(dp2687
g62
(dp2688
sg71
g2673
sg64
(lp2689
g57
(g58
g59
NtRp2690
(dp2691
g62
(dp2692
g70
I5
ssg71
g2686
sg64
(lp2693
S'sex'
p2694
asbasbasbasbasbsS'etype'
p2695
S"<type 'exceptions.AttributeError'>"
p2696
sS'date'
p2697
S'Mon Oct 15 11:02:38 2012'
p2698
sS'response'
p2699
g57
(g58
g59
NtRp2700
(dp2701
g62
(dp2702
sg64
(lp2703
g57
(g66
g59
NtRp2704
(dp2705
g62
(dp2706
g70
I5
ssg71
Nsg64
(lp2707
g57
(g73
g59
NtRp2708
(dp2709
g62
(dp2710
sg71
g2704
sg64
(lp2711
g57
(g78
g59
NtRp2712
(dp2713
g62
(dp2714
g82
g83
ssg71
g2708
sg64
(lp2715
g155
asbag57
(g78
g59
NtRp2716
(dp2717
g62
(dp2718
g89
g90
ssg71
g2708
sg64
(lp2719
S':'
asbag57
(g78
g59
NtRp2720
(dp2721
g62
(dp2722
sg71
g2708
sg64
(lp2723
g57
(g58
g59
NtRp2724
(dp2725
g62
(dp2726
g70
I5
ssg71
g2720
sg64
(lp2727
S'<cStringIO.StringO object at 0xa60b4a0>'
p2728
asbasbasbag57
(g73
g59
NtRp2729
(dp2730
g62
(dp2731
sg71
g2704
sg64
(lp2732
g57
(g78
g59
NtRp2733
(dp2734
g62
(dp2735
g82
g83
ssg71
g2729
sg64
(lp2736
g221
asbag57
(g78
g59
NtRp2737
(dp2738
g62
(dp2739
g89
g90
ssg71
g2729
sg64
(lp2740
S':'
asbag57
(g78
g59
NtRp2741
(dp2742
g62
(dp2743
sg71
g2729
sg64
(lp2744
g57
(g58
g59
NtRp2745
(dp2746
g62
(dp2747
g70
I5
ssg71
g2741
sg64
(lp2748
g57
(g66
g59
NtRp2749
(dp2750
g62
(dp2751
g70
I4
ssg71
Nsg64
(lp2752
g57
(g73
g59
NtRp2753
(dp2754
g62
(dp2755
sg71
g2749
sg64
(lp2756
g57
(g78
g59
NtRp2757
(dp2758
g62
(dp2759
g82
g83
ssg71
g2753
sg64
(lp2760
S'session_id_astra2'
p2761
asbag57
(g78
g59
NtRp2762
(dp2763
g62
(dp2764
g89
g90
ssg71
g2753
sg64
(lp2765
S':'
asbag57
(g78
g59
NtRp2766
(dp2767
g62
(dp2768
sg71
g2753
sg64
(lp2769
g57
(g58
g59
NtRp2770
(dp2771
g62
(dp2772
g70
I4
ssg71
g2766
sg64
(lp2773
g57
(g66
g59
NtRp2774
(dp2775
g62
(dp2776
g70
I3
ssg71
Nsg64
(lp2777
g57
(g73
g59
NtRp2778
(dp2779
g62
(dp2780
sg71
g2774
sg64
(lp2781
g57
(g78
g59
NtRp2782
(dp2783
g62
(dp2784
g82
g83
ssg71
g2778
sg64
(lp2785
g271
asbag57
(g78
g59
NtRp2786
(dp2787
g62
(dp2788
g89
g90
ssg71
g2778
sg64
(lp2789
S':'
asbag57
(g78
g59
NtRp2790
(dp2791
g62
(dp2792
sg71
g2778
sg64
(lp2793
g57
(g58
g59
NtRp2794
(dp2795
g62
(dp2796
g70
I3
ssg71
g2790
sg64
(lp2797
S''
asbasbasbag57
(g73
g59
NtRp2798
(dp2799
g62
(dp2800
sg71
g2774
sg64
(lp2801
g57
(g78
g59
NtRp2802
(dp2803
g62
(dp2804
g82
g83
ssg71
g2798
sg64
(lp2805
g292
asbag57
(g78
g59
NtRp2806
(dp2807
g62
(dp2808
g89
g90
ssg71
g2798
sg64
(lp2809
S':'
asbag57
(g78
g59
NtRp2810
(dp2811
g62
(dp2812
sg71
g2798
sg64
(lp2813
g57
(g58
g59
NtRp2814
(dp2815
g62
(dp2816
g70
I3
ssg71
g2810
sg64
(lp2817
S''
asbasbasbag57
(g73
g59
NtRp2818
(dp2819
g62
(dp2820
sg71
g2774
sg64
(lp2821
g57
(g78
g59
NtRp2822
(dp2823
g62
(dp2824
g82
g83
ssg71
g2818
sg64
(lp2825
g313
asbag57
(g78
g59
NtRp2826
(dp2827
g62
(dp2828
g89
g90
ssg71
g2818
sg64
(lp2829
S':'
asbag57
(g78
g59
NtRp2830
(dp2831
g62
(dp2832
sg71
g2818
sg64
(lp2833
g57
(g58
g59
NtRp2834
(dp2835
g62
(dp2836
g70
I3
ssg71
g2830
sg64
(lp2837
S''
asbasbasbag57
(g73
g59
NtRp2838
(dp2839
g62
(dp2840
sg71
g2774
sg64
(lp2841
g57
(g78
g59
NtRp2842
(dp2843
g62
(dp2844
g82
g83
ssg71
g2838
sg64
(lp2845
g334
asbag57
(g78
g59
NtRp2846
(dp2847
g62
(dp2848
g89
g90
ssg71
g2838
sg64
(lp2849
S':'
asbag57
(g78
g59
NtRp2850
(dp2851
g62
(dp2852
sg71
g2838
sg64
(lp2853
g57
(g58
g59
NtRp2854
(dp2855
g62
(dp2856
g70
I3
ssg71
g2850
sg64
(lp2857
S''
asbasbasbag57
(g73
g59
NtRp2858
(dp2859
g62
(dp2860
sg71
g2774
sg64
(lp2861
g57
(g78
g59
NtRp2862
(dp2863
g62
(dp2864
g82
g83
ssg71
g2858
sg64
(lp2865
g355
asbag57
(g78
g59
NtRp2866
(dp2867
g62
(dp2868
g89
g90
ssg71
g2858
sg64
(lp2869
S':'
asbag57
(g78
g59
NtRp2870
(dp2871
g62
(dp2872
sg71
g2858
sg64
(lp2873
g57
(g58
g59
NtRp2874
(dp2875
g62
(dp2876
g70
I3
ssg71
g2870
sg64
(lp2877
S''
asbasbasbag57
(g73
g59
NtRp2878
(dp2879
g62
(dp2880
sg71
g2774
sg64
(lp2881
g57
(g78
g59
NtRp2882
(dp2883
g62
(dp2884
g82
g83
ssg71
g2878
sg64
(lp2885
g376
asbag57
(g78
g59
NtRp2886
(dp2887
g62
(dp2888
g89
g90
ssg71
g2878
sg64
(lp2889
S':'
asbag57
(g78
g59
NtRp2890
(dp2891
g62
(dp2892
sg71
g2878
sg64
(lp2893
g57
(g58
g59
NtRp2894
(dp2895
g62
(dp2896
g70
I3
ssg71
g2890
sg64
(lp2897
S'/'
asbasbasbag57
(g73
g59
NtRp2898
(dp2899
g62
(dp2900
sg71
g2774
sg64
(lp2901
g57
(g78
g59
NtRp2902
(dp2903
g62
(dp2904
g82
g83
ssg71
g2898
sg64
(lp2905
g397
asbag57
(g78
g59
NtRp2906
(dp2907
g62
(dp2908
g89
g90
ssg71
g2898
sg64
(lp2909
S':'
asbag57
(g78
g59
NtRp2910
(dp2911
g62
(dp2912
sg71
g2898
sg64
(lp2913
g57
(g58
g59
NtRp2914
(dp2915
g62
(dp2916
g70
I3
ssg71
g2910
sg64
(lp2917
S''
asbasbasbag57
(g73
g59
NtRp2918
(dp2919
g62
(dp2920
sg71
g2774
sg64
(lp2921
g57
(g78
g59
NtRp2922
(dp2923
g62
(dp2924
g82
g83
ssg71
g2918
sg64
(lp2925
g418
asbag57
(g78
g59
NtRp2926
(dp2927
g62
(dp2928
g89
g90
ssg71
g2918
sg64
(lp2929
S':'
asbag57
(g78
g59
NtRp2930
(dp2931
g62
(dp2932
sg71
g2918
sg64
(lp2933
g57
(g58
g59
NtRp2934
(dp2935
g62
(dp2936
g70
I3
ssg71
g2930
sg64
(lp2937
S''
asbasbasbasbasbasbasbasbasbasbasbag57
(g73
g59
NtRp2938
(dp2939
g62
(dp2940
sg71
g2704
sg64
(lp2941
g57
(g78
g59
NtRp2942
(dp2943
g62
(dp2944
g82
g83
ssg71
g2938
sg64
(lp2945
S'delimiters'
p2946
asbag57
(g78
g59
NtRp2947
(dp2948
g62
(dp2949
g89
g90
ssg71
g2938
sg64
(lp2950
S':'
asbag57
(g78
g59
NtRp2951
(dp2952
g62
(dp2953
sg71
g2938
sg64
(lp2954
g57
(g58
g59
NtRp2955
(dp2956
g62
(dp2957
g70
I5
ssg71
g2951
sg64
(lp2958
g57
(g66
g59
NtRp2959
(dp2960
g62
(dp2961
g70
I4
ssg71
Nsg64
(lp2962
g57
(g73
g59
NtRp2963
(dp2964
g62
(dp2965
sg71
g2959
sg64
(lp2966
g57
(g78
g59
NtRp2967
(dp2968
g62
(dp2969
sg71
g2963
sg64
(lp2970
g57
(g58
g59
NtRp2971
(dp2972
g62
(dp2973
g70
I4
ssg71
g2967
sg64
(lp2974
S'{{'
p2975
asbasbasbag57
(g73
g59
NtRp2976
(dp2977
g62
(dp2978
sg71
g2959
sg64
(lp2979
g57
(g78
g59
NtRp2980
(dp2981
g62
(dp2982
sg71
g2976
sg64
(lp2983
g57
(g58
g59
NtRp2984
(dp2985
g62
(dp2986
g70
I4
ssg71
g2980
sg64
(lp2987
S'}}'
p2988
asbasbasbasbasbasbasbag57
(g73
g59
NtRp2989
(dp2990
g62
(dp2991
sg71
g2704
sg64
(lp2992
g57
(g78
g59
NtRp2993
(dp2994
g62
(dp2995
g82
g83
ssg71
g2989
sg64
(lp2996
S'files'
p2997
asbag57
(g78
g59
NtRp2998
(dp2999
g62
(dp3000
g89
g90
ssg71
g2989
sg64
(lp3001
S':'
asbag57
(g78
g59
NtRp3002
(dp3003
g62
(dp3004
sg71
g2989
sg64
(lp3005
g57
(g58
g59
NtRp3006
(dp3007
g62
(dp3008
g70
I5
ssg71
g3002
sg64
(lp3009
g57
(g66
g59
NtRp3010
(dp3011
g62
(dp3012
g70
I4
ssg71
Nsg64
(lp3013
sbasbasbasbag57
(g73
g59
NtRp3014
(dp3015
g62
(dp3016
sg71
g2704
sg64
(lp3017
g57
(g78
g59
NtRp3018
(dp3019
g62
(dp3020
g82
g83
ssg71
g3014
sg64
(lp3021
S'flash'
p3022
asbag57
(g78
g59
NtRp3023
(dp3024
g62
(dp3025
g89
g90
ssg71
g3014
sg64
(lp3026
S':'
asbag57
(g78
g59
NtRp3027
(dp3028
g62
(dp3029
sg71
g3014
sg64
(lp3030
g57
(g58
g59
NtRp3031
(dp3032
g62
(dp3033
g70
I5
ssg71
g3027
sg64
(lp3034
S'Welcome sex'
p3035
asbasbasbag57
(g73
g59
NtRp3036
(dp3037
g62
(dp3038
sg71
g2704
sg64
(lp3039
g57
(g78
g59
NtRp3040
(dp3041
g62
(dp3042
g82
g83
ssg71
g3036
sg64
(lp3043
S'generic_patterns'
p3044
asbag57
(g78
g59
NtRp3045
(dp3046
g62
(dp3047
g89
g90
ssg71
g3036
sg64
(lp3048
S':'
asbag57
(g78
g59
NtRp3049
(dp3050
g62
(dp3051
sg71
g3036
sg64
(lp3052
g57
(g58
g59
NtRp3053
(dp3054
g62
(dp3055
g70
I5
ssg71
g3049
sg64
(lp3056
g57
(g66
g59
NtRp3057
(dp3058
g62
(dp3059
g70
I4
ssg71
Nsg64
(lp3060
sbasbasbasbag57
(g73
g59
NtRp3061
(dp3062
g62
(dp3063
sg71
g2704
sg64
(lp3064
g57
(g78
g59
NtRp3065
(dp3066
g62
(dp3067
g82
g83
ssg71
g3061
sg64
(lp3068
S'headers'
p3069
asbag57
(g78
g59
NtRp3070
(dp3071
g62
(dp3072
g89
g90
ssg71
g3061
sg64
(lp3073
S':'
asbag57
(g78
g59
NtRp3074
(dp3075
g62
(dp3076
sg71
g3061
sg64
(lp3077
g57
(g58
g59
NtRp3078
(dp3079
g62
(dp3080
g70
I5
ssg71
g3074
sg64
(lp3081
g57
(g66
g59
NtRp3082
(dp3083
g62
(dp3084
g70
I4
ssg71
Nsg64
(lp3085
g57
(g73
g59
NtRp3086
(dp3087
g62
(dp3088
sg71
g3082
sg64
(lp3089
g57
(g78
g59
NtRp3090
(dp3091
g62
(dp3092
g82
g83
ssg71
g3086
sg64
(lp3093
S'Cache-Control'
p3094
asbag57
(g78
g59
NtRp3095
(dp3096
g62
(dp3097
g89
g90
ssg71
g3086
sg64
(lp3098
S':'
asbag57
(g78
g59
NtRp3099
(dp3100
g62
(dp3101
sg71
g3086
sg64
(lp3102
g57
(g58
g59
NtRp3103
(dp3104
g62
(dp3105
g70
I4
ssg71
g3099
sg64
(lp3106
S'no-store, no-cache, must-revalidate, post-check=0, pre-check=0'
p3107
asbasbasbag57
(g73
g59
NtRp3108
(dp3109
g62
(dp3110
sg71
g3082
sg64
(lp3111
g57
(g78
g59
NtRp3112
(dp3113
g62
(dp3114
g82
g83
ssg71
g3108
sg64
(lp3115
S'Content-Type'
p3116
asbag57
(g78
g59
NtRp3117
(dp3118
g62
(dp3119
g89
g90
ssg71
g3108
sg64
(lp3120
S':'
asbag57
(g78
g59
NtRp3121
(dp3122
g62
(dp3123
sg71
g3108
sg64
(lp3124
g57
(g58
g59
NtRp3125
(dp3126
g62
(dp3127
g70
I4
ssg71
g3121
sg64
(lp3128
S'text/html; charset=utf-8'
p3129
asbasbasbag57
(g73
g59
NtRp3130
(dp3131
g62
(dp3132
sg71
g3082
sg64
(lp3133
g57
(g78
g59
NtRp3134
(dp3135
g62
(dp3136
g82
g83
ssg71
g3130
sg64
(lp3137
S'Expires'
p3138
asbag57
(g78
g59
NtRp3139
(dp3140
g62
(dp3141
g89
g90
ssg71
g3130
sg64
(lp3142
S':'
asbag57
(g78
g59
NtRp3143
(dp3144
g62
(dp3145
sg71
g3130
sg64
(lp3146
g57
(g58
g59
NtRp3147
(dp3148
g62
(dp3149
g70
I4
ssg71
g3143
sg64
(lp3150
S'Mon, 15 Oct 2012 06:02:38 GMT'
p3151
asbasbasbag57
(g73
g59
NtRp3152
(dp3153
g62
(dp3154
sg71
g3082
sg64
(lp3155
g57
(g78
g59
NtRp3156
(dp3157
g62
(dp3158
g82
g83
ssg71
g3152
sg64
(lp3159
S'Pragma'
p3160
asbag57
(g78
g59
NtRp3161
(dp3162
g62
(dp3163
g89
g90
ssg71
g3152
sg64
(lp3164
S':'
asbag57
(g78
g59
NtRp3165
(dp3166
g62
(dp3167
sg71
g3152
sg64
(lp3168
g57
(g58
g59
NtRp3169
(dp3170
g62
(dp3171
g70
I4
ssg71
g3165
sg64
(lp3172
S'no-cache'
p3173
asbasbasbag57
(g73
g59
NtRp3174
(dp3175
g62
(dp3176
sg71
g3082
sg64
(lp3177
g57
(g78
g59
NtRp3178
(dp3179
g62
(dp3180
g82
g83
ssg71
g3174
sg64
(lp3181
S'X-Powered-By'
p3182
asbag57
(g78
g59
NtRp3183
(dp3184
g62
(dp3185
g89
g90
ssg71
g3174
sg64
(lp3186
S':'
asbag57
(g78
g59
NtRp3187
(dp3188
g62
(dp3189
sg71
g3174
sg64
(lp3190
g57
(g58
g59
NtRp3191
(dp3192
g62
(dp3193
g70
I4
ssg71
g3187
sg64
(lp3194
S'web2py'
p3195
asbasbasbasbasbasbasbag57
(g73
g59
NtRp3196
(dp3197
g62
(dp3198
sg71
g2704
sg64
(lp3199
g57
(g78
g59
NtRp3200
(dp3201
g62
(dp3202
g82
g83
ssg71
g3196
sg64
(lp3203
S'menu'
p3204
asbag57
(g78
g59
NtRp3205
(dp3206
g62
(dp3207
g89
g90
ssg71
g3196
sg64
(lp3208
S':'
asbag57
(g78
g59
NtRp3209
(dp3210
g62
(dp3211
sg71
g3196
sg64
(lp3212
g57
(g58
g59
NtRp3213
(dp3214
g62
(dp3215
g70
I5
ssg71
g3209
sg64
(lp3216
g57
(g66
g59
NtRp3217
(dp3218
g62
(dp3219
g70
I4
ssg71
Nsg64
(lp3220
sbasbasbasbag57
(g73
g59
NtRp3221
(dp3222
g62
(dp3223
sg71
g2704
sg64
(lp3224
g57
(g78
g59
NtRp3225
(dp3226
g62
(dp3227
g82
g83
ssg71
g3221
sg64
(lp3228
S'meta'
p3229
asbag57
(g78
g59
NtRp3230
(dp3231
g62
(dp3232
g89
g90
ssg71
g3221
sg64
(lp3233
S':'
asbag57
(g78
g59
NtRp3234
(dp3235
g62
(dp3236
sg71
g3221
sg64
(lp3237
g57
(g58
g59
NtRp3238
(dp3239
g62
(dp3240
g70
I5
ssg71
g3234
sg64
(lp3241
g57
(g66
g59
NtRp3242
(dp3243
g62
(dp3244
g70
I4
ssg71
Nsg64
(lp3245
sbasbasbasbag57
(g73
g59
NtRp3246
(dp3247
g62
(dp3248
sg71
g2704
sg64
(lp3249
g57
(g78
g59
NtRp3250
(dp3251
g62
(dp3252
g82
g83
ssg71
g3246
sg64
(lp3253
S'postprocessing'
p3254
asbag57
(g78
g59
NtRp3255
(dp3256
g62
(dp3257
g89
g90
ssg71
g3246
sg64
(lp3258
S':'
asbag57
(g78
g59
NtRp3259
(dp3260
g62
(dp3261
sg71
g3246
sg64
(lp3262
g57
(g58
g59
NtRp3263
(dp3264
g62
(dp3265
g70
I5
ssg71
g3259
sg64
(lp3266
g57
(g66
g59
NtRp3267
(dp3268
g62
(dp3269
g70
I4
ssg71
Nsg64
(lp3270
sbasbasbasbag57
(g73
g59
NtRp3271
(dp3272
g62
(dp3273
sg71
g2704
sg64
(lp3274
g57
(g78
g59
NtRp3275
(dp3276
g62
(dp3277
g82
g83
ssg71
g3271
sg64
(lp3278
S'session_file'
p3279
asbag57
(g78
g59
NtRp3280
(dp3281
g62
(dp3282
g89
g90
ssg71
g3271
sg64
(lp3283
S':'
asbag57
(g78
g59
NtRp3284
(dp3285
g62
(dp3286
sg71
g3271
sg64
(lp3287
g57
(g58
g59
NtRp3288
(dp3289
g62
(dp3290
g70
I5
ssg71
g3284
sg64
(lp3291
S"<open file '/home/vishrut/web2py/applications/astra2/sessions/10.1.40.240-772653b4-baef-464f-a28a-f40048fbf917', mode 'rb+' at 0xa653f40>"
p3292
asbasbasbag57
(g73
g59
NtRp3293
(dp3294
g62
(dp3295
sg71
g2704
sg64
(lp3296
g57
(g78
g59
NtRp3297
(dp3298
g62
(dp3299
g82
g83
ssg71
g3293
sg64
(lp3300
S'session_filename'
p3301
asbag57
(g78
g59
NtRp3302
(dp3303
g62
(dp3304
g89
g90
ssg71
g3293
sg64
(lp3305
S':'
asbag57
(g78
g59
NtRp3306
(dp3307
g62
(dp3308
sg71
g3293
sg64
(lp3309
g57
(g58
g59
NtRp3310
(dp3311
g62
(dp3312
g70
I5
ssg71
g3306
sg64
(lp3313
S'/home/vishrut/web2py/applications/astra2/sessions/10.1.40.240-772653b4-baef-464f-a28a-f40048fbf917'
p3314
asbasbasbag57
(g73
g59
NtRp3315
(dp3316
g62
(dp3317
sg71
g2704
sg64
(lp3318
g57
(g78
g59
NtRp3319
(dp3320
g62
(dp3321
g82
g83
ssg71
g3315
sg64
(lp3322
S'session_id'
p3323
asbag57
(g78
g59
NtRp3324
(dp3325
g62
(dp3326
g89
g90
ssg71
g3315
sg64
(lp3327
S':'
asbag57
(g78
g59
NtRp3328
(dp3329
g62
(dp3330
sg71
g3315
sg64
(lp3331
g57
(g58
g59
NtRp3332
(dp3333
g62
(dp3334
g70
I5
ssg71
g3328
sg64
(lp3335
S'10.1.40.240-772653b4-baef-464f-a28a-f40048fbf917'
p3336
asbasbasbag57
(g73
g59
NtRp3337
(dp3338
g62
(dp3339
sg71
g2704
sg64
(lp3340
g57
(g78
g59
NtRp3341
(dp3342
g62
(dp3343
g82
g83
ssg71
g3337
sg64
(lp3344
S'session_id_name'
p3345
asbag57
(g78
g59
NtRp3346
(dp3347
g62
(dp3348
g89
g90
ssg71
g3337
sg64
(lp3349
S':'
asbag57
(g78
g59
NtRp3350
(dp3351
g62
(dp3352
sg71
g3337
sg64
(lp3353
g57
(g58
g59
NtRp3354
(dp3355
g62
(dp3356
g70
I5
ssg71
g3350
sg64
(lp3357
g2761
asbasbasbag57
(g73
g59
NtRp3358
(dp3359
g62
(dp3360
sg71
g2704
sg64
(lp3361
g57
(g78
g59
NtRp3362
(dp3363
g62
(dp3364
g82
g83
ssg71
g3358
sg64
(lp3365
S'session_locked'
p3366
asbag57
(g78
g59
NtRp3367
(dp3368
g62
(dp3369
g89
g90
ssg71
g3358
sg64
(lp3370
S':'
asbag57
(g78
g59
NtRp3371
(dp3372
g62
(dp3373
sg71
g3358
sg64
(lp3374
g57
(g58
g59
NtRp3375
(dp3376
g62
(dp3377
g70
I5
ssg71
g3371
sg64
(lp3378
g1286
asbasbasbag57
(g73
g59
NtRp3379
(dp3380
g62
(dp3381
sg71
g2704
sg64
(lp3382
g57
(g78
g59
NtRp3383
(dp3384
g62
(dp3385
g82
g83
ssg71
g3379
sg64
(lp3386
S'session_new'
p3387
asbag57
(g78
g59
NtRp3388
(dp3389
g62
(dp3390
g89
g90
ssg71
g3379
sg64
(lp3391
S':'
asbag57
(g78
g59
NtRp3392
(dp3393
g62
(dp3394
sg71
g3379
sg64
(lp3395
g57
(g58
g59
NtRp3396
(dp3397
g62
(dp3398
g70
I5
ssg71
g3392
sg64
(lp3399
g100
asbasbasbag57
(g73
g59
NtRp3400
(dp3401
g62
(dp3402
sg71
g2704
sg64
(lp3403
g57
(g78
g59
NtRp3404
(dp3405
g62
(dp3406
g82
g83
ssg71
g3400
sg64
(lp3407
S'status'
p3408
asbag57
(g78
g59
NtRp3409
(dp3410
g62
(dp3411
g89
g90
ssg71
g3400
sg64
(lp3412
S':'
asbag57
(g78
g59
NtRp3413
(dp3414
g62
(dp3415
sg71
g3400
sg64
(lp3416
g57
(g58
g59
NtRp3417
(dp3418
g62
(dp3419
g70
I5
ssg71
g3413
sg64
(lp3420
S'200'
p3421
asbasbasbag57
(g73
g59
NtRp3422
(dp3423
g62
(dp3424
sg71
g2704
sg64
(lp3425
g57
(g78
g59
NtRp3426
(dp3427
g62
(dp3428
g82
g83
ssg71
g3422
sg64
(lp3429
g1950
asbag57
(g78
g59
NtRp3430
(dp3431
g62
(dp3432
g89
g90
ssg71
g3422
sg64
(lp3433
S':'
asbag57
(g78
g59
NtRp3434
(dp3435
g62
(dp3436
sg71
g3422
sg64
(lp3437
g57
(g58
g59
NtRp3438
(dp3439
g62
(dp3440
g70
I5
ssg71
g3434
sg64
(lp3441
g1963
asbasbasbag57
(g73
g59
NtRp3442
(dp3443
g62
(dp3444
sg71
g2704
sg64
(lp3445
g57
(g78
g59
NtRp3446
(dp3447
g62
(dp3448
g82
g83
ssg71
g3442
sg64
(lp3449
S'view'
p3450
asbag57
(g78
g59
NtRp3451
(dp3452
g62
(dp3453
g89
g90
ssg71
g3442
sg64
(lp3454
S':'
asbag57
(g78
g59
NtRp3455
(dp3456
g62
(dp3457
sg71
g3442
sg64
(lp3458
g57
(g58
g59
NtRp3459
(dp3460
g62
(dp3461
g70
I5
ssg71
g3455
sg64
(lp3462
S'default/show.html'
p3463
asbasbasbasbasbsS'locals'
p3464
(dp3465
S'Service'
p3466
S"<class 'gluon.tools.Service'>"
p3467
sS'OBJECT'
p3468
S"<class 'gluon.html.OBJECT'>"
p3469
sS'SQLDB'
p3470
S"<class 'gluon.dal.DAL'>"
p3471
sg2643
S"<Storage {'username': 'sex', '_formkey[kids/crea...\\x9b\\xfa\\x1b\\xe6p\\x972\\xaf\\xac\\xf5\\x99\\x06M\\nK'}>"
p3472
sS'LINK'
p3473
S"<class 'gluon.html.LINK'>"
p3474
sS'BR'
p3475
S"<class 'gluon.html.BR'>"
p3476
sS'local_import'
p3477
S'<function <lambda>>'
p3478
sS'OPTGROUP'
p3479
S"<class 'gluon.html.OPTGROUP'>"
p3480
sS'__package__'
p3481
S'None'
p3482
sS'PRE'
p3483
S"<class 'gluon.html.PRE'>"
p3484
sS'IS_INT_IN_RANGE'
p3485
S"<class 'gluon.validators.IS_INT_IN_RANGE'>"
p3486
sS'IS_LOWER'
p3487
S"<class 'gluon.validators.IS_LOWER'>"
p3488
sS'IS_STRONG'
p3489
S"<class 'gluon.validators.IS_STRONG'>"
p3490
sS'cache'
p3491
S'<gluon.cache.Cache object>'
p3492
sS'IS_IN_DB'
p3493
S"<class 'gluon.validators.IS_IN_DB'>"
p3494
sS'TAG'
p3495
S'<gluon.html.__TAG__ object>'
p3496
sS'SQLField'
p3497
S"<class 'gluon.dal.Field'>"
p3498
sS'mail'
p3499
S'<gluon.tools.Mail object>'
p3500
sS'BODY'
p3501
S"<class 'gluon.html.BODY'>"
p3502
sS'IS_DATE_IN_RANGE'
p3503
S"<class 'gluon.validators.IS_DATE_IN_RANGE'>"
p3504
sS'TH'
p3505
S"<class 'gluon.html.TH'>"
p3506
sS'URL'
p3507
S'<function URL>'
p3508
sS'__file__'
p3509
S"'/home/vishrut/web2py/applications/astra2/views/default/show.html'"
p3510
sS'db'
p3511
S"<DAL {'auth_event': <Table {'origin': <gluon.dal...n_key': <gluon.dal.Field object at 0xaa7320c>}>}>"
p3512
sS'auth'
p3513
S'<gluon.tools.Auth object>'
p3514
sS'P'
S"<class 'gluon.html.P'>"
p3515
sS'TFOOT'
p3516
S"<class 'gluon.html.TFOOT'>"
p3517
sS'XHTML'
p3518
S"<class 'gluon.html.XHTML'>"
p3519
sS'ON'
p3520
g1286
sS'OL'
p3521
S"<class 'gluon.html.OL'>"
p3522
sS'TEXTAREA'
p3523
S"<class 'gluon.html.TEXTAREA'>"
p3524
sS'MENU'
p3525
S"<class 'gluon.html.MENU'>"
p3526
sS'LOAD'
p3527
S'<function LOAD>'
p3528
sS'CODE'
p3529
S"<class 'gluon.html.CODE'>"
p3530
sS'HTTP'
p3531
S"<class 'gluon.http.HTTP'>"
p3532
sS'HR'
p3533
S"<class 'gluon.html.HR'>"
p3534
sS'IS_DATETIME'
p3535
S"<class 'gluon.validators.IS_DATETIME'>"
p3536
sS'HEAD'
p3537
S"<class 'gluon.html.HEAD'>"
p3538
sS'LABEL'
p3539
S"<class 'gluon.html.LABEL'>"
p3540
sS'CLEANUP'
p3541
S"<class 'gluon.validators.CLEANUP'>"
p3542
sS'plugins'
p3543
S'<gluon.tools.PluginManager object>'
p3544
sS'SELECT'
p3545
S"<class 'gluon.html.SELECT'>"
p3546
sS'use_janrain'
p3547
S'<function use_janrain>'
p3548
sS'CENTER'
p3549
S"<class 'gluon.html.CENTER'>"
p3550
sS'prettydate'
p3551
S'<function prettydate>'
p3552
sS'Crud'
p3553
S"<class 'gluon.tools.Crud'>"
p3554
sS'Auth'
p3555
S"<class 'gluon.tools.Auth'>"
p3556
sS'__builtins__'
p3557
S"{'ArithmeticError': <type 'exceptions.ArithmeticError'>, 'AssertionError': <type 'exceptions.AssertionError'>, 'AttributeError': <type 'exceptions.AttributeError'>, 'BaseException': <type 'exceptions.BaseException'>, 'BufferError': <type 'exceptions.BufferError'>, 'BytesWarning': <type 'exceptions.BytesWarning'>, 'DeprecationWarning': <type 'exceptions.DeprecationWarning'>, 'EOFError': <type 'exceptions.EOFError'>, 'Ellipsis': Ellipsis, 'EnvironmentError': <type 'exceptions.EnvironmentError'>, ...}"
p3558
sS'HTML'
p3559
S"<class 'gluon.html.HTML'>"
p3560
sS'SQLFORM'
p3561
S"<class 'gluon.sqlhtml.SQLFORM'>"
p3562
sS'EM'
p3563
S"<class 'gluon.html.EM'>"
p3564
sS'redirect'
p3565
S'<function redirect>'
p3566
sS'FIELDSET'
p3567
S"<class 'gluon.html.FIELDSET'>"
p3568
sS'IS_EQUAL_TO'
p3569
S"<class 'gluon.validators.IS_EQUAL_TO'>"
p3570
sS'embed64'
p3571
S'<function embed64>'
p3572
sS'IS_LIST_OF'
p3573
S"<class 'gluon.validators.IS_LIST_OF'>"
p3574
sS'__name__'
p3575
S"'__restricted__'"
p3576
sS'EMBED'
p3577
S"<class 'gluon.html.EMBED'>"
p3578
sS'FORM'
p3579
S"<class 'gluon.html.FORM'>"
p3580
sS'H2'
p3581
S"<class 'gluon.html.H2'>"
p3582
sS'H3'
p3583
S"<class 'gluon.html.H3'>"
p3584
sS'BUTTON'
p3585
S"<class 'gluon.html.BUTTON'>"
p3586
sS'H1'
p3587
S"<class 'gluon.html.H1'>"
p3588
sS'H6'
p3589
S"<class 'gluon.html.H6'>"
p3590
sS'H4'
p3591
S"<class 'gluon.html.H4'>"
p3592
sS'H5'
p3593
S"<class 'gluon.html.H5'>"
p3594
sS'UL'
p3595
S"<class 'gluon.html.UL'>"
p3596
sS'IS_UPPER'
p3597
S"<class 'gluon.validators.IS_UPPER'>"
p3598
sS'xmlescape'
p3599
S'<function xmlescape>'
p3600
sS'IS_TIME'
p3601
S"<class 'gluon.validators.IS_TIME'>"
p3602
sS'OPTION'
p3603
S"<class 'gluon.html.OPTION'>"
p3604
sS'TITLE'
p3605
S"<class 'gluon.html.TITLE'>"
p3606
sS'CRYPT'
p3607
S"<class 'gluon.validators.CRYPT'>"
p3608
sS'IS_EMPTY_OR'
p3609
S"<class 'gluon.validators.IS_EMPTY_OR'>"
p3610
sS'MARKMIN'
p3611
S"<class 'gluon.html.MARKMIN'>"
p3612
sS'INPUT'
p3613
S"<class 'gluon.html.INPUT'>"
p3614
sS'COL'
p3615
S"<class 'gluon.html.COL'>"
p3616
sS'service'
p3617
S'<gluon.tools.Service object>'
p3618
sS'SCRIPT'
p3619
S"<class 'gluon.html.SCRIPT'>"
p3620
sS'TABLE'
p3621
S"<class 'gluon.html.TABLE'>"
p3622
sS'IS_IPV4'
p3623
S"<class 'gluon.validators.IS_IPV4'>"
p3624
sS'IS_LENGTH'
p3625
S"<class 'gluon.validators.IS_LENGTH'>"
p3626
sS'XML'
p3627
S"<class 'gluon.html.XML'>"
p3628
sS'B'
S"<class 'gluon.html.B'>"
p3629
sS'IMG'
p3630
S"<class 'gluon.html.IMG'>"
p3631
sS'SQLTABLE'
p3632
S"<class 'gluon.sqlhtml.SQLTABLE'>"
p3633
sS'IS_MATCH'
p3634
S"<class 'gluon.validators.IS_MATCH'>"
p3635
sS'IS_ALPHANUMERIC'
p3636
S"<class 'gluon.validators.IS_ALPHANUMERIC'>"
p3637
sS'SPAN'
p3638
S"<class 'gluon.html.SPAN'>"
p3639
sS'IS_SLUG'
p3640
S"<class 'gluon.validators.IS_SLUG'>"
p3641
sS'BEAUTIFY'
p3642
S"<class 'gluon.html.BEAUTIFY'>"
p3643
sS'META'
p3644
S"<class 'gluon.html.META'>"
p3645
sS'IS_DATE'
p3646
S"<class 'gluon.validators.IS_DATE'>"
p3647
sS'IS_EMAIL'
p3648
S"<class 'gluon.validators.IS_EMAIL'>"
p3649
sS'IS_NOT_EMPTY'
p3650
S"<class 'gluon.validators.IS_NOT_EMPTY'>"
p3651
sS'IS_FLOAT_IN_RANGE'
p3652
S"<class 'gluon.validators.IS_FLOAT_IN_RANGE'>"
p3653
sS'TBODY'
p3654
S"<class 'gluon.html.TBODY'>"
p3655
sS'CAT'
p3656
S"<class 'gluon.html.CAT'>"
p3657
sS'Field'
p3658
S"<class 'gluon.dal.Field'>"
p3659
sS'DIV'
p3660
S"<class 'gluon.html.DIV'>"
p3661
sS'LEGEND'
p3662
S"<class 'gluon.html.LEGEND'>"
p3663
sS'COLGROUP'
p3664
S"<class 'gluon.html.COLGROUP'>"
p3665
sS'DAL'
p3666
S"<class 'gluon.dal.DAL'>"
p3667
sS'TT'
p3668
S"<class 'gluon.html.TT'>"
p3669
sS'TR'
p3670
S"<class 'gluon.html.TR'>"
p3671
sS'LI'
p3672
S"<class 'gluon.html.LI'>"
p3673
sS'IFRAME'
p3674
S"<class 'gluon.html.IFRAME'>"
p3675
sS'TD'
p3676
S"<class 'gluon.html.TD'>"
p3677
sS'PluginManager'
p3678
S"<class 'gluon.tools.PluginManager'>"
p3679
sS'IS_URL'
p3680
S"<class 'gluon.validators.IS_URL'>"
p3681
sS'A'
S"<class 'gluon.html.A'>"
p3682
sS'STYLE'
p3683
S"<class 'gluon.html.STYLE'>"
p3684
sS'IS_DATETIME_IN_RANGE'
p3685
S"<class 'gluon.validators.IS_DATETIME_IN_RANGE'>"
p3686
sS'IS_IMAGE'
p3687
S"<class 'gluon.validators.IS_IMAGE'>"
p3688
sS'I'
S"<class 'gluon.html.I'>"
p3689
sS'crud'
p3690
S'<gluon.tools.Crud object>'
p3691
sS'IS_NOT_IN_DB'
p3692
S"<class 'gluon.validators.IS_NOT_IN_DB'>"
p3693
sg2699
S"<Storage {'body': <cStringIO.StringO object at 0...bda> at 0xa4e3d84>, 'view': 'default/show.html'}>"
p3694
sS'THEAD'
p3695
S"<class 'gluon.html.THEAD'>"
p3696
sS'IS_NULL_OR'
p3697
S"<class 'gluon.validators.IS_EMPTY_OR'>"
p3698
sg56
S"<Storage {'body': <cStringIO.StringO object at 0..._vars': <Storage {}>, 'post_vars': <Storage {}>}>"
p3699
sS'IS_EXPR'
p3700
S"<class 'gluon.validators.IS_EXPR'>"
p3701
sS'T'
S'<gluon.languages.translator object>'
p3702
sS'IS_IN_SET'
p3703
S"<class 'gluon.validators.IS_IN_SET'>"
p3704
sS'IS_UPLOAD_FILENAME'
p3705
S"<class 'gluon.validators.IS_UPLOAD_FILENAME'>"
p3706
sS'IS_DECIMAL_IN_RANGE'
p3707
S"<class 'gluon.validators.IS_DECIMAL_IN_RANGE'>"
p3708
sssS'traceback'
p3709
S'Traceback (most recent call last):\n  File "/home/vishrut/web2py/gluon/restricted.py", line 205, in restricted\n    exec ccode in environment\n  File "/home/vishrut/web2py/applications/astra2/views/default/show.html", line 4, in <module>\n    <meta http-equiv="Content-Type" content="text/html; charset=utf-8" />\nAttributeError: \'NoneType\' object has no attribute \'rno\'\n'
p3710
s.