(dp1
S'output'
p2
S"<class 'pysqlite2.dbapi2.OperationalError'> Cannot add a UNIQUE column"
p3
sS'layer'
p4
S'/home/vishrut/web2py/applications/astra1/models/db.py'
p5
sS'code'
p6
S"# -*- coding: utf-8 -*-\n\n#########################################################################\n## This scaffolding model makes your app work on Google App Engine too\n## File is released under public domain and you can use without limitations\n#########################################################################\n\n## if SSL/HTTPS is properly configured and you want all HTTP requests to\n## be redirected to HTTPS, uncomment the line below:\n# request.requires_https()\n\nif not request.env.web2py_runtime_gae:\n    ## if NOT running on Google App Engine use SQLite or other DB\n    db = DAL('sqlite://storage.sqlite')\nelse:\n    ## connect to Google BigTable (optional 'google:datastore://namespace')\n    db = DAL('google:datastore')\n    ## store sessions and tickets there\n    session.connect(request, response, db = db)\n    ## or store session in Memcache, Redis, etc.\n    ## from gluon.contrib.memdb import MEMDB\n    ## from google.appengine.api.memcache import Client\n    ## session.connect(request, response, db = MEMDB(Client()))\n\n## by default give a view/generic.extension to all actions from localhost\n## none otherwise. a pattern can be 'controller/function.extension'\nresponse.generic_patterns = ['*'] if request.is_local else []\n## (optional) optimize handling of static files\n# response.optimize_css = 'concat,minify,inline'\n# response.optimize_js = 'concat,minify,inline'\n\n#########################################################################\n## Here is sample code if you need for\n## - email capabilities\n## - authentication (registration, login, logout, ... )\n## - authorization (role based authorization)\n## - services (xml, csv, json, xmlrpc, jsonrpc, amf, rss)\n## - old style crud actions\n## (more options discussed in gluon/tools.py)\n#########################################################################\n\nfrom gluon.tools import Auth, Crud, Service, PluginManager, prettydate\nauth = Auth(db, hmac_key=Auth.get_or_create_key())\ncrud, service, plugins = Crud(db), Service(), PluginManager()\n\n## create all tables needed by auth if not custom tables\nauth.define_tables()\n\n## configure email\nmail=auth.settings.mailer\nmail.settings.server = 'logging' or 'smtp.gmail.com:587'\nmail.settings.sender = 'you@gmail.com'\nmail.settings.login = 'username:password'\n\n## configure auth policy\nauth.settings.registration_requires_verification = False\nauth.settings.registration_requires_approval = False\nauth.settings.reset_password_requires_verification = True\n\n## if you need to use OpenID, Facebook, MySpace, Twitter, Linkedin, etc.\n## register with janrain.com, write your domain:api_key in private/janrain.key\nfrom gluon.contrib.login_methods.rpx_account import use_janrain\nuse_janrain(auth,filename='private/janrain.key')\n\n#########################################################################\n## Define your tables below (or better in another model file) for example\n##\n## >>> db.define_table('mytable',Field('myfield','string'))\n##\n## Fields can be 'string','text','password','integer','double','boolean'\n##       'date','time','datetime','blob','upload', 'reference TABLENAME'\n## There is an implicit 'id integer autoincrement' field\n## Consult manual for more options, validators, etc.\n##\n## More API examples for controllers:\n##\n## >>> db.mytable.insert(myfield='value')\n## >>> rows=db(db.mytable.myfield=='value').select(db.mytable.ALL)\n## >>> for row in rows: print row.id, row.myfield\n#########################################################################\n\nfrom gluon.tools import Crud\ncrud = Crud(db)\nfrom gluon.tools import Auth\nauth = Auth(db, hmac_key=Auth.get_or_create_key())\n\nauth.define_tables()\nauth.add_group('role','description')\n\ndb.define_table('kids',\n                Field('username',unique=True),\n                Field('password'),\n                Field('rno','integer'),\n                format='%(username)s')\n                \ndb.define_table('rooms',\n                Field('rnum','integer',unique=True),\n                Field('vidurl'),\n                format='%(rnum)s')\n\ndb.kids.username.requires=IS_NOT_EMPTY()\ndb.rooms.rnum.requires=IS_NOT_EMPTY()\ndb.rooms.vidurl.requires=IS_NOT_EMPTY()\ndb.kids.rno.requires=IS_IN_DB(db, db.rooms.id, '%(username)s')\n"
p7
sS'snapshot'
p8
(dp9
S'exception'
p10
(dp11
S'__module__'
p12
S"'pysqlite2.dbapi2'"
p13
sS'__getslice__'
p14
S"<method-wrapper '__getslice__' of OperationalError object>"
p15
sS'__str__'
p16
S"<method-wrapper '__str__' of OperationalError object>"
p17
sS'__reduce__'
p18
S'<built-in method __reduce__ of OperationalError object>'
p19
sS'__dict__'
p20
S'{}'
p21
sS'__sizeof__'
p22
S'<built-in method __sizeof__ of OperationalError object>'
p23
sS'__weakref__'
p24
S'None'
p25
sS'__init__'
p26
S"<method-wrapper '__init__' of OperationalError object>"
p27
sS'__setattr__'
p28
S"<method-wrapper '__setattr__' of OperationalError object>"
p29
sS'__reduce_ex__'
p30
S'<built-in method __reduce_ex__ of OperationalError object>'
p31
sS'__new__'
p32
S'<built-in method __new__ of type object>'
p33
sS'__format__'
p34
S'<built-in method __format__ of OperationalError object>'
p35
sS'__class__'
p36
S"<class 'pysqlite2.dbapi2.OperationalError'>"
p37
sS'__doc__'
p38
S'None'
p39
sS'__getitem__'
p40
S"<method-wrapper '__getitem__' of OperationalError object>"
p41
sS'__setstate__'
p42
S'<built-in method __setstate__ of OperationalError object>'
p43
sS'__getattribute__'
p44
S"<method-wrapper '__getattribute__' of OperationalError object>"
p45
sS'args'
p46
S"('Cannot add a UNIQUE column',)"
p47
sS'__subclasshook__'
p48
S'<built-in method __subclasshook__ of type object>'
p49
sS'__unicode__'
p50
S'<built-in method __unicode__ of OperationalError object>'
p51
sS'__delattr__'
p52
S"<method-wrapper '__delattr__' of OperationalError object>"
p53
sS'__repr__'
p54
S"<method-wrapper '__repr__' of OperationalError object>"
p55
sS'__hash__'
p56
S"<method-wrapper '__hash__' of OperationalError object>"
p57
ssS'evalue'
p58
S'Cannot add a UNIQUE column'
p59
sS'request'
p60
ccopy_reg
_reconstructor
p61
(cgluon.html
BEAUTIFY
p62
c__builtin__
object
p63
NtRp64
(dp65
S'attributes'
p66
(dp67
sS'components'
p68
(lp69
g61
(cgluon.html
TABLE
p70
g63
NtRp71
(dp72
g66
(dp73
S'level'
p74
I5
ssS'parent'
p75
Nsg68
(lp76
g61
(cgluon.html
TR
p77
g63
NtRp78
(dp79
g66
(dp80
sg75
g71
sg68
(lp81
g61
(cgluon.html
TD
p82
g63
NtRp83
(dp84
g66
(dp85
S'_style'
p86
S'font-weight:bold;vertical-align:top'
p87
ssg75
g78
sg68
(lp88
S'ajax'
p89
asbag61
(g82
g63
NtRp90
(dp91
g66
(dp92
S'_valign'
p93
S'top'
p94
ssg75
g78
sg68
(lp95
S':'
asbag61
(g82
g63
NtRp96
(dp97
g66
(dp98
sg75
g78
sg68
(lp99
g61
(g62
g63
NtRp100
(dp101
g66
(dp102
g74
I5
ssg75
g96
sg68
(lp103
S'False'
p104
asbasbasbag61
(g77
g63
NtRp105
(dp106
g66
(dp107
sg75
g71
sg68
(lp108
g61
(g82
g63
NtRp109
(dp110
g66
(dp111
g86
g87
ssg75
g105
sg68
(lp112
S'application'
p113
asbag61
(g82
g63
NtRp114
(dp115
g66
(dp116
g93
g94
ssg75
g105
sg68
(lp117
S':'
asbag61
(g82
g63
NtRp118
(dp119
g66
(dp120
sg75
g105
sg68
(lp121
g61
(g62
g63
NtRp122
(dp123
g66
(dp124
g74
I5
ssg75
g118
sg68
(lp125
S'astra1'
p126
asbasbasbag61
(g77
g63
NtRp127
(dp128
g66
(dp129
sg75
g71
sg68
(lp130
g61
(g82
g63
NtRp131
(dp132
g66
(dp133
g86
g87
ssg75
g127
sg68
(lp134
g46
asbag61
(g82
g63
NtRp135
(dp136
g66
(dp137
g93
g94
ssg75
g127
sg68
(lp138
S':'
asbag61
(g82
g63
NtRp139
(dp140
g66
(dp141
sg75
g127
sg68
(lp142
g61
(g62
g63
NtRp143
(dp144
g66
(dp145
g74
I5
ssg75
g139
sg68
(lp146
g61
(g70
g63
NtRp147
(dp148
g66
(dp149
g74
I4
ssg75
Nsg68
(lp150
sbasbasbasbag61
(g77
g63
NtRp151
(dp152
g66
(dp153
sg75
g71
sg68
(lp154
g61
(g82
g63
NtRp155
(dp156
g66
(dp157
g86
g87
ssg75
g151
sg68
(lp158
S'body'
p159
asbag61
(g82
g63
NtRp160
(dp161
g66
(dp162
g93
g94
ssg75
g151
sg68
(lp163
S':'
asbag61
(g82
g63
NtRp164
(dp165
g66
(dp166
sg75
g151
sg68
(lp167
g61
(g62
g63
NtRp168
(dp169
g66
(dp170
g74
I5
ssg75
g164
sg68
(lp171
S'<cStringIO.StringO object at 0x9dcba20>'
p172
asbasbasbag61
(g77
g63
NtRp173
(dp174
g66
(dp175
sg75
g71
sg68
(lp176
g61
(g82
g63
NtRp177
(dp178
g66
(dp179
g86
g87
ssg75
g173
sg68
(lp180
S'client'
p181
asbag61
(g82
g63
NtRp182
(dp183
g66
(dp184
g93
g94
ssg75
g173
sg68
(lp185
S':'
asbag61
(g82
g63
NtRp186
(dp187
g66
(dp188
sg75
g173
sg68
(lp189
g61
(g62
g63
NtRp190
(dp191
g66
(dp192
g74
I5
ssg75
g186
sg68
(lp193
S'127.0.0.1'
p194
asbasbasbag61
(g77
g63
NtRp195
(dp196
g66
(dp197
sg75
g71
sg68
(lp198
g61
(g82
g63
NtRp199
(dp200
g66
(dp201
g86
g87
ssg75
g195
sg68
(lp202
S'controller'
p203
asbag61
(g82
g63
NtRp204
(dp205
g66
(dp206
g93
g94
ssg75
g195
sg68
(lp207
S':'
asbag61
(g82
g63
NtRp208
(dp209
g66
(dp210
sg75
g195
sg68
(lp211
g61
(g62
g63
NtRp212
(dp213
g66
(dp214
g74
I5
ssg75
g208
sg68
(lp215
S'default'
p216
asbasbasbag61
(g77
g63
NtRp217
(dp218
g66
(dp219
sg75
g71
sg68
(lp220
g61
(g82
g63
NtRp221
(dp222
g66
(dp223
g86
g87
ssg75
g217
sg68
(lp224
S'cookies'
p225
asbag61
(g82
g63
NtRp226
(dp227
g66
(dp228
g93
g94
ssg75
g217
sg68
(lp229
S':'
asbag61
(g82
g63
NtRp230
(dp231
g66
(dp232
sg75
g217
sg68
(lp233
g61
(g62
g63
NtRp234
(dp235
g66
(dp236
g74
I5
ssg75
g230
sg68
(lp237
g61
(g70
g63
NtRp238
(dp239
g66
(dp240
g74
I4
ssg75
Nsg68
(lp241
g61
(g77
g63
NtRp242
(dp243
g66
(dp244
sg75
g238
sg68
(lp245
g61
(g82
g63
NtRp246
(dp247
g66
(dp248
g86
g87
ssg75
g242
sg68
(lp249
S'session_id_admin'
p250
asbag61
(g82
g63
NtRp251
(dp252
g66
(dp253
g93
g94
ssg75
g242
sg68
(lp254
S':'
asbag61
(g82
g63
NtRp255
(dp256
g66
(dp257
sg75
g242
sg68
(lp258
g61
(g62
g63
NtRp259
(dp260
g66
(dp261
g74
I4
ssg75
g255
sg68
(lp262
g61
(g70
g63
NtRp263
(dp264
g66
(dp265
g74
I3
ssg75
Nsg68
(lp266
g61
(g77
g63
NtRp267
(dp268
g66
(dp269
sg75
g263
sg68
(lp270
g61
(g82
g63
NtRp271
(dp272
g66
(dp273
g86
g87
ssg75
g267
sg68
(lp274
S'comment'
p275
asbag61
(g82
g63
NtRp276
(dp277
g66
(dp278
g93
g94
ssg75
g267
sg68
(lp279
S':'
asbag61
(g82
g63
NtRp280
(dp281
g66
(dp282
sg75
g267
sg68
(lp283
g61
(g62
g63
NtRp284
(dp285
g66
(dp286
g74
I3
ssg75
g280
sg68
(lp287
S''
asbasbasbag61
(g77
g63
NtRp288
(dp289
g66
(dp290
sg75
g263
sg68
(lp291
g61
(g82
g63
NtRp292
(dp293
g66
(dp294
g86
g87
ssg75
g288
sg68
(lp295
S'domain'
p296
asbag61
(g82
g63
NtRp297
(dp298
g66
(dp299
g93
g94
ssg75
g288
sg68
(lp300
S':'
asbag61
(g82
g63
NtRp301
(dp302
g66
(dp303
sg75
g288
sg68
(lp304
g61
(g62
g63
NtRp305
(dp306
g66
(dp307
g74
I3
ssg75
g301
sg68
(lp308
S''
asbasbasbag61
(g77
g63
NtRp309
(dp310
g66
(dp311
sg75
g263
sg68
(lp312
g61
(g82
g63
NtRp313
(dp314
g66
(dp315
g86
g87
ssg75
g309
sg68
(lp316
S'expires'
p317
asbag61
(g82
g63
NtRp318
(dp319
g66
(dp320
g93
g94
ssg75
g309
sg68
(lp321
S':'
asbag61
(g82
g63
NtRp322
(dp323
g66
(dp324
sg75
g309
sg68
(lp325
g61
(g62
g63
NtRp326
(dp327
g66
(dp328
g74
I3
ssg75
g322
sg68
(lp329
S''
asbasbasbag61
(g77
g63
NtRp330
(dp331
g66
(dp332
sg75
g263
sg68
(lp333
g61
(g82
g63
NtRp334
(dp335
g66
(dp336
g86
g87
ssg75
g330
sg68
(lp337
S'httponly'
p338
asbag61
(g82
g63
NtRp339
(dp340
g66
(dp341
g93
g94
ssg75
g330
sg68
(lp342
S':'
asbag61
(g82
g63
NtRp343
(dp344
g66
(dp345
sg75
g330
sg68
(lp346
g61
(g62
g63
NtRp347
(dp348
g66
(dp349
g74
I3
ssg75
g343
sg68
(lp350
S''
asbasbasbag61
(g77
g63
NtRp351
(dp352
g66
(dp353
sg75
g263
sg68
(lp354
g61
(g82
g63
NtRp355
(dp356
g66
(dp357
g86
g87
ssg75
g351
sg68
(lp358
S'max-age'
p359
asbag61
(g82
g63
NtRp360
(dp361
g66
(dp362
g93
g94
ssg75
g351
sg68
(lp363
S':'
asbag61
(g82
g63
NtRp364
(dp365
g66
(dp366
sg75
g351
sg68
(lp367
g61
(g62
g63
NtRp368
(dp369
g66
(dp370
g74
I3
ssg75
g364
sg68
(lp371
S''
asbasbasbag61
(g77
g63
NtRp372
(dp373
g66
(dp374
sg75
g263
sg68
(lp375
g61
(g82
g63
NtRp376
(dp377
g66
(dp378
g86
g87
ssg75
g372
sg68
(lp379
S'path'
p380
asbag61
(g82
g63
NtRp381
(dp382
g66
(dp383
g93
g94
ssg75
g372
sg68
(lp384
S':'
asbag61
(g82
g63
NtRp385
(dp386
g66
(dp387
sg75
g372
sg68
(lp388
g61
(g62
g63
NtRp389
(dp390
g66
(dp391
g74
I3
ssg75
g385
sg68
(lp392
S''
asbasbasbag61
(g77
g63
NtRp393
(dp394
g66
(dp395
sg75
g263
sg68
(lp396
g61
(g82
g63
NtRp397
(dp398
g66
(dp399
g86
g87
ssg75
g393
sg68
(lp400
S'secure'
p401
asbag61
(g82
g63
NtRp402
(dp403
g66
(dp404
g93
g94
ssg75
g393
sg68
(lp405
S':'
asbag61
(g82
g63
NtRp406
(dp407
g66
(dp408
sg75
g393
sg68
(lp409
g61
(g62
g63
NtRp410
(dp411
g66
(dp412
g74
I3
ssg75
g406
sg68
(lp413
S''
asbasbasbag61
(g77
g63
NtRp414
(dp415
g66
(dp416
sg75
g263
sg68
(lp417
g61
(g82
g63
NtRp418
(dp419
g66
(dp420
g86
g87
ssg75
g414
sg68
(lp421
S'version'
p422
asbag61
(g82
g63
NtRp423
(dp424
g66
(dp425
g93
g94
ssg75
g414
sg68
(lp426
S':'
asbag61
(g82
g63
NtRp427
(dp428
g66
(dp429
sg75
g414
sg68
(lp430
g61
(g62
g63
NtRp431
(dp432
g66
(dp433
g74
I3
ssg75
g427
sg68
(lp434
S''
asbasbasbasbasbasbasbag61
(g77
g63
NtRp435
(dp436
g66
(dp437
sg75
g238
sg68
(lp438
g61
(g82
g63
NtRp439
(dp440
g66
(dp441
g86
g87
ssg75
g435
sg68
(lp442
S'session_id_astra1'
p443
asbag61
(g82
g63
NtRp444
(dp445
g66
(dp446
g93
g94
ssg75
g435
sg68
(lp447
S':'
asbag61
(g82
g63
NtRp448
(dp449
g66
(dp450
sg75
g435
sg68
(lp451
g61
(g62
g63
NtRp452
(dp453
g66
(dp454
g74
I4
ssg75
g448
sg68
(lp455
g61
(g70
g63
NtRp456
(dp457
g66
(dp458
g74
I3
ssg75
Nsg68
(lp459
g61
(g77
g63
NtRp460
(dp461
g66
(dp462
sg75
g456
sg68
(lp463
g61
(g82
g63
NtRp464
(dp465
g66
(dp466
g86
g87
ssg75
g460
sg68
(lp467
g275
asbag61
(g82
g63
NtRp468
(dp469
g66
(dp470
g93
g94
ssg75
g460
sg68
(lp471
S':'
asbag61
(g82
g63
NtRp472
(dp473
g66
(dp474
sg75
g460
sg68
(lp475
g61
(g62
g63
NtRp476
(dp477
g66
(dp478
g74
I3
ssg75
g472
sg68
(lp479
S''
asbasbasbag61
(g77
g63
NtRp480
(dp481
g66
(dp482
sg75
g456
sg68
(lp483
g61
(g82
g63
NtRp484
(dp485
g66
(dp486
g86
g87
ssg75
g480
sg68
(lp487
g296
asbag61
(g82
g63
NtRp488
(dp489
g66
(dp490
g93
g94
ssg75
g480
sg68
(lp491
S':'
asbag61
(g82
g63
NtRp492
(dp493
g66
(dp494
sg75
g480
sg68
(lp495
g61
(g62
g63
NtRp496
(dp497
g66
(dp498
g74
I3
ssg75
g492
sg68
(lp499
S''
asbasbasbag61
(g77
g63
NtRp500
(dp501
g66
(dp502
sg75
g456
sg68
(lp503
g61
(g82
g63
NtRp504
(dp505
g66
(dp506
g86
g87
ssg75
g500
sg68
(lp507
g317
asbag61
(g82
g63
NtRp508
(dp509
g66
(dp510
g93
g94
ssg75
g500
sg68
(lp511
S':'
asbag61
(g82
g63
NtRp512
(dp513
g66
(dp514
sg75
g500
sg68
(lp515
g61
(g62
g63
NtRp516
(dp517
g66
(dp518
g74
I3
ssg75
g512
sg68
(lp519
S''
asbasbasbag61
(g77
g63
NtRp520
(dp521
g66
(dp522
sg75
g456
sg68
(lp523
g61
(g82
g63
NtRp524
(dp525
g66
(dp526
g86
g87
ssg75
g520
sg68
(lp527
g338
asbag61
(g82
g63
NtRp528
(dp529
g66
(dp530
g93
g94
ssg75
g520
sg68
(lp531
S':'
asbag61
(g82
g63
NtRp532
(dp533
g66
(dp534
sg75
g520
sg68
(lp535
g61
(g62
g63
NtRp536
(dp537
g66
(dp538
g74
I3
ssg75
g532
sg68
(lp539
S''
asbasbasbag61
(g77
g63
NtRp540
(dp541
g66
(dp542
sg75
g456
sg68
(lp543
g61
(g82
g63
NtRp544
(dp545
g66
(dp546
g86
g87
ssg75
g540
sg68
(lp547
g359
asbag61
(g82
g63
NtRp548
(dp549
g66
(dp550
g93
g94
ssg75
g540
sg68
(lp551
S':'
asbag61
(g82
g63
NtRp552
(dp553
g66
(dp554
sg75
g540
sg68
(lp555
g61
(g62
g63
NtRp556
(dp557
g66
(dp558
g74
I3
ssg75
g552
sg68
(lp559
S''
asbasbasbag61
(g77
g63
NtRp560
(dp561
g66
(dp562
sg75
g456
sg68
(lp563
g61
(g82
g63
NtRp564
(dp565
g66
(dp566
g86
g87
ssg75
g560
sg68
(lp567
g380
asbag61
(g82
g63
NtRp568
(dp569
g66
(dp570
g93
g94
ssg75
g560
sg68
(lp571
S':'
asbag61
(g82
g63
NtRp572
(dp573
g66
(dp574
sg75
g560
sg68
(lp575
g61
(g62
g63
NtRp576
(dp577
g66
(dp578
g74
I3
ssg75
g572
sg68
(lp579
S''
asbasbasbag61
(g77
g63
NtRp580
(dp581
g66
(dp582
sg75
g456
sg68
(lp583
g61
(g82
g63
NtRp584
(dp585
g66
(dp586
g86
g87
ssg75
g580
sg68
(lp587
g401
asbag61
(g82
g63
NtRp588
(dp589
g66
(dp590
g93
g94
ssg75
g580
sg68
(lp591
S':'
asbag61
(g82
g63
NtRp592
(dp593
g66
(dp594
sg75
g580
sg68
(lp595
g61
(g62
g63
NtRp596
(dp597
g66
(dp598
g74
I3
ssg75
g592
sg68
(lp599
S''
asbasbasbag61
(g77
g63
NtRp600
(dp601
g66
(dp602
sg75
g456
sg68
(lp603
g61
(g82
g63
NtRp604
(dp605
g66
(dp606
g86
g87
ssg75
g600
sg68
(lp607
g422
asbag61
(g82
g63
NtRp608
(dp609
g66
(dp610
g93
g94
ssg75
g600
sg68
(lp611
S':'
asbag61
(g82
g63
NtRp612
(dp613
g66
(dp614
sg75
g600
sg68
(lp615
g61
(g62
g63
NtRp616
(dp617
g66
(dp618
g74
I3
ssg75
g612
sg68
(lp619
S''
asbasbasbasbasbasbasbag61
(g77
g63
NtRp620
(dp621
g66
(dp622
sg75
g238
sg68
(lp623
g61
(g82
g63
NtRp624
(dp625
g66
(dp626
g86
g87
ssg75
g620
sg68
(lp627
S'session_id_photouploader'
p628
asbag61
(g82
g63
NtRp629
(dp630
g66
(dp631
g93
g94
ssg75
g620
sg68
(lp632
S':'
asbag61
(g82
g63
NtRp633
(dp634
g66
(dp635
sg75
g620
sg68
(lp636
g61
(g62
g63
NtRp637
(dp638
g66
(dp639
g74
I4
ssg75
g633
sg68
(lp640
g61
(g70
g63
NtRp641
(dp642
g66
(dp643
g74
I3
ssg75
Nsg68
(lp644
g61
(g77
g63
NtRp645
(dp646
g66
(dp647
sg75
g641
sg68
(lp648
g61
(g82
g63
NtRp649
(dp650
g66
(dp651
g86
g87
ssg75
g645
sg68
(lp652
g275
asbag61
(g82
g63
NtRp653
(dp654
g66
(dp655
g93
g94
ssg75
g645
sg68
(lp656
S':'
asbag61
(g82
g63
NtRp657
(dp658
g66
(dp659
sg75
g645
sg68
(lp660
g61
(g62
g63
NtRp661
(dp662
g66
(dp663
g74
I3
ssg75
g657
sg68
(lp664
S''
asbasbasbag61
(g77
g63
NtRp665
(dp666
g66
(dp667
sg75
g641
sg68
(lp668
g61
(g82
g63
NtRp669
(dp670
g66
(dp671
g86
g87
ssg75
g665
sg68
(lp672
g296
asbag61
(g82
g63
NtRp673
(dp674
g66
(dp675
g93
g94
ssg75
g665
sg68
(lp676
S':'
asbag61
(g82
g63
NtRp677
(dp678
g66
(dp679
sg75
g665
sg68
(lp680
g61
(g62
g63
NtRp681
(dp682
g66
(dp683
g74
I3
ssg75
g677
sg68
(lp684
S''
asbasbasbag61
(g77
g63
NtRp685
(dp686
g66
(dp687
sg75
g641
sg68
(lp688
g61
(g82
g63
NtRp689
(dp690
g66
(dp691
g86
g87
ssg75
g685
sg68
(lp692
g317
asbag61
(g82
g63
NtRp693
(dp694
g66
(dp695
g93
g94
ssg75
g685
sg68
(lp696
S':'
asbag61
(g82
g63
NtRp697
(dp698
g66
(dp699
sg75
g685
sg68
(lp700
g61
(g62
g63
NtRp701
(dp702
g66
(dp703
g74
I3
ssg75
g697
sg68
(lp704
S''
asbasbasbag61
(g77
g63
NtRp705
(dp706
g66
(dp707
sg75
g641
sg68
(lp708
g61
(g82
g63
NtRp709
(dp710
g66
(dp711
g86
g87
ssg75
g705
sg68
(lp712
g338
asbag61
(g82
g63
NtRp713
(dp714
g66
(dp715
g93
g94
ssg75
g705
sg68
(lp716
S':'
asbag61
(g82
g63
NtRp717
(dp718
g66
(dp719
sg75
g705
sg68
(lp720
g61
(g62
g63
NtRp721
(dp722
g66
(dp723
g74
I3
ssg75
g717
sg68
(lp724
S''
asbasbasbag61
(g77
g63
NtRp725
(dp726
g66
(dp727
sg75
g641
sg68
(lp728
g61
(g82
g63
NtRp729
(dp730
g66
(dp731
g86
g87
ssg75
g725
sg68
(lp732
g359
asbag61
(g82
g63
NtRp733
(dp734
g66
(dp735
g93
g94
ssg75
g725
sg68
(lp736
S':'
asbag61
(g82
g63
NtRp737
(dp738
g66
(dp739
sg75
g725
sg68
(lp740
g61
(g62
g63
NtRp741
(dp742
g66
(dp743
g74
I3
ssg75
g737
sg68
(lp744
S''
asbasbasbag61
(g77
g63
NtRp745
(dp746
g66
(dp747
sg75
g641
sg68
(lp748
g61
(g82
g63
NtRp749
(dp750
g66
(dp751
g86
g87
ssg75
g745
sg68
(lp752
g380
asbag61
(g82
g63
NtRp753
(dp754
g66
(dp755
g93
g94
ssg75
g745
sg68
(lp756
S':'
asbag61
(g82
g63
NtRp757
(dp758
g66
(dp759
sg75
g745
sg68
(lp760
g61
(g62
g63
NtRp761
(dp762
g66
(dp763
g74
I3
ssg75
g757
sg68
(lp764
S''
asbasbasbag61
(g77
g63
NtRp765
(dp766
g66
(dp767
sg75
g641
sg68
(lp768
g61
(g82
g63
NtRp769
(dp770
g66
(dp771
g86
g87
ssg75
g765
sg68
(lp772
g401
asbag61
(g82
g63
NtRp773
(dp774
g66
(dp775
g93
g94
ssg75
g765
sg68
(lp776
S':'
asbag61
(g82
g63
NtRp777
(dp778
g66
(dp779
sg75
g765
sg68
(lp780
g61
(g62
g63
NtRp781
(dp782
g66
(dp783
g74
I3
ssg75
g777
sg68
(lp784
S''
asbasbasbag61
(g77
g63
NtRp785
(dp786
g66
(dp787
sg75
g641
sg68
(lp788
g61
(g82
g63
NtRp789
(dp790
g66
(dp791
g86
g87
ssg75
g785
sg68
(lp792
g422
asbag61
(g82
g63
NtRp793
(dp794
g66
(dp795
g93
g94
ssg75
g785
sg68
(lp796
S':'
asbag61
(g82
g63
NtRp797
(dp798
g66
(dp799
sg75
g785
sg68
(lp800
g61
(g62
g63
NtRp801
(dp802
g66
(dp803
g74
I3
ssg75
g797
sg68
(lp804
S''
asbasbasbasbasbasbasbag61
(g77
g63
NtRp805
(dp806
g66
(dp807
sg75
g238
sg68
(lp808
g61
(g82
g63
NtRp809
(dp810
g66
(dp811
g86
g87
ssg75
g805
sg68
(lp812
S'session_id_welcome'
p813
asbag61
(g82
g63
NtRp814
(dp815
g66
(dp816
g93
g94
ssg75
g805
sg68
(lp817
S':'
asbag61
(g82
g63
NtRp818
(dp819
g66
(dp820
sg75
g805
sg68
(lp821
g61
(g62
g63
NtRp822
(dp823
g66
(dp824
g74
I4
ssg75
g818
sg68
(lp825
g61
(g70
g63
NtRp826
(dp827
g66
(dp828
g74
I3
ssg75
Nsg68
(lp829
g61
(g77
g63
NtRp830
(dp831
g66
(dp832
sg75
g826
sg68
(lp833
g61
(g82
g63
NtRp834
(dp835
g66
(dp836
g86
g87
ssg75
g830
sg68
(lp837
g275
asbag61
(g82
g63
NtRp838
(dp839
g66
(dp840
g93
g94
ssg75
g830
sg68
(lp841
S':'
asbag61
(g82
g63
NtRp842
(dp843
g66
(dp844
sg75
g830
sg68
(lp845
g61
(g62
g63
NtRp846
(dp847
g66
(dp848
g74
I3
ssg75
g842
sg68
(lp849
S''
asbasbasbag61
(g77
g63
NtRp850
(dp851
g66
(dp852
sg75
g826
sg68
(lp853
g61
(g82
g63
NtRp854
(dp855
g66
(dp856
g86
g87
ssg75
g850
sg68
(lp857
g296
asbag61
(g82
g63
NtRp858
(dp859
g66
(dp860
g93
g94
ssg75
g850
sg68
(lp861
S':'
asbag61
(g82
g63
NtRp862
(dp863
g66
(dp864
sg75
g850
sg68
(lp865
g61
(g62
g63
NtRp866
(dp867
g66
(dp868
g74
I3
ssg75
g862
sg68
(lp869
S''
asbasbasbag61
(g77
g63
NtRp870
(dp871
g66
(dp872
sg75
g826
sg68
(lp873
g61
(g82
g63
NtRp874
(dp875
g66
(dp876
g86
g87
ssg75
g870
sg68
(lp877
g317
asbag61
(g82
g63
NtRp878
(dp879
g66
(dp880
g93
g94
ssg75
g870
sg68
(lp881
S':'
asbag61
(g82
g63
NtRp882
(dp883
g66
(dp884
sg75
g870
sg68
(lp885
g61
(g62
g63
NtRp886
(dp887
g66
(dp888
g74
I3
ssg75
g882
sg68
(lp889
S''
asbasbasbag61
(g77
g63
NtRp890
(dp891
g66
(dp892
sg75
g826
sg68
(lp893
g61
(g82
g63
NtRp894
(dp895
g66
(dp896
g86
g87
ssg75
g890
sg68
(lp897
g338
asbag61
(g82
g63
NtRp898
(dp899
g66
(dp900
g93
g94
ssg75
g890
sg68
(lp901
S':'
asbag61
(g82
g63
NtRp902
(dp903
g66
(dp904
sg75
g890
sg68
(lp905
g61
(g62
g63
NtRp906
(dp907
g66
(dp908
g74
I3
ssg75
g902
sg68
(lp909
S''
asbasbasbag61
(g77
g63
NtRp910
(dp911
g66
(dp912
sg75
g826
sg68
(lp913
g61
(g82
g63
NtRp914
(dp915
g66
(dp916
g86
g87
ssg75
g910
sg68
(lp917
g359
asbag61
(g82
g63
NtRp918
(dp919
g66
(dp920
g93
g94
ssg75
g910
sg68
(lp921
S':'
asbag61
(g82
g63
NtRp922
(dp923
g66
(dp924
sg75
g910
sg68
(lp925
g61
(g62
g63
NtRp926
(dp927
g66
(dp928
g74
I3
ssg75
g922
sg68
(lp929
S''
asbasbasbag61
(g77
g63
NtRp930
(dp931
g66
(dp932
sg75
g826
sg68
(lp933
g61
(g82
g63
NtRp934
(dp935
g66
(dp936
g86
g87
ssg75
g930
sg68
(lp937
g380
asbag61
(g82
g63
NtRp938
(dp939
g66
(dp940
g93
g94
ssg75
g930
sg68
(lp941
S':'
asbag61
(g82
g63
NtRp942
(dp943
g66
(dp944
sg75
g930
sg68
(lp945
g61
(g62
g63
NtRp946
(dp947
g66
(dp948
g74
I3
ssg75
g942
sg68
(lp949
S''
asbasbasbag61
(g77
g63
NtRp950
(dp951
g66
(dp952
sg75
g826
sg68
(lp953
g61
(g82
g63
NtRp954
(dp955
g66
(dp956
g86
g87
ssg75
g950
sg68
(lp957
g401
asbag61
(g82
g63
NtRp958
(dp959
g66
(dp960
g93
g94
ssg75
g950
sg68
(lp961
S':'
asbag61
(g82
g63
NtRp962
(dp963
g66
(dp964
sg75
g950
sg68
(lp965
g61
(g62
g63
NtRp966
(dp967
g66
(dp968
g74
I3
ssg75
g962
sg68
(lp969
S''
asbasbasbag61
(g77
g63
NtRp970
(dp971
g66
(dp972
sg75
g826
sg68
(lp973
g61
(g82
g63
NtRp974
(dp975
g66
(dp976
g86
g87
ssg75
g970
sg68
(lp977
g422
asbag61
(g82
g63
NtRp978
(dp979
g66
(dp980
g93
g94
ssg75
g970
sg68
(lp981
S':'
asbag61
(g82
g63
NtRp982
(dp983
g66
(dp984
sg75
g970
sg68
(lp985
g61
(g62
g63
NtRp986
(dp987
g66
(dp988
g74
I3
ssg75
g982
sg68
(lp989
S''
asbasbasbasbasbasbasbasbasbasbasbag61
(g77
g63
NtRp990
(dp991
g66
(dp992
sg75
g71
sg68
(lp993
g61
(g82
g63
NtRp994
(dp995
g66
(dp996
g86
g87
ssg75
g990
sg68
(lp997
S'env'
p998
asbag61
(g82
g63
NtRp999
(dp1000
g66
(dp1001
g93
g94
ssg75
g990
sg68
(lp1002
S':'
asbag61
(g82
g63
NtRp1003
(dp1004
g66
(dp1005
sg75
g990
sg68
(lp1006
g61
(g62
g63
NtRp1007
(dp1008
g66
(dp1009
g74
I5
ssg75
g1003
sg68
(lp1010
g61
(g70
g63
NtRp1011
(dp1012
g66
(dp1013
g74
I4
ssg75
Nsg68
(lp1014
g61
(g77
g63
NtRp1015
(dp1016
g66
(dp1017
sg75
g1011
sg68
(lp1018
g61
(g82
g63
NtRp1019
(dp1020
g66
(dp1021
g86
g87
ssg75
g1015
sg68
(lp1022
S'app_folders'
p1023
asbag61
(g82
g63
NtRp1024
(dp1025
g66
(dp1026
g93
g94
ssg75
g1015
sg68
(lp1027
S':'
asbag61
(g82
g63
NtRp1028
(dp1029
g66
(dp1030
sg75
g1015
sg68
(lp1031
g61
(g62
g63
NtRp1032
(dp1033
g66
(dp1034
g74
I4
ssg75
g1028
sg68
(lp1035
S"set(['/home/vishrut/web2py/applications/astra1/', '/home/vishrut/web2py/applications/admin/', '/home/vishrut/web2py/applications/welcome/'])"
p1036
asbasbasbag61
(g77
g63
NtRp1037
(dp1038
g66
(dp1039
sg75
g1011
sg68
(lp1040
g61
(g82
g63
NtRp1041
(dp1042
g66
(dp1043
g86
g87
ssg75
g1037
sg68
(lp1044
S'applications_parent'
p1045
asbag61
(g82
g63
NtRp1046
(dp1047
g66
(dp1048
g93
g94
ssg75
g1037
sg68
(lp1049
S':'
asbag61
(g82
g63
NtRp1050
(dp1051
g66
(dp1052
sg75
g1037
sg68
(lp1053
g61
(g62
g63
NtRp1054
(dp1055
g66
(dp1056
g74
I4
ssg75
g1050
sg68
(lp1057
S'/home/vishrut/web2py'
p1058
asbasbasbag61
(g77
g63
NtRp1059
(dp1060
g66
(dp1061
sg75
g1011
sg68
(lp1062
g61
(g82
g63
NtRp1063
(dp1064
g66
(dp1065
g86
g87
ssg75
g1059
sg68
(lp1066
S'cmd_args'
p1067
asbag61
(g82
g63
NtRp1068
(dp1069
g66
(dp1070
g93
g94
ssg75
g1059
sg68
(lp1071
S':'
asbag61
(g82
g63
NtRp1072
(dp1073
g66
(dp1074
sg75
g1059
sg68
(lp1075
g61
(g62
g63
NtRp1076
(dp1077
g66
(dp1078
g74
I4
ssg75
g1072
sg68
(lp1079
g61
(g70
g63
NtRp1080
(dp1081
g66
(dp1082
g74
I3
ssg75
Nsg68
(lp1083
sbasbasbasbag61
(g77
g63
NtRp1084
(dp1085
g66
(dp1086
sg75
g1011
sg68
(lp1087
g61
(g82
g63
NtRp1088
(dp1089
g66
(dp1090
g86
g87
ssg75
g1084
sg68
(lp1091
S'cmd_options'
p1092
asbag61
(g82
g63
NtRp1093
(dp1094
g66
(dp1095
g93
g94
ssg75
g1084
sg68
(lp1096
S':'
asbag61
(g82
g63
NtRp1097
(dp1098
g66
(dp1099
sg75
g1084
sg68
(lp1100
g61
(g62
g63
NtRp1101
(dp1102
g66
(dp1103
g74
I4
ssg75
g1097
sg68
(lp1104
S"<Values at 0x954b3cc: {'verbose': False, 'ip': '127.0.0.1', 'shutdown_timeout': 5, 'taskbar': False, 'nocron': False, 'pid_filename': 'httpserver.pid', 'maxthreads': None, 'softcron': False, 'server_name': 'vishrut-Vostro-1015', 'bpython': False, 'nogui': False, 'port': 8000, 'extcron': False, 'debuglevel': 30, 'test': None, 'folder': '/home/vishrut/web2py', 'config': '', 'import_models': False, 'winservice': '', 'shell': None, 'run': '', 'log_filename': 'httpserver.log', 'args': [''], 'socket_timeout': 5, 'ssl_ca_certificate': None, 'scheduler': None, 'profiler_filename': None, 'ssl_private_key': '', 'password': '<ask>', 'request_queue_size': 5, 'ssl_certificate': '', 'cronjob': False, 'numthreads': None, 'quiet': False, 'interfaces': None, 'minthreads': None, 'timeout': 10, 'plain': False, 'nobanner': False}>"
p1105
asbasbasbag61
(g77
g63
NtRp1106
(dp1107
g66
(dp1108
sg75
g1011
sg68
(lp1109
g61
(g82
g63
NtRp1110
(dp1111
g66
(dp1112
g86
g87
ssg75
g1106
sg68
(lp1113
S'db_sessions'
p1114
asbag61
(g82
g63
NtRp1115
(dp1116
g66
(dp1117
g93
g94
ssg75
g1106
sg68
(lp1118
S':'
asbag61
(g82
g63
NtRp1119
(dp1120
g66
(dp1121
sg75
g1106
sg68
(lp1122
g61
(g62
g63
NtRp1123
(dp1124
g66
(dp1125
g74
I4
ssg75
g1119
sg68
(lp1126
S'set([])'
p1127
asbasbasbag61
(g77
g63
NtRp1128
(dp1129
g66
(dp1130
sg75
g1011
sg68
(lp1131
g61
(g82
g63
NtRp1132
(dp1133
g66
(dp1134
g86
g87
ssg75
g1128
sg68
(lp1135
S'debugging'
p1136
asbag61
(g82
g63
NtRp1137
(dp1138
g66
(dp1139
g93
g94
ssg75
g1128
sg68
(lp1140
S':'
asbag61
(g82
g63
NtRp1141
(dp1142
g66
(dp1143
sg75
g1128
sg68
(lp1144
g61
(g62
g63
NtRp1145
(dp1146
g66
(dp1147
g74
I4
ssg75
g1141
sg68
(lp1148
g104
asbasbasbag61
(g77
g63
NtRp1149
(dp1150
g66
(dp1151
sg75
g1011
sg68
(lp1152
g61
(g82
g63
NtRp1153
(dp1154
g66
(dp1155
g86
g87
ssg75
g1149
sg68
(lp1156
S'gluon_parent'
p1157
asbag61
(g82
g63
NtRp1158
(dp1159
g66
(dp1160
g93
g94
ssg75
g1149
sg68
(lp1161
S':'
asbag61
(g82
g63
NtRp1162
(dp1163
g66
(dp1164
sg75
g1149
sg68
(lp1165
g61
(g62
g63
NtRp1166
(dp1167
g66
(dp1168
g74
I4
ssg75
g1162
sg68
(lp1169
S'/home/vishrut/web2py'
p1170
asbasbasbag61
(g77
g63
NtRp1171
(dp1172
g66
(dp1173
sg75
g1011
sg68
(lp1174
g61
(g82
g63
NtRp1175
(dp1176
g66
(dp1177
g86
g87
ssg75
g1171
sg68
(lp1178
S'http_accept'
p1179
asbag61
(g82
g63
NtRp1180
(dp1181
g66
(dp1182
g93
g94
ssg75
g1171
sg68
(lp1183
S':'
asbag61
(g82
g63
NtRp1184
(dp1185
g66
(dp1186
sg75
g1171
sg68
(lp1187
g61
(g62
g63
NtRp1188
(dp1189
g66
(dp1190
g74
I4
ssg75
g1184
sg68
(lp1191
S'text/html,application/xhtml+xml,application/xml;q=0.9,*/*;q=0.8'
p1192
asbasbasbag61
(g77
g63
NtRp1193
(dp1194
g66
(dp1195
sg75
g1011
sg68
(lp1196
g61
(g82
g63
NtRp1197
(dp1198
g66
(dp1199
g86
g87
ssg75
g1193
sg68
(lp1200
S'http_accept_encoding'
p1201
asbag61
(g82
g63
NtRp1202
(dp1203
g66
(dp1204
g93
g94
ssg75
g1193
sg68
(lp1205
S':'
asbag61
(g82
g63
NtRp1206
(dp1207
g66
(dp1208
sg75
g1193
sg68
(lp1209
g61
(g62
g63
NtRp1210
(dp1211
g66
(dp1212
g74
I4
ssg75
g1206
sg68
(lp1213
S'gzip, deflate'
p1214
asbasbasbag61
(g77
g63
NtRp1215
(dp1216
g66
(dp1217
sg75
g1011
sg68
(lp1218
g61
(g82
g63
NtRp1219
(dp1220
g66
(dp1221
g86
g87
ssg75
g1215
sg68
(lp1222
S'http_accept_language'
p1223
asbag61
(g82
g63
NtRp1224
(dp1225
g66
(dp1226
g93
g94
ssg75
g1215
sg68
(lp1227
S':'
asbag61
(g82
g63
NtRp1228
(dp1229
g66
(dp1230
sg75
g1215
sg68
(lp1231
g61
(g62
g63
NtRp1232
(dp1233
g66
(dp1234
g74
I4
ssg75
g1228
sg68
(lp1235
S'en-US,en;q=0.5'
p1236
asbasbasbag61
(g77
g63
NtRp1237
(dp1238
g66
(dp1239
sg75
g1011
sg68
(lp1240
g61
(g82
g63
NtRp1241
(dp1242
g66
(dp1243
g86
g87
ssg75
g1237
sg68
(lp1244
S'http_connection'
p1245
asbag61
(g82
g63
NtRp1246
(dp1247
g66
(dp1248
g93
g94
ssg75
g1237
sg68
(lp1249
S':'
asbag61
(g82
g63
NtRp1250
(dp1251
g66
(dp1252
sg75
g1237
sg68
(lp1253
g61
(g62
g63
NtRp1254
(dp1255
g66
(dp1256
g74
I4
ssg75
g1250
sg68
(lp1257
S'keep-alive'
p1258
asbasbasbag61
(g77
g63
NtRp1259
(dp1260
g66
(dp1261
sg75
g1011
sg68
(lp1262
g61
(g82
g63
NtRp1263
(dp1264
g66
(dp1265
g86
g87
ssg75
g1259
sg68
(lp1266
S'http_cookie'
p1267
asbag61
(g82
g63
NtRp1268
(dp1269
g66
(dp1270
g93
g94
ssg75
g1259
sg68
(lp1271
S':'
asbag61
(g82
g63
NtRp1272
(dp1273
g66
(dp1274
sg75
g1259
sg68
(lp1275
g61
(g62
g63
NtRp1276
(dp1277
g66
(dp1278
g74
I4
ssg75
g1272
sg68
(lp1279
S'session_id_photouploader=127.0.0.1-83bacd5e-b575-49a8-9b6e-fdc698e775f9; session_id_astra1=127.0.0.1-3ea7f370-71b8-4b79-b80d-e5c8cc6c433d; session_id_welcome=127.0.0.1-15e50e79-72e8-497c-9c7b-de7f2b63c43b; session_id_admin=127.0.0.1-6c67b90d-3883-4b37-ba21-eef2525d3981'
p1280
asbasbasbag61
(g77
g63
NtRp1281
(dp1282
g66
(dp1283
sg75
g1011
sg68
(lp1284
g61
(g82
g63
NtRp1285
(dp1286
g66
(dp1287
g86
g87
ssg75
g1281
sg68
(lp1288
S'http_host'
p1289
asbag61
(g82
g63
NtRp1290
(dp1291
g66
(dp1292
g93
g94
ssg75
g1281
sg68
(lp1293
S':'
asbag61
(g82
g63
NtRp1294
(dp1295
g66
(dp1296
sg75
g1281
sg68
(lp1297
g61
(g62
g63
NtRp1298
(dp1299
g66
(dp1300
g74
I4
ssg75
g1294
sg68
(lp1301
S'127.0.0.1:8000'
p1302
asbasbasbag61
(g77
g63
NtRp1303
(dp1304
g66
(dp1305
sg75
g1011
sg68
(lp1306
g61
(g82
g63
NtRp1307
(dp1308
g66
(dp1309
g86
g87
ssg75
g1303
sg68
(lp1310
S'http_referer'
p1311
asbag61
(g82
g63
NtRp1312
(dp1313
g66
(dp1314
g93
g94
ssg75
g1303
sg68
(lp1315
S':'
asbag61
(g82
g63
NtRp1316
(dp1317
g66
(dp1318
sg75
g1303
sg68
(lp1319
g61
(g62
g63
NtRp1320
(dp1321
g66
(dp1322
g74
I4
ssg75
g1316
sg68
(lp1323
S'http://127.0.0.1:8000/admin/default/design/astra1'
p1324
asbasbasbag61
(g77
g63
NtRp1325
(dp1326
g66
(dp1327
sg75
g1011
sg68
(lp1328
g61
(g82
g63
NtRp1329
(dp1330
g66
(dp1331
g86
g87
ssg75
g1325
sg68
(lp1332
S'http_user_agent'
p1333
asbag61
(g82
g63
NtRp1334
(dp1335
g66
(dp1336
g93
g94
ssg75
g1325
sg68
(lp1337
S':'
asbag61
(g82
g63
NtRp1338
(dp1339
g66
(dp1340
sg75
g1325
sg68
(lp1341
g61
(g62
g63
NtRp1342
(dp1343
g66
(dp1344
g74
I4
ssg75
g1338
sg68
(lp1345
S'Mozilla/5.0 (X11; Ubuntu; Linux i686; rv:16.0) Gecko/20100101 Firefox/16.0'
p1346
asbasbasbag61
(g77
g63
NtRp1347
(dp1348
g66
(dp1349
sg75
g1011
sg68
(lp1350
g61
(g82
g63
NtRp1351
(dp1352
g66
(dp1353
g86
g87
ssg75
g1347
sg68
(lp1354
S'is_jython'
p1355
asbag61
(g82
g63
NtRp1356
(dp1357
g66
(dp1358
g93
g94
ssg75
g1347
sg68
(lp1359
S':'
asbag61
(g82
g63
NtRp1360
(dp1361
g66
(dp1362
sg75
g1347
sg68
(lp1363
g61
(g62
g63
NtRp1364
(dp1365
g66
(dp1366
g74
I4
ssg75
g1360
sg68
(lp1367
g104
asbasbasbag61
(g77
g63
NtRp1368
(dp1369
g66
(dp1370
sg75
g1011
sg68
(lp1371
g61
(g82
g63
NtRp1372
(dp1373
g66
(dp1374
g86
g87
ssg75
g1368
sg68
(lp1375
S'is_pypy'
p1376
asbag61
(g82
g63
NtRp1377
(dp1378
g66
(dp1379
g93
g94
ssg75
g1368
sg68
(lp1380
S':'
asbag61
(g82
g63
NtRp1381
(dp1382
g66
(dp1383
sg75
g1368
sg68
(lp1384
g61
(g62
g63
NtRp1385
(dp1386
g66
(dp1387
g74
I4
ssg75
g1381
sg68
(lp1388
g104
asbasbasbag61
(g77
g63
NtRp1389
(dp1390
g66
(dp1391
sg75
g1011
sg68
(lp1392
g61
(g82
g63
NtRp1393
(dp1394
g66
(dp1395
g86
g87
ssg75
g1389
sg68
(lp1396
S'path_info'
p1397
asbag61
(g82
g63
NtRp1398
(dp1399
g66
(dp1400
g93
g94
ssg75
g1389
sg68
(lp1401
S':'
asbag61
(g82
g63
NtRp1402
(dp1403
g66
(dp1404
sg75
g1389
sg68
(lp1405
g61
(g62
g63
NtRp1406
(dp1407
g66
(dp1408
g74
I4
ssg75
g1402
sg68
(lp1409
S'/astra1/default/index'
p1410
asbasbasbag61
(g77
g63
NtRp1411
(dp1412
g66
(dp1413
sg75
g1011
sg68
(lp1414
g61
(g82
g63
NtRp1415
(dp1416
g66
(dp1417
g86
g87
ssg75
g1411
sg68
(lp1418
S'query_string'
p1419
asbag61
(g82
g63
NtRp1420
(dp1421
g66
(dp1422
g93
g94
ssg75
g1411
sg68
(lp1423
S':'
asbag61
(g82
g63
NtRp1424
(dp1425
g66
(dp1426
sg75
g1411
sg68
(lp1427
g61
(g62
g63
NtRp1428
(dp1429
g66
(dp1430
g74
I4
ssg75
g1424
sg68
(lp1431
S''
asbasbasbag61
(g77
g63
NtRp1432
(dp1433
g66
(dp1434
sg75
g1011
sg68
(lp1435
g61
(g82
g63
NtRp1436
(dp1437
g66
(dp1438
g86
g87
ssg75
g1432
sg68
(lp1439
S'remote_addr'
p1440
asbag61
(g82
g63
NtRp1441
(dp1442
g66
(dp1443
g93
g94
ssg75
g1432
sg68
(lp1444
S':'
asbag61
(g82
g63
NtRp1445
(dp1446
g66
(dp1447
sg75
g1432
sg68
(lp1448
g61
(g62
g63
NtRp1449
(dp1450
g66
(dp1451
g74
I4
ssg75
g1445
sg68
(lp1452
g194
asbasbasbag61
(g77
g63
NtRp1453
(dp1454
g66
(dp1455
sg75
g1011
sg68
(lp1456
g61
(g82
g63
NtRp1457
(dp1458
g66
(dp1459
g86
g87
ssg75
g1453
sg68
(lp1460
S'remote_port'
p1461
asbag61
(g82
g63
NtRp1462
(dp1463
g66
(dp1464
g93
g94
ssg75
g1453
sg68
(lp1465
S':'
asbag61
(g82
g63
NtRp1466
(dp1467
g66
(dp1468
sg75
g1453
sg68
(lp1469
g61
(g62
g63
NtRp1470
(dp1471
g66
(dp1472
g74
I4
ssg75
g1466
sg68
(lp1473
S'54663'
p1474
asbasbasbag61
(g77
g63
NtRp1475
(dp1476
g66
(dp1477
sg75
g1011
sg68
(lp1478
g61
(g82
g63
NtRp1479
(dp1480
g66
(dp1481
g86
g87
ssg75
g1475
sg68
(lp1482
S'request_method'
p1483
asbag61
(g82
g63
NtRp1484
(dp1485
g66
(dp1486
g93
g94
ssg75
g1475
sg68
(lp1487
S':'
asbag61
(g82
g63
NtRp1488
(dp1489
g66
(dp1490
sg75
g1475
sg68
(lp1491
g61
(g62
g63
NtRp1492
(dp1493
g66
(dp1494
g74
I4
ssg75
g1488
sg68
(lp1495
S'GET'
p1496
asbasbasbag61
(g77
g63
NtRp1497
(dp1498
g66
(dp1499
sg75
g1011
sg68
(lp1500
g61
(g82
g63
NtRp1501
(dp1502
g66
(dp1503
g86
g87
ssg75
g1497
sg68
(lp1504
S'script_name'
p1505
asbag61
(g82
g63
NtRp1506
(dp1507
g66
(dp1508
g93
g94
ssg75
g1497
sg68
(lp1509
S':'
asbag61
(g82
g63
NtRp1510
(dp1511
g66
(dp1512
sg75
g1497
sg68
(lp1513
g61
(g62
g63
NtRp1514
(dp1515
g66
(dp1516
g74
I4
ssg75
g1510
sg68
(lp1517
S''
asbasbasbag61
(g77
g63
NtRp1518
(dp1519
g66
(dp1520
sg75
g1011
sg68
(lp1521
g61
(g82
g63
NtRp1522
(dp1523
g66
(dp1524
g86
g87
ssg75
g1518
sg68
(lp1525
S'server_name'
p1526
asbag61
(g82
g63
NtRp1527
(dp1528
g66
(dp1529
g93
g94
ssg75
g1518
sg68
(lp1530
S':'
asbag61
(g82
g63
NtRp1531
(dp1532
g66
(dp1533
sg75
g1518
sg68
(lp1534
g61
(g62
g63
NtRp1535
(dp1536
g66
(dp1537
g74
I4
ssg75
g1531
sg68
(lp1538
S'vishrut-Vostro-1015'
p1539
asbasbasbag61
(g77
g63
NtRp1540
(dp1541
g66
(dp1542
sg75
g1011
sg68
(lp1543
g61
(g82
g63
NtRp1544
(dp1545
g66
(dp1546
g86
g87
ssg75
g1540
sg68
(lp1547
S'server_port'
p1548
asbag61
(g82
g63
NtRp1549
(dp1550
g66
(dp1551
g93
g94
ssg75
g1540
sg68
(lp1552
S':'
asbag61
(g82
g63
NtRp1553
(dp1554
g66
(dp1555
sg75
g1540
sg68
(lp1556
g61
(g62
g63
NtRp1557
(dp1558
g66
(dp1559
g74
I4
ssg75
g1553
sg68
(lp1560
S'8000'
p1561
asbasbasbag61
(g77
g63
NtRp1562
(dp1563
g66
(dp1564
sg75
g1011
sg68
(lp1565
g61
(g82
g63
NtRp1566
(dp1567
g66
(dp1568
g86
g87
ssg75
g1562
sg68
(lp1569
S'server_protocol'
p1570
asbag61
(g82
g63
NtRp1571
(dp1572
g66
(dp1573
g93
g94
ssg75
g1562
sg68
(lp1574
S':'
asbag61
(g82
g63
NtRp1575
(dp1576
g66
(dp1577
sg75
g1562
sg68
(lp1578
g61
(g62
g63
NtRp1579
(dp1580
g66
(dp1581
g74
I4
ssg75
g1575
sg68
(lp1582
S'HTTP/1.1'
p1583
asbasbasbag61
(g77
g63
NtRp1584
(dp1585
g66
(dp1586
sg75
g1011
sg68
(lp1587
g61
(g82
g63
NtRp1588
(dp1589
g66
(dp1590
g86
g87
ssg75
g1584
sg68
(lp1591
S'server_software'
p1592
asbag61
(g82
g63
NtRp1593
(dp1594
g66
(dp1595
g93
g94
ssg75
g1584
sg68
(lp1596
S':'
asbag61
(g82
g63
NtRp1597
(dp1598
g66
(dp1599
sg75
g1584
sg68
(lp1600
g61
(g62
g63
NtRp1601
(dp1602
g66
(dp1603
g74
I4
ssg75
g1597
sg68
(lp1604
S'Rocket 1.2.4'
p1605
asbasbasbag61
(g77
g63
NtRp1606
(dp1607
g66
(dp1608
sg75
g1011
sg68
(lp1609
g61
(g82
g63
NtRp1610
(dp1611
g66
(dp1612
g86
g87
ssg75
g1606
sg68
(lp1613
S'web2py_crontype'
p1614
asbag61
(g82
g63
NtRp1615
(dp1616
g66
(dp1617
g93
g94
ssg75
g1606
sg68
(lp1618
S':'
asbag61
(g82
g63
NtRp1619
(dp1620
g66
(dp1621
sg75
g1606
sg68
(lp1622
g61
(g62
g63
NtRp1623
(dp1624
g66
(dp1625
g74
I4
ssg75
g1619
sg68
(lp1626
S'hard'
p1627
asbasbasbag61
(g77
g63
NtRp1628
(dp1629
g66
(dp1630
sg75
g1011
sg68
(lp1631
g61
(g82
g63
NtRp1632
(dp1633
g66
(dp1634
g86
g87
ssg75
g1628
sg68
(lp1635
S'web2py_path'
p1636
asbag61
(g82
g63
NtRp1637
(dp1638
g66
(dp1639
g93
g94
ssg75
g1628
sg68
(lp1640
S':'
asbag61
(g82
g63
NtRp1641
(dp1642
g66
(dp1643
sg75
g1628
sg68
(lp1644
g61
(g62
g63
NtRp1645
(dp1646
g66
(dp1647
g74
I4
ssg75
g1641
sg68
(lp1648
g1058
asbasbasbag61
(g77
g63
NtRp1649
(dp1650
g66
(dp1651
sg75
g1011
sg68
(lp1652
g61
(g82
g63
NtRp1653
(dp1654
g66
(dp1655
g86
g87
ssg75
g1649
sg68
(lp1656
S'web2py_version'
p1657
asbag61
(g82
g63
NtRp1658
(dp1659
g66
(dp1660
g93
g94
ssg75
g1649
sg68
(lp1661
S':'
asbag61
(g82
g63
NtRp1662
(dp1663
g66
(dp1664
sg75
g1649
sg68
(lp1665
g61
(g62
g63
NtRp1666
(dp1667
g66
(dp1668
g74
I4
ssg75
g1662
sg68
(lp1669
g61
(g70
g63
NtRp1670
(dp1671
g66
(dp1672
g74
I3
ssg75
Nsg68
(lp1673
g61
(g77
g63
NtRp1674
(dp1675
g66
(dp1676
sg75
g1670
sg68
(lp1677
g61
(g82
g63
NtRp1678
(dp1679
g66
(dp1680
sg75
g1674
sg68
(lp1681
g61
(g62
g63
NtRp1682
(dp1683
g66
(dp1684
g74
I3
ssg75
g1678
sg68
(lp1685
S'1'
asbasbasbag61
(g77
g63
NtRp1686
(dp1687
g66
(dp1688
sg75
g1670
sg68
(lp1689
g61
(g82
g63
NtRp1690
(dp1691
g66
(dp1692
sg75
g1686
sg68
(lp1693
g61
(g62
g63
NtRp1694
(dp1695
g66
(dp1696
g74
I3
ssg75
g1690
sg68
(lp1697
S'99'
p1698
asbasbasbag61
(g77
g63
NtRp1699
(dp1700
g66
(dp1701
sg75
g1670
sg68
(lp1702
g61
(g82
g63
NtRp1703
(dp1704
g66
(dp1705
sg75
g1699
sg68
(lp1706
g61
(g62
g63
NtRp1707
(dp1708
g66
(dp1709
g74
I3
ssg75
g1703
sg68
(lp1710
S'7'
asbasbasbag61
(g77
g63
NtRp1711
(dp1712
g66
(dp1713
sg75
g1670
sg68
(lp1714
g61
(g82
g63
NtRp1715
(dp1716
g66
(dp1717
sg75
g1711
sg68
(lp1718
g61
(g62
g63
NtRp1719
(dp1720
g66
(dp1721
g74
I3
ssg75
g1715
sg68
(lp1722
S'datetime.datetime(2012, 3, 4, 22, 12, 8)'
p1723
asbasbasbag61
(g77
g63
NtRp1724
(dp1725
g66
(dp1726
sg75
g1670
sg68
(lp1727
g61
(g82
g63
NtRp1728
(dp1729
g66
(dp1730
sg75
g1724
sg68
(lp1731
g61
(g62
g63
NtRp1732
(dp1733
g66
(dp1734
g74
I3
ssg75
g1728
sg68
(lp1735
S'stable'
p1736
asbasbasbasbasbasbasbag61
(g77
g63
NtRp1737
(dp1738
g66
(dp1739
sg75
g1011
sg68
(lp1740
g61
(g82
g63
NtRp1741
(dp1742
g66
(dp1743
g86
g87
ssg75
g1737
sg68
(lp1744
S'wsgi_errors'
p1745
asbag61
(g82
g63
NtRp1746
(dp1747
g66
(dp1748
g93
g94
ssg75
g1737
sg68
(lp1749
S':'
asbag61
(g82
g63
NtRp1750
(dp1751
g66
(dp1752
sg75
g1737
sg68
(lp1753
g61
(g62
g63
NtRp1754
(dp1755
g66
(dp1756
g74
I4
ssg75
g1750
sg68
(lp1757
S"<open file '<stderr>', mode 'w' at 0xb776c0d0>"
p1758
asbasbasbag61
(g77
g63
NtRp1759
(dp1760
g66
(dp1761
sg75
g1011
sg68
(lp1762
g61
(g82
g63
NtRp1763
(dp1764
g66
(dp1765
g86
g87
ssg75
g1759
sg68
(lp1766
S'wsgi_file_wrapper'
p1767
asbag61
(g82
g63
NtRp1768
(dp1769
g66
(dp1770
g93
g94
ssg75
g1759
sg68
(lp1771
S':'
asbag61
(g82
g63
NtRp1772
(dp1773
g66
(dp1774
sg75
g1759
sg68
(lp1775
g61
(g62
g63
NtRp1776
(dp1777
g66
(dp1778
g74
I4
ssg75
g1772
sg68
(lp1779
S'<class wsgiref.util.FileWrapper at 0x946aaac>'
p1780
asbasbasbag61
(g77
g63
NtRp1781
(dp1782
g66
(dp1783
sg75
g1011
sg68
(lp1784
g61
(g82
g63
NtRp1785
(dp1786
g66
(dp1787
g86
g87
ssg75
g1781
sg68
(lp1788
S'wsgi_input'
p1789
asbag61
(g82
g63
NtRp1790
(dp1791
g66
(dp1792
g93
g94
ssg75
g1781
sg68
(lp1793
S':'
asbag61
(g82
g63
NtRp1794
(dp1795
g66
(dp1796
sg75
g1781
sg68
(lp1797
g61
(g62
g63
NtRp1798
(dp1799
g66
(dp1800
g74
I4
ssg75
g1794
sg68
(lp1801
S'<socket._fileobject object at 0x9f263ec>'
p1802
asbasbasbag61
(g77
g63
NtRp1803
(dp1804
g66
(dp1805
sg75
g1011
sg68
(lp1806
g61
(g82
g63
NtRp1807
(dp1808
g66
(dp1809
g86
g87
ssg75
g1803
sg68
(lp1810
S'wsgi_multiprocess'
p1811
asbag61
(g82
g63
NtRp1812
(dp1813
g66
(dp1814
g93
g94
ssg75
g1803
sg68
(lp1815
S':'
asbag61
(g82
g63
NtRp1816
(dp1817
g66
(dp1818
sg75
g1803
sg68
(lp1819
g61
(g62
g63
NtRp1820
(dp1821
g66
(dp1822
g74
I4
ssg75
g1816
sg68
(lp1823
g104
asbasbasbag61
(g77
g63
NtRp1824
(dp1825
g66
(dp1826
sg75
g1011
sg68
(lp1827
g61
(g82
g63
NtRp1828
(dp1829
g66
(dp1830
g86
g87
ssg75
g1824
sg68
(lp1831
S'wsgi_multithread'
p1832
asbag61
(g82
g63
NtRp1833
(dp1834
g66
(dp1835
g93
g94
ssg75
g1824
sg68
(lp1836
S':'
asbag61
(g82
g63
NtRp1837
(dp1838
g66
(dp1839
sg75
g1824
sg68
(lp1840
g61
(g62
g63
NtRp1841
(dp1842
g66
(dp1843
g74
I4
ssg75
g1837
sg68
(lp1844
S'True'
p1845
asbasbasbag61
(g77
g63
NtRp1846
(dp1847
g66
(dp1848
sg75
g1011
sg68
(lp1849
g61
(g82
g63
NtRp1850
(dp1851
g66
(dp1852
g86
g87
ssg75
g1846
sg68
(lp1853
S'wsgi_run_once'
p1854
asbag61
(g82
g63
NtRp1855
(dp1856
g66
(dp1857
g93
g94
ssg75
g1846
sg68
(lp1858
S':'
asbag61
(g82
g63
NtRp1859
(dp1860
g66
(dp1861
sg75
g1846
sg68
(lp1862
g61
(g62
g63
NtRp1863
(dp1864
g66
(dp1865
g74
I4
ssg75
g1859
sg68
(lp1866
g104
asbasbasbag61
(g77
g63
NtRp1867
(dp1868
g66
(dp1869
sg75
g1011
sg68
(lp1870
g61
(g82
g63
NtRp1871
(dp1872
g66
(dp1873
g86
g87
ssg75
g1867
sg68
(lp1874
S'wsgi_url_scheme'
p1875
asbag61
(g82
g63
NtRp1876
(dp1877
g66
(dp1878
g93
g94
ssg75
g1867
sg68
(lp1879
S':'
asbag61
(g82
g63
NtRp1880
(dp1881
g66
(dp1882
sg75
g1867
sg68
(lp1883
g61
(g62
g63
NtRp1884
(dp1885
g66
(dp1886
g74
I4
ssg75
g1880
sg68
(lp1887
S'http'
p1888
asbasbasbag61
(g77
g63
NtRp1889
(dp1890
g66
(dp1891
sg75
g1011
sg68
(lp1892
g61
(g82
g63
NtRp1893
(dp1894
g66
(dp1895
g86
g87
ssg75
g1889
sg68
(lp1896
S'wsgi_version'
p1897
asbag61
(g82
g63
NtRp1898
(dp1899
g66
(dp1900
g93
g94
ssg75
g1889
sg68
(lp1901
S':'
asbag61
(g82
g63
NtRp1902
(dp1903
g66
(dp1904
sg75
g1889
sg68
(lp1905
g61
(g62
g63
NtRp1906
(dp1907
g66
(dp1908
g74
I4
ssg75
g1902
sg68
(lp1909
g61
(g70
g63
NtRp1910
(dp1911
g66
(dp1912
g74
I3
ssg75
Nsg68
(lp1913
g61
(g77
g63
NtRp1914
(dp1915
g66
(dp1916
sg75
g1910
sg68
(lp1917
g61
(g82
g63
NtRp1918
(dp1919
g66
(dp1920
sg75
g1914
sg68
(lp1921
g61
(g62
g63
NtRp1922
(dp1923
g66
(dp1924
g74
I3
ssg75
g1918
sg68
(lp1925
S'1'
asbasbasbag61
(g77
g63
NtRp1926
(dp1927
g66
(dp1928
sg75
g1910
sg68
(lp1929
g61
(g82
g63
NtRp1930
(dp1931
g66
(dp1932
sg75
g1926
sg68
(lp1933
g61
(g62
g63
NtRp1934
(dp1935
g66
(dp1936
g74
I3
ssg75
g1930
sg68
(lp1937
S'0'
asbasbasbasbasbasbasbasbasbasbasbag61
(g77
g63
NtRp1938
(dp1939
g66
(dp1940
sg75
g71
sg68
(lp1941
g61
(g82
g63
NtRp1942
(dp1943
g66
(dp1944
g86
g87
ssg75
g1938
sg68
(lp1945
S'extension'
p1946
asbag61
(g82
g63
NtRp1947
(dp1948
g66
(dp1949
g93
g94
ssg75
g1938
sg68
(lp1950
S':'
asbag61
(g82
g63
NtRp1951
(dp1952
g66
(dp1953
sg75
g1938
sg68
(lp1954
g61
(g62
g63
NtRp1955
(dp1956
g66
(dp1957
g74
I5
ssg75
g1951
sg68
(lp1958
S'html'
p1959
asbasbasbag61
(g77
g63
NtRp1960
(dp1961
g66
(dp1962
sg75
g71
sg68
(lp1963
g61
(g82
g63
NtRp1964
(dp1965
g66
(dp1966
g86
g87
ssg75
g1960
sg68
(lp1967
S'folder'
p1968
asbag61
(g82
g63
NtRp1969
(dp1970
g66
(dp1971
g93
g94
ssg75
g1960
sg68
(lp1972
S':'
asbag61
(g82
g63
NtRp1973
(dp1974
g66
(dp1975
sg75
g1960
sg68
(lp1976
g61
(g62
g63
NtRp1977
(dp1978
g66
(dp1979
g74
I5
ssg75
g1973
sg68
(lp1980
S'/home/vishrut/web2py/applications/astra1/'
p1981
asbasbasbag61
(g77
g63
NtRp1982
(dp1983
g66
(dp1984
sg75
g71
sg68
(lp1985
g61
(g82
g63
NtRp1986
(dp1987
g66
(dp1988
g86
g87
ssg75
g1982
sg68
(lp1989
S'function'
p1990
asbag61
(g82
g63
NtRp1991
(dp1992
g66
(dp1993
g93
g94
ssg75
g1982
sg68
(lp1994
S':'
asbag61
(g82
g63
NtRp1995
(dp1996
g66
(dp1997
sg75
g1982
sg68
(lp1998
g61
(g62
g63
NtRp1999
(dp2000
g66
(dp2001
g74
I5
ssg75
g1995
sg68
(lp2002
S'index'
p2003
asbasbasbag61
(g77
g63
NtRp2004
(dp2005
g66
(dp2006
sg75
g71
sg68
(lp2007
g61
(g82
g63
NtRp2008
(dp2009
g66
(dp2010
g86
g87
ssg75
g2004
sg68
(lp2011
S'get_vars'
p2012
asbag61
(g82
g63
NtRp2013
(dp2014
g66
(dp2015
g93
g94
ssg75
g2004
sg68
(lp2016
S':'
asbag61
(g82
g63
NtRp2017
(dp2018
g66
(dp2019
sg75
g2004
sg68
(lp2020
g61
(g62
g63
NtRp2021
(dp2022
g66
(dp2023
g74
I5
ssg75
g2017
sg68
(lp2024
g61
(g70
g63
NtRp2025
(dp2026
g66
(dp2027
g74
I4
ssg75
Nsg68
(lp2028
sbasbasbasbag61
(g77
g63
NtRp2029
(dp2030
g66
(dp2031
sg75
g71
sg68
(lp2032
g61
(g82
g63
NtRp2033
(dp2034
g66
(dp2035
g86
g87
ssg75
g2029
sg68
(lp2036
S'global_settings'
p2037
asbag61
(g82
g63
NtRp2038
(dp2039
g66
(dp2040
g93
g94
ssg75
g2029
sg68
(lp2041
S':'
asbag61
(g82
g63
NtRp2042
(dp2043
g66
(dp2044
sg75
g2029
sg68
(lp2045
g61
(g62
g63
NtRp2046
(dp2047
g66
(dp2048
g74
I5
ssg75
g2042
sg68
(lp2049
g61
(g70
g63
NtRp2050
(dp2051
g66
(dp2052
g74
I4
ssg75
Nsg68
(lp2053
g61
(g77
g63
NtRp2054
(dp2055
g66
(dp2056
sg75
g2050
sg68
(lp2057
g61
(g82
g63
NtRp2058
(dp2059
g66
(dp2060
g86
g87
ssg75
g2054
sg68
(lp2061
g1023
asbag61
(g82
g63
NtRp2062
(dp2063
g66
(dp2064
g93
g94
ssg75
g2054
sg68
(lp2065
S':'
asbag61
(g82
g63
NtRp2066
(dp2067
g66
(dp2068
sg75
g2054
sg68
(lp2069
g61
(g62
g63
NtRp2070
(dp2071
g66
(dp2072
g74
I4
ssg75
g2066
sg68
(lp2073
S"set(['/home/vishrut/web2py/applications/astra1/', '/home/vishrut/web2py/applications/admin/', '/home/vishrut/web2py/applications/welcome/'])"
p2074
asbasbasbag61
(g77
g63
NtRp2075
(dp2076
g66
(dp2077
sg75
g2050
sg68
(lp2078
g61
(g82
g63
NtRp2079
(dp2080
g66
(dp2081
g86
g87
ssg75
g2075
sg68
(lp2082
g1045
asbag61
(g82
g63
NtRp2083
(dp2084
g66
(dp2085
g93
g94
ssg75
g2075
sg68
(lp2086
S':'
asbag61
(g82
g63
NtRp2087
(dp2088
g66
(dp2089
sg75
g2075
sg68
(lp2090
g61
(g62
g63
NtRp2091
(dp2092
g66
(dp2093
g74
I4
ssg75
g2087
sg68
(lp2094
g1058
asbasbasbag61
(g77
g63
NtRp2095
(dp2096
g66
(dp2097
sg75
g2050
sg68
(lp2098
g61
(g82
g63
NtRp2099
(dp2100
g66
(dp2101
g86
g87
ssg75
g2095
sg68
(lp2102
g1067
asbag61
(g82
g63
NtRp2103
(dp2104
g66
(dp2105
g93
g94
ssg75
g2095
sg68
(lp2106
S':'
asbag61
(g82
g63
NtRp2107
(dp2108
g66
(dp2109
sg75
g2095
sg68
(lp2110
g61
(g62
g63
NtRp2111
(dp2112
g66
(dp2113
g74
I4
ssg75
g2107
sg68
(lp2114
g61
(g70
g63
NtRp2115
(dp2116
g66
(dp2117
g74
I3
ssg75
Nsg68
(lp2118
sbasbasbasbag61
(g77
g63
NtRp2119
(dp2120
g66
(dp2121
sg75
g2050
sg68
(lp2122
g61
(g82
g63
NtRp2123
(dp2124
g66
(dp2125
g86
g87
ssg75
g2119
sg68
(lp2126
g1092
asbag61
(g82
g63
NtRp2127
(dp2128
g66
(dp2129
g93
g94
ssg75
g2119
sg68
(lp2130
S':'
asbag61
(g82
g63
NtRp2131
(dp2132
g66
(dp2133
sg75
g2119
sg68
(lp2134
g61
(g62
g63
NtRp2135
(dp2136
g66
(dp2137
g74
I4
ssg75
g2131
sg68
(lp2138
S"<Values at 0x954b3cc: {'verbose': False, 'ip': '127.0.0.1', 'shutdown_timeout': 5, 'taskbar': False, 'nocron': False, 'pid_filename': 'httpserver.pid', 'maxthreads': None, 'softcron': False, 'server_name': 'vishrut-Vostro-1015', 'bpython': False, 'nogui': False, 'port': 8000, 'extcron': False, 'debuglevel': 30, 'test': None, 'folder': '/home/vishrut/web2py', 'config': '', 'import_models': False, 'winservice': '', 'shell': None, 'run': '', 'log_filename': 'httpserver.log', 'args': [''], 'socket_timeout': 5, 'ssl_ca_certificate': None, 'scheduler': None, 'profiler_filename': None, 'ssl_private_key': '', 'password': '<ask>', 'request_queue_size': 5, 'ssl_certificate': '', 'cronjob': False, 'numthreads': None, 'quiet': False, 'interfaces': None, 'minthreads': None, 'timeout': 10, 'plain': False, 'nobanner': False}>"
p2139
asbasbasbag61
(g77
g63
NtRp2140
(dp2141
g66
(dp2142
sg75
g2050
sg68
(lp2143
g61
(g82
g63
NtRp2144
(dp2145
g66
(dp2146
g86
g87
ssg75
g2140
sg68
(lp2147
g1114
asbag61
(g82
g63
NtRp2148
(dp2149
g66
(dp2150
g93
g94
ssg75
g2140
sg68
(lp2151
S':'
asbag61
(g82
g63
NtRp2152
(dp2153
g66
(dp2154
sg75
g2140
sg68
(lp2155
g61
(g62
g63
NtRp2156
(dp2157
g66
(dp2158
g74
I4
ssg75
g2152
sg68
(lp2159
S'set([])'
p2160
asbasbasbag61
(g77
g63
NtRp2161
(dp2162
g66
(dp2163
sg75
g2050
sg68
(lp2164
g61
(g82
g63
NtRp2165
(dp2166
g66
(dp2167
g86
g87
ssg75
g2161
sg68
(lp2168
g1136
asbag61
(g82
g63
NtRp2169
(dp2170
g66
(dp2171
g93
g94
ssg75
g2161
sg68
(lp2172
S':'
asbag61
(g82
g63
NtRp2173
(dp2174
g66
(dp2175
sg75
g2161
sg68
(lp2176
g61
(g62
g63
NtRp2177
(dp2178
g66
(dp2179
g74
I4
ssg75
g2173
sg68
(lp2180
g104
asbasbasbag61
(g77
g63
NtRp2181
(dp2182
g66
(dp2183
sg75
g2050
sg68
(lp2184
g61
(g82
g63
NtRp2185
(dp2186
g66
(dp2187
g86
g87
ssg75
g2181
sg68
(lp2188
g1157
asbag61
(g82
g63
NtRp2189
(dp2190
g66
(dp2191
g93
g94
ssg75
g2181
sg68
(lp2192
S':'
asbag61
(g82
g63
NtRp2193
(dp2194
g66
(dp2195
sg75
g2181
sg68
(lp2196
g61
(g62
g63
NtRp2197
(dp2198
g66
(dp2199
g74
I4
ssg75
g2193
sg68
(lp2200
g1170
asbasbasbag61
(g77
g63
NtRp2201
(dp2202
g66
(dp2203
sg75
g2050
sg68
(lp2204
g61
(g82
g63
NtRp2205
(dp2206
g66
(dp2207
g86
g87
ssg75
g2201
sg68
(lp2208
g1355
asbag61
(g82
g63
NtRp2209
(dp2210
g66
(dp2211
g93
g94
ssg75
g2201
sg68
(lp2212
S':'
asbag61
(g82
g63
NtRp2213
(dp2214
g66
(dp2215
sg75
g2201
sg68
(lp2216
g61
(g62
g63
NtRp2217
(dp2218
g66
(dp2219
g74
I4
ssg75
g2213
sg68
(lp2220
g104
asbasbasbag61
(g77
g63
NtRp2221
(dp2222
g66
(dp2223
sg75
g2050
sg68
(lp2224
g61
(g82
g63
NtRp2225
(dp2226
g66
(dp2227
g86
g87
ssg75
g2221
sg68
(lp2228
g1376
asbag61
(g82
g63
NtRp2229
(dp2230
g66
(dp2231
g93
g94
ssg75
g2221
sg68
(lp2232
S':'
asbag61
(g82
g63
NtRp2233
(dp2234
g66
(dp2235
sg75
g2221
sg68
(lp2236
g61
(g62
g63
NtRp2237
(dp2238
g66
(dp2239
g74
I4
ssg75
g2233
sg68
(lp2240
g104
asbasbasbag61
(g77
g63
NtRp2241
(dp2242
g66
(dp2243
sg75
g2050
sg68
(lp2244
g61
(g82
g63
NtRp2245
(dp2246
g66
(dp2247
g86
g87
ssg75
g2241
sg68
(lp2248
g1614
asbag61
(g82
g63
NtRp2249
(dp2250
g66
(dp2251
g93
g94
ssg75
g2241
sg68
(lp2252
S':'
asbag61
(g82
g63
NtRp2253
(dp2254
g66
(dp2255
sg75
g2241
sg68
(lp2256
g61
(g62
g63
NtRp2257
(dp2258
g66
(dp2259
g74
I4
ssg75
g2253
sg68
(lp2260
g1627
asbasbasbag61
(g77
g63
NtRp2261
(dp2262
g66
(dp2263
sg75
g2050
sg68
(lp2264
g61
(g82
g63
NtRp2265
(dp2266
g66
(dp2267
g86
g87
ssg75
g2261
sg68
(lp2268
g1657
asbag61
(g82
g63
NtRp2269
(dp2270
g66
(dp2271
g93
g94
ssg75
g2261
sg68
(lp2272
S':'
asbag61
(g82
g63
NtRp2273
(dp2274
g66
(dp2275
sg75
g2261
sg68
(lp2276
g61
(g62
g63
NtRp2277
(dp2278
g66
(dp2279
g74
I4
ssg75
g2273
sg68
(lp2280
g61
(g70
g63
NtRp2281
(dp2282
g66
(dp2283
g74
I3
ssg75
Nsg68
(lp2284
g61
(g77
g63
NtRp2285
(dp2286
g66
(dp2287
sg75
g2281
sg68
(lp2288
g61
(g82
g63
NtRp2289
(dp2290
g66
(dp2291
sg75
g2285
sg68
(lp2292
g61
(g62
g63
NtRp2293
(dp2294
g66
(dp2295
g74
I3
ssg75
g2289
sg68
(lp2296
S'1'
asbasbasbag61
(g77
g63
NtRp2297
(dp2298
g66
(dp2299
sg75
g2281
sg68
(lp2300
g61
(g82
g63
NtRp2301
(dp2302
g66
(dp2303
sg75
g2297
sg68
(lp2304
g61
(g62
g63
NtRp2305
(dp2306
g66
(dp2307
g74
I3
ssg75
g2301
sg68
(lp2308
S'99'
p2309
asbasbasbag61
(g77
g63
NtRp2310
(dp2311
g66
(dp2312
sg75
g2281
sg68
(lp2313
g61
(g82
g63
NtRp2314
(dp2315
g66
(dp2316
sg75
g2310
sg68
(lp2317
g61
(g62
g63
NtRp2318
(dp2319
g66
(dp2320
g74
I3
ssg75
g2314
sg68
(lp2321
S'7'
asbasbasbag61
(g77
g63
NtRp2322
(dp2323
g66
(dp2324
sg75
g2281
sg68
(lp2325
g61
(g82
g63
NtRp2326
(dp2327
g66
(dp2328
sg75
g2322
sg68
(lp2329
g61
(g62
g63
NtRp2330
(dp2331
g66
(dp2332
g74
I3
ssg75
g2326
sg68
(lp2333
S'datetime.datetime(2012, 3, 4, 22, 12, 8)'
p2334
asbasbasbag61
(g77
g63
NtRp2335
(dp2336
g66
(dp2337
sg75
g2281
sg68
(lp2338
g61
(g82
g63
NtRp2339
(dp2340
g66
(dp2341
sg75
g2335
sg68
(lp2342
g61
(g62
g63
NtRp2343
(dp2344
g66
(dp2345
g74
I3
ssg75
g2339
sg68
(lp2346
g1736
asbasbasbasbasbasbasbasbasbasbasbag61
(g77
g63
NtRp2347
(dp2348
g66
(dp2349
sg75
g71
sg68
(lp2350
g61
(g82
g63
NtRp2351
(dp2352
g66
(dp2353
g86
g87
ssg75
g2347
sg68
(lp2354
S'is_https'
p2355
asbag61
(g82
g63
NtRp2356
(dp2357
g66
(dp2358
g93
g94
ssg75
g2347
sg68
(lp2359
S':'
asbag61
(g82
g63
NtRp2360
(dp2361
g66
(dp2362
sg75
g2347
sg68
(lp2363
g61
(g62
g63
NtRp2364
(dp2365
g66
(dp2366
g74
I5
ssg75
g2360
sg68
(lp2367
g104
asbasbasbag61
(g77
g63
NtRp2368
(dp2369
g66
(dp2370
sg75
g71
sg68
(lp2371
g61
(g82
g63
NtRp2372
(dp2373
g66
(dp2374
g86
g87
ssg75
g2368
sg68
(lp2375
S'is_local'
p2376
asbag61
(g82
g63
NtRp2377
(dp2378
g66
(dp2379
g93
g94
ssg75
g2368
sg68
(lp2380
S':'
asbag61
(g82
g63
NtRp2381
(dp2382
g66
(dp2383
sg75
g2368
sg68
(lp2384
g61
(g62
g63
NtRp2385
(dp2386
g66
(dp2387
g74
I5
ssg75
g2381
sg68
(lp2388
g1845
asbasbasbag61
(g77
g63
NtRp2389
(dp2390
g66
(dp2391
sg75
g71
sg68
(lp2392
g61
(g82
g63
NtRp2393
(dp2394
g66
(dp2395
g86
g87
ssg75
g2389
sg68
(lp2396
S'is_restful'
p2397
asbag61
(g82
g63
NtRp2398
(dp2399
g66
(dp2400
g93
g94
ssg75
g2389
sg68
(lp2401
S':'
asbag61
(g82
g63
NtRp2402
(dp2403
g66
(dp2404
sg75
g2389
sg68
(lp2405
g61
(g62
g63
NtRp2406
(dp2407
g66
(dp2408
g74
I5
ssg75
g2402
sg68
(lp2409
g104
asbasbasbag61
(g77
g63
NtRp2410
(dp2411
g66
(dp2412
sg75
g71
sg68
(lp2413
g61
(g82
g63
NtRp2414
(dp2415
g66
(dp2416
g86
g87
ssg75
g2410
sg68
(lp2417
S'now'
p2418
asbag61
(g82
g63
NtRp2419
(dp2420
g66
(dp2421
g93
g94
ssg75
g2410
sg68
(lp2422
S':'
asbag61
(g82
g63
NtRp2423
(dp2424
g66
(dp2425
sg75
g2410
sg68
(lp2426
g61
(g62
g63
NtRp2427
(dp2428
g66
(dp2429
g74
I5
ssg75
g2423
sg68
(lp2430
S'datetime.datetime(2012, 10, 14, 15, 11, 0, 291897)'
p2431
asbasbasbag61
(g77
g63
NtRp2432
(dp2433
g66
(dp2434
sg75
g71
sg68
(lp2435
g61
(g82
g63
NtRp2436
(dp2437
g66
(dp2438
g86
g87
ssg75
g2432
sg68
(lp2439
S'post_vars'
p2440
asbag61
(g82
g63
NtRp2441
(dp2442
g66
(dp2443
g93
g94
ssg75
g2432
sg68
(lp2444
S':'
asbag61
(g82
g63
NtRp2445
(dp2446
g66
(dp2447
sg75
g2432
sg68
(lp2448
g61
(g62
g63
NtRp2449
(dp2450
g66
(dp2451
g74
I5
ssg75
g2445
sg68
(lp2452
g61
(g70
g63
NtRp2453
(dp2454
g66
(dp2455
g74
I4
ssg75
Nsg68
(lp2456
sbasbasbasbag61
(g77
g63
NtRp2457
(dp2458
g66
(dp2459
sg75
g71
sg68
(lp2460
g61
(g82
g63
NtRp2461
(dp2462
g66
(dp2463
g86
g87
ssg75
g2457
sg68
(lp2464
S'url'
p2465
asbag61
(g82
g63
NtRp2466
(dp2467
g66
(dp2468
g93
g94
ssg75
g2457
sg68
(lp2469
S':'
asbag61
(g82
g63
NtRp2470
(dp2471
g66
(dp2472
sg75
g2457
sg68
(lp2473
g61
(g62
g63
NtRp2474
(dp2475
g66
(dp2476
g74
I5
ssg75
g2470
sg68
(lp2477
S'/astra1/default/index'
p2478
asbasbasbag61
(g77
g63
NtRp2479
(dp2480
g66
(dp2481
sg75
g71
sg68
(lp2482
g61
(g82
g63
NtRp2483
(dp2484
g66
(dp2485
g86
g87
ssg75
g2479
sg68
(lp2486
S'utcnow'
p2487
asbag61
(g82
g63
NtRp2488
(dp2489
g66
(dp2490
g93
g94
ssg75
g2479
sg68
(lp2491
S':'
asbag61
(g82
g63
NtRp2492
(dp2493
g66
(dp2494
sg75
g2479
sg68
(lp2495
g61
(g62
g63
NtRp2496
(dp2497
g66
(dp2498
g74
I5
ssg75
g2492
sg68
(lp2499
S'datetime.datetime(2012, 10, 14, 10, 11, 0, 291931)'
p2500
asbasbasbag61
(g77
g63
NtRp2501
(dp2502
g66
(dp2503
sg75
g71
sg68
(lp2504
g61
(g82
g63
NtRp2505
(dp2506
g66
(dp2507
g86
g87
ssg75
g2501
sg68
(lp2508
S'uuid'
p2509
asbag61
(g82
g63
NtRp2510
(dp2511
g66
(dp2512
g93
g94
ssg75
g2501
sg68
(lp2513
S':'
asbag61
(g82
g63
NtRp2514
(dp2515
g66
(dp2516
sg75
g2501
sg68
(lp2517
g61
(g62
g63
NtRp2518
(dp2519
g66
(dp2520
g74
I5
ssg75
g2514
sg68
(lp2521
S'astra1/127.0.0.1.2012-10-14.15-11-00.94613d80-fa0a-488a-90b8-9511bbe5ae4e'
p2522
asbasbasbag61
(g77
g63
NtRp2523
(dp2524
g66
(dp2525
sg75
g71
sg68
(lp2526
g61
(g82
g63
NtRp2527
(dp2528
g66
(dp2529
g86
g87
ssg75
g2523
sg68
(lp2530
S'vars'
p2531
asbag61
(g82
g63
NtRp2532
(dp2533
g66
(dp2534
g93
g94
ssg75
g2523
sg68
(lp2535
S':'
asbag61
(g82
g63
NtRp2536
(dp2537
g66
(dp2538
sg75
g2523
sg68
(lp2539
g61
(g62
g63
NtRp2540
(dp2541
g66
(dp2542
g74
I5
ssg75
g2536
sg68
(lp2543
g61
(g70
g63
NtRp2544
(dp2545
g66
(dp2546
g74
I4
ssg75
Nsg68
(lp2547
sbasbasbasbag61
(g77
g63
NtRp2548
(dp2549
g66
(dp2550
sg75
g71
sg68
(lp2551
g61
(g82
g63
NtRp2552
(dp2553
g66
(dp2554
g86
g87
ssg75
g2548
sg68
(lp2555
S'wsgi'
p2556
asbag61
(g82
g63
NtRp2557
(dp2558
g66
(dp2559
g93
g94
ssg75
g2548
sg68
(lp2560
S':'
asbag61
(g82
g63
NtRp2561
(dp2562
g66
(dp2563
sg75
g2548
sg68
(lp2564
g61
(g62
g63
NtRp2565
(dp2566
g66
(dp2567
g74
I5
ssg75
g2561
sg68
(lp2568
g61
(g70
g63
NtRp2569
(dp2570
g66
(dp2571
g74
I4
ssg75
Nsg68
(lp2572
g61
(g77
g63
NtRp2573
(dp2574
g66
(dp2575
sg75
g2569
sg68
(lp2576
g61
(g82
g63
NtRp2577
(dp2578
g66
(dp2579
g86
g87
ssg75
g2573
sg68
(lp2580
S'environ'
p2581
asbag61
(g82
g63
NtRp2582
(dp2583
g66
(dp2584
g93
g94
ssg75
g2573
sg68
(lp2585
S':'
asbag61
(g82
g63
NtRp2586
(dp2587
g66
(dp2588
sg75
g2573
sg68
(lp2589
g61
(g62
g63
NtRp2590
(dp2591
g66
(dp2592
g74
I4
ssg75
g2586
sg68
(lp2593
g61
(g70
g63
NtRp2594
(dp2595
g66
(dp2596
g74
I3
ssg75
Nsg68
(lp2597
g61
(g77
g63
NtRp2598
(dp2599
g66
(dp2600
sg75
g2594
sg68
(lp2601
g61
(g82
g63
NtRp2602
(dp2603
g66
(dp2604
g86
g87
ssg75
g2598
sg68
(lp2605
S'HTTP_ACCEPT'
p2606
asbag61
(g82
g63
NtRp2607
(dp2608
g66
(dp2609
g93
g94
ssg75
g2598
sg68
(lp2610
S':'
asbag61
(g82
g63
NtRp2611
(dp2612
g66
(dp2613
sg75
g2598
sg68
(lp2614
g61
(g62
g63
NtRp2615
(dp2616
g66
(dp2617
g74
I3
ssg75
g2611
sg68
(lp2618
g1192
asbasbasbag61
(g77
g63
NtRp2619
(dp2620
g66
(dp2621
sg75
g2594
sg68
(lp2622
g61
(g82
g63
NtRp2623
(dp2624
g66
(dp2625
g86
g87
ssg75
g2619
sg68
(lp2626
S'HTTP_ACCEPT_ENCODING'
p2627
asbag61
(g82
g63
NtRp2628
(dp2629
g66
(dp2630
g93
g94
ssg75
g2619
sg68
(lp2631
S':'
asbag61
(g82
g63
NtRp2632
(dp2633
g66
(dp2634
sg75
g2619
sg68
(lp2635
g61
(g62
g63
NtRp2636
(dp2637
g66
(dp2638
g74
I3
ssg75
g2632
sg68
(lp2639
g1214
asbasbasbag61
(g77
g63
NtRp2640
(dp2641
g66
(dp2642
sg75
g2594
sg68
(lp2643
g61
(g82
g63
NtRp2644
(dp2645
g66
(dp2646
g86
g87
ssg75
g2640
sg68
(lp2647
S'HTTP_ACCEPT_LANGUAGE'
p2648
asbag61
(g82
g63
NtRp2649
(dp2650
g66
(dp2651
g93
g94
ssg75
g2640
sg68
(lp2652
S':'
asbag61
(g82
g63
NtRp2653
(dp2654
g66
(dp2655
sg75
g2640
sg68
(lp2656
g61
(g62
g63
NtRp2657
(dp2658
g66
(dp2659
g74
I3
ssg75
g2653
sg68
(lp2660
g1236
asbasbasbag61
(g77
g63
NtRp2661
(dp2662
g66
(dp2663
sg75
g2594
sg68
(lp2664
g61
(g82
g63
NtRp2665
(dp2666
g66
(dp2667
g86
g87
ssg75
g2661
sg68
(lp2668
S'HTTP_CONNECTION'
p2669
asbag61
(g82
g63
NtRp2670
(dp2671
g66
(dp2672
g93
g94
ssg75
g2661
sg68
(lp2673
S':'
asbag61
(g82
g63
NtRp2674
(dp2675
g66
(dp2676
sg75
g2661
sg68
(lp2677
g61
(g62
g63
NtRp2678
(dp2679
g66
(dp2680
g74
I3
ssg75
g2674
sg68
(lp2681
g1258
asbasbasbag61
(g77
g63
NtRp2682
(dp2683
g66
(dp2684
sg75
g2594
sg68
(lp2685
g61
(g82
g63
NtRp2686
(dp2687
g66
(dp2688
g86
g87
ssg75
g2682
sg68
(lp2689
S'HTTP_COOKIE'
p2690
asbag61
(g82
g63
NtRp2691
(dp2692
g66
(dp2693
g93
g94
ssg75
g2682
sg68
(lp2694
S':'
asbag61
(g82
g63
NtRp2695
(dp2696
g66
(dp2697
sg75
g2682
sg68
(lp2698
g61
(g62
g63
NtRp2699
(dp2700
g66
(dp2701
g74
I3
ssg75
g2695
sg68
(lp2702
g1280
asbasbasbag61
(g77
g63
NtRp2703
(dp2704
g66
(dp2705
sg75
g2594
sg68
(lp2706
g61
(g82
g63
NtRp2707
(dp2708
g66
(dp2709
g86
g87
ssg75
g2703
sg68
(lp2710
S'HTTP_HOST'
p2711
asbag61
(g82
g63
NtRp2712
(dp2713
g66
(dp2714
g93
g94
ssg75
g2703
sg68
(lp2715
S':'
asbag61
(g82
g63
NtRp2716
(dp2717
g66
(dp2718
sg75
g2703
sg68
(lp2719
g61
(g62
g63
NtRp2720
(dp2721
g66
(dp2722
g74
I3
ssg75
g2716
sg68
(lp2723
g1302
asbasbasbag61
(g77
g63
NtRp2724
(dp2725
g66
(dp2726
sg75
g2594
sg68
(lp2727
g61
(g82
g63
NtRp2728
(dp2729
g66
(dp2730
g86
g87
ssg75
g2724
sg68
(lp2731
S'HTTP_REFERER'
p2732
asbag61
(g82
g63
NtRp2733
(dp2734
g66
(dp2735
g93
g94
ssg75
g2724
sg68
(lp2736
S':'
asbag61
(g82
g63
NtRp2737
(dp2738
g66
(dp2739
sg75
g2724
sg68
(lp2740
g61
(g62
g63
NtRp2741
(dp2742
g66
(dp2743
g74
I3
ssg75
g2737
sg68
(lp2744
g1324
asbasbasbag61
(g77
g63
NtRp2745
(dp2746
g66
(dp2747
sg75
g2594
sg68
(lp2748
g61
(g82
g63
NtRp2749
(dp2750
g66
(dp2751
g86
g87
ssg75
g2745
sg68
(lp2752
S'HTTP_USER_AGENT'
p2753
asbag61
(g82
g63
NtRp2754
(dp2755
g66
(dp2756
g93
g94
ssg75
g2745
sg68
(lp2757
S':'
asbag61
(g82
g63
NtRp2758
(dp2759
g66
(dp2760
sg75
g2745
sg68
(lp2761
g61
(g62
g63
NtRp2762
(dp2763
g66
(dp2764
g74
I3
ssg75
g2758
sg68
(lp2765
g1346
asbasbasbag61
(g77
g63
NtRp2766
(dp2767
g66
(dp2768
sg75
g2594
sg68
(lp2769
g61
(g82
g63
NtRp2770
(dp2771
g66
(dp2772
g86
g87
ssg75
g2766
sg68
(lp2773
S'PATH_INFO'
p2774
asbag61
(g82
g63
NtRp2775
(dp2776
g66
(dp2777
g93
g94
ssg75
g2766
sg68
(lp2778
S':'
asbag61
(g82
g63
NtRp2779
(dp2780
g66
(dp2781
sg75
g2766
sg68
(lp2782
g61
(g62
g63
NtRp2783
(dp2784
g66
(dp2785
g74
I3
ssg75
g2779
sg68
(lp2786
g1410
asbasbasbag61
(g77
g63
NtRp2787
(dp2788
g66
(dp2789
sg75
g2594
sg68
(lp2790
g61
(g82
g63
NtRp2791
(dp2792
g66
(dp2793
g86
g87
ssg75
g2787
sg68
(lp2794
S'QUERY_STRING'
p2795
asbag61
(g82
g63
NtRp2796
(dp2797
g66
(dp2798
g93
g94
ssg75
g2787
sg68
(lp2799
S':'
asbag61
(g82
g63
NtRp2800
(dp2801
g66
(dp2802
sg75
g2787
sg68
(lp2803
g61
(g62
g63
NtRp2804
(dp2805
g66
(dp2806
g74
I3
ssg75
g2800
sg68
(lp2807
S''
asbasbasbag61
(g77
g63
NtRp2808
(dp2809
g66
(dp2810
sg75
g2594
sg68
(lp2811
g61
(g82
g63
NtRp2812
(dp2813
g66
(dp2814
g86
g87
ssg75
g2808
sg68
(lp2815
S'REMOTE_ADDR'
p2816
asbag61
(g82
g63
NtRp2817
(dp2818
g66
(dp2819
g93
g94
ssg75
g2808
sg68
(lp2820
S':'
asbag61
(g82
g63
NtRp2821
(dp2822
g66
(dp2823
sg75
g2808
sg68
(lp2824
g61
(g62
g63
NtRp2825
(dp2826
g66
(dp2827
g74
I3
ssg75
g2821
sg68
(lp2828
g194
asbasbasbag61
(g77
g63
NtRp2829
(dp2830
g66
(dp2831
sg75
g2594
sg68
(lp2832
g61
(g82
g63
NtRp2833
(dp2834
g66
(dp2835
g86
g87
ssg75
g2829
sg68
(lp2836
S'REMOTE_PORT'
p2837
asbag61
(g82
g63
NtRp2838
(dp2839
g66
(dp2840
g93
g94
ssg75
g2829
sg68
(lp2841
S':'
asbag61
(g82
g63
NtRp2842
(dp2843
g66
(dp2844
sg75
g2829
sg68
(lp2845
g61
(g62
g63
NtRp2846
(dp2847
g66
(dp2848
g74
I3
ssg75
g2842
sg68
(lp2849
g1474
asbasbasbag61
(g77
g63
NtRp2850
(dp2851
g66
(dp2852
sg75
g2594
sg68
(lp2853
g61
(g82
g63
NtRp2854
(dp2855
g66
(dp2856
g86
g87
ssg75
g2850
sg68
(lp2857
S'REQUEST_METHOD'
p2858
asbag61
(g82
g63
NtRp2859
(dp2860
g66
(dp2861
g93
g94
ssg75
g2850
sg68
(lp2862
S':'
asbag61
(g82
g63
NtRp2863
(dp2864
g66
(dp2865
sg75
g2850
sg68
(lp2866
g61
(g62
g63
NtRp2867
(dp2868
g66
(dp2869
g74
I3
ssg75
g2863
sg68
(lp2870
g1496
asbasbasbag61
(g77
g63
NtRp2871
(dp2872
g66
(dp2873
sg75
g2594
sg68
(lp2874
g61
(g82
g63
NtRp2875
(dp2876
g66
(dp2877
g86
g87
ssg75
g2871
sg68
(lp2878
S'SCRIPT_NAME'
p2879
asbag61
(g82
g63
NtRp2880
(dp2881
g66
(dp2882
g93
g94
ssg75
g2871
sg68
(lp2883
S':'
asbag61
(g82
g63
NtRp2884
(dp2885
g66
(dp2886
sg75
g2871
sg68
(lp2887
g61
(g62
g63
NtRp2888
(dp2889
g66
(dp2890
g74
I3
ssg75
g2884
sg68
(lp2891
S''
asbasbasbag61
(g77
g63
NtRp2892
(dp2893
g66
(dp2894
sg75
g2594
sg68
(lp2895
g61
(g82
g63
NtRp2896
(dp2897
g66
(dp2898
g86
g87
ssg75
g2892
sg68
(lp2899
S'SERVER_NAME'
p2900
asbag61
(g82
g63
NtRp2901
(dp2902
g66
(dp2903
g93
g94
ssg75
g2892
sg68
(lp2904
S':'
asbag61
(g82
g63
NtRp2905
(dp2906
g66
(dp2907
sg75
g2892
sg68
(lp2908
g61
(g62
g63
NtRp2909
(dp2910
g66
(dp2911
g74
I3
ssg75
g2905
sg68
(lp2912
g1539
asbasbasbag61
(g77
g63
NtRp2913
(dp2914
g66
(dp2915
sg75
g2594
sg68
(lp2916
g61
(g82
g63
NtRp2917
(dp2918
g66
(dp2919
g86
g87
ssg75
g2913
sg68
(lp2920
S'SERVER_PORT'
p2921
asbag61
(g82
g63
NtRp2922
(dp2923
g66
(dp2924
g93
g94
ssg75
g2913
sg68
(lp2925
S':'
asbag61
(g82
g63
NtRp2926
(dp2927
g66
(dp2928
sg75
g2913
sg68
(lp2929
g61
(g62
g63
NtRp2930
(dp2931
g66
(dp2932
g74
I3
ssg75
g2926
sg68
(lp2933
g1561
asbasbasbag61
(g77
g63
NtRp2934
(dp2935
g66
(dp2936
sg75
g2594
sg68
(lp2937
g61
(g82
g63
NtRp2938
(dp2939
g66
(dp2940
g86
g87
ssg75
g2934
sg68
(lp2941
S'SERVER_PROTOCOL'
p2942
asbag61
(g82
g63
NtRp2943
(dp2944
g66
(dp2945
g93
g94
ssg75
g2934
sg68
(lp2946
S':'
asbag61
(g82
g63
NtRp2947
(dp2948
g66
(dp2949
sg75
g2934
sg68
(lp2950
g61
(g62
g63
NtRp2951
(dp2952
g66
(dp2953
g74
I3
ssg75
g2947
sg68
(lp2954
g1583
asbasbasbag61
(g77
g63
NtRp2955
(dp2956
g66
(dp2957
sg75
g2594
sg68
(lp2958
g61
(g82
g63
NtRp2959
(dp2960
g66
(dp2961
g86
g87
ssg75
g2955
sg68
(lp2962
S'SERVER_SOFTWARE'
p2963
asbag61
(g82
g63
NtRp2964
(dp2965
g66
(dp2966
g93
g94
ssg75
g2955
sg68
(lp2967
S':'
asbag61
(g82
g63
NtRp2968
(dp2969
g66
(dp2970
sg75
g2955
sg68
(lp2971
g61
(g62
g63
NtRp2972
(dp2973
g66
(dp2974
g74
I3
ssg75
g2968
sg68
(lp2975
g1605
asbasbasbag61
(g77
g63
NtRp2976
(dp2977
g66
(dp2978
sg75
g2594
sg68
(lp2979
g61
(g82
g63
NtRp2980
(dp2981
g66
(dp2982
g86
g87
ssg75
g2976
sg68
(lp2983
S'wsgi.errors'
p2984
asbag61
(g82
g63
NtRp2985
(dp2986
g66
(dp2987
g93
g94
ssg75
g2976
sg68
(lp2988
S':'
asbag61
(g82
g63
NtRp2989
(dp2990
g66
(dp2991
sg75
g2976
sg68
(lp2992
g61
(g62
g63
NtRp2993
(dp2994
g66
(dp2995
g74
I3
ssg75
g2989
sg68
(lp2996
S"<open file '<stderr>', mode 'w' at 0xb776c0d0>"
p2997
asbasbasbag61
(g77
g63
NtRp2998
(dp2999
g66
(dp3000
sg75
g2594
sg68
(lp3001
g61
(g82
g63
NtRp3002
(dp3003
g66
(dp3004
g86
g87
ssg75
g2998
sg68
(lp3005
S'wsgi.file_wrapper'
p3006
asbag61
(g82
g63
NtRp3007
(dp3008
g66
(dp3009
g93
g94
ssg75
g2998
sg68
(lp3010
S':'
asbag61
(g82
g63
NtRp3011
(dp3012
g66
(dp3013
sg75
g2998
sg68
(lp3014
g61
(g62
g63
NtRp3015
(dp3016
g66
(dp3017
g74
I3
ssg75
g3011
sg68
(lp3018
S'<class wsgiref.util.FileWrapper at 0x946aaac>'
p3019
asbasbasbag61
(g77
g63
NtRp3020
(dp3021
g66
(dp3022
sg75
g2594
sg68
(lp3023
g61
(g82
g63
NtRp3024
(dp3025
g66
(dp3026
g86
g87
ssg75
g3020
sg68
(lp3027
S'wsgi.input'
p3028
asbag61
(g82
g63
NtRp3029
(dp3030
g66
(dp3031
g93
g94
ssg75
g3020
sg68
(lp3032
S':'
asbag61
(g82
g63
NtRp3033
(dp3034
g66
(dp3035
sg75
g3020
sg68
(lp3036
g61
(g62
g63
NtRp3037
(dp3038
g66
(dp3039
g74
I3
ssg75
g3033
sg68
(lp3040
S'<cStringIO.StringO object at 0x9dcba20>'
p3041
asbasbasbag61
(g77
g63
NtRp3042
(dp3043
g66
(dp3044
sg75
g2594
sg68
(lp3045
g61
(g82
g63
NtRp3046
(dp3047
g66
(dp3048
g86
g87
ssg75
g3042
sg68
(lp3049
S'wsgi.multiprocess'
p3050
asbag61
(g82
g63
NtRp3051
(dp3052
g66
(dp3053
g93
g94
ssg75
g3042
sg68
(lp3054
S':'
asbag61
(g82
g63
NtRp3055
(dp3056
g66
(dp3057
sg75
g3042
sg68
(lp3058
g61
(g62
g63
NtRp3059
(dp3060
g66
(dp3061
g74
I3
ssg75
g3055
sg68
(lp3062
g104
asbasbasbag61
(g77
g63
NtRp3063
(dp3064
g66
(dp3065
sg75
g2594
sg68
(lp3066
g61
(g82
g63
NtRp3067
(dp3068
g66
(dp3069
g86
g87
ssg75
g3063
sg68
(lp3070
S'wsgi.multithread'
p3071
asbag61
(g82
g63
NtRp3072
(dp3073
g66
(dp3074
g93
g94
ssg75
g3063
sg68
(lp3075
S':'
asbag61
(g82
g63
NtRp3076
(dp3077
g66
(dp3078
sg75
g3063
sg68
(lp3079
g61
(g62
g63
NtRp3080
(dp3081
g66
(dp3082
g74
I3
ssg75
g3076
sg68
(lp3083
g1845
asbasbasbag61
(g77
g63
NtRp3084
(dp3085
g66
(dp3086
sg75
g2594
sg68
(lp3087
g61
(g82
g63
NtRp3088
(dp3089
g66
(dp3090
g86
g87
ssg75
g3084
sg68
(lp3091
S'wsgi.run_once'
p3092
asbag61
(g82
g63
NtRp3093
(dp3094
g66
(dp3095
g93
g94
ssg75
g3084
sg68
(lp3096
S':'
asbag61
(g82
g63
NtRp3097
(dp3098
g66
(dp3099
sg75
g3084
sg68
(lp3100
g61
(g62
g63
NtRp3101
(dp3102
g66
(dp3103
g74
I3
ssg75
g3097
sg68
(lp3104
g104
asbasbasbag61
(g77
g63
NtRp3105
(dp3106
g66
(dp3107
sg75
g2594
sg68
(lp3108
g61
(g82
g63
NtRp3109
(dp3110
g66
(dp3111
g86
g87
ssg75
g3105
sg68
(lp3112
S'wsgi.url_scheme'
p3113
asbag61
(g82
g63
NtRp3114
(dp3115
g66
(dp3116
g93
g94
ssg75
g3105
sg68
(lp3117
S':'
asbag61
(g82
g63
NtRp3118
(dp3119
g66
(dp3120
sg75
g3105
sg68
(lp3121
g61
(g62
g63
NtRp3122
(dp3123
g66
(dp3124
g74
I3
ssg75
g3118
sg68
(lp3125
g1888
asbasbasbag61
(g77
g63
NtRp3126
(dp3127
g66
(dp3128
sg75
g2594
sg68
(lp3129
g61
(g82
g63
NtRp3130
(dp3131
g66
(dp3132
g86
g87
ssg75
g3126
sg68
(lp3133
S'wsgi.version'
p3134
asbag61
(g82
g63
NtRp3135
(dp3136
g66
(dp3137
g93
g94
ssg75
g3126
sg68
(lp3138
S':'
asbag61
(g82
g63
NtRp3139
(dp3140
g66
(dp3141
sg75
g3126
sg68
(lp3142
g61
(g62
g63
NtRp3143
(dp3144
g66
(dp3145
g74
I3
ssg75
g3139
sg68
(lp3146
S'1'
asbasbasbasbasbasbasbasbasbasbasbasbasbsS'frames'
p3147
(lp3148
(dp3149
S'file'
p3150
S'/home/vishrut/web2py/gluon/restricted.py'
p3151
sS'dump'
p3152
(dp3153
S'environment'
p3154
S"{'A': <class 'gluon.html.A'>, 'Auth': <class 'gluon.tools.Auth'>, 'B': <class 'gluon.html.B'>, 'BEAUTIFY': <class 'gluon.html.BEAUTIFY'>, 'BODY': <class 'gluon.html.BODY'>, 'BR': <class 'gluon.html.BR'>, 'BUTTON': <class 'gluon.html.BUTTON'>, 'CAT': <class 'gluon.html.CAT'>, 'CENTER': <class 'gluon.html.CENTER'>, 'CLEANUP': <class 'gluon.validators.CLEANUP'>, ...}"
p3155
sS'ccode'
p3156
S'<code object <module> at 0x9a48578, file "/home/...eb2py/applications/astra1/models/db.py", line 12>'
p3157
ssS'lnum'
p3158
I205
sS'lines'
p3159
(dp3160
I200
S'    try:'
p3161
sI201
S'        if type(code) == types.CodeType:'
p3162
sI202
S'            ccode = code'
p3163
sI203
S'        else:'
p3164
sI204
S'            ccode = compile2(code,layer)'
p3165
sI205
S'        exec ccode in environment'
p3166
sI206
S'    except HTTP:'
p3167
sI207
S'        raise'
p3168
sI208
S'    except RestrictedError:'
p3169
sI209
S'        # do not encapsulate (obfuscate) the original RestrictedError'
p3170
ssS'call'
p3171
S'(code="# -*- coding: utf-8 -*-\\n\\n#######################...quires=IS_IN_DB(db, db.rooms.id, \'%(username)s\')\\n", environment={\'A\': <class \'gluon.html.A\'>, \'Auth\': <class \'gluon.tools.Auth\'>, \'B\': <class \'gluon.html.B\'>, \'BEAUTIFY\': <class \'gluon.html.BEAUTIFY\'>, \'BODY\': <class \'gluon.html.BODY\'>, \'BR\': <class \'gluon.html.BR\'>, \'BUTTON\': <class \'gluon.html.BUTTON\'>, \'CAT\': <class \'gluon.html.CAT\'>, \'CENTER\': <class \'gluon.html.CENTER\'>, \'CLEANUP\': <class \'gluon.validators.CLEANUP\'>, ...}, layer=\'/home/vishrut/web2py/applications/astra1/models/db.py\')'
p3172
sS'func'
p3173
S'restricted'
p3174
sa(dp3175
g3150
S'/home/vishrut/web2py/applications/astra1/models/db.py'
p3176
sg3152
(dp3177
S'builtinformat'
p3178
S'<built-in function format>'
p3179
ssg3158
I94
sg3159
(dp3180
I96
S"db.define_table('rooms',"
p3181
sI97
S"                Field('rnum','integer',unique=True),"
p3182
sI98
S"                Field('vidurl'),"
p3183
sI89
S''
sI90
S"db.define_table('kids',"
p3184
sI91
S"                Field('username',unique=True),"
p3185
sI92
S"                Field('password'),"
p3186
sI93
S"                Field('rno','integer'),"
p3187
sI94
S"                format='%(username)s')"
p3188
sI95
S''
ssg3171
S'()'
p3189
sg3173
S'<module>'
p3190
sa(dp3191
g3150
S'/home/vishrut/web2py/gluon/dal.py'
p3192
sg3152
(dp3193
S'polymodel'
p3194
S'None'
p3195
ssg3158
I6320
sg3159
(dp3196
I6315
S"        if migrate or self._adapter.dbengine=='google:datastore':"
p3197
sI6316
S'            try:'
p3198
sI6317
S'                sql_locker.acquire()'
p3199
sI6318
S'                self._adapter.create_table(t,migrate=migrate,'
p3200
sI6319
S'                                           fake_migrate=fake_migrate,'
p3201
sI6320
S'                                           polymodel=polymodel)'
p3202
sI6321
S'            finally:'
p3203
sI6322
S'                sql_locker.release()'
p3204
sI6323
S'        else:'
p3205
sI6324
S'            t._dbt = None'
p3206
ssg3171
S"(self=<DAL {'auth_event': <Table {'origin': <gluon.dal...n_key': <gluon.dal.Field object at 0xa0a74cc>}>}>, tablename='kids', *fields=(<gluon.dal.Field object>, <gluon.dal.Field object>, <gluon.dal.Field object>), **args={'format': '%(username)s'})"
p3207
sg3173
S'define_table'
p3208
sa(dp3209
g3150
S'/home/vishrut/web2py/gluon/dal.py'
p3210
sg3152
(dp3211
S'fake_migrate'
p3212
g104
ssg3158
I742
sg3159
(dp3213
I737
S'            self.file_close(tfile)'
p3214
sI738
S'            if sql_fields != sql_fields_old:'
p3215
sI739
S'                self.migrate_table(table,'
p3216
sI740
S'                                   sql_fields, sql_fields_old,'
p3217
sI741
S'                                   sql_fields_aux, logfile,'
p3218
sI742
S'                                   fake_migrate=fake_migrate)'
p3219
sI743
S'        self.file_close(logfile)'
p3220
sI744
S'        return query'
p3221
sI745
S''
sI746
S'    def migrate_table('
p3222
ssg3171
S"(self=<gluon.dal.SQLiteAdapter object>, table=<Table {'username': <gluon.dal.Field object at 0...c>, 'id': <gluon.dal.Field object at 0x9a1e6ac>}>, migrate=True, fake_migrate=False, polymodel=None)"
p3223
sg3173
S'create_table'
p3224
sa(dp3225
g3150
S'/home/vishrut/web2py/gluon/dal.py'
p3226
sg3152
(dp3227
S'self'
p3228
S'<gluon.dal.SQLiteAdapter object>'
p3229
sS'self.execute'
p3230
S'<bound method SQLiteAdapter.execute of <gluon.dal.SQLiteAdapter object>>'
p3231
sS'sub_query'
p3232
S"'ALTER TABLE kids ADD username CHAR(512) UNIQUE;'"
p3233
ssg3158
I830
sg3159
(dp3234
I832
S'                        # in one transaction so we must commit partial transactions and'
p3235
sI833
S'                        # update table._dbt after alter table.'
p3236
sI834
S'                        if table._db._adapter.commit_on_alter_table:'
p3237
sI825
S'                              % datetime.datetime.today().isoformat())'
p3238
sI826
S"                table._db['_lastsql'] = '\\n'.join(query)"
p3239
sI827
S'                for sub_query in query:'
p3240
sI828
S"                    logfile.write(sub_query + '\\n')"
p3241
sI829
S'                    if not fake_migrate:'
p3242
sI830
S'                        self.execute(sub_query)'
p3243
sI831
S'                        # Caveat: mysql, oracle and firebird do not allow multiple alter table'
p3244
ssg3171
S"(self=<gluon.dal.SQLiteAdapter object>, table=<Table {'username': <gluon.dal.Field object at 0...c>, 'id': <gluon.dal.Field object at 0x9a1e6ac>}>, sql_fields={'id': {'sortable': 1, 'sql': 'INTEGER PRIMARY KEY AUTOINCREMENT', 'type': 'id'}, 'password': {'sortable': 3, 'sql': 'CHAR(512)', 'type': 'string'}, 'rno': {'sortable': 4, 'sql': 'INTEGER', 'type': 'integer'}, 'username': {'sortable': 2, 'sql': 'CHAR(512) UNIQUE', 'type': 'string'}}, sql_fields_old={'id': {'sortable': 1, 'sql': 'INTEGER PRIMARY KEY AUTOINCREMENT', 'type': 'id'}, 'user': {'sortable': 2, 'sql': 'CHAR(512) UNIQUE', 'type': 'string'}}, sql_fields_aux={'id': {'sql': 'INTEGER PRIMARY KEY AUTOINCREMENT'}, 'password': {'sql': 'CHAR(512)'}, 'rno': {'sql': 'INTEGER'}, 'username': {'sql': 'CHAR(512) UNIQUE'}}, logfile=<gluon.portalocker.LockedFile object>, fake_migrate=False)"
p3245
sg3173
S'migrate_table'
p3246
sa(dp3247
g3150
S'/home/vishrut/web2py/gluon/dal.py'
p3248
sg3152
(dp3249
S'a'
S"('ALTER TABLE kids ADD username CHAR(512) UNIQUE;',)"
p3250
sS'self'
p3251
S'<gluon.dal.SQLiteAdapter object>'
p3252
sS'b'
g21
sS'self.log_execute'
p3253
S'<bound method SQLiteAdapter.log_execute of <gluon.dal.SQLiteAdapter object>>'
p3254
ssg3158
I1392
sg3159
(dp3255
I1387
S'        self.db._timings.append((a[0],time.time()-t0))'
p3256
sI1388
S'        del self.db._timings[:-TIMINGSSIZE]'
p3257
sI1389
S'        return ret'
p3258
sI1390
S''
sI1391
S'    def execute(self, *a, **b):'
p3259
sI1392
S'        return self.log_execute(*a, **b)'
p3260
sI1393
S''
sI1394
S'    def represent(self, obj, fieldtype):'
p3261
sI1395
S'        if isinstance(obj, CALLABLETYPES):'
p3262
sI1396
S'            obj = obj()'
p3263
ssg3171
S"(self=<gluon.dal.SQLiteAdapter object>, *a=('ALTER TABLE kids ADD username CHAR(512) UNIQUE;',), **b={})"
p3264
sg3173
S'execute'
p3265
sa(dp3266
g3150
S'/home/vishrut/web2py/gluon/dal.py'
p3267
sg3152
(dp3268
S'a'
S"('ALTER TABLE kids ADD username CHAR(512) UNIQUE;',)"
p3269
sS'b'
g21
sS'self'
p3270
S'<gluon.dal.SQLiteAdapter object>'
p3271
sS'ret'
p3272
S'undefined'
p3273
sS'self.cursor'
p3274
S'<pysqlite2.dbapi2.Cursor object>'
p3275
sS'self.cursor.execute'
p3276
S'<built-in method execute of pysqlite2.dbapi2.Cursor object>'
p3277
ssg3158
I1386
sg3159
(dp3278
I1381
S'        self.execute(query)'
p3279
sI1382
S''
sI1383
S'    def log_execute(self, *a, **b):'
p3280
sI1384
S'        self.db._lastsql = a[0]'
p3281
sI1385
S'        t0 = time.time()'
p3282
sI1386
S'        ret = self.cursor.execute(*a, **b)'
p3283
sI1387
S'        self.db._timings.append((a[0],time.time()-t0))'
p3284
sI1388
S'        del self.db._timings[:-TIMINGSSIZE]'
p3285
sI1389
S'        return ret'
p3286
sI1390
S''
ssg3171
S"(self=<gluon.dal.SQLiteAdapter object>, *a=('ALTER TABLE kids ADD username CHAR(512) UNIQUE;',), **b={})"
p3287
sg3173
S'log_execute'
p3288
sasS'pyver'
p3289
S'Python 2.7.2+: /usr/bin/python'
p3290
sS'session'
p3291
g61
(g62
g63
NtRp3292
(dp3293
g66
(dp3294
sg68
(lp3295
g61
(g70
g63
NtRp3296
(dp3297
g66
(dp3298
g74
I5
ssg75
Nsg68
(lp3299
g61
(g77
g63
NtRp3300
(dp3301
g66
(dp3302
sg75
g3296
sg68
(lp3303
g61
(g82
g63
NtRp3304
(dp3305
g66
(dp3306
g86
g87
ssg75
g3300
sg68
(lp3307
S'last_query'
p3308
asbag61
(g82
g63
NtRp3309
(dp3310
g66
(dp3311
g93
g94
ssg75
g3300
sg68
(lp3312
S':'
asbag61
(g82
g63
NtRp3313
(dp3314
g66
(dp3315
sg75
g3300
sg68
(lp3316
g61
(g62
g63
NtRp3317
(dp3318
g66
(dp3319
g74
I5
ssg75
g3313
sg68
(lp3320
S'db.kids.id>0'
p3321
asbasbasbasbasbsS'etype'
p3322
S"<class 'pysqlite2.dbapi2.OperationalError'>"
p3323
sS'date'
p3324
S'Sun Oct 14 15:11:00 2012'
p3325
sS'response'
p3326
g61
(g62
g63
NtRp3327
(dp3328
g66
(dp3329
sg68
(lp3330
g61
(g70
g63
NtRp3331
(dp3332
g66
(dp3333
g74
I5
ssg75
Nsg68
(lp3334
g61
(g77
g63
NtRp3335
(dp3336
g66
(dp3337
sg75
g3331
sg68
(lp3338
g61
(g82
g63
NtRp3339
(dp3340
g66
(dp3341
g86
g87
ssg75
g3335
sg68
(lp3342
g159
asbag61
(g82
g63
NtRp3343
(dp3344
g66
(dp3345
g93
g94
ssg75
g3335
sg68
(lp3346
S':'
asbag61
(g82
g63
NtRp3347
(dp3348
g66
(dp3349
sg75
g3335
sg68
(lp3350
g61
(g62
g63
NtRp3351
(dp3352
g66
(dp3353
g74
I5
ssg75
g3347
sg68
(lp3354
S'<cStringIO.StringO object at 0x9f224e0>'
p3355
asbasbasbag61
(g77
g63
NtRp3356
(dp3357
g66
(dp3358
sg75
g3331
sg68
(lp3359
g61
(g82
g63
NtRp3360
(dp3361
g66
(dp3362
g86
g87
ssg75
g3356
sg68
(lp3363
g225
asbag61
(g82
g63
NtRp3364
(dp3365
g66
(dp3366
g93
g94
ssg75
g3356
sg68
(lp3367
S':'
asbag61
(g82
g63
NtRp3368
(dp3369
g66
(dp3370
sg75
g3356
sg68
(lp3371
g61
(g62
g63
NtRp3372
(dp3373
g66
(dp3374
g74
I5
ssg75
g3368
sg68
(lp3375
g61
(g70
g63
NtRp3376
(dp3377
g66
(dp3378
g74
I4
ssg75
Nsg68
(lp3379
g61
(g77
g63
NtRp3380
(dp3381
g66
(dp3382
sg75
g3376
sg68
(lp3383
g61
(g82
g63
NtRp3384
(dp3385
g66
(dp3386
g86
g87
ssg75
g3380
sg68
(lp3387
S'session_id_astra1'
p3388
asbag61
(g82
g63
NtRp3389
(dp3390
g66
(dp3391
g93
g94
ssg75
g3380
sg68
(lp3392
S':'
asbag61
(g82
g63
NtRp3393
(dp3394
g66
(dp3395
sg75
g3380
sg68
(lp3396
g61
(g62
g63
NtRp3397
(dp3398
g66
(dp3399
g74
I4
ssg75
g3393
sg68
(lp3400
g61
(g70
g63
NtRp3401
(dp3402
g66
(dp3403
g74
I3
ssg75
Nsg68
(lp3404
g61
(g77
g63
NtRp3405
(dp3406
g66
(dp3407
sg75
g3401
sg68
(lp3408
g61
(g82
g63
NtRp3409
(dp3410
g66
(dp3411
g86
g87
ssg75
g3405
sg68
(lp3412
g275
asbag61
(g82
g63
NtRp3413
(dp3414
g66
(dp3415
g93
g94
ssg75
g3405
sg68
(lp3416
S':'
asbag61
(g82
g63
NtRp3417
(dp3418
g66
(dp3419
sg75
g3405
sg68
(lp3420
g61
(g62
g63
NtRp3421
(dp3422
g66
(dp3423
g74
I3
ssg75
g3417
sg68
(lp3424
S''
asbasbasbag61
(g77
g63
NtRp3425
(dp3426
g66
(dp3427
sg75
g3401
sg68
(lp3428
g61
(g82
g63
NtRp3429
(dp3430
g66
(dp3431
g86
g87
ssg75
g3425
sg68
(lp3432
g296
asbag61
(g82
g63
NtRp3433
(dp3434
g66
(dp3435
g93
g94
ssg75
g3425
sg68
(lp3436
S':'
asbag61
(g82
g63
NtRp3437
(dp3438
g66
(dp3439
sg75
g3425
sg68
(lp3440
g61
(g62
g63
NtRp3441
(dp3442
g66
(dp3443
g74
I3
ssg75
g3437
sg68
(lp3444
S''
asbasbasbag61
(g77
g63
NtRp3445
(dp3446
g66
(dp3447
sg75
g3401
sg68
(lp3448
g61
(g82
g63
NtRp3449
(dp3450
g66
(dp3451
g86
g87
ssg75
g3445
sg68
(lp3452
g317
asbag61
(g82
g63
NtRp3453
(dp3454
g66
(dp3455
g93
g94
ssg75
g3445
sg68
(lp3456
S':'
asbag61
(g82
g63
NtRp3457
(dp3458
g66
(dp3459
sg75
g3445
sg68
(lp3460
g61
(g62
g63
NtRp3461
(dp3462
g66
(dp3463
g74
I3
ssg75
g3457
sg68
(lp3464
S''
asbasbasbag61
(g77
g63
NtRp3465
(dp3466
g66
(dp3467
sg75
g3401
sg68
(lp3468
g61
(g82
g63
NtRp3469
(dp3470
g66
(dp3471
g86
g87
ssg75
g3465
sg68
(lp3472
g338
asbag61
(g82
g63
NtRp3473
(dp3474
g66
(dp3475
g93
g94
ssg75
g3465
sg68
(lp3476
S':'
asbag61
(g82
g63
NtRp3477
(dp3478
g66
(dp3479
sg75
g3465
sg68
(lp3480
g61
(g62
g63
NtRp3481
(dp3482
g66
(dp3483
g74
I3
ssg75
g3477
sg68
(lp3484
S''
asbasbasbag61
(g77
g63
NtRp3485
(dp3486
g66
(dp3487
sg75
g3401
sg68
(lp3488
g61
(g82
g63
NtRp3489
(dp3490
g66
(dp3491
g86
g87
ssg75
g3485
sg68
(lp3492
g359
asbag61
(g82
g63
NtRp3493
(dp3494
g66
(dp3495
g93
g94
ssg75
g3485
sg68
(lp3496
S':'
asbag61
(g82
g63
NtRp3497
(dp3498
g66
(dp3499
sg75
g3485
sg68
(lp3500
g61
(g62
g63
NtRp3501
(dp3502
g66
(dp3503
g74
I3
ssg75
g3497
sg68
(lp3504
S''
asbasbasbag61
(g77
g63
NtRp3505
(dp3506
g66
(dp3507
sg75
g3401
sg68
(lp3508
g61
(g82
g63
NtRp3509
(dp3510
g66
(dp3511
g86
g87
ssg75
g3505
sg68
(lp3512
g380
asbag61
(g82
g63
NtRp3513
(dp3514
g66
(dp3515
g93
g94
ssg75
g3505
sg68
(lp3516
S':'
asbag61
(g82
g63
NtRp3517
(dp3518
g66
(dp3519
sg75
g3505
sg68
(lp3520
g61
(g62
g63
NtRp3521
(dp3522
g66
(dp3523
g74
I3
ssg75
g3517
sg68
(lp3524
S'/'
asbasbasbag61
(g77
g63
NtRp3525
(dp3526
g66
(dp3527
sg75
g3401
sg68
(lp3528
g61
(g82
g63
NtRp3529
(dp3530
g66
(dp3531
g86
g87
ssg75
g3525
sg68
(lp3532
g401
asbag61
(g82
g63
NtRp3533
(dp3534
g66
(dp3535
g93
g94
ssg75
g3525
sg68
(lp3536
S':'
asbag61
(g82
g63
NtRp3537
(dp3538
g66
(dp3539
sg75
g3525
sg68
(lp3540
g61
(g62
g63
NtRp3541
(dp3542
g66
(dp3543
g74
I3
ssg75
g3537
sg68
(lp3544
S''
asbasbasbag61
(g77
g63
NtRp3545
(dp3546
g66
(dp3547
sg75
g3401
sg68
(lp3548
g61
(g82
g63
NtRp3549
(dp3550
g66
(dp3551
g86
g87
ssg75
g3545
sg68
(lp3552
g422
asbag61
(g82
g63
NtRp3553
(dp3554
g66
(dp3555
g93
g94
ssg75
g3545
sg68
(lp3556
S':'
asbag61
(g82
g63
NtRp3557
(dp3558
g66
(dp3559
sg75
g3545
sg68
(lp3560
g61
(g62
g63
NtRp3561
(dp3562
g66
(dp3563
g74
I3
ssg75
g3557
sg68
(lp3564
S''
asbasbasbasbasbasbasbasbasbasbasbag61
(g77
g63
NtRp3565
(dp3566
g66
(dp3567
sg75
g3331
sg68
(lp3568
g61
(g82
g63
NtRp3569
(dp3570
g66
(dp3571
g86
g87
ssg75
g3565
sg68
(lp3572
S'delimiters'
p3573
asbag61
(g82
g63
NtRp3574
(dp3575
g66
(dp3576
g93
g94
ssg75
g3565
sg68
(lp3577
S':'
asbag61
(g82
g63
NtRp3578
(dp3579
g66
(dp3580
sg75
g3565
sg68
(lp3581
g61
(g62
g63
NtRp3582
(dp3583
g66
(dp3584
g74
I5
ssg75
g3578
sg68
(lp3585
g61
(g70
g63
NtRp3586
(dp3587
g66
(dp3588
g74
I4
ssg75
Nsg68
(lp3589
g61
(g77
g63
NtRp3590
(dp3591
g66
(dp3592
sg75
g3586
sg68
(lp3593
g61
(g82
g63
NtRp3594
(dp3595
g66
(dp3596
sg75
g3590
sg68
(lp3597
g61
(g62
g63
NtRp3598
(dp3599
g66
(dp3600
g74
I4
ssg75
g3594
sg68
(lp3601
S'{{'
p3602
asbasbasbag61
(g77
g63
NtRp3603
(dp3604
g66
(dp3605
sg75
g3586
sg68
(lp3606
g61
(g82
g63
NtRp3607
(dp3608
g66
(dp3609
sg75
g3603
sg68
(lp3610
g61
(g62
g63
NtRp3611
(dp3612
g66
(dp3613
g74
I4
ssg75
g3607
sg68
(lp3614
S'}}'
p3615
asbasbasbasbasbasbasbag61
(g77
g63
NtRp3616
(dp3617
g66
(dp3618
sg75
g3331
sg68
(lp3619
g61
(g82
g63
NtRp3620
(dp3621
g66
(dp3622
g86
g87
ssg75
g3616
sg68
(lp3623
S'files'
p3624
asbag61
(g82
g63
NtRp3625
(dp3626
g66
(dp3627
g93
g94
ssg75
g3616
sg68
(lp3628
S':'
asbag61
(g82
g63
NtRp3629
(dp3630
g66
(dp3631
sg75
g3616
sg68
(lp3632
g61
(g62
g63
NtRp3633
(dp3634
g66
(dp3635
g74
I5
ssg75
g3629
sg68
(lp3636
g61
(g70
g63
NtRp3637
(dp3638
g66
(dp3639
g74
I4
ssg75
Nsg68
(lp3640
sbasbasbasbag61
(g77
g63
NtRp3641
(dp3642
g66
(dp3643
sg75
g3331
sg68
(lp3644
g61
(g82
g63
NtRp3645
(dp3646
g66
(dp3647
g86
g87
ssg75
g3641
sg68
(lp3648
S'flash'
p3649
asbag61
(g82
g63
NtRp3650
(dp3651
g66
(dp3652
g93
g94
ssg75
g3641
sg68
(lp3653
S':'
asbag61
(g82
g63
NtRp3654
(dp3655
g66
(dp3656
sg75
g3641
sg68
(lp3657
g61
(g62
g63
NtRp3658
(dp3659
g66
(dp3660
g74
I5
ssg75
g3654
sg68
(lp3661
S''
asbasbasbag61
(g77
g63
NtRp3662
(dp3663
g66
(dp3664
sg75
g3331
sg68
(lp3665
g61
(g82
g63
NtRp3666
(dp3667
g66
(dp3668
g86
g87
ssg75
g3662
sg68
(lp3669
S'generic_patterns'
p3670
asbag61
(g82
g63
NtRp3671
(dp3672
g66
(dp3673
g93
g94
ssg75
g3662
sg68
(lp3674
S':'
asbag61
(g82
g63
NtRp3675
(dp3676
g66
(dp3677
sg75
g3662
sg68
(lp3678
g61
(g62
g63
NtRp3679
(dp3680
g66
(dp3681
g74
I5
ssg75
g3675
sg68
(lp3682
g61
(g70
g63
NtRp3683
(dp3684
g66
(dp3685
g74
I4
ssg75
Nsg68
(lp3686
g61
(g77
g63
NtRp3687
(dp3688
g66
(dp3689
sg75
g3683
sg68
(lp3690
g61
(g82
g63
NtRp3691
(dp3692
g66
(dp3693
sg75
g3687
sg68
(lp3694
g61
(g62
g63
NtRp3695
(dp3696
g66
(dp3697
g74
I4
ssg75
g3691
sg68
(lp3698
S'*'
asbasbasbasbasbasbasbag61
(g77
g63
NtRp3699
(dp3700
g66
(dp3701
sg75
g3331
sg68
(lp3702
g61
(g82
g63
NtRp3703
(dp3704
g66
(dp3705
g86
g87
ssg75
g3699
sg68
(lp3706
S'headers'
p3707
asbag61
(g82
g63
NtRp3708
(dp3709
g66
(dp3710
g93
g94
ssg75
g3699
sg68
(lp3711
S':'
asbag61
(g82
g63
NtRp3712
(dp3713
g66
(dp3714
sg75
g3699
sg68
(lp3715
g61
(g62
g63
NtRp3716
(dp3717
g66
(dp3718
g74
I5
ssg75
g3712
sg68
(lp3719
g61
(g70
g63
NtRp3720
(dp3721
g66
(dp3722
g74
I4
ssg75
Nsg68
(lp3723
g61
(g77
g63
NtRp3724
(dp3725
g66
(dp3726
sg75
g3720
sg68
(lp3727
g61
(g82
g63
NtRp3728
(dp3729
g66
(dp3730
g86
g87
ssg75
g3724
sg68
(lp3731
S'Cache-Control'
p3732
asbag61
(g82
g63
NtRp3733
(dp3734
g66
(dp3735
g93
g94
ssg75
g3724
sg68
(lp3736
S':'
asbag61
(g82
g63
NtRp3737
(dp3738
g66
(dp3739
sg75
g3724
sg68
(lp3740
g61
(g62
g63
NtRp3741
(dp3742
g66
(dp3743
g74
I4
ssg75
g3737
sg68
(lp3744
S'no-store, no-cache, must-revalidate, post-check=0, pre-check=0'
p3745
asbasbasbag61
(g77
g63
NtRp3746
(dp3747
g66
(dp3748
sg75
g3720
sg68
(lp3749
g61
(g82
g63
NtRp3750
(dp3751
g66
(dp3752
g86
g87
ssg75
g3746
sg68
(lp3753
S'Content-Type'
p3754
asbag61
(g82
g63
NtRp3755
(dp3756
g66
(dp3757
g93
g94
ssg75
g3746
sg68
(lp3758
S':'
asbag61
(g82
g63
NtRp3759
(dp3760
g66
(dp3761
sg75
g3746
sg68
(lp3762
g61
(g62
g63
NtRp3763
(dp3764
g66
(dp3765
g74
I4
ssg75
g3759
sg68
(lp3766
S'text/html; charset=utf-8'
p3767
asbasbasbag61
(g77
g63
NtRp3768
(dp3769
g66
(dp3770
sg75
g3720
sg68
(lp3771
g61
(g82
g63
NtRp3772
(dp3773
g66
(dp3774
g86
g87
ssg75
g3768
sg68
(lp3775
S'Expires'
p3776
asbag61
(g82
g63
NtRp3777
(dp3778
g66
(dp3779
g93
g94
ssg75
g3768
sg68
(lp3780
S':'
asbag61
(g82
g63
NtRp3781
(dp3782
g66
(dp3783
sg75
g3768
sg68
(lp3784
g61
(g62
g63
NtRp3785
(dp3786
g66
(dp3787
g74
I4
ssg75
g3781
sg68
(lp3788
S'Sun, 14 Oct 2012 10:11:00 GMT'
p3789
asbasbasbag61
(g77
g63
NtRp3790
(dp3791
g66
(dp3792
sg75
g3720
sg68
(lp3793
g61
(g82
g63
NtRp3794
(dp3795
g66
(dp3796
g86
g87
ssg75
g3790
sg68
(lp3797
S'Pragma'
p3798
asbag61
(g82
g63
NtRp3799
(dp3800
g66
(dp3801
g93
g94
ssg75
g3790
sg68
(lp3802
S':'
asbag61
(g82
g63
NtRp3803
(dp3804
g66
(dp3805
sg75
g3790
sg68
(lp3806
g61
(g62
g63
NtRp3807
(dp3808
g66
(dp3809
g74
I4
ssg75
g3803
sg68
(lp3810
S'no-cache'
p3811
asbasbasbag61
(g77
g63
NtRp3812
(dp3813
g66
(dp3814
sg75
g3720
sg68
(lp3815
g61
(g82
g63
NtRp3816
(dp3817
g66
(dp3818
g86
g87
ssg75
g3812
sg68
(lp3819
S'X-Powered-By'
p3820
asbag61
(g82
g63
NtRp3821
(dp3822
g66
(dp3823
g93
g94
ssg75
g3812
sg68
(lp3824
S':'
asbag61
(g82
g63
NtRp3825
(dp3826
g66
(dp3827
sg75
g3812
sg68
(lp3828
g61
(g62
g63
NtRp3829
(dp3830
g66
(dp3831
g74
I4
ssg75
g3825
sg68
(lp3832
S'web2py'
p3833
asbasbasbasbasbasbasbag61
(g77
g63
NtRp3834
(dp3835
g66
(dp3836
sg75
g3331
sg68
(lp3837
g61
(g82
g63
NtRp3838
(dp3839
g66
(dp3840
g86
g87
ssg75
g3834
sg68
(lp3841
S'menu'
p3842
asbag61
(g82
g63
NtRp3843
(dp3844
g66
(dp3845
g93
g94
ssg75
g3834
sg68
(lp3846
S':'
asbag61
(g82
g63
NtRp3847
(dp3848
g66
(dp3849
sg75
g3834
sg68
(lp3850
g61
(g62
g63
NtRp3851
(dp3852
g66
(dp3853
g74
I5
ssg75
g3847
sg68
(lp3854
g61
(g70
g63
NtRp3855
(dp3856
g66
(dp3857
g74
I4
ssg75
Nsg68
(lp3858
sbasbasbasbag61
(g77
g63
NtRp3859
(dp3860
g66
(dp3861
sg75
g3331
sg68
(lp3862
g61
(g82
g63
NtRp3863
(dp3864
g66
(dp3865
g86
g87
ssg75
g3859
sg68
(lp3866
S'meta'
p3867
asbag61
(g82
g63
NtRp3868
(dp3869
g66
(dp3870
g93
g94
ssg75
g3859
sg68
(lp3871
S':'
asbag61
(g82
g63
NtRp3872
(dp3873
g66
(dp3874
sg75
g3859
sg68
(lp3875
g61
(g62
g63
NtRp3876
(dp3877
g66
(dp3878
g74
I5
ssg75
g3872
sg68
(lp3879
g61
(g70
g63
NtRp3880
(dp3881
g66
(dp3882
g74
I4
ssg75
Nsg68
(lp3883
sbasbasbasbag61
(g77
g63
NtRp3884
(dp3885
g66
(dp3886
sg75
g3331
sg68
(lp3887
g61
(g82
g63
NtRp3888
(dp3889
g66
(dp3890
g86
g87
ssg75
g3884
sg68
(lp3891
S'postprocessing'
p3892
asbag61
(g82
g63
NtRp3893
(dp3894
g66
(dp3895
g93
g94
ssg75
g3884
sg68
(lp3896
S':'
asbag61
(g82
g63
NtRp3897
(dp3898
g66
(dp3899
sg75
g3884
sg68
(lp3900
g61
(g62
g63
NtRp3901
(dp3902
g66
(dp3903
g74
I5
ssg75
g3897
sg68
(lp3904
g61
(g70
g63
NtRp3905
(dp3906
g66
(dp3907
g74
I4
ssg75
Nsg68
(lp3908
sbasbasbasbag61
(g77
g63
NtRp3909
(dp3910
g66
(dp3911
sg75
g3331
sg68
(lp3912
g61
(g82
g63
NtRp3913
(dp3914
g66
(dp3915
g86
g87
ssg75
g3909
sg68
(lp3916
S'session_file'
p3917
asbag61
(g82
g63
NtRp3918
(dp3919
g66
(dp3920
g93
g94
ssg75
g3909
sg68
(lp3921
S':'
asbag61
(g82
g63
NtRp3922
(dp3923
g66
(dp3924
sg75
g3909
sg68
(lp3925
g61
(g62
g63
NtRp3926
(dp3927
g66
(dp3928
g74
I5
ssg75
g3922
sg68
(lp3929
S"<open file '/home/vishrut/web2py/applications/astra1/sessions/127.0.0.1-3ea7f370-71b8-4b79-b80d-e5c8cc6c433d', mode 'rb+' at 0x9a6ba70>"
p3930
asbasbasbag61
(g77
g63
NtRp3931
(dp3932
g66
(dp3933
sg75
g3331
sg68
(lp3934
g61
(g82
g63
NtRp3935
(dp3936
g66
(dp3937
g86
g87
ssg75
g3931
sg68
(lp3938
S'session_filename'
p3939
asbag61
(g82
g63
NtRp3940
(dp3941
g66
(dp3942
g93
g94
ssg75
g3931
sg68
(lp3943
S':'
asbag61
(g82
g63
NtRp3944
(dp3945
g66
(dp3946
sg75
g3931
sg68
(lp3947
g61
(g62
g63
NtRp3948
(dp3949
g66
(dp3950
g74
I5
ssg75
g3944
sg68
(lp3951
S'/home/vishrut/web2py/applications/astra1/sessions/127.0.0.1-3ea7f370-71b8-4b79-b80d-e5c8cc6c433d'
p3952
asbasbasbag61
(g77
g63
NtRp3953
(dp3954
g66
(dp3955
sg75
g3331
sg68
(lp3956
g61
(g82
g63
NtRp3957
(dp3958
g66
(dp3959
g86
g87
ssg75
g3953
sg68
(lp3960
S'session_id'
p3961
asbag61
(g82
g63
NtRp3962
(dp3963
g66
(dp3964
g93
g94
ssg75
g3953
sg68
(lp3965
S':'
asbag61
(g82
g63
NtRp3966
(dp3967
g66
(dp3968
sg75
g3953
sg68
(lp3969
g61
(g62
g63
NtRp3970
(dp3971
g66
(dp3972
g74
I5
ssg75
g3966
sg68
(lp3973
S'127.0.0.1-3ea7f370-71b8-4b79-b80d-e5c8cc6c433d'
p3974
asbasbasbag61
(g77
g63
NtRp3975
(dp3976
g66
(dp3977
sg75
g3331
sg68
(lp3978
g61
(g82
g63
NtRp3979
(dp3980
g66
(dp3981
g86
g87
ssg75
g3975
sg68
(lp3982
S'session_id_name'
p3983
asbag61
(g82
g63
NtRp3984
(dp3985
g66
(dp3986
g93
g94
ssg75
g3975
sg68
(lp3987
S':'
asbag61
(g82
g63
NtRp3988
(dp3989
g66
(dp3990
sg75
g3975
sg68
(lp3991
g61
(g62
g63
NtRp3992
(dp3993
g66
(dp3994
g74
I5
ssg75
g3988
sg68
(lp3995
g3388
asbasbasbag61
(g77
g63
NtRp3996
(dp3997
g66
(dp3998
sg75
g3331
sg68
(lp3999
g61
(g82
g63
NtRp4000
(dp4001
g66
(dp4002
g86
g87
ssg75
g3996
sg68
(lp4003
S'session_locked'
p4004
asbag61
(g82
g63
NtRp4005
(dp4006
g66
(dp4007
g93
g94
ssg75
g3996
sg68
(lp4008
S':'
asbag61
(g82
g63
NtRp4009
(dp4010
g66
(dp4011
sg75
g3996
sg68
(lp4012
g61
(g62
g63
NtRp4013
(dp4014
g66
(dp4015
g74
I5
ssg75
g4009
sg68
(lp4016
g1845
asbasbasbag61
(g77
g63
NtRp4017
(dp4018
g66
(dp4019
sg75
g3331
sg68
(lp4020
g61
(g82
g63
NtRp4021
(dp4022
g66
(dp4023
g86
g87
ssg75
g4017
sg68
(lp4024
S'session_new'
p4025
asbag61
(g82
g63
NtRp4026
(dp4027
g66
(dp4028
g93
g94
ssg75
g4017
sg68
(lp4029
S':'
asbag61
(g82
g63
NtRp4030
(dp4031
g66
(dp4032
sg75
g4017
sg68
(lp4033
g61
(g62
g63
NtRp4034
(dp4035
g66
(dp4036
g74
I5
ssg75
g4030
sg68
(lp4037
g104
asbasbasbag61
(g77
g63
NtRp4038
(dp4039
g66
(dp4040
sg75
g3331
sg68
(lp4041
g61
(g82
g63
NtRp4042
(dp4043
g66
(dp4044
g86
g87
ssg75
g4038
sg68
(lp4045
S'status'
p4046
asbag61
(g82
g63
NtRp4047
(dp4048
g66
(dp4049
g93
g94
ssg75
g4038
sg68
(lp4050
S':'
asbag61
(g82
g63
NtRp4051
(dp4052
g66
(dp4053
sg75
g4038
sg68
(lp4054
g61
(g62
g63
NtRp4055
(dp4056
g66
(dp4057
g74
I5
ssg75
g4051
sg68
(lp4058
S'200'
p4059
asbasbasbag61
(g77
g63
NtRp4060
(dp4061
g66
(dp4062
sg75
g3331
sg68
(lp4063
g61
(g82
g63
NtRp4064
(dp4065
g66
(dp4066
g86
g87
ssg75
g4060
sg68
(lp4067
g2509
asbag61
(g82
g63
NtRp4068
(dp4069
g66
(dp4070
g93
g94
ssg75
g4060
sg68
(lp4071
S':'
asbag61
(g82
g63
NtRp4072
(dp4073
g66
(dp4074
sg75
g4060
sg68
(lp4075
g61
(g62
g63
NtRp4076
(dp4077
g66
(dp4078
g74
I5
ssg75
g4072
sg68
(lp4079
g2522
asbasbasbag61
(g77
g63
NtRp4080
(dp4081
g66
(dp4082
sg75
g3331
sg68
(lp4083
g61
(g82
g63
NtRp4084
(dp4085
g66
(dp4086
g86
g87
ssg75
g4080
sg68
(lp4087
S'view'
p4088
asbag61
(g82
g63
NtRp4089
(dp4090
g66
(dp4091
g93
g94
ssg75
g4080
sg68
(lp4092
S':'
asbag61
(g82
g63
NtRp4093
(dp4094
g66
(dp4095
sg75
g4080
sg68
(lp4096
g61
(g62
g63
NtRp4097
(dp4098
g66
(dp4099
g74
I5
ssg75
g4093
sg68
(lp4100
S'default/index.html'
p4101
asbasbasbasbasbsS'locals'
p4102
(dp4103
S'a'
S"('ALTER TABLE kids ADD username CHAR(512) UNIQUE;',)"
p4104
sS'self'
p4105
S'<gluon.dal.SQLiteAdapter object>'
p4106
sS'b'
g21
sS't0'
p4107
S'1350209460.477609'
p4108
sssS'traceback'
p4109
S'Traceback (most recent call last):\n  File "/home/vishrut/web2py/gluon/restricted.py", line 205, in restricted\n    exec ccode in environment\n  File "/home/vishrut/web2py/applications/astra1/models/db.py", line 94, in <module>\n    format=\'%(username)s\')\n  File "/home/vishrut/web2py/gluon/dal.py", line 6320, in define_table\n    polymodel=polymodel)\n  File "/home/vishrut/web2py/gluon/dal.py", line 742, in create_table\n    fake_migrate=fake_migrate)\n  File "/home/vishrut/web2py/gluon/dal.py", line 830, in migrate_table\n    self.execute(sub_query)\n  File "/home/vishrut/web2py/gluon/dal.py", line 1392, in execute\n    return self.log_execute(*a, **b)\n  File "/home/vishrut/web2py/gluon/dal.py", line 1386, in log_execute\n    ret = self.cursor.execute(*a, **b)\nOperationalError: Cannot add a UNIQUE column\n'
p4110
s.