(dp1
S'output'
p2
S"<type 'exceptions.SyntaxError'> invalid syntax (show.html, line 88)"
p3
sS'layer'
p4
S'/home/vishrut/web2py/applications/astra1/views/default/show.html'
p5
sS'code'
p6
S'response.write(\'<!DOCTYPE html>\\n<!-- paulirish.com/2008/conditional-stylesheets-vs-css-hacks-answer-neither/ -->\\n<!--[if lt IE 7]><html class="ie ie6 ie-lte9 ie-lte8 ie-lte7 no-js" lang="\', escape=False)\nresponse.write(T.accepted_language or \'en\')\nresponse.write(\'"> <![endif]-->\\n<!--[if IE 7]><html class="ie ie7 ie-lte9 ie-lte8 ie-lte7 no-js" lang="\', escape=False)\nresponse.write(T.accepted_language or \'en\')\nresponse.write(\'"> <![endif]-->\\n<!--[if IE 8]><html class="ie ie8 ie-lte9 ie-lte8 no-js" lang="\', escape=False)\nresponse.write(T.accepted_language or \'en\')\nresponse.write(\'"> <![endif]-->\\n<!--[if IE 9]><html class="ie9 ie-lte9 no-js" lang="\', escape=False)\nresponse.write(T.accepted_language or \'en\')\nresponse.write(\'"> <![endif]-->\\n<!--[if (gt IE 9)|!(IE)]><!--> <html class="no-js" lang="\', escape=False)\nresponse.write(T.accepted_language or \'en\')\nresponse.write(\'"> <!--<![endif]-->\\n<head>\\n  <meta charset="utf-8" />\\n  <!-- www.phpied.com/conditional-comments-block-downloads/ -->\\n  <!-- Always force latest IE rendering engine\\n\\t   (even in intranet) & Chrome Frame\\n\\t   Remove this if you use the .htaccess -->\\n  <!--[if IE]>\\n    <meta http-equiv="X-UA-Compatible" content="IE=edge\', escape=False)\nresponse.write(not request.is_local and \',chrome=1\' or \'\')\nresponse.write(\'">\\n  <![endif]-->\\n  \\n  <title>\', escape=False)\nresponse.write(response.title or request.application)\nresponse.write(\'</title>\\n  \\n  <!-- http://dev.w3.org/html5/markup/meta.name.html -->\\n  <meta name="application-name" content="\', escape=False)\nresponse.write(request.application)\nresponse.write(\'" />\\n  \\n  <!-- Speaking of Google, don\\\'t forget to set your site up:\\n\\t   http://google.com/webmasters -->\\n  <meta name="google-site-verification" content="" />\\n\\n  <!--  Mobile Viewport Fix\\n\\t  j.mp/mobileviewport & davidbcalhoun.com/2010/viewport-metatag\\n\\t  device-width: Occupy full width of the screen in its current orientation\\n\\t  initial-scale = 1.0 retains dimensions instead of zooming out if page height > device height\\n\\t  user-scalable = yes allows the user to zoom in -->\\n  <meta name="viewport" content="width=device-width, initial-scale=1.0, user-scalable=yes">\\n  \\n  <!-- Place favicon.ico and apple-touch-icon.png in the root of your domain and delete these references -->\\n  <link rel="shortcut icon" href="\', escape=False)\nresponse.write(URL(\'static\',\'favicon.ico\'))\nresponse.write(\'" type="image/x-icon">\\n  <link rel="apple-touch-icon" href="\', escape=False)\nresponse.write(URL(\'static\',\'favicon.png\'))\nresponse.write(\'">\\n\\n  <!-- All JavaScript at the bottom, except for Modernizr which enables \\n\\t   HTML5 elements & feature detects -->\\n  <script src="\', escape=False)\nresponse.write(URL(\'static\',\'js/modernizr.custom.js\'))\nresponse.write(\'"></script>  \\n\\n  <!-- include stylesheets -->\\n  \', escape=False)\nresponse.files.append(URL(\'static\',\'css/skeleton.css\'))\nresponse.files.append(URL(\'static\',\'css/web2py.css\'))\nif response.menu:\n    response.files.append(URL(\'static\',\'css/superfish.css\'))\n    response.files.append(URL(\'static\',\'js/superfish.js\'))\n    pass\nresponse.write(\'\\n\\n  \', escape=False)\nresponse.write(\'<script type="text/javascript"><!--\\n    // These variables are used by the web2py_ajax_init function in web2py_ajax.js (which is loaded below).\\n    var w2p_ajax_confirm_message = "\', escape=False)\nresponse.write(T(\'Are you sure you want to delete this object?\'))\nresponse.write(\'";\\n    var w2p_ajax_date_format = "\', escape=False)\nresponse.write(T(\'%Y-%m-%d\'))\nresponse.write(\'";\\n    var w2p_ajax_datetime_format = "\', escape=False)\nresponse.write(T(\'%Y-%m-%d %H:%M:%S\'))\nresponse.write(\'";\\n    //--></script>\\n\', escape=False)\nresponse.files.insert(0,URL(\'static\',\'js/jquery.js\'))\nresponse.files.insert(1,URL(\'static\',\'css/calendar.css\'))\nresponse.files.insert(2,URL(\'static\',\'js/calendar.js\'))\nresponse.files.insert(3,URL(\'static\',\'js/web2py.js\'))\nresponse.include_meta()\nresponse.include_files()\nresponse.write(\'\\n\', escape=False)\nresponse.write(\'\\n\\n  \', escape=False)\nif response.menu:\n    response.write(\'\\n  <script type="text/javascript">\\n    jQuery(function(){ jQuery(\\\'ul.sf-menu\\\').supersubs({minWidth:12,maxWidth:30,extraWidth:3}).superfish(); });\\n  </script>\\n  \', escape=False)\n    pass\nresponse.write(\'\\n\\n  \', escape=False)\n# using sidebars need to know what sidebar you want to use\nleft_sidebar_enabled = globals().get(\'left_sidebar_enabled\',False)\nright_sidebar_enabled = globals().get(\'right_sidebar_enabled\',False)\nmiddle_columns = {0:\'sixteen\',1:\'twelve\',2:\'eight\'}[\n(left_sidebar_enabled and 1 or 0)+(right_sidebar_enabled and 1 or 0)]\nresponse.write(\'\\n\\n  <!-- uncomment here to load jquery-ui\\n  <link rel="stylesheet" href="http://ajax.googleapis.com/ajax/libs/jqueryui/1.8.16/themes/base/jquery-ui.css" type="text/css" media="all" />\\n  <script src="http://ajax.googleapis.com/ajax/libs/jqueryui/1.8.16/jquery-ui.min.js" type="text/javascript"></script>\\n  uncomment to load jquery-ui //-->\\n</head>\\n<body>\\n  <div class="wrapper"><!-- for sticky footer -->\\n  \\n    <div class="topbar">\\n      <div class="container">    \\n        <div class="sixteen columns">\\n          <div id="navbar">\', escape=False)\nresponse.write(\'auth\' in globals() and auth.navbar(separators=(\' \',\' | \',\'\')))\nresponse.write(\'</div>\\n          \', escape=False)\nis_mobile=request.user_agent().is_mobile\nresponse.write(\'\\n\\t  \', escape=False)\nif response.menu:\n    response.write(\'\\n          <div id="menu">\\n             \', escape=False)\n    response.write(MENU(response.menu, _class=\'mobile-menu\' if is_mobile else \'sf-menu\',mobile=is_mobile))\n    response.write(\'\\n          </div>\\n          \', escape=False)\n    pass\nresponse.write(\'\\n        </div>\\n      </div>\\n    </div><!-- topbar -->\\n    \\n    <div class="flash">\', escape=False)\nresponse.write(response.flash or \'\')\nresponse.write(\'</div>\\n    \\n    <div class="header">\\n      <div class="container">         \\n        <div class="sixteen columns">\\n          <h1 class="remove-bottom" style="margin-top: .5em;">\\n          \', escape=False)\nresponse.write(response.title or request.application)\nresponse.write(\'\\n          </h1>\\n          <h5>\', escape=False)\nresponse.write(response.subtitle or \'\')\nresponse.write(\'</h5>\\n        </div>\\n        <div class="sixteen columns">\\n          <div class="statusbar clearfix">\\n            \', escape=False)\nresponse.write(\'\\n            <div class="breadcrumbs">\', escape=False)\nresponse.write(request.function.replace(\'_\', \' \').title())\nresponse.write(\'</div>\\n            \', escape=False)\nresponse.write(\'\\n            <!-- AddToAny BEGIN -->\\n            <div style="float:right; padding-top: .25em;" class="a2a_kit a2a_default_style">\\n            <a class="a2a_dd" href="http://www.addtoany.com/share_save">Share</a></div>\\n            <script type="text/javascript" src="http://static.addtoany.com/menu/page.js"></script>\\n            <!-- AddToAny END -->\\n          </div>\\n        </div>\\n      </div>\\n    </div>\\n\\n    <div class="main">\\n      <div class="container">                 \\n        \', escape=False)\nif left_sidebar_enabled:\n    response.write(\'\\n        <div class="four columns left-sidebar">\\n          \', escape=False)\n    response.write(\'\\n          <h3>Left Sidebar</h3>\\n          <p></p>\\n          \', escape=False)\n    response.write(\'\\n        </div>\\n        \', escape=False)\n    pass\nresponse.write(\'\\n        \\n        <div class="\', escape=False)\nresponse.write(middle_columns)\nresponse.write(\' columns center">\\n          \', escape=False)\nresponse.write(\'\\n          \', escape=False)\nresponse.write(\'\\n<h1>This is the default/show.html template</h1>\\n\', escape=False)\nxxx=db(db.kids.username==session.username).select().first().rno\nresponse.write(\'\\n\', escape=False)\nif xxx==None\nresponse.write(\'\\n<img src="/astra1/static/hh.jpeg"> </img>\\n\', escape=False)\npass\nresponse.write(\'\\n<video width="320" height="240" controls="controls">  \\n        <source src="\', escape=False)\nresponse.write(URL(\'static\', xxx+\'.ogv\'))\nresponse.write(\'" type="video/ogg">\\n</video>\\n\\n\', escape=False)\nfor row in db(db.rooms.active==True).select(orderby=db.rooms.rnum):\n    response.write(\'\\n<p><a href=\', escape=False)\n    response.write(URL(\'enter\', args=row.rnum))\n    response.write(\'>\', escape=False)\n    response.write(row.rnum)\n    response.write(\'</a></p>\\n\', escape=False)\n    pass\nresponse.write(\'\\n\\n<button type="button" onclick="document.location=\\\'\', escape=False)\nresponse.write(URL("logout"))\nresponse.write(\'\\\'">Logout</button>\\n\', escape=False)\npass\nresponse.write(\'\\n\', escape=False)\npass\nresponse.write(\'\\n\', escape=False)\nresponse.write(BEAUTIFY(response._vars))\nresponse.write(\'\\n\', escape=False)\nresponse.write(\'\\n          \', escape=False)\nresponse.write(\'\\n        </div>\\n        \\n        \', escape=False)\nif right_sidebar_enabled:\n    response.write(\'\\n        <div class="four columns">\\n          \', escape=False)\n    response.write(\'\\n          <h3>Right Sidebar</h3>\\n          <p></p>\\n          \', escape=False)\n    response.write(\'\\n        </div>    \\n        \', escape=False)\n    pass\nresponse.write(\'\\n        \\n      </div><!-- container -->\\n    </div><!-- main -->\\n    \\n    <div class="push"></div>\\n  </div><!-- wrapper -->\\n\\n  <div class="footer">\\n    <div class="container">    \\n      <div class="sixteen columns">\\n        \', escape=False)\nresponse.write(\' <!-- this is default footer -->\\n        <div class="footer-content clearfix">\\n          <div class="copyright">\', escape=False)\nresponse.write(T(\'Copyright\'))\nresponse.write(\' &#169; 2011</div>\\n          <div style="float: right;">\\n            <a href="http://www.web2py.com/">\\n            <img style="padding-bottom: 0;" src="\', escape=False)\nresponse.write(URL(\'static\',\'images/poweredby.png\'))\nresponse.write(\'"/>\\n            </a>\\n          </div>\\n        </div>\\n        \', escape=False)\nresponse.write(\'\\t\\n      </div>\\n    </div><!-- container -->\\n  </div><!-- footer -->\\n  \\n  <!--[if lt IE 7 ]>\\n\\t<script src="\', escape=False)\nresponse.write(URL(\'static\',\'js/dd_belatedpng.js\'))\nresponse.write(\'"></script>\\n\\t<script> DD_belatedPNG.fix(\\\'img, .png_bg\\\'); //fix any <img> or .png_bg background-images </script>\\n\\t<![endif]-->\\n  \', escape=False)\nif response.google_analytics_id:\n    response.write(\'<script type="text/javascript"> var _gaq = _gaq || []; _gaq.push([\\\'_setAccount\\\', \\\'\', escape=False)\n    response.write(response.google_analytics_id)\n    response.write("\']); _gaq.push([\'_trackPageview\']); (function() { var ga = document.createElement(\'script\'); ga.type = \'text/javascript\'; ga.async = true; ga.src = (\'https:\' == document.location.protocol ? \'https://ssl\' : \'http://www\') + \'.google-analytics.com/ga.js\'; var s = document.getElementsByTagName(\'script\')[0]; s.parentNode.insertBefore(ga, s); })(); </script> ", escape=False)\n    pass\nresponse.write(\'\\n</body>\\n</html>\\n\', escape=False)'
p7
sS'snapshot'
p8
(dp9
S'exception'
p10
(dp11
S'__getslice__'
p12
S"<method-wrapper '__getslice__' of exceptions.SyntaxError object>"
p13
sS'text'
p14
S"'if xxx==None\\n'"
p15
sS'__str__'
p16
S"<method-wrapper '__str__' of exceptions.SyntaxError object>"
p17
sS'__reduce__'
p18
S'<built-in method __reduce__ of exceptions.SyntaxError object>'
p19
sS'__dict__'
p20
S'{}'
p21
sS'__sizeof__'
p22
S'<built-in method __sizeof__ of exceptions.SyntaxError object>'
p23
sS'__init__'
p24
S"<method-wrapper '__init__' of exceptions.SyntaxError object>"
p25
sS'__setattr__'
p26
S"<method-wrapper '__setattr__' of exceptions.SyntaxError object>"
p27
sS'__reduce_ex__'
p28
S'<built-in method __reduce_ex__ of exceptions.SyntaxError object>'
p29
sS'__new__'
p30
S'<built-in method __new__ of type object>'
p31
sS'__format__'
p32
S'<built-in method __format__ of exceptions.SyntaxError object>'
p33
sS'__class__'
p34
S"<type 'exceptions.SyntaxError'>"
p35
sS'filename'
p36
S"'/home/vishrut/web2py/applications/astra1/views/default/show.html'"
p37
sS'lineno'
p38
S'88'
p39
sS'msg'
p40
S"'invalid syntax'"
p41
sS'__doc__'
p42
S"'Invalid syntax.'"
p43
sS'__getitem__'
p44
S"<method-wrapper '__getitem__' of exceptions.SyntaxError object>"
p45
sS'__setstate__'
p46
S'<built-in method __setstate__ of exceptions.SyntaxError object>'
p47
sS'__getattribute__'
p48
S"<method-wrapper '__getattribute__' of exceptions.SyntaxError object>"
p49
sS'print_file_and_line'
p50
S'None'
p51
sS'args'
p52
S"('invalid syntax', ('/home/vishrut/web2py/applications/astra1/views/default/show.html', 88, 13, 'if xxx==None\\n'))"
p53
sS'__subclasshook__'
p54
S'<built-in method __subclasshook__ of type object>'
p55
sS'offset'
p56
S'13'
p57
sS'__unicode__'
p58
S'<built-in method __unicode__ of exceptions.SyntaxError object>'
p59
sS'__delattr__'
p60
S"<method-wrapper '__delattr__' of exceptions.SyntaxError object>"
p61
sS'__repr__'
p62
S"<method-wrapper '__repr__' of exceptions.SyntaxError object>"
p63
sS'__hash__'
p64
S"<method-wrapper '__hash__' of exceptions.SyntaxError object>"
p65
ssS'evalue'
p66
S'invalid syntax (show.html, line 88)'
p67
sS'request'
p68
ccopy_reg
_reconstructor
p69
(cgluon.html
BEAUTIFY
p70
c__builtin__
object
p71
NtRp72
(dp73
S'attributes'
p74
(dp75
sS'components'
p76
(lp77
g69
(cgluon.html
TABLE
p78
g71
NtRp79
(dp80
g74
(dp81
S'level'
p82
I5
ssS'parent'
p83
Nsg76
(lp84
g69
(cgluon.html
TR
p85
g71
NtRp86
(dp87
g74
(dp88
sg83
g79
sg76
(lp89
g69
(cgluon.html
TD
p90
g71
NtRp91
(dp92
g74
(dp93
S'_style'
p94
S'font-weight:bold;vertical-align:top'
p95
ssg83
g86
sg76
(lp96
S'ajax'
p97
asbag69
(g90
g71
NtRp98
(dp99
g74
(dp100
S'_valign'
p101
S'top'
p102
ssg83
g86
sg76
(lp103
S':'
asbag69
(g90
g71
NtRp104
(dp105
g74
(dp106
sg83
g86
sg76
(lp107
g69
(g70
g71
NtRp108
(dp109
g74
(dp110
g82
I5
ssg83
g104
sg76
(lp111
S'False'
p112
asbasbasbag69
(g85
g71
NtRp113
(dp114
g74
(dp115
sg83
g79
sg76
(lp116
g69
(g90
g71
NtRp117
(dp118
g74
(dp119
g94
g95
ssg83
g113
sg76
(lp120
S'application'
p121
asbag69
(g90
g71
NtRp122
(dp123
g74
(dp124
g101
g102
ssg83
g113
sg76
(lp125
S':'
asbag69
(g90
g71
NtRp126
(dp127
g74
(dp128
sg83
g113
sg76
(lp129
g69
(g70
g71
NtRp130
(dp131
g74
(dp132
g82
I5
ssg83
g126
sg76
(lp133
S'astra1'
p134
asbasbasbag69
(g85
g71
NtRp135
(dp136
g74
(dp137
sg83
g79
sg76
(lp138
g69
(g90
g71
NtRp139
(dp140
g74
(dp141
g94
g95
ssg83
g135
sg76
(lp142
g52
asbag69
(g90
g71
NtRp143
(dp144
g74
(dp145
g101
g102
ssg83
g135
sg76
(lp146
S':'
asbag69
(g90
g71
NtRp147
(dp148
g74
(dp149
sg83
g135
sg76
(lp150
g69
(g70
g71
NtRp151
(dp152
g74
(dp153
g82
I5
ssg83
g147
sg76
(lp154
g69
(g78
g71
NtRp155
(dp156
g74
(dp157
g82
I4
ssg83
Nsg76
(lp158
sbasbasbasbag69
(g85
g71
NtRp159
(dp160
g74
(dp161
sg83
g79
sg76
(lp162
g69
(g90
g71
NtRp163
(dp164
g74
(dp165
g94
g95
ssg83
g159
sg76
(lp166
S'body'
p167
asbag69
(g90
g71
NtRp168
(dp169
g74
(dp170
g101
g102
ssg83
g159
sg76
(lp171
S':'
asbag69
(g90
g71
NtRp172
(dp173
g74
(dp174
sg83
g159
sg76
(lp175
g69
(g70
g71
NtRp176
(dp177
g74
(dp178
g82
I5
ssg83
g172
sg76
(lp179
S'<cStringIO.StringO object at 0xab5ac80>'
p180
asbasbasbag69
(g85
g71
NtRp181
(dp182
g74
(dp183
sg83
g79
sg76
(lp184
g69
(g90
g71
NtRp185
(dp186
g74
(dp187
g94
g95
ssg83
g181
sg76
(lp188
S'client'
p189
asbag69
(g90
g71
NtRp190
(dp191
g74
(dp192
g101
g102
ssg83
g181
sg76
(lp193
S':'
asbag69
(g90
g71
NtRp194
(dp195
g74
(dp196
sg83
g181
sg76
(lp197
g69
(g70
g71
NtRp198
(dp199
g74
(dp200
g82
I5
ssg83
g194
sg76
(lp201
S'127.0.0.1'
p202
asbasbasbag69
(g85
g71
NtRp203
(dp204
g74
(dp205
sg83
g79
sg76
(lp206
g69
(g90
g71
NtRp207
(dp208
g74
(dp209
g94
g95
ssg83
g203
sg76
(lp210
S'controller'
p211
asbag69
(g90
g71
NtRp212
(dp213
g74
(dp214
g101
g102
ssg83
g203
sg76
(lp215
S':'
asbag69
(g90
g71
NtRp216
(dp217
g74
(dp218
sg83
g203
sg76
(lp219
g69
(g70
g71
NtRp220
(dp221
g74
(dp222
g82
I5
ssg83
g216
sg76
(lp223
S'default'
p224
asbasbasbag69
(g85
g71
NtRp225
(dp226
g74
(dp227
sg83
g79
sg76
(lp228
g69
(g90
g71
NtRp229
(dp230
g74
(dp231
g94
g95
ssg83
g225
sg76
(lp232
S'cookies'
p233
asbag69
(g90
g71
NtRp234
(dp235
g74
(dp236
g101
g102
ssg83
g225
sg76
(lp237
S':'
asbag69
(g90
g71
NtRp238
(dp239
g74
(dp240
sg83
g225
sg76
(lp241
g69
(g70
g71
NtRp242
(dp243
g74
(dp244
g82
I5
ssg83
g238
sg76
(lp245
g69
(g78
g71
NtRp246
(dp247
g74
(dp248
g82
I4
ssg83
Nsg76
(lp249
g69
(g85
g71
NtRp250
(dp251
g74
(dp252
sg83
g246
sg76
(lp253
g69
(g90
g71
NtRp254
(dp255
g74
(dp256
g94
g95
ssg83
g250
sg76
(lp257
S'session_id_admin'
p258
asbag69
(g90
g71
NtRp259
(dp260
g74
(dp261
g101
g102
ssg83
g250
sg76
(lp262
S':'
asbag69
(g90
g71
NtRp263
(dp264
g74
(dp265
sg83
g250
sg76
(lp266
g69
(g70
g71
NtRp267
(dp268
g74
(dp269
g82
I4
ssg83
g263
sg76
(lp270
g69
(g78
g71
NtRp271
(dp272
g74
(dp273
g82
I3
ssg83
Nsg76
(lp274
g69
(g85
g71
NtRp275
(dp276
g74
(dp277
sg83
g271
sg76
(lp278
g69
(g90
g71
NtRp279
(dp280
g74
(dp281
g94
g95
ssg83
g275
sg76
(lp282
S'comment'
p283
asbag69
(g90
g71
NtRp284
(dp285
g74
(dp286
g101
g102
ssg83
g275
sg76
(lp287
S':'
asbag69
(g90
g71
NtRp288
(dp289
g74
(dp290
sg83
g275
sg76
(lp291
g69
(g70
g71
NtRp292
(dp293
g74
(dp294
g82
I3
ssg83
g288
sg76
(lp295
S''
asbasbasbag69
(g85
g71
NtRp296
(dp297
g74
(dp298
sg83
g271
sg76
(lp299
g69
(g90
g71
NtRp300
(dp301
g74
(dp302
g94
g95
ssg83
g296
sg76
(lp303
S'domain'
p304
asbag69
(g90
g71
NtRp305
(dp306
g74
(dp307
g101
g102
ssg83
g296
sg76
(lp308
S':'
asbag69
(g90
g71
NtRp309
(dp310
g74
(dp311
sg83
g296
sg76
(lp312
g69
(g70
g71
NtRp313
(dp314
g74
(dp315
g82
I3
ssg83
g309
sg76
(lp316
S''
asbasbasbag69
(g85
g71
NtRp317
(dp318
g74
(dp319
sg83
g271
sg76
(lp320
g69
(g90
g71
NtRp321
(dp322
g74
(dp323
g94
g95
ssg83
g317
sg76
(lp324
S'expires'
p325
asbag69
(g90
g71
NtRp326
(dp327
g74
(dp328
g101
g102
ssg83
g317
sg76
(lp329
S':'
asbag69
(g90
g71
NtRp330
(dp331
g74
(dp332
sg83
g317
sg76
(lp333
g69
(g70
g71
NtRp334
(dp335
g74
(dp336
g82
I3
ssg83
g330
sg76
(lp337
S''
asbasbasbag69
(g85
g71
NtRp338
(dp339
g74
(dp340
sg83
g271
sg76
(lp341
g69
(g90
g71
NtRp342
(dp343
g74
(dp344
g94
g95
ssg83
g338
sg76
(lp345
S'httponly'
p346
asbag69
(g90
g71
NtRp347
(dp348
g74
(dp349
g101
g102
ssg83
g338
sg76
(lp350
S':'
asbag69
(g90
g71
NtRp351
(dp352
g74
(dp353
sg83
g338
sg76
(lp354
g69
(g70
g71
NtRp355
(dp356
g74
(dp357
g82
I3
ssg83
g351
sg76
(lp358
S''
asbasbasbag69
(g85
g71
NtRp359
(dp360
g74
(dp361
sg83
g271
sg76
(lp362
g69
(g90
g71
NtRp363
(dp364
g74
(dp365
g94
g95
ssg83
g359
sg76
(lp366
S'max-age'
p367
asbag69
(g90
g71
NtRp368
(dp369
g74
(dp370
g101
g102
ssg83
g359
sg76
(lp371
S':'
asbag69
(g90
g71
NtRp372
(dp373
g74
(dp374
sg83
g359
sg76
(lp375
g69
(g70
g71
NtRp376
(dp377
g74
(dp378
g82
I3
ssg83
g372
sg76
(lp379
S''
asbasbasbag69
(g85
g71
NtRp380
(dp381
g74
(dp382
sg83
g271
sg76
(lp383
g69
(g90
g71
NtRp384
(dp385
g74
(dp386
g94
g95
ssg83
g380
sg76
(lp387
S'path'
p388
asbag69
(g90
g71
NtRp389
(dp390
g74
(dp391
g101
g102
ssg83
g380
sg76
(lp392
S':'
asbag69
(g90
g71
NtRp393
(dp394
g74
(dp395
sg83
g380
sg76
(lp396
g69
(g70
g71
NtRp397
(dp398
g74
(dp399
g82
I3
ssg83
g393
sg76
(lp400
S''
asbasbasbag69
(g85
g71
NtRp401
(dp402
g74
(dp403
sg83
g271
sg76
(lp404
g69
(g90
g71
NtRp405
(dp406
g74
(dp407
g94
g95
ssg83
g401
sg76
(lp408
S'secure'
p409
asbag69
(g90
g71
NtRp410
(dp411
g74
(dp412
g101
g102
ssg83
g401
sg76
(lp413
S':'
asbag69
(g90
g71
NtRp414
(dp415
g74
(dp416
sg83
g401
sg76
(lp417
g69
(g70
g71
NtRp418
(dp419
g74
(dp420
g82
I3
ssg83
g414
sg76
(lp421
S''
asbasbasbag69
(g85
g71
NtRp422
(dp423
g74
(dp424
sg83
g271
sg76
(lp425
g69
(g90
g71
NtRp426
(dp427
g74
(dp428
g94
g95
ssg83
g422
sg76
(lp429
S'version'
p430
asbag69
(g90
g71
NtRp431
(dp432
g74
(dp433
g101
g102
ssg83
g422
sg76
(lp434
S':'
asbag69
(g90
g71
NtRp435
(dp436
g74
(dp437
sg83
g422
sg76
(lp438
g69
(g70
g71
NtRp439
(dp440
g74
(dp441
g82
I3
ssg83
g435
sg76
(lp442
S''
asbasbasbasbasbasbasbag69
(g85
g71
NtRp443
(dp444
g74
(dp445
sg83
g246
sg76
(lp446
g69
(g90
g71
NtRp447
(dp448
g74
(dp449
g94
g95
ssg83
g443
sg76
(lp450
S'session_id_astra1'
p451
asbag69
(g90
g71
NtRp452
(dp453
g74
(dp454
g101
g102
ssg83
g443
sg76
(lp455
S':'
asbag69
(g90
g71
NtRp456
(dp457
g74
(dp458
sg83
g443
sg76
(lp459
g69
(g70
g71
NtRp460
(dp461
g74
(dp462
g82
I4
ssg83
g456
sg76
(lp463
g69
(g78
g71
NtRp464
(dp465
g74
(dp466
g82
I3
ssg83
Nsg76
(lp467
g69
(g85
g71
NtRp468
(dp469
g74
(dp470
sg83
g464
sg76
(lp471
g69
(g90
g71
NtRp472
(dp473
g74
(dp474
g94
g95
ssg83
g468
sg76
(lp475
g283
asbag69
(g90
g71
NtRp476
(dp477
g74
(dp478
g101
g102
ssg83
g468
sg76
(lp479
S':'
asbag69
(g90
g71
NtRp480
(dp481
g74
(dp482
sg83
g468
sg76
(lp483
g69
(g70
g71
NtRp484
(dp485
g74
(dp486
g82
I3
ssg83
g480
sg76
(lp487
S''
asbasbasbag69
(g85
g71
NtRp488
(dp489
g74
(dp490
sg83
g464
sg76
(lp491
g69
(g90
g71
NtRp492
(dp493
g74
(dp494
g94
g95
ssg83
g488
sg76
(lp495
g304
asbag69
(g90
g71
NtRp496
(dp497
g74
(dp498
g101
g102
ssg83
g488
sg76
(lp499
S':'
asbag69
(g90
g71
NtRp500
(dp501
g74
(dp502
sg83
g488
sg76
(lp503
g69
(g70
g71
NtRp504
(dp505
g74
(dp506
g82
I3
ssg83
g500
sg76
(lp507
S''
asbasbasbag69
(g85
g71
NtRp508
(dp509
g74
(dp510
sg83
g464
sg76
(lp511
g69
(g90
g71
NtRp512
(dp513
g74
(dp514
g94
g95
ssg83
g508
sg76
(lp515
g325
asbag69
(g90
g71
NtRp516
(dp517
g74
(dp518
g101
g102
ssg83
g508
sg76
(lp519
S':'
asbag69
(g90
g71
NtRp520
(dp521
g74
(dp522
sg83
g508
sg76
(lp523
g69
(g70
g71
NtRp524
(dp525
g74
(dp526
g82
I3
ssg83
g520
sg76
(lp527
S''
asbasbasbag69
(g85
g71
NtRp528
(dp529
g74
(dp530
sg83
g464
sg76
(lp531
g69
(g90
g71
NtRp532
(dp533
g74
(dp534
g94
g95
ssg83
g528
sg76
(lp535
g346
asbag69
(g90
g71
NtRp536
(dp537
g74
(dp538
g101
g102
ssg83
g528
sg76
(lp539
S':'
asbag69
(g90
g71
NtRp540
(dp541
g74
(dp542
sg83
g528
sg76
(lp543
g69
(g70
g71
NtRp544
(dp545
g74
(dp546
g82
I3
ssg83
g540
sg76
(lp547
S''
asbasbasbag69
(g85
g71
NtRp548
(dp549
g74
(dp550
sg83
g464
sg76
(lp551
g69
(g90
g71
NtRp552
(dp553
g74
(dp554
g94
g95
ssg83
g548
sg76
(lp555
g367
asbag69
(g90
g71
NtRp556
(dp557
g74
(dp558
g101
g102
ssg83
g548
sg76
(lp559
S':'
asbag69
(g90
g71
NtRp560
(dp561
g74
(dp562
sg83
g548
sg76
(lp563
g69
(g70
g71
NtRp564
(dp565
g74
(dp566
g82
I3
ssg83
g560
sg76
(lp567
S''
asbasbasbag69
(g85
g71
NtRp568
(dp569
g74
(dp570
sg83
g464
sg76
(lp571
g69
(g90
g71
NtRp572
(dp573
g74
(dp574
g94
g95
ssg83
g568
sg76
(lp575
g388
asbag69
(g90
g71
NtRp576
(dp577
g74
(dp578
g101
g102
ssg83
g568
sg76
(lp579
S':'
asbag69
(g90
g71
NtRp580
(dp581
g74
(dp582
sg83
g568
sg76
(lp583
g69
(g70
g71
NtRp584
(dp585
g74
(dp586
g82
I3
ssg83
g580
sg76
(lp587
S''
asbasbasbag69
(g85
g71
NtRp588
(dp589
g74
(dp590
sg83
g464
sg76
(lp591
g69
(g90
g71
NtRp592
(dp593
g74
(dp594
g94
g95
ssg83
g588
sg76
(lp595
g409
asbag69
(g90
g71
NtRp596
(dp597
g74
(dp598
g101
g102
ssg83
g588
sg76
(lp599
S':'
asbag69
(g90
g71
NtRp600
(dp601
g74
(dp602
sg83
g588
sg76
(lp603
g69
(g70
g71
NtRp604
(dp605
g74
(dp606
g82
I3
ssg83
g600
sg76
(lp607
S''
asbasbasbag69
(g85
g71
NtRp608
(dp609
g74
(dp610
sg83
g464
sg76
(lp611
g69
(g90
g71
NtRp612
(dp613
g74
(dp614
g94
g95
ssg83
g608
sg76
(lp615
g430
asbag69
(g90
g71
NtRp616
(dp617
g74
(dp618
g101
g102
ssg83
g608
sg76
(lp619
S':'
asbag69
(g90
g71
NtRp620
(dp621
g74
(dp622
sg83
g608
sg76
(lp623
g69
(g70
g71
NtRp624
(dp625
g74
(dp626
g82
I3
ssg83
g620
sg76
(lp627
S''
asbasbasbasbasbasbasbag69
(g85
g71
NtRp628
(dp629
g74
(dp630
sg83
g246
sg76
(lp631
g69
(g90
g71
NtRp632
(dp633
g74
(dp634
g94
g95
ssg83
g628
sg76
(lp635
S'session_id_music'
p636
asbag69
(g90
g71
NtRp637
(dp638
g74
(dp639
g101
g102
ssg83
g628
sg76
(lp640
S':'
asbag69
(g90
g71
NtRp641
(dp642
g74
(dp643
sg83
g628
sg76
(lp644
g69
(g70
g71
NtRp645
(dp646
g74
(dp647
g82
I4
ssg83
g641
sg76
(lp648
g69
(g78
g71
NtRp649
(dp650
g74
(dp651
g82
I3
ssg83
Nsg76
(lp652
g69
(g85
g71
NtRp653
(dp654
g74
(dp655
sg83
g649
sg76
(lp656
g69
(g90
g71
NtRp657
(dp658
g74
(dp659
g94
g95
ssg83
g653
sg76
(lp660
g283
asbag69
(g90
g71
NtRp661
(dp662
g74
(dp663
g101
g102
ssg83
g653
sg76
(lp664
S':'
asbag69
(g90
g71
NtRp665
(dp666
g74
(dp667
sg83
g653
sg76
(lp668
g69
(g70
g71
NtRp669
(dp670
g74
(dp671
g82
I3
ssg83
g665
sg76
(lp672
S''
asbasbasbag69
(g85
g71
NtRp673
(dp674
g74
(dp675
sg83
g649
sg76
(lp676
g69
(g90
g71
NtRp677
(dp678
g74
(dp679
g94
g95
ssg83
g673
sg76
(lp680
g304
asbag69
(g90
g71
NtRp681
(dp682
g74
(dp683
g101
g102
ssg83
g673
sg76
(lp684
S':'
asbag69
(g90
g71
NtRp685
(dp686
g74
(dp687
sg83
g673
sg76
(lp688
g69
(g70
g71
NtRp689
(dp690
g74
(dp691
g82
I3
ssg83
g685
sg76
(lp692
S''
asbasbasbag69
(g85
g71
NtRp693
(dp694
g74
(dp695
sg83
g649
sg76
(lp696
g69
(g90
g71
NtRp697
(dp698
g74
(dp699
g94
g95
ssg83
g693
sg76
(lp700
g325
asbag69
(g90
g71
NtRp701
(dp702
g74
(dp703
g101
g102
ssg83
g693
sg76
(lp704
S':'
asbag69
(g90
g71
NtRp705
(dp706
g74
(dp707
sg83
g693
sg76
(lp708
g69
(g70
g71
NtRp709
(dp710
g74
(dp711
g82
I3
ssg83
g705
sg76
(lp712
S''
asbasbasbag69
(g85
g71
NtRp713
(dp714
g74
(dp715
sg83
g649
sg76
(lp716
g69
(g90
g71
NtRp717
(dp718
g74
(dp719
g94
g95
ssg83
g713
sg76
(lp720
g346
asbag69
(g90
g71
NtRp721
(dp722
g74
(dp723
g101
g102
ssg83
g713
sg76
(lp724
S':'
asbag69
(g90
g71
NtRp725
(dp726
g74
(dp727
sg83
g713
sg76
(lp728
g69
(g70
g71
NtRp729
(dp730
g74
(dp731
g82
I3
ssg83
g725
sg76
(lp732
S''
asbasbasbag69
(g85
g71
NtRp733
(dp734
g74
(dp735
sg83
g649
sg76
(lp736
g69
(g90
g71
NtRp737
(dp738
g74
(dp739
g94
g95
ssg83
g733
sg76
(lp740
g367
asbag69
(g90
g71
NtRp741
(dp742
g74
(dp743
g101
g102
ssg83
g733
sg76
(lp744
S':'
asbag69
(g90
g71
NtRp745
(dp746
g74
(dp747
sg83
g733
sg76
(lp748
g69
(g70
g71
NtRp749
(dp750
g74
(dp751
g82
I3
ssg83
g745
sg76
(lp752
S''
asbasbasbag69
(g85
g71
NtRp753
(dp754
g74
(dp755
sg83
g649
sg76
(lp756
g69
(g90
g71
NtRp757
(dp758
g74
(dp759
g94
g95
ssg83
g753
sg76
(lp760
g388
asbag69
(g90
g71
NtRp761
(dp762
g74
(dp763
g101
g102
ssg83
g753
sg76
(lp764
S':'
asbag69
(g90
g71
NtRp765
(dp766
g74
(dp767
sg83
g753
sg76
(lp768
g69
(g70
g71
NtRp769
(dp770
g74
(dp771
g82
I3
ssg83
g765
sg76
(lp772
S''
asbasbasbag69
(g85
g71
NtRp773
(dp774
g74
(dp775
sg83
g649
sg76
(lp776
g69
(g90
g71
NtRp777
(dp778
g74
(dp779
g94
g95
ssg83
g773
sg76
(lp780
g409
asbag69
(g90
g71
NtRp781
(dp782
g74
(dp783
g101
g102
ssg83
g773
sg76
(lp784
S':'
asbag69
(g90
g71
NtRp785
(dp786
g74
(dp787
sg83
g773
sg76
(lp788
g69
(g70
g71
NtRp789
(dp790
g74
(dp791
g82
I3
ssg83
g785
sg76
(lp792
S''
asbasbasbag69
(g85
g71
NtRp793
(dp794
g74
(dp795
sg83
g649
sg76
(lp796
g69
(g90
g71
NtRp797
(dp798
g74
(dp799
g94
g95
ssg83
g793
sg76
(lp800
g430
asbag69
(g90
g71
NtRp801
(dp802
g74
(dp803
g101
g102
ssg83
g793
sg76
(lp804
S':'
asbag69
(g90
g71
NtRp805
(dp806
g74
(dp807
sg83
g793
sg76
(lp808
g69
(g70
g71
NtRp809
(dp810
g74
(dp811
g82
I3
ssg83
g805
sg76
(lp812
S''
asbasbasbasbasbasbasbag69
(g85
g71
NtRp813
(dp814
g74
(dp815
sg83
g246
sg76
(lp816
g69
(g90
g71
NtRp817
(dp818
g74
(dp819
g94
g95
ssg83
g813
sg76
(lp820
S'session_id_music_library'
p821
asbag69
(g90
g71
NtRp822
(dp823
g74
(dp824
g101
g102
ssg83
g813
sg76
(lp825
S':'
asbag69
(g90
g71
NtRp826
(dp827
g74
(dp828
sg83
g813
sg76
(lp829
g69
(g70
g71
NtRp830
(dp831
g74
(dp832
g82
I4
ssg83
g826
sg76
(lp833
g69
(g78
g71
NtRp834
(dp835
g74
(dp836
g82
I3
ssg83
Nsg76
(lp837
g69
(g85
g71
NtRp838
(dp839
g74
(dp840
sg83
g834
sg76
(lp841
g69
(g90
g71
NtRp842
(dp843
g74
(dp844
g94
g95
ssg83
g838
sg76
(lp845
g283
asbag69
(g90
g71
NtRp846
(dp847
g74
(dp848
g101
g102
ssg83
g838
sg76
(lp849
S':'
asbag69
(g90
g71
NtRp850
(dp851
g74
(dp852
sg83
g838
sg76
(lp853
g69
(g70
g71
NtRp854
(dp855
g74
(dp856
g82
I3
ssg83
g850
sg76
(lp857
S''
asbasbasbag69
(g85
g71
NtRp858
(dp859
g74
(dp860
sg83
g834
sg76
(lp861
g69
(g90
g71
NtRp862
(dp863
g74
(dp864
g94
g95
ssg83
g858
sg76
(lp865
g304
asbag69
(g90
g71
NtRp866
(dp867
g74
(dp868
g101
g102
ssg83
g858
sg76
(lp869
S':'
asbag69
(g90
g71
NtRp870
(dp871
g74
(dp872
sg83
g858
sg76
(lp873
g69
(g70
g71
NtRp874
(dp875
g74
(dp876
g82
I3
ssg83
g870
sg76
(lp877
S''
asbasbasbag69
(g85
g71
NtRp878
(dp879
g74
(dp880
sg83
g834
sg76
(lp881
g69
(g90
g71
NtRp882
(dp883
g74
(dp884
g94
g95
ssg83
g878
sg76
(lp885
g325
asbag69
(g90
g71
NtRp886
(dp887
g74
(dp888
g101
g102
ssg83
g878
sg76
(lp889
S':'
asbag69
(g90
g71
NtRp890
(dp891
g74
(dp892
sg83
g878
sg76
(lp893
g69
(g70
g71
NtRp894
(dp895
g74
(dp896
g82
I3
ssg83
g890
sg76
(lp897
S''
asbasbasbag69
(g85
g71
NtRp898
(dp899
g74
(dp900
sg83
g834
sg76
(lp901
g69
(g90
g71
NtRp902
(dp903
g74
(dp904
g94
g95
ssg83
g898
sg76
(lp905
g346
asbag69
(g90
g71
NtRp906
(dp907
g74
(dp908
g101
g102
ssg83
g898
sg76
(lp909
S':'
asbag69
(g90
g71
NtRp910
(dp911
g74
(dp912
sg83
g898
sg76
(lp913
g69
(g70
g71
NtRp914
(dp915
g74
(dp916
g82
I3
ssg83
g910
sg76
(lp917
S''
asbasbasbag69
(g85
g71
NtRp918
(dp919
g74
(dp920
sg83
g834
sg76
(lp921
g69
(g90
g71
NtRp922
(dp923
g74
(dp924
g94
g95
ssg83
g918
sg76
(lp925
g367
asbag69
(g90
g71
NtRp926
(dp927
g74
(dp928
g101
g102
ssg83
g918
sg76
(lp929
S':'
asbag69
(g90
g71
NtRp930
(dp931
g74
(dp932
sg83
g918
sg76
(lp933
g69
(g70
g71
NtRp934
(dp935
g74
(dp936
g82
I3
ssg83
g930
sg76
(lp937
S''
asbasbasbag69
(g85
g71
NtRp938
(dp939
g74
(dp940
sg83
g834
sg76
(lp941
g69
(g90
g71
NtRp942
(dp943
g74
(dp944
g94
g95
ssg83
g938
sg76
(lp945
g388
asbag69
(g90
g71
NtRp946
(dp947
g74
(dp948
g101
g102
ssg83
g938
sg76
(lp949
S':'
asbag69
(g90
g71
NtRp950
(dp951
g74
(dp952
sg83
g938
sg76
(lp953
g69
(g70
g71
NtRp954
(dp955
g74
(dp956
g82
I3
ssg83
g950
sg76
(lp957
S''
asbasbasbag69
(g85
g71
NtRp958
(dp959
g74
(dp960
sg83
g834
sg76
(lp961
g69
(g90
g71
NtRp962
(dp963
g74
(dp964
g94
g95
ssg83
g958
sg76
(lp965
g409
asbag69
(g90
g71
NtRp966
(dp967
g74
(dp968
g101
g102
ssg83
g958
sg76
(lp969
S':'
asbag69
(g90
g71
NtRp970
(dp971
g74
(dp972
sg83
g958
sg76
(lp973
g69
(g70
g71
NtRp974
(dp975
g74
(dp976
g82
I3
ssg83
g970
sg76
(lp977
S''
asbasbasbag69
(g85
g71
NtRp978
(dp979
g74
(dp980
sg83
g834
sg76
(lp981
g69
(g90
g71
NtRp982
(dp983
g74
(dp984
g94
g95
ssg83
g978
sg76
(lp985
g430
asbag69
(g90
g71
NtRp986
(dp987
g74
(dp988
g101
g102
ssg83
g978
sg76
(lp989
S':'
asbag69
(g90
g71
NtRp990
(dp991
g74
(dp992
sg83
g978
sg76
(lp993
g69
(g70
g71
NtRp994
(dp995
g74
(dp996
g82
I3
ssg83
g990
sg76
(lp997
S''
asbasbasbasbasbasbasbag69
(g85
g71
NtRp998
(dp999
g74
(dp1000
sg83
g246
sg76
(lp1001
g69
(g90
g71
NtRp1002
(dp1003
g74
(dp1004
g94
g95
ssg83
g998
sg76
(lp1005
S'session_id_photouploader'
p1006
asbag69
(g90
g71
NtRp1007
(dp1008
g74
(dp1009
g101
g102
ssg83
g998
sg76
(lp1010
S':'
asbag69
(g90
g71
NtRp1011
(dp1012
g74
(dp1013
sg83
g998
sg76
(lp1014
g69
(g70
g71
NtRp1015
(dp1016
g74
(dp1017
g82
I4
ssg83
g1011
sg76
(lp1018
g69
(g78
g71
NtRp1019
(dp1020
g74
(dp1021
g82
I3
ssg83
Nsg76
(lp1022
g69
(g85
g71
NtRp1023
(dp1024
g74
(dp1025
sg83
g1019
sg76
(lp1026
g69
(g90
g71
NtRp1027
(dp1028
g74
(dp1029
g94
g95
ssg83
g1023
sg76
(lp1030
g283
asbag69
(g90
g71
NtRp1031
(dp1032
g74
(dp1033
g101
g102
ssg83
g1023
sg76
(lp1034
S':'
asbag69
(g90
g71
NtRp1035
(dp1036
g74
(dp1037
sg83
g1023
sg76
(lp1038
g69
(g70
g71
NtRp1039
(dp1040
g74
(dp1041
g82
I3
ssg83
g1035
sg76
(lp1042
S''
asbasbasbag69
(g85
g71
NtRp1043
(dp1044
g74
(dp1045
sg83
g1019
sg76
(lp1046
g69
(g90
g71
NtRp1047
(dp1048
g74
(dp1049
g94
g95
ssg83
g1043
sg76
(lp1050
g304
asbag69
(g90
g71
NtRp1051
(dp1052
g74
(dp1053
g101
g102
ssg83
g1043
sg76
(lp1054
S':'
asbag69
(g90
g71
NtRp1055
(dp1056
g74
(dp1057
sg83
g1043
sg76
(lp1058
g69
(g70
g71
NtRp1059
(dp1060
g74
(dp1061
g82
I3
ssg83
g1055
sg76
(lp1062
S''
asbasbasbag69
(g85
g71
NtRp1063
(dp1064
g74
(dp1065
sg83
g1019
sg76
(lp1066
g69
(g90
g71
NtRp1067
(dp1068
g74
(dp1069
g94
g95
ssg83
g1063
sg76
(lp1070
g325
asbag69
(g90
g71
NtRp1071
(dp1072
g74
(dp1073
g101
g102
ssg83
g1063
sg76
(lp1074
S':'
asbag69
(g90
g71
NtRp1075
(dp1076
g74
(dp1077
sg83
g1063
sg76
(lp1078
g69
(g70
g71
NtRp1079
(dp1080
g74
(dp1081
g82
I3
ssg83
g1075
sg76
(lp1082
S''
asbasbasbag69
(g85
g71
NtRp1083
(dp1084
g74
(dp1085
sg83
g1019
sg76
(lp1086
g69
(g90
g71
NtRp1087
(dp1088
g74
(dp1089
g94
g95
ssg83
g1083
sg76
(lp1090
g346
asbag69
(g90
g71
NtRp1091
(dp1092
g74
(dp1093
g101
g102
ssg83
g1083
sg76
(lp1094
S':'
asbag69
(g90
g71
NtRp1095
(dp1096
g74
(dp1097
sg83
g1083
sg76
(lp1098
g69
(g70
g71
NtRp1099
(dp1100
g74
(dp1101
g82
I3
ssg83
g1095
sg76
(lp1102
S''
asbasbasbag69
(g85
g71
NtRp1103
(dp1104
g74
(dp1105
sg83
g1019
sg76
(lp1106
g69
(g90
g71
NtRp1107
(dp1108
g74
(dp1109
g94
g95
ssg83
g1103
sg76
(lp1110
g367
asbag69
(g90
g71
NtRp1111
(dp1112
g74
(dp1113
g101
g102
ssg83
g1103
sg76
(lp1114
S':'
asbag69
(g90
g71
NtRp1115
(dp1116
g74
(dp1117
sg83
g1103
sg76
(lp1118
g69
(g70
g71
NtRp1119
(dp1120
g74
(dp1121
g82
I3
ssg83
g1115
sg76
(lp1122
S''
asbasbasbag69
(g85
g71
NtRp1123
(dp1124
g74
(dp1125
sg83
g1019
sg76
(lp1126
g69
(g90
g71
NtRp1127
(dp1128
g74
(dp1129
g94
g95
ssg83
g1123
sg76
(lp1130
g388
asbag69
(g90
g71
NtRp1131
(dp1132
g74
(dp1133
g101
g102
ssg83
g1123
sg76
(lp1134
S':'
asbag69
(g90
g71
NtRp1135
(dp1136
g74
(dp1137
sg83
g1123
sg76
(lp1138
g69
(g70
g71
NtRp1139
(dp1140
g74
(dp1141
g82
I3
ssg83
g1135
sg76
(lp1142
S''
asbasbasbag69
(g85
g71
NtRp1143
(dp1144
g74
(dp1145
sg83
g1019
sg76
(lp1146
g69
(g90
g71
NtRp1147
(dp1148
g74
(dp1149
g94
g95
ssg83
g1143
sg76
(lp1150
g409
asbag69
(g90
g71
NtRp1151
(dp1152
g74
(dp1153
g101
g102
ssg83
g1143
sg76
(lp1154
S':'
asbag69
(g90
g71
NtRp1155
(dp1156
g74
(dp1157
sg83
g1143
sg76
(lp1158
g69
(g70
g71
NtRp1159
(dp1160
g74
(dp1161
g82
I3
ssg83
g1155
sg76
(lp1162
S''
asbasbasbag69
(g85
g71
NtRp1163
(dp1164
g74
(dp1165
sg83
g1019
sg76
(lp1166
g69
(g90
g71
NtRp1167
(dp1168
g74
(dp1169
g94
g95
ssg83
g1163
sg76
(lp1170
g430
asbag69
(g90
g71
NtRp1171
(dp1172
g74
(dp1173
g101
g102
ssg83
g1163
sg76
(lp1174
S':'
asbag69
(g90
g71
NtRp1175
(dp1176
g74
(dp1177
sg83
g1163
sg76
(lp1178
g69
(g70
g71
NtRp1179
(dp1180
g74
(dp1181
g82
I3
ssg83
g1175
sg76
(lp1182
S''
asbasbasbasbasbasbasbag69
(g85
g71
NtRp1183
(dp1184
g74
(dp1185
sg83
g246
sg76
(lp1186
g69
(g90
g71
NtRp1187
(dp1188
g74
(dp1189
g94
g95
ssg83
g1183
sg76
(lp1190
S'session_id_sudoku'
p1191
asbag69
(g90
g71
NtRp1192
(dp1193
g74
(dp1194
g101
g102
ssg83
g1183
sg76
(lp1195
S':'
asbag69
(g90
g71
NtRp1196
(dp1197
g74
(dp1198
sg83
g1183
sg76
(lp1199
g69
(g70
g71
NtRp1200
(dp1201
g74
(dp1202
g82
I4
ssg83
g1196
sg76
(lp1203
g69
(g78
g71
NtRp1204
(dp1205
g74
(dp1206
g82
I3
ssg83
Nsg76
(lp1207
g69
(g85
g71
NtRp1208
(dp1209
g74
(dp1210
sg83
g1204
sg76
(lp1211
g69
(g90
g71
NtRp1212
(dp1213
g74
(dp1214
g94
g95
ssg83
g1208
sg76
(lp1215
g283
asbag69
(g90
g71
NtRp1216
(dp1217
g74
(dp1218
g101
g102
ssg83
g1208
sg76
(lp1219
S':'
asbag69
(g90
g71
NtRp1220
(dp1221
g74
(dp1222
sg83
g1208
sg76
(lp1223
g69
(g70
g71
NtRp1224
(dp1225
g74
(dp1226
g82
I3
ssg83
g1220
sg76
(lp1227
S''
asbasbasbag69
(g85
g71
NtRp1228
(dp1229
g74
(dp1230
sg83
g1204
sg76
(lp1231
g69
(g90
g71
NtRp1232
(dp1233
g74
(dp1234
g94
g95
ssg83
g1228
sg76
(lp1235
g304
asbag69
(g90
g71
NtRp1236
(dp1237
g74
(dp1238
g101
g102
ssg83
g1228
sg76
(lp1239
S':'
asbag69
(g90
g71
NtRp1240
(dp1241
g74
(dp1242
sg83
g1228
sg76
(lp1243
g69
(g70
g71
NtRp1244
(dp1245
g74
(dp1246
g82
I3
ssg83
g1240
sg76
(lp1247
S''
asbasbasbag69
(g85
g71
NtRp1248
(dp1249
g74
(dp1250
sg83
g1204
sg76
(lp1251
g69
(g90
g71
NtRp1252
(dp1253
g74
(dp1254
g94
g95
ssg83
g1248
sg76
(lp1255
g325
asbag69
(g90
g71
NtRp1256
(dp1257
g74
(dp1258
g101
g102
ssg83
g1248
sg76
(lp1259
S':'
asbag69
(g90
g71
NtRp1260
(dp1261
g74
(dp1262
sg83
g1248
sg76
(lp1263
g69
(g70
g71
NtRp1264
(dp1265
g74
(dp1266
g82
I3
ssg83
g1260
sg76
(lp1267
S''
asbasbasbag69
(g85
g71
NtRp1268
(dp1269
g74
(dp1270
sg83
g1204
sg76
(lp1271
g69
(g90
g71
NtRp1272
(dp1273
g74
(dp1274
g94
g95
ssg83
g1268
sg76
(lp1275
g346
asbag69
(g90
g71
NtRp1276
(dp1277
g74
(dp1278
g101
g102
ssg83
g1268
sg76
(lp1279
S':'
asbag69
(g90
g71
NtRp1280
(dp1281
g74
(dp1282
sg83
g1268
sg76
(lp1283
g69
(g70
g71
NtRp1284
(dp1285
g74
(dp1286
g82
I3
ssg83
g1280
sg76
(lp1287
S''
asbasbasbag69
(g85
g71
NtRp1288
(dp1289
g74
(dp1290
sg83
g1204
sg76
(lp1291
g69
(g90
g71
NtRp1292
(dp1293
g74
(dp1294
g94
g95
ssg83
g1288
sg76
(lp1295
g367
asbag69
(g90
g71
NtRp1296
(dp1297
g74
(dp1298
g101
g102
ssg83
g1288
sg76
(lp1299
S':'
asbag69
(g90
g71
NtRp1300
(dp1301
g74
(dp1302
sg83
g1288
sg76
(lp1303
g69
(g70
g71
NtRp1304
(dp1305
g74
(dp1306
g82
I3
ssg83
g1300
sg76
(lp1307
S''
asbasbasbag69
(g85
g71
NtRp1308
(dp1309
g74
(dp1310
sg83
g1204
sg76
(lp1311
g69
(g90
g71
NtRp1312
(dp1313
g74
(dp1314
g94
g95
ssg83
g1308
sg76
(lp1315
g388
asbag69
(g90
g71
NtRp1316
(dp1317
g74
(dp1318
g101
g102
ssg83
g1308
sg76
(lp1319
S':'
asbag69
(g90
g71
NtRp1320
(dp1321
g74
(dp1322
sg83
g1308
sg76
(lp1323
g69
(g70
g71
NtRp1324
(dp1325
g74
(dp1326
g82
I3
ssg83
g1320
sg76
(lp1327
S''
asbasbasbag69
(g85
g71
NtRp1328
(dp1329
g74
(dp1330
sg83
g1204
sg76
(lp1331
g69
(g90
g71
NtRp1332
(dp1333
g74
(dp1334
g94
g95
ssg83
g1328
sg76
(lp1335
g409
asbag69
(g90
g71
NtRp1336
(dp1337
g74
(dp1338
g101
g102
ssg83
g1328
sg76
(lp1339
S':'
asbag69
(g90
g71
NtRp1340
(dp1341
g74
(dp1342
sg83
g1328
sg76
(lp1343
g69
(g70
g71
NtRp1344
(dp1345
g74
(dp1346
g82
I3
ssg83
g1340
sg76
(lp1347
S''
asbasbasbag69
(g85
g71
NtRp1348
(dp1349
g74
(dp1350
sg83
g1204
sg76
(lp1351
g69
(g90
g71
NtRp1352
(dp1353
g74
(dp1354
g94
g95
ssg83
g1348
sg76
(lp1355
g430
asbag69
(g90
g71
NtRp1356
(dp1357
g74
(dp1358
g101
g102
ssg83
g1348
sg76
(lp1359
S':'
asbag69
(g90
g71
NtRp1360
(dp1361
g74
(dp1362
sg83
g1348
sg76
(lp1363
g69
(g70
g71
NtRp1364
(dp1365
g74
(dp1366
g82
I3
ssg83
g1360
sg76
(lp1367
S''
asbasbasbasbasbasbasbag69
(g85
g71
NtRp1368
(dp1369
g74
(dp1370
sg83
g246
sg76
(lp1371
g69
(g90
g71
NtRp1372
(dp1373
g74
(dp1374
g94
g95
ssg83
g1368
sg76
(lp1375
S'session_id_vish'
p1376
asbag69
(g90
g71
NtRp1377
(dp1378
g74
(dp1379
g101
g102
ssg83
g1368
sg76
(lp1380
S':'
asbag69
(g90
g71
NtRp1381
(dp1382
g74
(dp1383
sg83
g1368
sg76
(lp1384
g69
(g70
g71
NtRp1385
(dp1386
g74
(dp1387
g82
I4
ssg83
g1381
sg76
(lp1388
g69
(g78
g71
NtRp1389
(dp1390
g74
(dp1391
g82
I3
ssg83
Nsg76
(lp1392
g69
(g85
g71
NtRp1393
(dp1394
g74
(dp1395
sg83
g1389
sg76
(lp1396
g69
(g90
g71
NtRp1397
(dp1398
g74
(dp1399
g94
g95
ssg83
g1393
sg76
(lp1400
g283
asbag69
(g90
g71
NtRp1401
(dp1402
g74
(dp1403
g101
g102
ssg83
g1393
sg76
(lp1404
S':'
asbag69
(g90
g71
NtRp1405
(dp1406
g74
(dp1407
sg83
g1393
sg76
(lp1408
g69
(g70
g71
NtRp1409
(dp1410
g74
(dp1411
g82
I3
ssg83
g1405
sg76
(lp1412
S''
asbasbasbag69
(g85
g71
NtRp1413
(dp1414
g74
(dp1415
sg83
g1389
sg76
(lp1416
g69
(g90
g71
NtRp1417
(dp1418
g74
(dp1419
g94
g95
ssg83
g1413
sg76
(lp1420
g304
asbag69
(g90
g71
NtRp1421
(dp1422
g74
(dp1423
g101
g102
ssg83
g1413
sg76
(lp1424
S':'
asbag69
(g90
g71
NtRp1425
(dp1426
g74
(dp1427
sg83
g1413
sg76
(lp1428
g69
(g70
g71
NtRp1429
(dp1430
g74
(dp1431
g82
I3
ssg83
g1425
sg76
(lp1432
S''
asbasbasbag69
(g85
g71
NtRp1433
(dp1434
g74
(dp1435
sg83
g1389
sg76
(lp1436
g69
(g90
g71
NtRp1437
(dp1438
g74
(dp1439
g94
g95
ssg83
g1433
sg76
(lp1440
g325
asbag69
(g90
g71
NtRp1441
(dp1442
g74
(dp1443
g101
g102
ssg83
g1433
sg76
(lp1444
S':'
asbag69
(g90
g71
NtRp1445
(dp1446
g74
(dp1447
sg83
g1433
sg76
(lp1448
g69
(g70
g71
NtRp1449
(dp1450
g74
(dp1451
g82
I3
ssg83
g1445
sg76
(lp1452
S''
asbasbasbag69
(g85
g71
NtRp1453
(dp1454
g74
(dp1455
sg83
g1389
sg76
(lp1456
g69
(g90
g71
NtRp1457
(dp1458
g74
(dp1459
g94
g95
ssg83
g1453
sg76
(lp1460
g346
asbag69
(g90
g71
NtRp1461
(dp1462
g74
(dp1463
g101
g102
ssg83
g1453
sg76
(lp1464
S':'
asbag69
(g90
g71
NtRp1465
(dp1466
g74
(dp1467
sg83
g1453
sg76
(lp1468
g69
(g70
g71
NtRp1469
(dp1470
g74
(dp1471
g82
I3
ssg83
g1465
sg76
(lp1472
S''
asbasbasbag69
(g85
g71
NtRp1473
(dp1474
g74
(dp1475
sg83
g1389
sg76
(lp1476
g69
(g90
g71
NtRp1477
(dp1478
g74
(dp1479
g94
g95
ssg83
g1473
sg76
(lp1480
g367
asbag69
(g90
g71
NtRp1481
(dp1482
g74
(dp1483
g101
g102
ssg83
g1473
sg76
(lp1484
S':'
asbag69
(g90
g71
NtRp1485
(dp1486
g74
(dp1487
sg83
g1473
sg76
(lp1488
g69
(g70
g71
NtRp1489
(dp1490
g74
(dp1491
g82
I3
ssg83
g1485
sg76
(lp1492
S''
asbasbasbag69
(g85
g71
NtRp1493
(dp1494
g74
(dp1495
sg83
g1389
sg76
(lp1496
g69
(g90
g71
NtRp1497
(dp1498
g74
(dp1499
g94
g95
ssg83
g1493
sg76
(lp1500
g388
asbag69
(g90
g71
NtRp1501
(dp1502
g74
(dp1503
g101
g102
ssg83
g1493
sg76
(lp1504
S':'
asbag69
(g90
g71
NtRp1505
(dp1506
g74
(dp1507
sg83
g1493
sg76
(lp1508
g69
(g70
g71
NtRp1509
(dp1510
g74
(dp1511
g82
I3
ssg83
g1505
sg76
(lp1512
S''
asbasbasbag69
(g85
g71
NtRp1513
(dp1514
g74
(dp1515
sg83
g1389
sg76
(lp1516
g69
(g90
g71
NtRp1517
(dp1518
g74
(dp1519
g94
g95
ssg83
g1513
sg76
(lp1520
g409
asbag69
(g90
g71
NtRp1521
(dp1522
g74
(dp1523
g101
g102
ssg83
g1513
sg76
(lp1524
S':'
asbag69
(g90
g71
NtRp1525
(dp1526
g74
(dp1527
sg83
g1513
sg76
(lp1528
g69
(g70
g71
NtRp1529
(dp1530
g74
(dp1531
g82
I3
ssg83
g1525
sg76
(lp1532
S''
asbasbasbag69
(g85
g71
NtRp1533
(dp1534
g74
(dp1535
sg83
g1389
sg76
(lp1536
g69
(g90
g71
NtRp1537
(dp1538
g74
(dp1539
g94
g95
ssg83
g1533
sg76
(lp1540
g430
asbag69
(g90
g71
NtRp1541
(dp1542
g74
(dp1543
g101
g102
ssg83
g1533
sg76
(lp1544
S':'
asbag69
(g90
g71
NtRp1545
(dp1546
g74
(dp1547
sg83
g1533
sg76
(lp1548
g69
(g70
g71
NtRp1549
(dp1550
g74
(dp1551
g82
I3
ssg83
g1545
sg76
(lp1552
S''
asbasbasbasbasbasbasbag69
(g85
g71
NtRp1553
(dp1554
g74
(dp1555
sg83
g246
sg76
(lp1556
g69
(g90
g71
NtRp1557
(dp1558
g74
(dp1559
g94
g95
ssg83
g1553
sg76
(lp1560
S'session_id_welcome'
p1561
asbag69
(g90
g71
NtRp1562
(dp1563
g74
(dp1564
g101
g102
ssg83
g1553
sg76
(lp1565
S':'
asbag69
(g90
g71
NtRp1566
(dp1567
g74
(dp1568
sg83
g1553
sg76
(lp1569
g69
(g70
g71
NtRp1570
(dp1571
g74
(dp1572
g82
I4
ssg83
g1566
sg76
(lp1573
g69
(g78
g71
NtRp1574
(dp1575
g74
(dp1576
g82
I3
ssg83
Nsg76
(lp1577
g69
(g85
g71
NtRp1578
(dp1579
g74
(dp1580
sg83
g1574
sg76
(lp1581
g69
(g90
g71
NtRp1582
(dp1583
g74
(dp1584
g94
g95
ssg83
g1578
sg76
(lp1585
g283
asbag69
(g90
g71
NtRp1586
(dp1587
g74
(dp1588
g101
g102
ssg83
g1578
sg76
(lp1589
S':'
asbag69
(g90
g71
NtRp1590
(dp1591
g74
(dp1592
sg83
g1578
sg76
(lp1593
g69
(g70
g71
NtRp1594
(dp1595
g74
(dp1596
g82
I3
ssg83
g1590
sg76
(lp1597
S''
asbasbasbag69
(g85
g71
NtRp1598
(dp1599
g74
(dp1600
sg83
g1574
sg76
(lp1601
g69
(g90
g71
NtRp1602
(dp1603
g74
(dp1604
g94
g95
ssg83
g1598
sg76
(lp1605
g304
asbag69
(g90
g71
NtRp1606
(dp1607
g74
(dp1608
g101
g102
ssg83
g1598
sg76
(lp1609
S':'
asbag69
(g90
g71
NtRp1610
(dp1611
g74
(dp1612
sg83
g1598
sg76
(lp1613
g69
(g70
g71
NtRp1614
(dp1615
g74
(dp1616
g82
I3
ssg83
g1610
sg76
(lp1617
S''
asbasbasbag69
(g85
g71
NtRp1618
(dp1619
g74
(dp1620
sg83
g1574
sg76
(lp1621
g69
(g90
g71
NtRp1622
(dp1623
g74
(dp1624
g94
g95
ssg83
g1618
sg76
(lp1625
g325
asbag69
(g90
g71
NtRp1626
(dp1627
g74
(dp1628
g101
g102
ssg83
g1618
sg76
(lp1629
S':'
asbag69
(g90
g71
NtRp1630
(dp1631
g74
(dp1632
sg83
g1618
sg76
(lp1633
g69
(g70
g71
NtRp1634
(dp1635
g74
(dp1636
g82
I3
ssg83
g1630
sg76
(lp1637
S''
asbasbasbag69
(g85
g71
NtRp1638
(dp1639
g74
(dp1640
sg83
g1574
sg76
(lp1641
g69
(g90
g71
NtRp1642
(dp1643
g74
(dp1644
g94
g95
ssg83
g1638
sg76
(lp1645
g346
asbag69
(g90
g71
NtRp1646
(dp1647
g74
(dp1648
g101
g102
ssg83
g1638
sg76
(lp1649
S':'
asbag69
(g90
g71
NtRp1650
(dp1651
g74
(dp1652
sg83
g1638
sg76
(lp1653
g69
(g70
g71
NtRp1654
(dp1655
g74
(dp1656
g82
I3
ssg83
g1650
sg76
(lp1657
S''
asbasbasbag69
(g85
g71
NtRp1658
(dp1659
g74
(dp1660
sg83
g1574
sg76
(lp1661
g69
(g90
g71
NtRp1662
(dp1663
g74
(dp1664
g94
g95
ssg83
g1658
sg76
(lp1665
g367
asbag69
(g90
g71
NtRp1666
(dp1667
g74
(dp1668
g101
g102
ssg83
g1658
sg76
(lp1669
S':'
asbag69
(g90
g71
NtRp1670
(dp1671
g74
(dp1672
sg83
g1658
sg76
(lp1673
g69
(g70
g71
NtRp1674
(dp1675
g74
(dp1676
g82
I3
ssg83
g1670
sg76
(lp1677
S''
asbasbasbag69
(g85
g71
NtRp1678
(dp1679
g74
(dp1680
sg83
g1574
sg76
(lp1681
g69
(g90
g71
NtRp1682
(dp1683
g74
(dp1684
g94
g95
ssg83
g1678
sg76
(lp1685
g388
asbag69
(g90
g71
NtRp1686
(dp1687
g74
(dp1688
g101
g102
ssg83
g1678
sg76
(lp1689
S':'
asbag69
(g90
g71
NtRp1690
(dp1691
g74
(dp1692
sg83
g1678
sg76
(lp1693
g69
(g70
g71
NtRp1694
(dp1695
g74
(dp1696
g82
I3
ssg83
g1690
sg76
(lp1697
S''
asbasbasbag69
(g85
g71
NtRp1698
(dp1699
g74
(dp1700
sg83
g1574
sg76
(lp1701
g69
(g90
g71
NtRp1702
(dp1703
g74
(dp1704
g94
g95
ssg83
g1698
sg76
(lp1705
g409
asbag69
(g90
g71
NtRp1706
(dp1707
g74
(dp1708
g101
g102
ssg83
g1698
sg76
(lp1709
S':'
asbag69
(g90
g71
NtRp1710
(dp1711
g74
(dp1712
sg83
g1698
sg76
(lp1713
g69
(g70
g71
NtRp1714
(dp1715
g74
(dp1716
g82
I3
ssg83
g1710
sg76
(lp1717
S''
asbasbasbag69
(g85
g71
NtRp1718
(dp1719
g74
(dp1720
sg83
g1574
sg76
(lp1721
g69
(g90
g71
NtRp1722
(dp1723
g74
(dp1724
g94
g95
ssg83
g1718
sg76
(lp1725
g430
asbag69
(g90
g71
NtRp1726
(dp1727
g74
(dp1728
g101
g102
ssg83
g1718
sg76
(lp1729
S':'
asbag69
(g90
g71
NtRp1730
(dp1731
g74
(dp1732
sg83
g1718
sg76
(lp1733
g69
(g70
g71
NtRp1734
(dp1735
g74
(dp1736
g82
I3
ssg83
g1730
sg76
(lp1737
S''
asbasbasbasbasbasbasbasbasbasbasbag69
(g85
g71
NtRp1738
(dp1739
g74
(dp1740
sg83
g79
sg76
(lp1741
g69
(g90
g71
NtRp1742
(dp1743
g74
(dp1744
g94
g95
ssg83
g1738
sg76
(lp1745
S'env'
p1746
asbag69
(g90
g71
NtRp1747
(dp1748
g74
(dp1749
g101
g102
ssg83
g1738
sg76
(lp1750
S':'
asbag69
(g90
g71
NtRp1751
(dp1752
g74
(dp1753
sg83
g1738
sg76
(lp1754
g69
(g70
g71
NtRp1755
(dp1756
g74
(dp1757
g82
I5
ssg83
g1751
sg76
(lp1758
g69
(g78
g71
NtRp1759
(dp1760
g74
(dp1761
g82
I4
ssg83
Nsg76
(lp1762
g69
(g85
g71
NtRp1763
(dp1764
g74
(dp1765
sg83
g1759
sg76
(lp1766
g69
(g90
g71
NtRp1767
(dp1768
g74
(dp1769
g94
g95
ssg83
g1763
sg76
(lp1770
S'app_folders'
p1771
asbag69
(g90
g71
NtRp1772
(dp1773
g74
(dp1774
g101
g102
ssg83
g1763
sg76
(lp1775
S':'
asbag69
(g90
g71
NtRp1776
(dp1777
g74
(dp1778
sg83
g1763
sg76
(lp1779
g69
(g70
g71
NtRp1780
(dp1781
g74
(dp1782
g82
I4
ssg83
g1776
sg76
(lp1783
S"set(['/home/vishrut/web2py/applications/astra1/', '/home/vishrut/web2py/applications/admin/', '/home/vishrut/web2py/applications/PhotoUploader/', '/home/vishrut/web2py/applications/welcome/'])"
p1784
asbasbasbag69
(g85
g71
NtRp1785
(dp1786
g74
(dp1787
sg83
g1759
sg76
(lp1788
g69
(g90
g71
NtRp1789
(dp1790
g74
(dp1791
g94
g95
ssg83
g1785
sg76
(lp1792
S'applications_parent'
p1793
asbag69
(g90
g71
NtRp1794
(dp1795
g74
(dp1796
g101
g102
ssg83
g1785
sg76
(lp1797
S':'
asbag69
(g90
g71
NtRp1798
(dp1799
g74
(dp1800
sg83
g1785
sg76
(lp1801
g69
(g70
g71
NtRp1802
(dp1803
g74
(dp1804
g82
I4
ssg83
g1798
sg76
(lp1805
S'/home/vishrut/web2py'
p1806
asbasbasbag69
(g85
g71
NtRp1807
(dp1808
g74
(dp1809
sg83
g1759
sg76
(lp1810
g69
(g90
g71
NtRp1811
(dp1812
g74
(dp1813
g94
g95
ssg83
g1807
sg76
(lp1814
S'cmd_args'
p1815
asbag69
(g90
g71
NtRp1816
(dp1817
g74
(dp1818
g101
g102
ssg83
g1807
sg76
(lp1819
S':'
asbag69
(g90
g71
NtRp1820
(dp1821
g74
(dp1822
sg83
g1807
sg76
(lp1823
g69
(g70
g71
NtRp1824
(dp1825
g74
(dp1826
g82
I4
ssg83
g1820
sg76
(lp1827
g69
(g78
g71
NtRp1828
(dp1829
g74
(dp1830
g82
I3
ssg83
Nsg76
(lp1831
sbasbasbasbag69
(g85
g71
NtRp1832
(dp1833
g74
(dp1834
sg83
g1759
sg76
(lp1835
g69
(g90
g71
NtRp1836
(dp1837
g74
(dp1838
g94
g95
ssg83
g1832
sg76
(lp1839
S'cmd_options'
p1840
asbag69
(g90
g71
NtRp1841
(dp1842
g74
(dp1843
g101
g102
ssg83
g1832
sg76
(lp1844
S':'
asbag69
(g90
g71
NtRp1845
(dp1846
g74
(dp1847
sg83
g1832
sg76
(lp1848
g69
(g70
g71
NtRp1849
(dp1850
g74
(dp1851
g82
I4
ssg83
g1845
sg76
(lp1852
S"<Values at 0x9d363cc: {'verbose': False, 'ip': '127.0.0.1', 'shutdown_timeout': 5, 'taskbar': False, 'nocron': False, 'pid_filename': 'httpserver.pid', 'maxthreads': None, 'softcron': False, 'server_name': 'vishrut-Vostro-1015', 'bpython': False, 'nogui': False, 'port': 8000, 'extcron': False, 'debuglevel': 30, 'test': None, 'folder': '/home/vishrut/web2py', 'config': '', 'import_models': False, 'winservice': '', 'shell': None, 'run': '', 'log_filename': 'httpserver.log', 'args': [''], 'socket_timeout': 5, 'ssl_ca_certificate': None, 'scheduler': None, 'profiler_filename': None, 'ssl_private_key': '', 'password': '<ask>', 'request_queue_size': 5, 'ssl_certificate': '', 'cronjob': False, 'numthreads': None, 'quiet': False, 'interfaces': None, 'minthreads': None, 'timeout': 10, 'plain': False, 'nobanner': False}>"
p1853
asbasbasbag69
(g85
g71
NtRp1854
(dp1855
g74
(dp1856
sg83
g1759
sg76
(lp1857
g69
(g90
g71
NtRp1858
(dp1859
g74
(dp1860
g94
g95
ssg83
g1854
sg76
(lp1861
S'db_sessions'
p1862
asbag69
(g90
g71
NtRp1863
(dp1864
g74
(dp1865
g101
g102
ssg83
g1854
sg76
(lp1866
S':'
asbag69
(g90
g71
NtRp1867
(dp1868
g74
(dp1869
sg83
g1854
sg76
(lp1870
g69
(g70
g71
NtRp1871
(dp1872
g74
(dp1873
g82
I4
ssg83
g1867
sg76
(lp1874
S'set([])'
p1875
asbasbasbag69
(g85
g71
NtRp1876
(dp1877
g74
(dp1878
sg83
g1759
sg76
(lp1879
g69
(g90
g71
NtRp1880
(dp1881
g74
(dp1882
g94
g95
ssg83
g1876
sg76
(lp1883
S'debugging'
p1884
asbag69
(g90
g71
NtRp1885
(dp1886
g74
(dp1887
g101
g102
ssg83
g1876
sg76
(lp1888
S':'
asbag69
(g90
g71
NtRp1889
(dp1890
g74
(dp1891
sg83
g1876
sg76
(lp1892
g69
(g70
g71
NtRp1893
(dp1894
g74
(dp1895
g82
I4
ssg83
g1889
sg76
(lp1896
g112
asbasbasbag69
(g85
g71
NtRp1897
(dp1898
g74
(dp1899
sg83
g1759
sg76
(lp1900
g69
(g90
g71
NtRp1901
(dp1902
g74
(dp1903
g94
g95
ssg83
g1897
sg76
(lp1904
S'gluon_parent'
p1905
asbag69
(g90
g71
NtRp1906
(dp1907
g74
(dp1908
g101
g102
ssg83
g1897
sg76
(lp1909
S':'
asbag69
(g90
g71
NtRp1910
(dp1911
g74
(dp1912
sg83
g1897
sg76
(lp1913
g69
(g70
g71
NtRp1914
(dp1915
g74
(dp1916
g82
I4
ssg83
g1910
sg76
(lp1917
S'/home/vishrut/web2py'
p1918
asbasbasbag69
(g85
g71
NtRp1919
(dp1920
g74
(dp1921
sg83
g1759
sg76
(lp1922
g69
(g90
g71
NtRp1923
(dp1924
g74
(dp1925
g94
g95
ssg83
g1919
sg76
(lp1926
S'http_accept'
p1927
asbag69
(g90
g71
NtRp1928
(dp1929
g74
(dp1930
g101
g102
ssg83
g1919
sg76
(lp1931
S':'
asbag69
(g90
g71
NtRp1932
(dp1933
g74
(dp1934
sg83
g1919
sg76
(lp1935
g69
(g70
g71
NtRp1936
(dp1937
g74
(dp1938
g82
I4
ssg83
g1932
sg76
(lp1939
S'text/html,application/xhtml+xml,application/xml;q=0.9,*/*;q=0.8'
p1940
asbasbasbag69
(g85
g71
NtRp1941
(dp1942
g74
(dp1943
sg83
g1759
sg76
(lp1944
g69
(g90
g71
NtRp1945
(dp1946
g74
(dp1947
g94
g95
ssg83
g1941
sg76
(lp1948
S'http_accept_encoding'
p1949
asbag69
(g90
g71
NtRp1950
(dp1951
g74
(dp1952
g101
g102
ssg83
g1941
sg76
(lp1953
S':'
asbag69
(g90
g71
NtRp1954
(dp1955
g74
(dp1956
sg83
g1941
sg76
(lp1957
g69
(g70
g71
NtRp1958
(dp1959
g74
(dp1960
g82
I4
ssg83
g1954
sg76
(lp1961
S'gzip, deflate'
p1962
asbasbasbag69
(g85
g71
NtRp1963
(dp1964
g74
(dp1965
sg83
g1759
sg76
(lp1966
g69
(g90
g71
NtRp1967
(dp1968
g74
(dp1969
g94
g95
ssg83
g1963
sg76
(lp1970
S'http_accept_language'
p1971
asbag69
(g90
g71
NtRp1972
(dp1973
g74
(dp1974
g101
g102
ssg83
g1963
sg76
(lp1975
S':'
asbag69
(g90
g71
NtRp1976
(dp1977
g74
(dp1978
sg83
g1963
sg76
(lp1979
g69
(g70
g71
NtRp1980
(dp1981
g74
(dp1982
g82
I4
ssg83
g1976
sg76
(lp1983
S'en-US,en;q=0.5'
p1984
asbasbasbag69
(g85
g71
NtRp1985
(dp1986
g74
(dp1987
sg83
g1759
sg76
(lp1988
g69
(g90
g71
NtRp1989
(dp1990
g74
(dp1991
g94
g95
ssg83
g1985
sg76
(lp1992
S'http_cache_control'
p1993
asbag69
(g90
g71
NtRp1994
(dp1995
g74
(dp1996
g101
g102
ssg83
g1985
sg76
(lp1997
S':'
asbag69
(g90
g71
NtRp1998
(dp1999
g74
(dp2000
sg83
g1985
sg76
(lp2001
g69
(g70
g71
NtRp2002
(dp2003
g74
(dp2004
g82
I4
ssg83
g1998
sg76
(lp2005
S'max-age=0'
p2006
asbasbasbag69
(g85
g71
NtRp2007
(dp2008
g74
(dp2009
sg83
g1759
sg76
(lp2010
g69
(g90
g71
NtRp2011
(dp2012
g74
(dp2013
g94
g95
ssg83
g2007
sg76
(lp2014
S'http_connection'
p2015
asbag69
(g90
g71
NtRp2016
(dp2017
g74
(dp2018
g101
g102
ssg83
g2007
sg76
(lp2019
S':'
asbag69
(g90
g71
NtRp2020
(dp2021
g74
(dp2022
sg83
g2007
sg76
(lp2023
g69
(g70
g71
NtRp2024
(dp2025
g74
(dp2026
g82
I4
ssg83
g2020
sg76
(lp2027
S'keep-alive'
p2028
asbasbasbag69
(g85
g71
NtRp2029
(dp2030
g74
(dp2031
sg83
g1759
sg76
(lp2032
g69
(g90
g71
NtRp2033
(dp2034
g74
(dp2035
g94
g95
ssg83
g2029
sg76
(lp2036
S'http_cookie'
p2037
asbag69
(g90
g71
NtRp2038
(dp2039
g74
(dp2040
g101
g102
ssg83
g2029
sg76
(lp2041
S':'
asbag69
(g90
g71
NtRp2042
(dp2043
g74
(dp2044
sg83
g2029
sg76
(lp2045
g69
(g70
g71
NtRp2046
(dp2047
g74
(dp2048
g82
I4
ssg83
g2042
sg76
(lp2049
S'session_id_photouploader=127.0.0.1-83bacd5e-b575-49a8-9b6e-fdc698e775f9; session_id_astra1=127.0.0.1-6c6943ea-9e10-4b64-9f35-8611eb020dd8; session_id_sudoku=127.0.0.1-a38f9f54-52d0-4767-a55e-9a1db318fe95; session_id_music=127.0.0.1-5772fb54-09d1-429f-9de0-d5ccdcb57f3a; session_id_welcome=127.0.0.1-ce947a26-bb3e-43d4-9cd9-87c4abcec933; session_id_admin=127.0.0.1-6c67b90d-3883-4b37-ba21-eef2525d3981; session_id_vish=127.0.0.1-bfddb273-c13f-44aa-9345-6c2c33dcf2db; session_id_music_library=127.0.0.1-868801ee-bee6-4d4d-8081-d21e25945ab6'
p2050
asbasbasbag69
(g85
g71
NtRp2051
(dp2052
g74
(dp2053
sg83
g1759
sg76
(lp2054
g69
(g90
g71
NtRp2055
(dp2056
g74
(dp2057
g94
g95
ssg83
g2051
sg76
(lp2058
S'http_host'
p2059
asbag69
(g90
g71
NtRp2060
(dp2061
g74
(dp2062
g101
g102
ssg83
g2051
sg76
(lp2063
S':'
asbag69
(g90
g71
NtRp2064
(dp2065
g74
(dp2066
sg83
g2051
sg76
(lp2067
g69
(g70
g71
NtRp2068
(dp2069
g74
(dp2070
g82
I4
ssg83
g2064
sg76
(lp2071
S'127.0.0.1:8000'
p2072
asbasbasbag69
(g85
g71
NtRp2073
(dp2074
g74
(dp2075
sg83
g1759
sg76
(lp2076
g69
(g90
g71
NtRp2077
(dp2078
g74
(dp2079
g94
g95
ssg83
g2073
sg76
(lp2080
S'http_referer'
p2081
asbag69
(g90
g71
NtRp2082
(dp2083
g74
(dp2084
g101
g102
ssg83
g2073
sg76
(lp2085
S':'
asbag69
(g90
g71
NtRp2086
(dp2087
g74
(dp2088
sg83
g2073
sg76
(lp2089
g69
(g70
g71
NtRp2090
(dp2091
g74
(dp2092
g82
I4
ssg83
g2086
sg76
(lp2093
S'http://127.0.0.1:8000/astra1/default/index'
p2094
asbasbasbag69
(g85
g71
NtRp2095
(dp2096
g74
(dp2097
sg83
g1759
sg76
(lp2098
g69
(g90
g71
NtRp2099
(dp2100
g74
(dp2101
g94
g95
ssg83
g2095
sg76
(lp2102
S'http_user_agent'
p2103
asbag69
(g90
g71
NtRp2104
(dp2105
g74
(dp2106
g101
g102
ssg83
g2095
sg76
(lp2107
S':'
asbag69
(g90
g71
NtRp2108
(dp2109
g74
(dp2110
sg83
g2095
sg76
(lp2111
g69
(g70
g71
NtRp2112
(dp2113
g74
(dp2114
g82
I4
ssg83
g2108
sg76
(lp2115
S'Mozilla/5.0 (X11; Ubuntu; Linux i686; rv:16.0) Gecko/20100101 Firefox/16.0'
p2116
asbasbasbag69
(g85
g71
NtRp2117
(dp2118
g74
(dp2119
sg83
g1759
sg76
(lp2120
g69
(g90
g71
NtRp2121
(dp2122
g74
(dp2123
g94
g95
ssg83
g2117
sg76
(lp2124
S'is_jython'
p2125
asbag69
(g90
g71
NtRp2126
(dp2127
g74
(dp2128
g101
g102
ssg83
g2117
sg76
(lp2129
S':'
asbag69
(g90
g71
NtRp2130
(dp2131
g74
(dp2132
sg83
g2117
sg76
(lp2133
g69
(g70
g71
NtRp2134
(dp2135
g74
(dp2136
g82
I4
ssg83
g2130
sg76
(lp2137
g112
asbasbasbag69
(g85
g71
NtRp2138
(dp2139
g74
(dp2140
sg83
g1759
sg76
(lp2141
g69
(g90
g71
NtRp2142
(dp2143
g74
(dp2144
g94
g95
ssg83
g2138
sg76
(lp2145
S'is_pypy'
p2146
asbag69
(g90
g71
NtRp2147
(dp2148
g74
(dp2149
g101
g102
ssg83
g2138
sg76
(lp2150
S':'
asbag69
(g90
g71
NtRp2151
(dp2152
g74
(dp2153
sg83
g2138
sg76
(lp2154
g69
(g70
g71
NtRp2155
(dp2156
g74
(dp2157
g82
I4
ssg83
g2151
sg76
(lp2158
g112
asbasbasbag69
(g85
g71
NtRp2159
(dp2160
g74
(dp2161
sg83
g1759
sg76
(lp2162
g69
(g90
g71
NtRp2163
(dp2164
g74
(dp2165
g94
g95
ssg83
g2159
sg76
(lp2166
S'path_info'
p2167
asbag69
(g90
g71
NtRp2168
(dp2169
g74
(dp2170
g101
g102
ssg83
g2159
sg76
(lp2171
S':'
asbag69
(g90
g71
NtRp2172
(dp2173
g74
(dp2174
sg83
g2159
sg76
(lp2175
g69
(g70
g71
NtRp2176
(dp2177
g74
(dp2178
g82
I4
ssg83
g2172
sg76
(lp2179
S'/astra1/default/show'
p2180
asbasbasbag69
(g85
g71
NtRp2181
(dp2182
g74
(dp2183
sg83
g1759
sg76
(lp2184
g69
(g90
g71
NtRp2185
(dp2186
g74
(dp2187
g94
g95
ssg83
g2181
sg76
(lp2188
S'query_string'
p2189
asbag69
(g90
g71
NtRp2190
(dp2191
g74
(dp2192
g101
g102
ssg83
g2181
sg76
(lp2193
S':'
asbag69
(g90
g71
NtRp2194
(dp2195
g74
(dp2196
sg83
g2181
sg76
(lp2197
g69
(g70
g71
NtRp2198
(dp2199
g74
(dp2200
g82
I4
ssg83
g2194
sg76
(lp2201
S''
asbasbasbag69
(g85
g71
NtRp2202
(dp2203
g74
(dp2204
sg83
g1759
sg76
(lp2205
g69
(g90
g71
NtRp2206
(dp2207
g74
(dp2208
g94
g95
ssg83
g2202
sg76
(lp2209
S'remote_addr'
p2210
asbag69
(g90
g71
NtRp2211
(dp2212
g74
(dp2213
g101
g102
ssg83
g2202
sg76
(lp2214
S':'
asbag69
(g90
g71
NtRp2215
(dp2216
g74
(dp2217
sg83
g2202
sg76
(lp2218
g69
(g70
g71
NtRp2219
(dp2220
g74
(dp2221
g82
I4
ssg83
g2215
sg76
(lp2222
g202
asbasbasbag69
(g85
g71
NtRp2223
(dp2224
g74
(dp2225
sg83
g1759
sg76
(lp2226
g69
(g90
g71
NtRp2227
(dp2228
g74
(dp2229
g94
g95
ssg83
g2223
sg76
(lp2230
S'remote_port'
p2231
asbag69
(g90
g71
NtRp2232
(dp2233
g74
(dp2234
g101
g102
ssg83
g2223
sg76
(lp2235
S':'
asbag69
(g90
g71
NtRp2236
(dp2237
g74
(dp2238
sg83
g2223
sg76
(lp2239
g69
(g70
g71
NtRp2240
(dp2241
g74
(dp2242
g82
I4
ssg83
g2236
sg76
(lp2243
S'45751'
p2244
asbasbasbag69
(g85
g71
NtRp2245
(dp2246
g74
(dp2247
sg83
g1759
sg76
(lp2248
g69
(g90
g71
NtRp2249
(dp2250
g74
(dp2251
g94
g95
ssg83
g2245
sg76
(lp2252
S'request_method'
p2253
asbag69
(g90
g71
NtRp2254
(dp2255
g74
(dp2256
g101
g102
ssg83
g2245
sg76
(lp2257
S':'
asbag69
(g90
g71
NtRp2258
(dp2259
g74
(dp2260
sg83
g2245
sg76
(lp2261
g69
(g70
g71
NtRp2262
(dp2263
g74
(dp2264
g82
I4
ssg83
g2258
sg76
(lp2265
S'GET'
p2266
asbasbasbag69
(g85
g71
NtRp2267
(dp2268
g74
(dp2269
sg83
g1759
sg76
(lp2270
g69
(g90
g71
NtRp2271
(dp2272
g74
(dp2273
g94
g95
ssg83
g2267
sg76
(lp2274
S'script_name'
p2275
asbag69
(g90
g71
NtRp2276
(dp2277
g74
(dp2278
g101
g102
ssg83
g2267
sg76
(lp2279
S':'
asbag69
(g90
g71
NtRp2280
(dp2281
g74
(dp2282
sg83
g2267
sg76
(lp2283
g69
(g70
g71
NtRp2284
(dp2285
g74
(dp2286
g82
I4
ssg83
g2280
sg76
(lp2287
S''
asbasbasbag69
(g85
g71
NtRp2288
(dp2289
g74
(dp2290
sg83
g1759
sg76
(lp2291
g69
(g90
g71
NtRp2292
(dp2293
g74
(dp2294
g94
g95
ssg83
g2288
sg76
(lp2295
S'server_name'
p2296
asbag69
(g90
g71
NtRp2297
(dp2298
g74
(dp2299
g101
g102
ssg83
g2288
sg76
(lp2300
S':'
asbag69
(g90
g71
NtRp2301
(dp2302
g74
(dp2303
sg83
g2288
sg76
(lp2304
g69
(g70
g71
NtRp2305
(dp2306
g74
(dp2307
g82
I4
ssg83
g2301
sg76
(lp2308
S'vishrut-Vostro-1015'
p2309
asbasbasbag69
(g85
g71
NtRp2310
(dp2311
g74
(dp2312
sg83
g1759
sg76
(lp2313
g69
(g90
g71
NtRp2314
(dp2315
g74
(dp2316
g94
g95
ssg83
g2310
sg76
(lp2317
S'server_port'
p2318
asbag69
(g90
g71
NtRp2319
(dp2320
g74
(dp2321
g101
g102
ssg83
g2310
sg76
(lp2322
S':'
asbag69
(g90
g71
NtRp2323
(dp2324
g74
(dp2325
sg83
g2310
sg76
(lp2326
g69
(g70
g71
NtRp2327
(dp2328
g74
(dp2329
g82
I4
ssg83
g2323
sg76
(lp2330
S'8000'
p2331
asbasbasbag69
(g85
g71
NtRp2332
(dp2333
g74
(dp2334
sg83
g1759
sg76
(lp2335
g69
(g90
g71
NtRp2336
(dp2337
g74
(dp2338
g94
g95
ssg83
g2332
sg76
(lp2339
S'server_protocol'
p2340
asbag69
(g90
g71
NtRp2341
(dp2342
g74
(dp2343
g101
g102
ssg83
g2332
sg76
(lp2344
S':'
asbag69
(g90
g71
NtRp2345
(dp2346
g74
(dp2347
sg83
g2332
sg76
(lp2348
g69
(g70
g71
NtRp2349
(dp2350
g74
(dp2351
g82
I4
ssg83
g2345
sg76
(lp2352
S'HTTP/1.1'
p2353
asbasbasbag69
(g85
g71
NtRp2354
(dp2355
g74
(dp2356
sg83
g1759
sg76
(lp2357
g69
(g90
g71
NtRp2358
(dp2359
g74
(dp2360
g94
g95
ssg83
g2354
sg76
(lp2361
S'server_software'
p2362
asbag69
(g90
g71
NtRp2363
(dp2364
g74
(dp2365
g101
g102
ssg83
g2354
sg76
(lp2366
S':'
asbag69
(g90
g71
NtRp2367
(dp2368
g74
(dp2369
sg83
g2354
sg76
(lp2370
g69
(g70
g71
NtRp2371
(dp2372
g74
(dp2373
g82
I4
ssg83
g2367
sg76
(lp2374
S'Rocket 1.2.4'
p2375
asbasbasbag69
(g85
g71
NtRp2376
(dp2377
g74
(dp2378
sg83
g1759
sg76
(lp2379
g69
(g90
g71
NtRp2380
(dp2381
g74
(dp2382
g94
g95
ssg83
g2376
sg76
(lp2383
S'web2py_crontype'
p2384
asbag69
(g90
g71
NtRp2385
(dp2386
g74
(dp2387
g101
g102
ssg83
g2376
sg76
(lp2388
S':'
asbag69
(g90
g71
NtRp2389
(dp2390
g74
(dp2391
sg83
g2376
sg76
(lp2392
g69
(g70
g71
NtRp2393
(dp2394
g74
(dp2395
g82
I4
ssg83
g2389
sg76
(lp2396
S'hard'
p2397
asbasbasbag69
(g85
g71
NtRp2398
(dp2399
g74
(dp2400
sg83
g1759
sg76
(lp2401
g69
(g90
g71
NtRp2402
(dp2403
g74
(dp2404
g94
g95
ssg83
g2398
sg76
(lp2405
S'web2py_path'
p2406
asbag69
(g90
g71
NtRp2407
(dp2408
g74
(dp2409
g101
g102
ssg83
g2398
sg76
(lp2410
S':'
asbag69
(g90
g71
NtRp2411
(dp2412
g74
(dp2413
sg83
g2398
sg76
(lp2414
g69
(g70
g71
NtRp2415
(dp2416
g74
(dp2417
g82
I4
ssg83
g2411
sg76
(lp2418
g1806
asbasbasbag69
(g85
g71
NtRp2419
(dp2420
g74
(dp2421
sg83
g1759
sg76
(lp2422
g69
(g90
g71
NtRp2423
(dp2424
g74
(dp2425
g94
g95
ssg83
g2419
sg76
(lp2426
S'web2py_version'
p2427
asbag69
(g90
g71
NtRp2428
(dp2429
g74
(dp2430
g101
g102
ssg83
g2419
sg76
(lp2431
S':'
asbag69
(g90
g71
NtRp2432
(dp2433
g74
(dp2434
sg83
g2419
sg76
(lp2435
g69
(g70
g71
NtRp2436
(dp2437
g74
(dp2438
g82
I4
ssg83
g2432
sg76
(lp2439
g69
(g78
g71
NtRp2440
(dp2441
g74
(dp2442
g82
I3
ssg83
Nsg76
(lp2443
g69
(g85
g71
NtRp2444
(dp2445
g74
(dp2446
sg83
g2440
sg76
(lp2447
g69
(g90
g71
NtRp2448
(dp2449
g74
(dp2450
sg83
g2444
sg76
(lp2451
g69
(g70
g71
NtRp2452
(dp2453
g74
(dp2454
g82
I3
ssg83
g2448
sg76
(lp2455
S'1'
asbasbasbag69
(g85
g71
NtRp2456
(dp2457
g74
(dp2458
sg83
g2440
sg76
(lp2459
g69
(g90
g71
NtRp2460
(dp2461
g74
(dp2462
sg83
g2456
sg76
(lp2463
g69
(g70
g71
NtRp2464
(dp2465
g74
(dp2466
g82
I3
ssg83
g2460
sg76
(lp2467
S'99'
p2468
asbasbasbag69
(g85
g71
NtRp2469
(dp2470
g74
(dp2471
sg83
g2440
sg76
(lp2472
g69
(g90
g71
NtRp2473
(dp2474
g74
(dp2475
sg83
g2469
sg76
(lp2476
g69
(g70
g71
NtRp2477
(dp2478
g74
(dp2479
g82
I3
ssg83
g2473
sg76
(lp2480
S'7'
asbasbasbag69
(g85
g71
NtRp2481
(dp2482
g74
(dp2483
sg83
g2440
sg76
(lp2484
g69
(g90
g71
NtRp2485
(dp2486
g74
(dp2487
sg83
g2481
sg76
(lp2488
g69
(g70
g71
NtRp2489
(dp2490
g74
(dp2491
g82
I3
ssg83
g2485
sg76
(lp2492
S'datetime.datetime(2012, 3, 4, 22, 12, 8)'
p2493
asbasbasbag69
(g85
g71
NtRp2494
(dp2495
g74
(dp2496
sg83
g2440
sg76
(lp2497
g69
(g90
g71
NtRp2498
(dp2499
g74
(dp2500
sg83
g2494
sg76
(lp2501
g69
(g70
g71
NtRp2502
(dp2503
g74
(dp2504
g82
I3
ssg83
g2498
sg76
(lp2505
S'stable'
p2506
asbasbasbasbasbasbasbag69
(g85
g71
NtRp2507
(dp2508
g74
(dp2509
sg83
g1759
sg76
(lp2510
g69
(g90
g71
NtRp2511
(dp2512
g74
(dp2513
g94
g95
ssg83
g2507
sg76
(lp2514
S'wsgi_errors'
p2515
asbag69
(g90
g71
NtRp2516
(dp2517
g74
(dp2518
g101
g102
ssg83
g2507
sg76
(lp2519
S':'
asbag69
(g90
g71
NtRp2520
(dp2521
g74
(dp2522
sg83
g2507
sg76
(lp2523
g69
(g70
g71
NtRp2524
(dp2525
g74
(dp2526
g82
I4
ssg83
g2520
sg76
(lp2527
S"<open file '<stderr>', mode 'w' at 0xb77bc0d0>"
p2528
asbasbasbag69
(g85
g71
NtRp2529
(dp2530
g74
(dp2531
sg83
g1759
sg76
(lp2532
g69
(g90
g71
NtRp2533
(dp2534
g74
(dp2535
g94
g95
ssg83
g2529
sg76
(lp2536
S'wsgi_file_wrapper'
p2537
asbag69
(g90
g71
NtRp2538
(dp2539
g74
(dp2540
g101
g102
ssg83
g2529
sg76
(lp2541
S':'
asbag69
(g90
g71
NtRp2542
(dp2543
g74
(dp2544
sg83
g2529
sg76
(lp2545
g69
(g70
g71
NtRp2546
(dp2547
g74
(dp2548
g82
I4
ssg83
g2542
sg76
(lp2549
S'<class wsgiref.util.FileWrapper at 0x9c55aac>'
p2550
asbasbasbag69
(g85
g71
NtRp2551
(dp2552
g74
(dp2553
sg83
g1759
sg76
(lp2554
g69
(g90
g71
NtRp2555
(dp2556
g74
(dp2557
g94
g95
ssg83
g2551
sg76
(lp2558
S'wsgi_input'
p2559
asbag69
(g90
g71
NtRp2560
(dp2561
g74
(dp2562
g101
g102
ssg83
g2551
sg76
(lp2563
S':'
asbag69
(g90
g71
NtRp2564
(dp2565
g74
(dp2566
sg83
g2551
sg76
(lp2567
g69
(g70
g71
NtRp2568
(dp2569
g74
(dp2570
g82
I4
ssg83
g2564
sg76
(lp2571
S'<socket._fileobject object at 0xa13ee6c>'
p2572
asbasbasbag69
(g85
g71
NtRp2573
(dp2574
g74
(dp2575
sg83
g1759
sg76
(lp2576
g69
(g90
g71
NtRp2577
(dp2578
g74
(dp2579
g94
g95
ssg83
g2573
sg76
(lp2580
S'wsgi_multiprocess'
p2581
asbag69
(g90
g71
NtRp2582
(dp2583
g74
(dp2584
g101
g102
ssg83
g2573
sg76
(lp2585
S':'
asbag69
(g90
g71
NtRp2586
(dp2587
g74
(dp2588
sg83
g2573
sg76
(lp2589
g69
(g70
g71
NtRp2590
(dp2591
g74
(dp2592
g82
I4
ssg83
g2586
sg76
(lp2593
g112
asbasbasbag69
(g85
g71
NtRp2594
(dp2595
g74
(dp2596
sg83
g1759
sg76
(lp2597
g69
(g90
g71
NtRp2598
(dp2599
g74
(dp2600
g94
g95
ssg83
g2594
sg76
(lp2601
S'wsgi_multithread'
p2602
asbag69
(g90
g71
NtRp2603
(dp2604
g74
(dp2605
g101
g102
ssg83
g2594
sg76
(lp2606
S':'
asbag69
(g90
g71
NtRp2607
(dp2608
g74
(dp2609
sg83
g2594
sg76
(lp2610
g69
(g70
g71
NtRp2611
(dp2612
g74
(dp2613
g82
I4
ssg83
g2607
sg76
(lp2614
S'True'
p2615
asbasbasbag69
(g85
g71
NtRp2616
(dp2617
g74
(dp2618
sg83
g1759
sg76
(lp2619
g69
(g90
g71
NtRp2620
(dp2621
g74
(dp2622
g94
g95
ssg83
g2616
sg76
(lp2623
S'wsgi_run_once'
p2624
asbag69
(g90
g71
NtRp2625
(dp2626
g74
(dp2627
g101
g102
ssg83
g2616
sg76
(lp2628
S':'
asbag69
(g90
g71
NtRp2629
(dp2630
g74
(dp2631
sg83
g2616
sg76
(lp2632
g69
(g70
g71
NtRp2633
(dp2634
g74
(dp2635
g82
I4
ssg83
g2629
sg76
(lp2636
g112
asbasbasbag69
(g85
g71
NtRp2637
(dp2638
g74
(dp2639
sg83
g1759
sg76
(lp2640
g69
(g90
g71
NtRp2641
(dp2642
g74
(dp2643
g94
g95
ssg83
g2637
sg76
(lp2644
S'wsgi_url_scheme'
p2645
asbag69
(g90
g71
NtRp2646
(dp2647
g74
(dp2648
g101
g102
ssg83
g2637
sg76
(lp2649
S':'
asbag69
(g90
g71
NtRp2650
(dp2651
g74
(dp2652
sg83
g2637
sg76
(lp2653
g69
(g70
g71
NtRp2654
(dp2655
g74
(dp2656
g82
I4
ssg83
g2650
sg76
(lp2657
S'http'
p2658
asbasbasbag69
(g85
g71
NtRp2659
(dp2660
g74
(dp2661
sg83
g1759
sg76
(lp2662
g69
(g90
g71
NtRp2663
(dp2664
g74
(dp2665
g94
g95
ssg83
g2659
sg76
(lp2666
S'wsgi_version'
p2667
asbag69
(g90
g71
NtRp2668
(dp2669
g74
(dp2670
g101
g102
ssg83
g2659
sg76
(lp2671
S':'
asbag69
(g90
g71
NtRp2672
(dp2673
g74
(dp2674
sg83
g2659
sg76
(lp2675
g69
(g70
g71
NtRp2676
(dp2677
g74
(dp2678
g82
I4
ssg83
g2672
sg76
(lp2679
g69
(g78
g71
NtRp2680
(dp2681
g74
(dp2682
g82
I3
ssg83
Nsg76
(lp2683
g69
(g85
g71
NtRp2684
(dp2685
g74
(dp2686
sg83
g2680
sg76
(lp2687
g69
(g90
g71
NtRp2688
(dp2689
g74
(dp2690
sg83
g2684
sg76
(lp2691
g69
(g70
g71
NtRp2692
(dp2693
g74
(dp2694
g82
I3
ssg83
g2688
sg76
(lp2695
S'1'
asbasbasbag69
(g85
g71
NtRp2696
(dp2697
g74
(dp2698
sg83
g2680
sg76
(lp2699
g69
(g90
g71
NtRp2700
(dp2701
g74
(dp2702
sg83
g2696
sg76
(lp2703
g69
(g70
g71
NtRp2704
(dp2705
g74
(dp2706
g82
I3
ssg83
g2700
sg76
(lp2707
S'0'
asbasbasbasbasbasbasbasbasbasbasbag69
(g85
g71
NtRp2708
(dp2709
g74
(dp2710
sg83
g79
sg76
(lp2711
g69
(g90
g71
NtRp2712
(dp2713
g74
(dp2714
g94
g95
ssg83
g2708
sg76
(lp2715
S'extension'
p2716
asbag69
(g90
g71
NtRp2717
(dp2718
g74
(dp2719
g101
g102
ssg83
g2708
sg76
(lp2720
S':'
asbag69
(g90
g71
NtRp2721
(dp2722
g74
(dp2723
sg83
g2708
sg76
(lp2724
g69
(g70
g71
NtRp2725
(dp2726
g74
(dp2727
g82
I5
ssg83
g2721
sg76
(lp2728
S'html'
p2729
asbasbasbag69
(g85
g71
NtRp2730
(dp2731
g74
(dp2732
sg83
g79
sg76
(lp2733
g69
(g90
g71
NtRp2734
(dp2735
g74
(dp2736
g94
g95
ssg83
g2730
sg76
(lp2737
S'folder'
p2738
asbag69
(g90
g71
NtRp2739
(dp2740
g74
(dp2741
g101
g102
ssg83
g2730
sg76
(lp2742
S':'
asbag69
(g90
g71
NtRp2743
(dp2744
g74
(dp2745
sg83
g2730
sg76
(lp2746
g69
(g70
g71
NtRp2747
(dp2748
g74
(dp2749
g82
I5
ssg83
g2743
sg76
(lp2750
S'/home/vishrut/web2py/applications/astra1/'
p2751
asbasbasbag69
(g85
g71
NtRp2752
(dp2753
g74
(dp2754
sg83
g79
sg76
(lp2755
g69
(g90
g71
NtRp2756
(dp2757
g74
(dp2758
g94
g95
ssg83
g2752
sg76
(lp2759
S'function'
p2760
asbag69
(g90
g71
NtRp2761
(dp2762
g74
(dp2763
g101
g102
ssg83
g2752
sg76
(lp2764
S':'
asbag69
(g90
g71
NtRp2765
(dp2766
g74
(dp2767
sg83
g2752
sg76
(lp2768
g69
(g70
g71
NtRp2769
(dp2770
g74
(dp2771
g82
I5
ssg83
g2765
sg76
(lp2772
S'show'
p2773
asbasbasbag69
(g85
g71
NtRp2774
(dp2775
g74
(dp2776
sg83
g79
sg76
(lp2777
g69
(g90
g71
NtRp2778
(dp2779
g74
(dp2780
g94
g95
ssg83
g2774
sg76
(lp2781
S'get_vars'
p2782
asbag69
(g90
g71
NtRp2783
(dp2784
g74
(dp2785
g101
g102
ssg83
g2774
sg76
(lp2786
S':'
asbag69
(g90
g71
NtRp2787
(dp2788
g74
(dp2789
sg83
g2774
sg76
(lp2790
g69
(g70
g71
NtRp2791
(dp2792
g74
(dp2793
g82
I5
ssg83
g2787
sg76
(lp2794
g69
(g78
g71
NtRp2795
(dp2796
g74
(dp2797
g82
I4
ssg83
Nsg76
(lp2798
sbasbasbasbag69
(g85
g71
NtRp2799
(dp2800
g74
(dp2801
sg83
g79
sg76
(lp2802
g69
(g90
g71
NtRp2803
(dp2804
g74
(dp2805
g94
g95
ssg83
g2799
sg76
(lp2806
S'global_settings'
p2807
asbag69
(g90
g71
NtRp2808
(dp2809
g74
(dp2810
g101
g102
ssg83
g2799
sg76
(lp2811
S':'
asbag69
(g90
g71
NtRp2812
(dp2813
g74
(dp2814
sg83
g2799
sg76
(lp2815
g69
(g70
g71
NtRp2816
(dp2817
g74
(dp2818
g82
I5
ssg83
g2812
sg76
(lp2819
g69
(g78
g71
NtRp2820
(dp2821
g74
(dp2822
g82
I4
ssg83
Nsg76
(lp2823
g69
(g85
g71
NtRp2824
(dp2825
g74
(dp2826
sg83
g2820
sg76
(lp2827
g69
(g90
g71
NtRp2828
(dp2829
g74
(dp2830
g94
g95
ssg83
g2824
sg76
(lp2831
g1771
asbag69
(g90
g71
NtRp2832
(dp2833
g74
(dp2834
g101
g102
ssg83
g2824
sg76
(lp2835
S':'
asbag69
(g90
g71
NtRp2836
(dp2837
g74
(dp2838
sg83
g2824
sg76
(lp2839
g69
(g70
g71
NtRp2840
(dp2841
g74
(dp2842
g82
I4
ssg83
g2836
sg76
(lp2843
S"set(['/home/vishrut/web2py/applications/astra1/', '/home/vishrut/web2py/applications/admin/', '/home/vishrut/web2py/applications/PhotoUploader/', '/home/vishrut/web2py/applications/welcome/'])"
p2844
asbasbasbag69
(g85
g71
NtRp2845
(dp2846
g74
(dp2847
sg83
g2820
sg76
(lp2848
g69
(g90
g71
NtRp2849
(dp2850
g74
(dp2851
g94
g95
ssg83
g2845
sg76
(lp2852
g1793
asbag69
(g90
g71
NtRp2853
(dp2854
g74
(dp2855
g101
g102
ssg83
g2845
sg76
(lp2856
S':'
asbag69
(g90
g71
NtRp2857
(dp2858
g74
(dp2859
sg83
g2845
sg76
(lp2860
g69
(g70
g71
NtRp2861
(dp2862
g74
(dp2863
g82
I4
ssg83
g2857
sg76
(lp2864
g1806
asbasbasbag69
(g85
g71
NtRp2865
(dp2866
g74
(dp2867
sg83
g2820
sg76
(lp2868
g69
(g90
g71
NtRp2869
(dp2870
g74
(dp2871
g94
g95
ssg83
g2865
sg76
(lp2872
g1815
asbag69
(g90
g71
NtRp2873
(dp2874
g74
(dp2875
g101
g102
ssg83
g2865
sg76
(lp2876
S':'
asbag69
(g90
g71
NtRp2877
(dp2878
g74
(dp2879
sg83
g2865
sg76
(lp2880
g69
(g70
g71
NtRp2881
(dp2882
g74
(dp2883
g82
I4
ssg83
g2877
sg76
(lp2884
g69
(g78
g71
NtRp2885
(dp2886
g74
(dp2887
g82
I3
ssg83
Nsg76
(lp2888
sbasbasbasbag69
(g85
g71
NtRp2889
(dp2890
g74
(dp2891
sg83
g2820
sg76
(lp2892
g69
(g90
g71
NtRp2893
(dp2894
g74
(dp2895
g94
g95
ssg83
g2889
sg76
(lp2896
g1840
asbag69
(g90
g71
NtRp2897
(dp2898
g74
(dp2899
g101
g102
ssg83
g2889
sg76
(lp2900
S':'
asbag69
(g90
g71
NtRp2901
(dp2902
g74
(dp2903
sg83
g2889
sg76
(lp2904
g69
(g70
g71
NtRp2905
(dp2906
g74
(dp2907
g82
I4
ssg83
g2901
sg76
(lp2908
S"<Values at 0x9d363cc: {'verbose': False, 'ip': '127.0.0.1', 'shutdown_timeout': 5, 'taskbar': False, 'nocron': False, 'pid_filename': 'httpserver.pid', 'maxthreads': None, 'softcron': False, 'server_name': 'vishrut-Vostro-1015', 'bpython': False, 'nogui': False, 'port': 8000, 'extcron': False, 'debuglevel': 30, 'test': None, 'folder': '/home/vishrut/web2py', 'config': '', 'import_models': False, 'winservice': '', 'shell': None, 'run': '', 'log_filename': 'httpserver.log', 'args': [''], 'socket_timeout': 5, 'ssl_ca_certificate': None, 'scheduler': None, 'profiler_filename': None, 'ssl_private_key': '', 'password': '<ask>', 'request_queue_size': 5, 'ssl_certificate': '', 'cronjob': False, 'numthreads': None, 'quiet': False, 'interfaces': None, 'minthreads': None, 'timeout': 10, 'plain': False, 'nobanner': False}>"
p2909
asbasbasbag69
(g85
g71
NtRp2910
(dp2911
g74
(dp2912
sg83
g2820
sg76
(lp2913
g69
(g90
g71
NtRp2914
(dp2915
g74
(dp2916
g94
g95
ssg83
g2910
sg76
(lp2917
g1862
asbag69
(g90
g71
NtRp2918
(dp2919
g74
(dp2920
g101
g102
ssg83
g2910
sg76
(lp2921
S':'
asbag69
(g90
g71
NtRp2922
(dp2923
g74
(dp2924
sg83
g2910
sg76
(lp2925
g69
(g70
g71
NtRp2926
(dp2927
g74
(dp2928
g82
I4
ssg83
g2922
sg76
(lp2929
S'set([])'
p2930
asbasbasbag69
(g85
g71
NtRp2931
(dp2932
g74
(dp2933
sg83
g2820
sg76
(lp2934
g69
(g90
g71
NtRp2935
(dp2936
g74
(dp2937
g94
g95
ssg83
g2931
sg76
(lp2938
g1884
asbag69
(g90
g71
NtRp2939
(dp2940
g74
(dp2941
g101
g102
ssg83
g2931
sg76
(lp2942
S':'
asbag69
(g90
g71
NtRp2943
(dp2944
g74
(dp2945
sg83
g2931
sg76
(lp2946
g69
(g70
g71
NtRp2947
(dp2948
g74
(dp2949
g82
I4
ssg83
g2943
sg76
(lp2950
g112
asbasbasbag69
(g85
g71
NtRp2951
(dp2952
g74
(dp2953
sg83
g2820
sg76
(lp2954
g69
(g90
g71
NtRp2955
(dp2956
g74
(dp2957
g94
g95
ssg83
g2951
sg76
(lp2958
g1905
asbag69
(g90
g71
NtRp2959
(dp2960
g74
(dp2961
g101
g102
ssg83
g2951
sg76
(lp2962
S':'
asbag69
(g90
g71
NtRp2963
(dp2964
g74
(dp2965
sg83
g2951
sg76
(lp2966
g69
(g70
g71
NtRp2967
(dp2968
g74
(dp2969
g82
I4
ssg83
g2963
sg76
(lp2970
g1918
asbasbasbag69
(g85
g71
NtRp2971
(dp2972
g74
(dp2973
sg83
g2820
sg76
(lp2974
g69
(g90
g71
NtRp2975
(dp2976
g74
(dp2977
g94
g95
ssg83
g2971
sg76
(lp2978
g2125
asbag69
(g90
g71
NtRp2979
(dp2980
g74
(dp2981
g101
g102
ssg83
g2971
sg76
(lp2982
S':'
asbag69
(g90
g71
NtRp2983
(dp2984
g74
(dp2985
sg83
g2971
sg76
(lp2986
g69
(g70
g71
NtRp2987
(dp2988
g74
(dp2989
g82
I4
ssg83
g2983
sg76
(lp2990
g112
asbasbasbag69
(g85
g71
NtRp2991
(dp2992
g74
(dp2993
sg83
g2820
sg76
(lp2994
g69
(g90
g71
NtRp2995
(dp2996
g74
(dp2997
g94
g95
ssg83
g2991
sg76
(lp2998
g2146
asbag69
(g90
g71
NtRp2999
(dp3000
g74
(dp3001
g101
g102
ssg83
g2991
sg76
(lp3002
S':'
asbag69
(g90
g71
NtRp3003
(dp3004
g74
(dp3005
sg83
g2991
sg76
(lp3006
g69
(g70
g71
NtRp3007
(dp3008
g74
(dp3009
g82
I4
ssg83
g3003
sg76
(lp3010
g112
asbasbasbag69
(g85
g71
NtRp3011
(dp3012
g74
(dp3013
sg83
g2820
sg76
(lp3014
g69
(g90
g71
NtRp3015
(dp3016
g74
(dp3017
g94
g95
ssg83
g3011
sg76
(lp3018
g2384
asbag69
(g90
g71
NtRp3019
(dp3020
g74
(dp3021
g101
g102
ssg83
g3011
sg76
(lp3022
S':'
asbag69
(g90
g71
NtRp3023
(dp3024
g74
(dp3025
sg83
g3011
sg76
(lp3026
g69
(g70
g71
NtRp3027
(dp3028
g74
(dp3029
g82
I4
ssg83
g3023
sg76
(lp3030
g2397
asbasbasbag69
(g85
g71
NtRp3031
(dp3032
g74
(dp3033
sg83
g2820
sg76
(lp3034
g69
(g90
g71
NtRp3035
(dp3036
g74
(dp3037
g94
g95
ssg83
g3031
sg76
(lp3038
g2427
asbag69
(g90
g71
NtRp3039
(dp3040
g74
(dp3041
g101
g102
ssg83
g3031
sg76
(lp3042
S':'
asbag69
(g90
g71
NtRp3043
(dp3044
g74
(dp3045
sg83
g3031
sg76
(lp3046
g69
(g70
g71
NtRp3047
(dp3048
g74
(dp3049
g82
I4
ssg83
g3043
sg76
(lp3050
g69
(g78
g71
NtRp3051
(dp3052
g74
(dp3053
g82
I3
ssg83
Nsg76
(lp3054
g69
(g85
g71
NtRp3055
(dp3056
g74
(dp3057
sg83
g3051
sg76
(lp3058
g69
(g90
g71
NtRp3059
(dp3060
g74
(dp3061
sg83
g3055
sg76
(lp3062
g69
(g70
g71
NtRp3063
(dp3064
g74
(dp3065
g82
I3
ssg83
g3059
sg76
(lp3066
S'1'
asbasbasbag69
(g85
g71
NtRp3067
(dp3068
g74
(dp3069
sg83
g3051
sg76
(lp3070
g69
(g90
g71
NtRp3071
(dp3072
g74
(dp3073
sg83
g3067
sg76
(lp3074
g69
(g70
g71
NtRp3075
(dp3076
g74
(dp3077
g82
I3
ssg83
g3071
sg76
(lp3078
S'99'
p3079
asbasbasbag69
(g85
g71
NtRp3080
(dp3081
g74
(dp3082
sg83
g3051
sg76
(lp3083
g69
(g90
g71
NtRp3084
(dp3085
g74
(dp3086
sg83
g3080
sg76
(lp3087
g69
(g70
g71
NtRp3088
(dp3089
g74
(dp3090
g82
I3
ssg83
g3084
sg76
(lp3091
S'7'
asbasbasbag69
(g85
g71
NtRp3092
(dp3093
g74
(dp3094
sg83
g3051
sg76
(lp3095
g69
(g90
g71
NtRp3096
(dp3097
g74
(dp3098
sg83
g3092
sg76
(lp3099
g69
(g70
g71
NtRp3100
(dp3101
g74
(dp3102
g82
I3
ssg83
g3096
sg76
(lp3103
S'datetime.datetime(2012, 3, 4, 22, 12, 8)'
p3104
asbasbasbag69
(g85
g71
NtRp3105
(dp3106
g74
(dp3107
sg83
g3051
sg76
(lp3108
g69
(g90
g71
NtRp3109
(dp3110
g74
(dp3111
sg83
g3105
sg76
(lp3112
g69
(g70
g71
NtRp3113
(dp3114
g74
(dp3115
g82
I3
ssg83
g3109
sg76
(lp3116
g2506
asbasbasbasbasbasbasbasbasbasbasbag69
(g85
g71
NtRp3117
(dp3118
g74
(dp3119
sg83
g79
sg76
(lp3120
g69
(g90
g71
NtRp3121
(dp3122
g74
(dp3123
g94
g95
ssg83
g3117
sg76
(lp3124
S'is_https'
p3125
asbag69
(g90
g71
NtRp3126
(dp3127
g74
(dp3128
g101
g102
ssg83
g3117
sg76
(lp3129
S':'
asbag69
(g90
g71
NtRp3130
(dp3131
g74
(dp3132
sg83
g3117
sg76
(lp3133
g69
(g70
g71
NtRp3134
(dp3135
g74
(dp3136
g82
I5
ssg83
g3130
sg76
(lp3137
g112
asbasbasbag69
(g85
g71
NtRp3138
(dp3139
g74
(dp3140
sg83
g79
sg76
(lp3141
g69
(g90
g71
NtRp3142
(dp3143
g74
(dp3144
g94
g95
ssg83
g3138
sg76
(lp3145
S'is_local'
p3146
asbag69
(g90
g71
NtRp3147
(dp3148
g74
(dp3149
g101
g102
ssg83
g3138
sg76
(lp3150
S':'
asbag69
(g90
g71
NtRp3151
(dp3152
g74
(dp3153
sg83
g3138
sg76
(lp3154
g69
(g70
g71
NtRp3155
(dp3156
g74
(dp3157
g82
I5
ssg83
g3151
sg76
(lp3158
g2615
asbasbasbag69
(g85
g71
NtRp3159
(dp3160
g74
(dp3161
sg83
g79
sg76
(lp3162
g69
(g90
g71
NtRp3163
(dp3164
g74
(dp3165
g94
g95
ssg83
g3159
sg76
(lp3166
S'is_restful'
p3167
asbag69
(g90
g71
NtRp3168
(dp3169
g74
(dp3170
g101
g102
ssg83
g3159
sg76
(lp3171
S':'
asbag69
(g90
g71
NtRp3172
(dp3173
g74
(dp3174
sg83
g3159
sg76
(lp3175
g69
(g70
g71
NtRp3176
(dp3177
g74
(dp3178
g82
I5
ssg83
g3172
sg76
(lp3179
g112
asbasbasbag69
(g85
g71
NtRp3180
(dp3181
g74
(dp3182
sg83
g79
sg76
(lp3183
g69
(g90
g71
NtRp3184
(dp3185
g74
(dp3186
g94
g95
ssg83
g3180
sg76
(lp3187
S'now'
p3188
asbag69
(g90
g71
NtRp3189
(dp3190
g74
(dp3191
g101
g102
ssg83
g3180
sg76
(lp3192
S':'
asbag69
(g90
g71
NtRp3193
(dp3194
g74
(dp3195
sg83
g3180
sg76
(lp3196
g69
(g70
g71
NtRp3197
(dp3198
g74
(dp3199
g82
I5
ssg83
g3193
sg76
(lp3200
S'datetime.datetime(2012, 10, 15, 1, 38, 56, 747466)'
p3201
asbasbasbag69
(g85
g71
NtRp3202
(dp3203
g74
(dp3204
sg83
g79
sg76
(lp3205
g69
(g90
g71
NtRp3206
(dp3207
g74
(dp3208
g94
g95
ssg83
g3202
sg76
(lp3209
S'post_vars'
p3210
asbag69
(g90
g71
NtRp3211
(dp3212
g74
(dp3213
g101
g102
ssg83
g3202
sg76
(lp3214
S':'
asbag69
(g90
g71
NtRp3215
(dp3216
g74
(dp3217
sg83
g3202
sg76
(lp3218
g69
(g70
g71
NtRp3219
(dp3220
g74
(dp3221
g82
I5
ssg83
g3215
sg76
(lp3222
g69
(g78
g71
NtRp3223
(dp3224
g74
(dp3225
g82
I4
ssg83
Nsg76
(lp3226
sbasbasbasbag69
(g85
g71
NtRp3227
(dp3228
g74
(dp3229
sg83
g79
sg76
(lp3230
g69
(g90
g71
NtRp3231
(dp3232
g74
(dp3233
g94
g95
ssg83
g3227
sg76
(lp3234
S'url'
p3235
asbag69
(g90
g71
NtRp3236
(dp3237
g74
(dp3238
g101
g102
ssg83
g3227
sg76
(lp3239
S':'
asbag69
(g90
g71
NtRp3240
(dp3241
g74
(dp3242
sg83
g3227
sg76
(lp3243
g69
(g70
g71
NtRp3244
(dp3245
g74
(dp3246
g82
I5
ssg83
g3240
sg76
(lp3247
S'/astra1/default/show'
p3248
asbasbasbag69
(g85
g71
NtRp3249
(dp3250
g74
(dp3251
sg83
g79
sg76
(lp3252
g69
(g90
g71
NtRp3253
(dp3254
g74
(dp3255
g94
g95
ssg83
g3249
sg76
(lp3256
S'utcnow'
p3257
asbag69
(g90
g71
NtRp3258
(dp3259
g74
(dp3260
g101
g102
ssg83
g3249
sg76
(lp3261
S':'
asbag69
(g90
g71
NtRp3262
(dp3263
g74
(dp3264
sg83
g3249
sg76
(lp3265
g69
(g70
g71
NtRp3266
(dp3267
g74
(dp3268
g82
I5
ssg83
g3262
sg76
(lp3269
S'datetime.datetime(2012, 10, 14, 20, 38, 56, 747505)'
p3270
asbasbasbag69
(g85
g71
NtRp3271
(dp3272
g74
(dp3273
sg83
g79
sg76
(lp3274
g69
(g90
g71
NtRp3275
(dp3276
g74
(dp3277
g94
g95
ssg83
g3271
sg76
(lp3278
S'uuid'
p3279
asbag69
(g90
g71
NtRp3280
(dp3281
g74
(dp3282
g101
g102
ssg83
g3271
sg76
(lp3283
S':'
asbag69
(g90
g71
NtRp3284
(dp3285
g74
(dp3286
sg83
g3271
sg76
(lp3287
g69
(g70
g71
NtRp3288
(dp3289
g74
(dp3290
g82
I5
ssg83
g3284
sg76
(lp3291
S'astra1/127.0.0.1.2012-10-15.01-38-56.8b622350-eb09-4432-9e03-1d5e7f44e5d9'
p3292
asbasbasbag69
(g85
g71
NtRp3293
(dp3294
g74
(dp3295
sg83
g79
sg76
(lp3296
g69
(g90
g71
NtRp3297
(dp3298
g74
(dp3299
g94
g95
ssg83
g3293
sg76
(lp3300
S'vars'
p3301
asbag69
(g90
g71
NtRp3302
(dp3303
g74
(dp3304
g101
g102
ssg83
g3293
sg76
(lp3305
S':'
asbag69
(g90
g71
NtRp3306
(dp3307
g74
(dp3308
sg83
g3293
sg76
(lp3309
g69
(g70
g71
NtRp3310
(dp3311
g74
(dp3312
g82
I5
ssg83
g3306
sg76
(lp3313
g69
(g78
g71
NtRp3314
(dp3315
g74
(dp3316
g82
I4
ssg83
Nsg76
(lp3317
sbasbasbasbag69
(g85
g71
NtRp3318
(dp3319
g74
(dp3320
sg83
g79
sg76
(lp3321
g69
(g90
g71
NtRp3322
(dp3323
g74
(dp3324
g94
g95
ssg83
g3318
sg76
(lp3325
S'wsgi'
p3326
asbag69
(g90
g71
NtRp3327
(dp3328
g74
(dp3329
g101
g102
ssg83
g3318
sg76
(lp3330
S':'
asbag69
(g90
g71
NtRp3331
(dp3332
g74
(dp3333
sg83
g3318
sg76
(lp3334
g69
(g70
g71
NtRp3335
(dp3336
g74
(dp3337
g82
I5
ssg83
g3331
sg76
(lp3338
g69
(g78
g71
NtRp3339
(dp3340
g74
(dp3341
g82
I4
ssg83
Nsg76
(lp3342
g69
(g85
g71
NtRp3343
(dp3344
g74
(dp3345
sg83
g3339
sg76
(lp3346
g69
(g90
g71
NtRp3347
(dp3348
g74
(dp3349
g94
g95
ssg83
g3343
sg76
(lp3350
S'environ'
p3351
asbag69
(g90
g71
NtRp3352
(dp3353
g74
(dp3354
g101
g102
ssg83
g3343
sg76
(lp3355
S':'
asbag69
(g90
g71
NtRp3356
(dp3357
g74
(dp3358
sg83
g3343
sg76
(lp3359
g69
(g70
g71
NtRp3360
(dp3361
g74
(dp3362
g82
I4
ssg83
g3356
sg76
(lp3363
g69
(g78
g71
NtRp3364
(dp3365
g74
(dp3366
g82
I3
ssg83
Nsg76
(lp3367
g69
(g85
g71
NtRp3368
(dp3369
g74
(dp3370
sg83
g3364
sg76
(lp3371
g69
(g90
g71
NtRp3372
(dp3373
g74
(dp3374
g94
g95
ssg83
g3368
sg76
(lp3375
S'HTTP_ACCEPT'
p3376
asbag69
(g90
g71
NtRp3377
(dp3378
g74
(dp3379
g101
g102
ssg83
g3368
sg76
(lp3380
S':'
asbag69
(g90
g71
NtRp3381
(dp3382
g74
(dp3383
sg83
g3368
sg76
(lp3384
g69
(g70
g71
NtRp3385
(dp3386
g74
(dp3387
g82
I3
ssg83
g3381
sg76
(lp3388
g1940
asbasbasbag69
(g85
g71
NtRp3389
(dp3390
g74
(dp3391
sg83
g3364
sg76
(lp3392
g69
(g90
g71
NtRp3393
(dp3394
g74
(dp3395
g94
g95
ssg83
g3389
sg76
(lp3396
S'HTTP_ACCEPT_ENCODING'
p3397
asbag69
(g90
g71
NtRp3398
(dp3399
g74
(dp3400
g101
g102
ssg83
g3389
sg76
(lp3401
S':'
asbag69
(g90
g71
NtRp3402
(dp3403
g74
(dp3404
sg83
g3389
sg76
(lp3405
g69
(g70
g71
NtRp3406
(dp3407
g74
(dp3408
g82
I3
ssg83
g3402
sg76
(lp3409
g1962
asbasbasbag69
(g85
g71
NtRp3410
(dp3411
g74
(dp3412
sg83
g3364
sg76
(lp3413
g69
(g90
g71
NtRp3414
(dp3415
g74
(dp3416
g94
g95
ssg83
g3410
sg76
(lp3417
S'HTTP_ACCEPT_LANGUAGE'
p3418
asbag69
(g90
g71
NtRp3419
(dp3420
g74
(dp3421
g101
g102
ssg83
g3410
sg76
(lp3422
S':'
asbag69
(g90
g71
NtRp3423
(dp3424
g74
(dp3425
sg83
g3410
sg76
(lp3426
g69
(g70
g71
NtRp3427
(dp3428
g74
(dp3429
g82
I3
ssg83
g3423
sg76
(lp3430
g1984
asbasbasbag69
(g85
g71
NtRp3431
(dp3432
g74
(dp3433
sg83
g3364
sg76
(lp3434
g69
(g90
g71
NtRp3435
(dp3436
g74
(dp3437
g94
g95
ssg83
g3431
sg76
(lp3438
S'HTTP_CACHE_CONTROL'
p3439
asbag69
(g90
g71
NtRp3440
(dp3441
g74
(dp3442
g101
g102
ssg83
g3431
sg76
(lp3443
S':'
asbag69
(g90
g71
NtRp3444
(dp3445
g74
(dp3446
sg83
g3431
sg76
(lp3447
g69
(g70
g71
NtRp3448
(dp3449
g74
(dp3450
g82
I3
ssg83
g3444
sg76
(lp3451
g2006
asbasbasbag69
(g85
g71
NtRp3452
(dp3453
g74
(dp3454
sg83
g3364
sg76
(lp3455
g69
(g90
g71
NtRp3456
(dp3457
g74
(dp3458
g94
g95
ssg83
g3452
sg76
(lp3459
S'HTTP_CONNECTION'
p3460
asbag69
(g90
g71
NtRp3461
(dp3462
g74
(dp3463
g101
g102
ssg83
g3452
sg76
(lp3464
S':'
asbag69
(g90
g71
NtRp3465
(dp3466
g74
(dp3467
sg83
g3452
sg76
(lp3468
g69
(g70
g71
NtRp3469
(dp3470
g74
(dp3471
g82
I3
ssg83
g3465
sg76
(lp3472
g2028
asbasbasbag69
(g85
g71
NtRp3473
(dp3474
g74
(dp3475
sg83
g3364
sg76
(lp3476
g69
(g90
g71
NtRp3477
(dp3478
g74
(dp3479
g94
g95
ssg83
g3473
sg76
(lp3480
S'HTTP_COOKIE'
p3481
asbag69
(g90
g71
NtRp3482
(dp3483
g74
(dp3484
g101
g102
ssg83
g3473
sg76
(lp3485
S':'
asbag69
(g90
g71
NtRp3486
(dp3487
g74
(dp3488
sg83
g3473
sg76
(lp3489
g69
(g70
g71
NtRp3490
(dp3491
g74
(dp3492
g82
I3
ssg83
g3486
sg76
(lp3493
g2050
asbasbasbag69
(g85
g71
NtRp3494
(dp3495
g74
(dp3496
sg83
g3364
sg76
(lp3497
g69
(g90
g71
NtRp3498
(dp3499
g74
(dp3500
g94
g95
ssg83
g3494
sg76
(lp3501
S'HTTP_HOST'
p3502
asbag69
(g90
g71
NtRp3503
(dp3504
g74
(dp3505
g101
g102
ssg83
g3494
sg76
(lp3506
S':'
asbag69
(g90
g71
NtRp3507
(dp3508
g74
(dp3509
sg83
g3494
sg76
(lp3510
g69
(g70
g71
NtRp3511
(dp3512
g74
(dp3513
g82
I3
ssg83
g3507
sg76
(lp3514
g2072
asbasbasbag69
(g85
g71
NtRp3515
(dp3516
g74
(dp3517
sg83
g3364
sg76
(lp3518
g69
(g90
g71
NtRp3519
(dp3520
g74
(dp3521
g94
g95
ssg83
g3515
sg76
(lp3522
S'HTTP_REFERER'
p3523
asbag69
(g90
g71
NtRp3524
(dp3525
g74
(dp3526
g101
g102
ssg83
g3515
sg76
(lp3527
S':'
asbag69
(g90
g71
NtRp3528
(dp3529
g74
(dp3530
sg83
g3515
sg76
(lp3531
g69
(g70
g71
NtRp3532
(dp3533
g74
(dp3534
g82
I3
ssg83
g3528
sg76
(lp3535
g2094
asbasbasbag69
(g85
g71
NtRp3536
(dp3537
g74
(dp3538
sg83
g3364
sg76
(lp3539
g69
(g90
g71
NtRp3540
(dp3541
g74
(dp3542
g94
g95
ssg83
g3536
sg76
(lp3543
S'HTTP_USER_AGENT'
p3544
asbag69
(g90
g71
NtRp3545
(dp3546
g74
(dp3547
g101
g102
ssg83
g3536
sg76
(lp3548
S':'
asbag69
(g90
g71
NtRp3549
(dp3550
g74
(dp3551
sg83
g3536
sg76
(lp3552
g69
(g70
g71
NtRp3553
(dp3554
g74
(dp3555
g82
I3
ssg83
g3549
sg76
(lp3556
g2116
asbasbasbag69
(g85
g71
NtRp3557
(dp3558
g74
(dp3559
sg83
g3364
sg76
(lp3560
g69
(g90
g71
NtRp3561
(dp3562
g74
(dp3563
g94
g95
ssg83
g3557
sg76
(lp3564
S'PATH_INFO'
p3565
asbag69
(g90
g71
NtRp3566
(dp3567
g74
(dp3568
g101
g102
ssg83
g3557
sg76
(lp3569
S':'
asbag69
(g90
g71
NtRp3570
(dp3571
g74
(dp3572
sg83
g3557
sg76
(lp3573
g69
(g70
g71
NtRp3574
(dp3575
g74
(dp3576
g82
I3
ssg83
g3570
sg76
(lp3577
g2180
asbasbasbag69
(g85
g71
NtRp3578
(dp3579
g74
(dp3580
sg83
g3364
sg76
(lp3581
g69
(g90
g71
NtRp3582
(dp3583
g74
(dp3584
g94
g95
ssg83
g3578
sg76
(lp3585
S'QUERY_STRING'
p3586
asbag69
(g90
g71
NtRp3587
(dp3588
g74
(dp3589
g101
g102
ssg83
g3578
sg76
(lp3590
S':'
asbag69
(g90
g71
NtRp3591
(dp3592
g74
(dp3593
sg83
g3578
sg76
(lp3594
g69
(g70
g71
NtRp3595
(dp3596
g74
(dp3597
g82
I3
ssg83
g3591
sg76
(lp3598
S''
asbasbasbag69
(g85
g71
NtRp3599
(dp3600
g74
(dp3601
sg83
g3364
sg76
(lp3602
g69
(g90
g71
NtRp3603
(dp3604
g74
(dp3605
g94
g95
ssg83
g3599
sg76
(lp3606
S'REMOTE_ADDR'
p3607
asbag69
(g90
g71
NtRp3608
(dp3609
g74
(dp3610
g101
g102
ssg83
g3599
sg76
(lp3611
S':'
asbag69
(g90
g71
NtRp3612
(dp3613
g74
(dp3614
sg83
g3599
sg76
(lp3615
g69
(g70
g71
NtRp3616
(dp3617
g74
(dp3618
g82
I3
ssg83
g3612
sg76
(lp3619
g202
asbasbasbag69
(g85
g71
NtRp3620
(dp3621
g74
(dp3622
sg83
g3364
sg76
(lp3623
g69
(g90
g71
NtRp3624
(dp3625
g74
(dp3626
g94
g95
ssg83
g3620
sg76
(lp3627
S'REMOTE_PORT'
p3628
asbag69
(g90
g71
NtRp3629
(dp3630
g74
(dp3631
g101
g102
ssg83
g3620
sg76
(lp3632
S':'
asbag69
(g90
g71
NtRp3633
(dp3634
g74
(dp3635
sg83
g3620
sg76
(lp3636
g69
(g70
g71
NtRp3637
(dp3638
g74
(dp3639
g82
I3
ssg83
g3633
sg76
(lp3640
g2244
asbasbasbag69
(g85
g71
NtRp3641
(dp3642
g74
(dp3643
sg83
g3364
sg76
(lp3644
g69
(g90
g71
NtRp3645
(dp3646
g74
(dp3647
g94
g95
ssg83
g3641
sg76
(lp3648
S'REQUEST_METHOD'
p3649
asbag69
(g90
g71
NtRp3650
(dp3651
g74
(dp3652
g101
g102
ssg83
g3641
sg76
(lp3653
S':'
asbag69
(g90
g71
NtRp3654
(dp3655
g74
(dp3656
sg83
g3641
sg76
(lp3657
g69
(g70
g71
NtRp3658
(dp3659
g74
(dp3660
g82
I3
ssg83
g3654
sg76
(lp3661
g2266
asbasbasbag69
(g85
g71
NtRp3662
(dp3663
g74
(dp3664
sg83
g3364
sg76
(lp3665
g69
(g90
g71
NtRp3666
(dp3667
g74
(dp3668
g94
g95
ssg83
g3662
sg76
(lp3669
S'SCRIPT_NAME'
p3670
asbag69
(g90
g71
NtRp3671
(dp3672
g74
(dp3673
g101
g102
ssg83
g3662
sg76
(lp3674
S':'
asbag69
(g90
g71
NtRp3675
(dp3676
g74
(dp3677
sg83
g3662
sg76
(lp3678
g69
(g70
g71
NtRp3679
(dp3680
g74
(dp3681
g82
I3
ssg83
g3675
sg76
(lp3682
S''
asbasbasbag69
(g85
g71
NtRp3683
(dp3684
g74
(dp3685
sg83
g3364
sg76
(lp3686
g69
(g90
g71
NtRp3687
(dp3688
g74
(dp3689
g94
g95
ssg83
g3683
sg76
(lp3690
S'SERVER_NAME'
p3691
asbag69
(g90
g71
NtRp3692
(dp3693
g74
(dp3694
g101
g102
ssg83
g3683
sg76
(lp3695
S':'
asbag69
(g90
g71
NtRp3696
(dp3697
g74
(dp3698
sg83
g3683
sg76
(lp3699
g69
(g70
g71
NtRp3700
(dp3701
g74
(dp3702
g82
I3
ssg83
g3696
sg76
(lp3703
g2309
asbasbasbag69
(g85
g71
NtRp3704
(dp3705
g74
(dp3706
sg83
g3364
sg76
(lp3707
g69
(g90
g71
NtRp3708
(dp3709
g74
(dp3710
g94
g95
ssg83
g3704
sg76
(lp3711
S'SERVER_PORT'
p3712
asbag69
(g90
g71
NtRp3713
(dp3714
g74
(dp3715
g101
g102
ssg83
g3704
sg76
(lp3716
S':'
asbag69
(g90
g71
NtRp3717
(dp3718
g74
(dp3719
sg83
g3704
sg76
(lp3720
g69
(g70
g71
NtRp3721
(dp3722
g74
(dp3723
g82
I3
ssg83
g3717
sg76
(lp3724
g2331
asbasbasbag69
(g85
g71
NtRp3725
(dp3726
g74
(dp3727
sg83
g3364
sg76
(lp3728
g69
(g90
g71
NtRp3729
(dp3730
g74
(dp3731
g94
g95
ssg83
g3725
sg76
(lp3732
S'SERVER_PROTOCOL'
p3733
asbag69
(g90
g71
NtRp3734
(dp3735
g74
(dp3736
g101
g102
ssg83
g3725
sg76
(lp3737
S':'
asbag69
(g90
g71
NtRp3738
(dp3739
g74
(dp3740
sg83
g3725
sg76
(lp3741
g69
(g70
g71
NtRp3742
(dp3743
g74
(dp3744
g82
I3
ssg83
g3738
sg76
(lp3745
g2353
asbasbasbag69
(g85
g71
NtRp3746
(dp3747
g74
(dp3748
sg83
g3364
sg76
(lp3749
g69
(g90
g71
NtRp3750
(dp3751
g74
(dp3752
g94
g95
ssg83
g3746
sg76
(lp3753
S'SERVER_SOFTWARE'
p3754
asbag69
(g90
g71
NtRp3755
(dp3756
g74
(dp3757
g101
g102
ssg83
g3746
sg76
(lp3758
S':'
asbag69
(g90
g71
NtRp3759
(dp3760
g74
(dp3761
sg83
g3746
sg76
(lp3762
g69
(g70
g71
NtRp3763
(dp3764
g74
(dp3765
g82
I3
ssg83
g3759
sg76
(lp3766
g2375
asbasbasbag69
(g85
g71
NtRp3767
(dp3768
g74
(dp3769
sg83
g3364
sg76
(lp3770
g69
(g90
g71
NtRp3771
(dp3772
g74
(dp3773
g94
g95
ssg83
g3767
sg76
(lp3774
S'wsgi.errors'
p3775
asbag69
(g90
g71
NtRp3776
(dp3777
g74
(dp3778
g101
g102
ssg83
g3767
sg76
(lp3779
S':'
asbag69
(g90
g71
NtRp3780
(dp3781
g74
(dp3782
sg83
g3767
sg76
(lp3783
g69
(g70
g71
NtRp3784
(dp3785
g74
(dp3786
g82
I3
ssg83
g3780
sg76
(lp3787
S"<open file '<stderr>', mode 'w' at 0xb77bc0d0>"
p3788
asbasbasbag69
(g85
g71
NtRp3789
(dp3790
g74
(dp3791
sg83
g3364
sg76
(lp3792
g69
(g90
g71
NtRp3793
(dp3794
g74
(dp3795
g94
g95
ssg83
g3789
sg76
(lp3796
S'wsgi.file_wrapper'
p3797
asbag69
(g90
g71
NtRp3798
(dp3799
g74
(dp3800
g101
g102
ssg83
g3789
sg76
(lp3801
S':'
asbag69
(g90
g71
NtRp3802
(dp3803
g74
(dp3804
sg83
g3789
sg76
(lp3805
g69
(g70
g71
NtRp3806
(dp3807
g74
(dp3808
g82
I3
ssg83
g3802
sg76
(lp3809
S'<class wsgiref.util.FileWrapper at 0x9c55aac>'
p3810
asbasbasbag69
(g85
g71
NtRp3811
(dp3812
g74
(dp3813
sg83
g3364
sg76
(lp3814
g69
(g90
g71
NtRp3815
(dp3816
g74
(dp3817
g94
g95
ssg83
g3811
sg76
(lp3818
S'wsgi.input'
p3819
asbag69
(g90
g71
NtRp3820
(dp3821
g74
(dp3822
g101
g102
ssg83
g3811
sg76
(lp3823
S':'
asbag69
(g90
g71
NtRp3824
(dp3825
g74
(dp3826
sg83
g3811
sg76
(lp3827
g69
(g70
g71
NtRp3828
(dp3829
g74
(dp3830
g82
I3
ssg83
g3824
sg76
(lp3831
S'<cStringIO.StringO object at 0xab5ac80>'
p3832
asbasbasbag69
(g85
g71
NtRp3833
(dp3834
g74
(dp3835
sg83
g3364
sg76
(lp3836
g69
(g90
g71
NtRp3837
(dp3838
g74
(dp3839
g94
g95
ssg83
g3833
sg76
(lp3840
S'wsgi.multiprocess'
p3841
asbag69
(g90
g71
NtRp3842
(dp3843
g74
(dp3844
g101
g102
ssg83
g3833
sg76
(lp3845
S':'
asbag69
(g90
g71
NtRp3846
(dp3847
g74
(dp3848
sg83
g3833
sg76
(lp3849
g69
(g70
g71
NtRp3850
(dp3851
g74
(dp3852
g82
I3
ssg83
g3846
sg76
(lp3853
g112
asbasbasbag69
(g85
g71
NtRp3854
(dp3855
g74
(dp3856
sg83
g3364
sg76
(lp3857
g69
(g90
g71
NtRp3858
(dp3859
g74
(dp3860
g94
g95
ssg83
g3854
sg76
(lp3861
S'wsgi.multithread'
p3862
asbag69
(g90
g71
NtRp3863
(dp3864
g74
(dp3865
g101
g102
ssg83
g3854
sg76
(lp3866
S':'
asbag69
(g90
g71
NtRp3867
(dp3868
g74
(dp3869
sg83
g3854
sg76
(lp3870
g69
(g70
g71
NtRp3871
(dp3872
g74
(dp3873
g82
I3
ssg83
g3867
sg76
(lp3874
g2615
asbasbasbag69
(g85
g71
NtRp3875
(dp3876
g74
(dp3877
sg83
g3364
sg76
(lp3878
g69
(g90
g71
NtRp3879
(dp3880
g74
(dp3881
g94
g95
ssg83
g3875
sg76
(lp3882
S'wsgi.run_once'
p3883
asbag69
(g90
g71
NtRp3884
(dp3885
g74
(dp3886
g101
g102
ssg83
g3875
sg76
(lp3887
S':'
asbag69
(g90
g71
NtRp3888
(dp3889
g74
(dp3890
sg83
g3875
sg76
(lp3891
g69
(g70
g71
NtRp3892
(dp3893
g74
(dp3894
g82
I3
ssg83
g3888
sg76
(lp3895
g112
asbasbasbag69
(g85
g71
NtRp3896
(dp3897
g74
(dp3898
sg83
g3364
sg76
(lp3899
g69
(g90
g71
NtRp3900
(dp3901
g74
(dp3902
g94
g95
ssg83
g3896
sg76
(lp3903
S'wsgi.url_scheme'
p3904
asbag69
(g90
g71
NtRp3905
(dp3906
g74
(dp3907
g101
g102
ssg83
g3896
sg76
(lp3908
S':'
asbag69
(g90
g71
NtRp3909
(dp3910
g74
(dp3911
sg83
g3896
sg76
(lp3912
g69
(g70
g71
NtRp3913
(dp3914
g74
(dp3915
g82
I3
ssg83
g3909
sg76
(lp3916
g2658
asbasbasbag69
(g85
g71
NtRp3917
(dp3918
g74
(dp3919
sg83
g3364
sg76
(lp3920
g69
(g90
g71
NtRp3921
(dp3922
g74
(dp3923
g94
g95
ssg83
g3917
sg76
(lp3924
S'wsgi.version'
p3925
asbag69
(g90
g71
NtRp3926
(dp3927
g74
(dp3928
g101
g102
ssg83
g3917
sg76
(lp3929
S':'
asbag69
(g90
g71
NtRp3930
(dp3931
g74
(dp3932
sg83
g3917
sg76
(lp3933
g69
(g70
g71
NtRp3934
(dp3935
g74
(dp3936
g82
I3
ssg83
g3930
sg76
(lp3937
S'1'
asbasbasbasbasbasbasbasbasbasbasbasbasbsS'frames'
p3938
(lp3939
(dp3940
S'file'
p3941
S'/home/vishrut/web2py/gluon/restricted.py'
p3942
sS'dump'
p3943
(dp3944
S'code'
p3945
S'r"response.write(\'<!DOCTYPE html>\\n<!-- paulirish....ponse.write(\'\\n</body>\\n</html>\\n\', escape=False)"'
p3946
sS'layer'
p3947
S"'/home/vishrut/web2py/applications/astra1/views/default/show.html'"
p3948
sS'global compile2'
p3949
S'<function compile2>'
p3950
sS'ccode'
p3951
S'undefined'
p3952
ssS'lnum'
p3953
I204
sS'lines'
p3954
(dp3955
I199
S"    environment['__name__'] = '__restricted__'"
p3956
sI200
S'    try:'
p3957
sI201
S'        if type(code) == types.CodeType:'
p3958
sI202
S'            ccode = code'
p3959
sI203
S'        else:'
p3960
sI204
S'            ccode = compile2(code,layer)'
p3961
sI205
S'        exec ccode in environment'
p3962
sI206
S'    except HTTP:'
p3963
sI207
S'        raise'
p3964
sI208
S'    except RestrictedError:'
p3965
ssS'call'
p3966
S'(code=r"response.write(\'<!DOCTYPE html>\\n<!-- paulirish....ponse.write(\'\\n</body>\\n</html>\\n\', escape=False)", environment={\'A\': <class \'gluon.html.A\'>, \'Auth\': <class \'gluon.tools.Auth\'>, \'B\': <class \'gluon.html.B\'>, \'BEAUTIFY\': <class \'gluon.html.BEAUTIFY\'>, \'BODY\': <class \'gluon.html.BODY\'>, \'BR\': <class \'gluon.html.BR\'>, \'BUTTON\': <class \'gluon.html.BUTTON\'>, \'CAT\': <class \'gluon.html.CAT\'>, \'CENTER\': <class \'gluon.html.CENTER\'>, \'CLEANUP\': <class \'gluon.validators.CLEANUP\'>, ...}, layer=\'/home/vishrut/web2py/applications/astra1/views/default/show.html\')'
p3967
sS'func'
p3968
S'restricted'
p3969
sa(dp3970
g3941
S'/home/vishrut/web2py/gluon/restricted.py'
p3971
sg3943
(dp3972
S'builtincompile'
p3973
S'<built-in function compile>'
p3974
sS'code'
p3975
S'r"response.write(\'<!DOCTYPE html>\\n<!-- paulirish....ponse.write(\'\\n</body>\\n</html>\\n\', escape=False)"'
p3976
sS'code.rstrip'
p3977
S'<built-in method rstrip of str object>'
p3978
sS').replace'
p3979
g3952
sS'layer'
p3980
S"'/home/vishrut/web2py/applications/astra1/views/default/show.html'"
p3981
ssg3953
I189
sg3954
(dp3982
I192
S'    """'
p3983
sI193
S'    runs code in environment and returns the output. if an exception occurs'
p3984
sI184
S''
sI185
S'def compile2(code,layer):'
p3985
sI186
S'    """'
p3986
sI187
S"    The +'\\n' is necessary else compile fails when code ends in a comment."
p3987
sI188
S'    """'
p3988
sI189
S"    return compile(code.rstrip().replace('\\r\\n','\\n')+'\\n', layer, 'exec')"
p3989
sI190
S''
sI191
S"def restricted(code, environment=None, layer='Unknown'):"
p3990
ssg3966
S'(code=r"response.write(\'<!DOCTYPE html>\\n<!-- paulirish....ponse.write(\'\\n</body>\\n</html>\\n\', escape=False)", layer=\'/home/vishrut/web2py/applications/astra1/views/default/show.html\')'
p3991
sg3968
S'compile2'
p3992
sasS'pyver'
p3993
S'Python 2.7.2+: /usr/bin/python'
p3994
sS'session'
p3995
g69
(g70
g71
NtRp3996
(dp3997
g74
(dp3998
sg76
(lp3999
g69
(g78
g71
NtRp4000
(dp4001
g74
(dp4002
g82
I5
ssg83
Nsg76
(lp4003
g69
(g85
g71
NtRp4004
(dp4005
g74
(dp4006
sg83
g4000
sg76
(lp4007
g69
(g90
g71
NtRp4008
(dp4009
g74
(dp4010
g94
g95
ssg83
g4004
sg76
(lp4011
S'last_query'
p4012
asbag69
(g90
g71
NtRp4013
(dp4014
g74
(dp4015
g101
g102
ssg83
g4004
sg76
(lp4016
S':'
asbag69
(g90
g71
NtRp4017
(dp4018
g74
(dp4019
sg83
g4004
sg76
(lp4020
g69
(g70
g71
NtRp4021
(dp4022
g74
(dp4023
g82
I5
ssg83
g4017
sg76
(lp4024
S'db.kids.id>0'
p4025
asbasbasbag69
(g85
g71
NtRp4026
(dp4027
g74
(dp4028
sg83
g4000
sg76
(lp4029
g69
(g90
g71
NtRp4030
(dp4031
g74
(dp4032
g94
g95
ssg83
g4026
sg76
(lp4033
S'logged'
p4034
asbag69
(g90
g71
NtRp4035
(dp4036
g74
(dp4037
g101
g102
ssg83
g4026
sg76
(lp4038
S':'
asbag69
(g90
g71
NtRp4039
(dp4040
g74
(dp4041
sg83
g4026
sg76
(lp4042
g69
(g70
g71
NtRp4043
(dp4044
g74
(dp4045
g82
I5
ssg83
g4039
sg76
(lp4046
S'0'
asbasbasbag69
(g85
g71
NtRp4047
(dp4048
g74
(dp4049
sg83
g4000
sg76
(lp4050
g69
(g90
g71
NtRp4051
(dp4052
g74
(dp4053
g94
g95
ssg83
g4047
sg76
(lp4054
S'name'
p4055
asbag69
(g90
g71
NtRp4056
(dp4057
g74
(dp4058
g101
g102
ssg83
g4047
sg76
(lp4059
S':'
asbag69
(g90
g71
NtRp4060
(dp4061
g74
(dp4062
sg83
g4047
sg76
(lp4063
g69
(g70
g71
NtRp4064
(dp4065
g74
(dp4066
g82
I5
ssg83
g4060
sg76
(lp4067
S'Hist'
p4068
asbasbasbag69
(g85
g71
NtRp4069
(dp4070
g74
(dp4071
sg83
g4000
sg76
(lp4072
g69
(g90
g71
NtRp4073
(dp4074
g74
(dp4075
g94
g95
ssg83
g4069
sg76
(lp4076
S'username'
p4077
asbag69
(g90
g71
NtRp4078
(dp4079
g74
(dp4080
g101
g102
ssg83
g4069
sg76
(lp4081
S':'
asbag69
(g90
g71
NtRp4082
(dp4083
g74
(dp4084
sg83
g4069
sg76
(lp4085
g69
(g70
g71
NtRp4086
(dp4087
g74
(dp4088
g82
I5
ssg83
g4082
sg76
(lp4089
S'Tushant'
p4090
asbasbasbasbasbsS'etype'
p4091
S"<type 'exceptions.SyntaxError'>"
p4092
sS'date'
p4093
S'Mon Oct 15 01:38:56 2012'
p4094
sS'response'
p4095
g69
(g70
g71
NtRp4096
(dp4097
g74
(dp4098
sg76
(lp4099
g69
(g78
g71
NtRp4100
(dp4101
g74
(dp4102
g82
I5
ssg83
Nsg76
(lp4103
g69
(g85
g71
NtRp4104
(dp4105
g74
(dp4106
sg83
g4100
sg76
(lp4107
g69
(g90
g71
NtRp4108
(dp4109
g74
(dp4110
g94
g95
ssg83
g4104
sg76
(lp4111
g167
asbag69
(g90
g71
NtRp4112
(dp4113
g74
(dp4114
g101
g102
ssg83
g4104
sg76
(lp4115
S':'
asbag69
(g90
g71
NtRp4116
(dp4117
g74
(dp4118
sg83
g4104
sg76
(lp4119
g69
(g70
g71
NtRp4120
(dp4121
g74
(dp4122
g82
I5
ssg83
g4116
sg76
(lp4123
S'<cStringIO.StringO object at 0xab5aca0>'
p4124
asbasbasbag69
(g85
g71
NtRp4125
(dp4126
g74
(dp4127
sg83
g4100
sg76
(lp4128
g69
(g90
g71
NtRp4129
(dp4130
g74
(dp4131
g94
g95
ssg83
g4125
sg76
(lp4132
g233
asbag69
(g90
g71
NtRp4133
(dp4134
g74
(dp4135
g101
g102
ssg83
g4125
sg76
(lp4136
S':'
asbag69
(g90
g71
NtRp4137
(dp4138
g74
(dp4139
sg83
g4125
sg76
(lp4140
g69
(g70
g71
NtRp4141
(dp4142
g74
(dp4143
g82
I5
ssg83
g4137
sg76
(lp4144
g69
(g78
g71
NtRp4145
(dp4146
g74
(dp4147
g82
I4
ssg83
Nsg76
(lp4148
g69
(g85
g71
NtRp4149
(dp4150
g74
(dp4151
sg83
g4145
sg76
(lp4152
g69
(g90
g71
NtRp4153
(dp4154
g74
(dp4155
g94
g95
ssg83
g4149
sg76
(lp4156
S'session_id_astra1'
p4157
asbag69
(g90
g71
NtRp4158
(dp4159
g74
(dp4160
g101
g102
ssg83
g4149
sg76
(lp4161
S':'
asbag69
(g90
g71
NtRp4162
(dp4163
g74
(dp4164
sg83
g4149
sg76
(lp4165
g69
(g70
g71
NtRp4166
(dp4167
g74
(dp4168
g82
I4
ssg83
g4162
sg76
(lp4169
g69
(g78
g71
NtRp4170
(dp4171
g74
(dp4172
g82
I3
ssg83
Nsg76
(lp4173
g69
(g85
g71
NtRp4174
(dp4175
g74
(dp4176
sg83
g4170
sg76
(lp4177
g69
(g90
g71
NtRp4178
(dp4179
g74
(dp4180
g94
g95
ssg83
g4174
sg76
(lp4181
g283
asbag69
(g90
g71
NtRp4182
(dp4183
g74
(dp4184
g101
g102
ssg83
g4174
sg76
(lp4185
S':'
asbag69
(g90
g71
NtRp4186
(dp4187
g74
(dp4188
sg83
g4174
sg76
(lp4189
g69
(g70
g71
NtRp4190
(dp4191
g74
(dp4192
g82
I3
ssg83
g4186
sg76
(lp4193
S''
asbasbasbag69
(g85
g71
NtRp4194
(dp4195
g74
(dp4196
sg83
g4170
sg76
(lp4197
g69
(g90
g71
NtRp4198
(dp4199
g74
(dp4200
g94
g95
ssg83
g4194
sg76
(lp4201
g304
asbag69
(g90
g71
NtRp4202
(dp4203
g74
(dp4204
g101
g102
ssg83
g4194
sg76
(lp4205
S':'
asbag69
(g90
g71
NtRp4206
(dp4207
g74
(dp4208
sg83
g4194
sg76
(lp4209
g69
(g70
g71
NtRp4210
(dp4211
g74
(dp4212
g82
I3
ssg83
g4206
sg76
(lp4213
S''
asbasbasbag69
(g85
g71
NtRp4214
(dp4215
g74
(dp4216
sg83
g4170
sg76
(lp4217
g69
(g90
g71
NtRp4218
(dp4219
g74
(dp4220
g94
g95
ssg83
g4214
sg76
(lp4221
g325
asbag69
(g90
g71
NtRp4222
(dp4223
g74
(dp4224
g101
g102
ssg83
g4214
sg76
(lp4225
S':'
asbag69
(g90
g71
NtRp4226
(dp4227
g74
(dp4228
sg83
g4214
sg76
(lp4229
g69
(g70
g71
NtRp4230
(dp4231
g74
(dp4232
g82
I3
ssg83
g4226
sg76
(lp4233
S''
asbasbasbag69
(g85
g71
NtRp4234
(dp4235
g74
(dp4236
sg83
g4170
sg76
(lp4237
g69
(g90
g71
NtRp4238
(dp4239
g74
(dp4240
g94
g95
ssg83
g4234
sg76
(lp4241
g346
asbag69
(g90
g71
NtRp4242
(dp4243
g74
(dp4244
g101
g102
ssg83
g4234
sg76
(lp4245
S':'
asbag69
(g90
g71
NtRp4246
(dp4247
g74
(dp4248
sg83
g4234
sg76
(lp4249
g69
(g70
g71
NtRp4250
(dp4251
g74
(dp4252
g82
I3
ssg83
g4246
sg76
(lp4253
S''
asbasbasbag69
(g85
g71
NtRp4254
(dp4255
g74
(dp4256
sg83
g4170
sg76
(lp4257
g69
(g90
g71
NtRp4258
(dp4259
g74
(dp4260
g94
g95
ssg83
g4254
sg76
(lp4261
g367
asbag69
(g90
g71
NtRp4262
(dp4263
g74
(dp4264
g101
g102
ssg83
g4254
sg76
(lp4265
S':'
asbag69
(g90
g71
NtRp4266
(dp4267
g74
(dp4268
sg83
g4254
sg76
(lp4269
g69
(g70
g71
NtRp4270
(dp4271
g74
(dp4272
g82
I3
ssg83
g4266
sg76
(lp4273
S''
asbasbasbag69
(g85
g71
NtRp4274
(dp4275
g74
(dp4276
sg83
g4170
sg76
(lp4277
g69
(g90
g71
NtRp4278
(dp4279
g74
(dp4280
g94
g95
ssg83
g4274
sg76
(lp4281
g388
asbag69
(g90
g71
NtRp4282
(dp4283
g74
(dp4284
g101
g102
ssg83
g4274
sg76
(lp4285
S':'
asbag69
(g90
g71
NtRp4286
(dp4287
g74
(dp4288
sg83
g4274
sg76
(lp4289
g69
(g70
g71
NtRp4290
(dp4291
g74
(dp4292
g82
I3
ssg83
g4286
sg76
(lp4293
S'/'
asbasbasbag69
(g85
g71
NtRp4294
(dp4295
g74
(dp4296
sg83
g4170
sg76
(lp4297
g69
(g90
g71
NtRp4298
(dp4299
g74
(dp4300
g94
g95
ssg83
g4294
sg76
(lp4301
g409
asbag69
(g90
g71
NtRp4302
(dp4303
g74
(dp4304
g101
g102
ssg83
g4294
sg76
(lp4305
S':'
asbag69
(g90
g71
NtRp4306
(dp4307
g74
(dp4308
sg83
g4294
sg76
(lp4309
g69
(g70
g71
NtRp4310
(dp4311
g74
(dp4312
g82
I3
ssg83
g4306
sg76
(lp4313
S''
asbasbasbag69
(g85
g71
NtRp4314
(dp4315
g74
(dp4316
sg83
g4170
sg76
(lp4317
g69
(g90
g71
NtRp4318
(dp4319
g74
(dp4320
g94
g95
ssg83
g4314
sg76
(lp4321
g430
asbag69
(g90
g71
NtRp4322
(dp4323
g74
(dp4324
g101
g102
ssg83
g4314
sg76
(lp4325
S':'
asbag69
(g90
g71
NtRp4326
(dp4327
g74
(dp4328
sg83
g4314
sg76
(lp4329
g69
(g70
g71
NtRp4330
(dp4331
g74
(dp4332
g82
I3
ssg83
g4326
sg76
(lp4333
S''
asbasbasbasbasbasbasbasbasbasbasbag69
(g85
g71
NtRp4334
(dp4335
g74
(dp4336
sg83
g4100
sg76
(lp4337
g69
(g90
g71
NtRp4338
(dp4339
g74
(dp4340
g94
g95
ssg83
g4334
sg76
(lp4341
S'delimiters'
p4342
asbag69
(g90
g71
NtRp4343
(dp4344
g74
(dp4345
g101
g102
ssg83
g4334
sg76
(lp4346
S':'
asbag69
(g90
g71
NtRp4347
(dp4348
g74
(dp4349
sg83
g4334
sg76
(lp4350
g69
(g70
g71
NtRp4351
(dp4352
g74
(dp4353
g82
I5
ssg83
g4347
sg76
(lp4354
g69
(g78
g71
NtRp4355
(dp4356
g74
(dp4357
g82
I4
ssg83
Nsg76
(lp4358
g69
(g85
g71
NtRp4359
(dp4360
g74
(dp4361
sg83
g4355
sg76
(lp4362
g69
(g90
g71
NtRp4363
(dp4364
g74
(dp4365
sg83
g4359
sg76
(lp4366
g69
(g70
g71
NtRp4367
(dp4368
g74
(dp4369
g82
I4
ssg83
g4363
sg76
(lp4370
S'{{'
p4371
asbasbasbag69
(g85
g71
NtRp4372
(dp4373
g74
(dp4374
sg83
g4355
sg76
(lp4375
g69
(g90
g71
NtRp4376
(dp4377
g74
(dp4378
sg83
g4372
sg76
(lp4379
g69
(g70
g71
NtRp4380
(dp4381
g74
(dp4382
g82
I4
ssg83
g4376
sg76
(lp4383
S'}}'
p4384
asbasbasbasbasbasbasbag69
(g85
g71
NtRp4385
(dp4386
g74
(dp4387
sg83
g4100
sg76
(lp4388
g69
(g90
g71
NtRp4389
(dp4390
g74
(dp4391
g94
g95
ssg83
g4385
sg76
(lp4392
S'files'
p4393
asbag69
(g90
g71
NtRp4394
(dp4395
g74
(dp4396
g101
g102
ssg83
g4385
sg76
(lp4397
S':'
asbag69
(g90
g71
NtRp4398
(dp4399
g74
(dp4400
sg83
g4385
sg76
(lp4401
g69
(g70
g71
NtRp4402
(dp4403
g74
(dp4404
g82
I5
ssg83
g4398
sg76
(lp4405
g69
(g78
g71
NtRp4406
(dp4407
g74
(dp4408
g82
I4
ssg83
Nsg76
(lp4409
sbasbasbasbag69
(g85
g71
NtRp4410
(dp4411
g74
(dp4412
sg83
g4100
sg76
(lp4413
g69
(g90
g71
NtRp4414
(dp4415
g74
(dp4416
g94
g95
ssg83
g4410
sg76
(lp4417
S'flash'
p4418
asbag69
(g90
g71
NtRp4419
(dp4420
g74
(dp4421
g101
g102
ssg83
g4410
sg76
(lp4422
S':'
asbag69
(g90
g71
NtRp4423
(dp4424
g74
(dp4425
sg83
g4410
sg76
(lp4426
g69
(g70
g71
NtRp4427
(dp4428
g74
(dp4429
g82
I5
ssg83
g4423
sg76
(lp4430
S'Welcome Tushant'
p4431
asbasbasbag69
(g85
g71
NtRp4432
(dp4433
g74
(dp4434
sg83
g4100
sg76
(lp4435
g69
(g90
g71
NtRp4436
(dp4437
g74
(dp4438
g94
g95
ssg83
g4432
sg76
(lp4439
S'generic_patterns'
p4440
asbag69
(g90
g71
NtRp4441
(dp4442
g74
(dp4443
g101
g102
ssg83
g4432
sg76
(lp4444
S':'
asbag69
(g90
g71
NtRp4445
(dp4446
g74
(dp4447
sg83
g4432
sg76
(lp4448
g69
(g70
g71
NtRp4449
(dp4450
g74
(dp4451
g82
I5
ssg83
g4445
sg76
(lp4452
g69
(g78
g71
NtRp4453
(dp4454
g74
(dp4455
g82
I4
ssg83
Nsg76
(lp4456
g69
(g85
g71
NtRp4457
(dp4458
g74
(dp4459
sg83
g4453
sg76
(lp4460
g69
(g90
g71
NtRp4461
(dp4462
g74
(dp4463
sg83
g4457
sg76
(lp4464
g69
(g70
g71
NtRp4465
(dp4466
g74
(dp4467
g82
I4
ssg83
g4461
sg76
(lp4468
S'*'
asbasbasbasbasbasbasbag69
(g85
g71
NtRp4469
(dp4470
g74
(dp4471
sg83
g4100
sg76
(lp4472
g69
(g90
g71
NtRp4473
(dp4474
g74
(dp4475
g94
g95
ssg83
g4469
sg76
(lp4476
S'headers'
p4477
asbag69
(g90
g71
NtRp4478
(dp4479
g74
(dp4480
g101
g102
ssg83
g4469
sg76
(lp4481
S':'
asbag69
(g90
g71
NtRp4482
(dp4483
g74
(dp4484
sg83
g4469
sg76
(lp4485
g69
(g70
g71
NtRp4486
(dp4487
g74
(dp4488
g82
I5
ssg83
g4482
sg76
(lp4489
g69
(g78
g71
NtRp4490
(dp4491
g74
(dp4492
g82
I4
ssg83
Nsg76
(lp4493
g69
(g85
g71
NtRp4494
(dp4495
g74
(dp4496
sg83
g4490
sg76
(lp4497
g69
(g90
g71
NtRp4498
(dp4499
g74
(dp4500
g94
g95
ssg83
g4494
sg76
(lp4501
S'Cache-Control'
p4502
asbag69
(g90
g71
NtRp4503
(dp4504
g74
(dp4505
g101
g102
ssg83
g4494
sg76
(lp4506
S':'
asbag69
(g90
g71
NtRp4507
(dp4508
g74
(dp4509
sg83
g4494
sg76
(lp4510
g69
(g70
g71
NtRp4511
(dp4512
g74
(dp4513
g82
I4
ssg83
g4507
sg76
(lp4514
S'no-store, no-cache, must-revalidate, post-check=0, pre-check=0'
p4515
asbasbasbag69
(g85
g71
NtRp4516
(dp4517
g74
(dp4518
sg83
g4490
sg76
(lp4519
g69
(g90
g71
NtRp4520
(dp4521
g74
(dp4522
g94
g95
ssg83
g4516
sg76
(lp4523
S'Content-Type'
p4524
asbag69
(g90
g71
NtRp4525
(dp4526
g74
(dp4527
g101
g102
ssg83
g4516
sg76
(lp4528
S':'
asbag69
(g90
g71
NtRp4529
(dp4530
g74
(dp4531
sg83
g4516
sg76
(lp4532
g69
(g70
g71
NtRp4533
(dp4534
g74
(dp4535
g82
I4
ssg83
g4529
sg76
(lp4536
S'text/html; charset=utf-8'
p4537
asbasbasbag69
(g85
g71
NtRp4538
(dp4539
g74
(dp4540
sg83
g4490
sg76
(lp4541
g69
(g90
g71
NtRp4542
(dp4543
g74
(dp4544
g94
g95
ssg83
g4538
sg76
(lp4545
S'Expires'
p4546
asbag69
(g90
g71
NtRp4547
(dp4548
g74
(dp4549
g101
g102
ssg83
g4538
sg76
(lp4550
S':'
asbag69
(g90
g71
NtRp4551
(dp4552
g74
(dp4553
sg83
g4538
sg76
(lp4554
g69
(g70
g71
NtRp4555
(dp4556
g74
(dp4557
g82
I4
ssg83
g4551
sg76
(lp4558
S'Sun, 14 Oct 2012 20:38:56 GMT'
p4559
asbasbasbag69
(g85
g71
NtRp4560
(dp4561
g74
(dp4562
sg83
g4490
sg76
(lp4563
g69
(g90
g71
NtRp4564
(dp4565
g74
(dp4566
g94
g95
ssg83
g4560
sg76
(lp4567
S'Pragma'
p4568
asbag69
(g90
g71
NtRp4569
(dp4570
g74
(dp4571
g101
g102
ssg83
g4560
sg76
(lp4572
S':'
asbag69
(g90
g71
NtRp4573
(dp4574
g74
(dp4575
sg83
g4560
sg76
(lp4576
g69
(g70
g71
NtRp4577
(dp4578
g74
(dp4579
g82
I4
ssg83
g4573
sg76
(lp4580
S'no-cache'
p4581
asbasbasbag69
(g85
g71
NtRp4582
(dp4583
g74
(dp4584
sg83
g4490
sg76
(lp4585
g69
(g90
g71
NtRp4586
(dp4587
g74
(dp4588
g94
g95
ssg83
g4582
sg76
(lp4589
S'X-Powered-By'
p4590
asbag69
(g90
g71
NtRp4591
(dp4592
g74
(dp4593
g101
g102
ssg83
g4582
sg76
(lp4594
S':'
asbag69
(g90
g71
NtRp4595
(dp4596
g74
(dp4597
sg83
g4582
sg76
(lp4598
g69
(g70
g71
NtRp4599
(dp4600
g74
(dp4601
g82
I4
ssg83
g4595
sg76
(lp4602
S'web2py'
p4603
asbasbasbasbasbasbasbag69
(g85
g71
NtRp4604
(dp4605
g74
(dp4606
sg83
g4100
sg76
(lp4607
g69
(g90
g71
NtRp4608
(dp4609
g74
(dp4610
g94
g95
ssg83
g4604
sg76
(lp4611
S'menu'
p4612
asbag69
(g90
g71
NtRp4613
(dp4614
g74
(dp4615
g101
g102
ssg83
g4604
sg76
(lp4616
S':'
asbag69
(g90
g71
NtRp4617
(dp4618
g74
(dp4619
sg83
g4604
sg76
(lp4620
g69
(g70
g71
NtRp4621
(dp4622
g74
(dp4623
g82
I5
ssg83
g4617
sg76
(lp4624
g69
(g78
g71
NtRp4625
(dp4626
g74
(dp4627
g82
I4
ssg83
Nsg76
(lp4628
g69
(g85
g71
NtRp4629
(dp4630
g74
(dp4631
sg83
g4625
sg76
(lp4632
g69
(g90
g71
NtRp4633
(dp4634
g74
(dp4635
sg83
g4629
sg76
(lp4636
g69
(g70
g71
NtRp4637
(dp4638
g74
(dp4639
g82
I4
ssg83
g4633
sg76
(lp4640
g69
(g78
g71
NtRp4641
(dp4642
g74
(dp4643
g82
I3
ssg83
Nsg76
(lp4644
g69
(g85
g71
NtRp4645
(dp4646
g74
(dp4647
sg83
g4641
sg76
(lp4648
g69
(g90
g71
NtRp4649
(dp4650
g74
(dp4651
sg83
g4645
sg76
(lp4652
g69
(g70
g71
NtRp4653
(dp4654
g74
(dp4655
g82
I3
ssg83
g4649
sg76
(lp4656
cgluon.languages
lazyT_unpickle
p4657
(S't\x04\x00\x00\x00Home'
tRp4658
asbasbasbag69
(g85
g71
NtRp4659
(dp4660
g74
(dp4661
sg83
g4641
sg76
(lp4662
g69
(g90
g71
NtRp4663
(dp4664
g74
(dp4665
sg83
g4659
sg76
(lp4666
g69
(g70
g71
NtRp4667
(dp4668
g74
(dp4669
g82
I3
ssg83
g4663
sg76
(lp4670
g112
asbasbasbag69
(g85
g71
NtRp4671
(dp4672
g74
(dp4673
sg83
g4641
sg76
(lp4674
g69
(g90
g71
NtRp4675
(dp4676
g74
(dp4677
sg83
g4671
sg76
(lp4678
g69
(g70
g71
NtRp4679
(dp4680
g74
(dp4681
g82
I3
ssg83
g4675
sg76
(lp4682
S'/astra1/default/index'
p4683
asbasbasbag69
(g85
g71
NtRp4684
(dp4685
g74
(dp4686
sg83
g4641
sg76
(lp4687
g69
(g90
g71
NtRp4688
(dp4689
g74
(dp4690
sg83
g4684
sg76
(lp4691
g69
(g70
g71
NtRp4692
(dp4693
g74
(dp4694
g82
I3
ssg83
g4688
sg76
(lp4695
g69
(g78
g71
NtRp4696
(dp4697
g74
(dp4698
g82
I2
ssg83
Nsg76
(lp4699
sbasbasbasbasbasbasbasbag69
(g85
g71
NtRp4700
(dp4701
g74
(dp4702
sg83
g4625
sg76
(lp4703
g69
(g90
g71
NtRp4704
(dp4705
g74
(dp4706
sg83
g4700
sg76
(lp4707
g69
(g70
g71
NtRp4708
(dp4709
g74
(dp4710
g82
I4
ssg83
g4704
sg76
(lp4711
g69
(g78
g71
NtRp4712
(dp4713
g74
(dp4714
g82
I3
ssg83
Nsg76
(lp4715
g69
(g85
g71
NtRp4716
(dp4717
g74
(dp4718
sg83
g4712
sg76
(lp4719
g69
(g90
g71
NtRp4720
(dp4721
g74
(dp4722
sg83
g4716
sg76
(lp4723
g69
(g70
g71
NtRp4724
(dp4725
g74
(dp4726
g82
I3
ssg83
g4720
sg76
(lp4727
g69
(cgluon.html
SPAN
p4728
g71
NtRp4729
(dp4730
g74
(dp4731
g94
S'color:yellow'
p4732
ssg83
Nsg76
(lp4733
g4603
asbasbasbasbag69
(g85
g71
NtRp4734
(dp4735
g74
(dp4736
sg83
g4712
sg76
(lp4737
g69
(g90
g71
NtRp4738
(dp4739
g74
(dp4740
sg83
g4734
sg76
(lp4741
g69
(g70
g71
NtRp4742
(dp4743
g74
(dp4744
g82
I3
ssg83
g4738
sg76
(lp4745
g112
asbasbasbag69
(g85
g71
NtRp4746
(dp4747
g74
(dp4748
sg83
g4712
sg76
(lp4749
g69
(g90
g71
NtRp4750
(dp4751
g74
(dp4752
sg83
g4746
sg76
(lp4753
g69
(g70
g71
NtRp4754
(dp4755
g74
(dp4756
g82
I3
ssg83
g4750
sg76
(lp4757
S'None'
p4758
asbasbasbag69
(g85
g71
NtRp4759
(dp4760
g74
(dp4761
sg83
g4712
sg76
(lp4762
g69
(g90
g71
NtRp4763
(dp4764
g74
(dp4765
sg83
g4759
sg76
(lp4766
g69
(g70
g71
NtRp4767
(dp4768
g74
(dp4769
g82
I3
ssg83
g4763
sg76
(lp4770
g69
(g78
g71
NtRp4771
(dp4772
g74
(dp4773
g82
I2
ssg83
Nsg76
(lp4774
g69
(g85
g71
NtRp4775
(dp4776
g74
(dp4777
sg83
g4771
sg76
(lp4778
g69
(g90
g71
NtRp4779
(dp4780
g74
(dp4781
sg83
g4775
sg76
(lp4782
g69
(g70
g71
NtRp4783
(dp4784
g74
(dp4785
g82
I2
ssg83
g4779
sg76
(lp4786
g69
(g78
g71
NtRp4787
(dp4788
g74
(dp4789
g82
I1
ssg83
Nsg76
(lp4790
g69
(g85
g71
NtRp4791
(dp4792
g74
(dp4793
sg83
g4787
sg76
(lp4794
g69
(g90
g71
NtRp4795
(dp4796
g74
(dp4797
sg83
g4791
sg76
(lp4798
g69
(g70
g71
NtRp4799
(dp4800
g74
(dp4801
g82
I1
ssg83
g4795
sg76
(lp4802
g4657
(S's\x08\x00\x00\x00My Sites'
tRp4803
asbasbasbag69
(g85
g71
NtRp4804
(dp4805
g74
(dp4806
sg83
g4787
sg76
(lp4807
g69
(g90
g71
NtRp4808
(dp4809
g74
(dp4810
sg83
g4804
sg76
(lp4811
g69
(g70
g71
NtRp4812
(dp4813
g74
(dp4814
g82
I1
ssg83
g4808
sg76
(lp4815
I00
asbasbasbag69
(g85
g71
NtRp4816
(dp4817
g74
(dp4818
sg83
g4787
sg76
(lp4819
g69
(g90
g71
NtRp4820
(dp4821
g74
(dp4822
sg83
g4816
sg76
(lp4823
g69
(g70
g71
NtRp4824
(dp4825
g74
(dp4826
g82
I1
ssg83
g4820
sg76
(lp4827
S'/admin/default/site'
p4828
asbasbasbasbasbasbasbag69
(g85
g71
NtRp4829
(dp4830
g74
(dp4831
sg83
g4771
sg76
(lp4832
g69
(g90
g71
NtRp4833
(dp4834
g74
(dp4835
sg83
g4829
sg76
(lp4836
g69
(g70
g71
NtRp4837
(dp4838
g74
(dp4839
g82
I2
ssg83
g4833
sg76
(lp4840
g69
(g78
g71
NtRp4841
(dp4842
g74
(dp4843
g82
I1
ssg83
Nsg76
(lp4844
g69
(g85
g71
NtRp4845
(dp4846
g74
(dp4847
sg83
g4841
sg76
(lp4848
g69
(g90
g71
NtRp4849
(dp4850
g74
(dp4851
sg83
g4845
sg76
(lp4852
g69
(g70
g71
NtRp4853
(dp4854
g74
(dp4855
g82
I1
ssg83
g4849
sg76
(lp4856
g4657
(S's\x08\x00\x00\x00This App'
tRp4857
asbasbasbag69
(g85
g71
NtRp4858
(dp4859
g74
(dp4860
sg83
g4841
sg76
(lp4861
g69
(g90
g71
NtRp4862
(dp4863
g74
(dp4864
sg83
g4858
sg76
(lp4865
g69
(g70
g71
NtRp4866
(dp4867
g74
(dp4868
g82
I1
ssg83
g4862
sg76
(lp4869
I00
asbasbasbag69
(g85
g71
NtRp4870
(dp4871
g74
(dp4872
sg83
g4841
sg76
(lp4873
g69
(g90
g71
NtRp4874
(dp4875
g74
(dp4876
sg83
g4870
sg76
(lp4877
g69
(g70
g71
NtRp4878
(dp4879
g74
(dp4880
g82
I1
ssg83
g4874
sg76
(lp4881
S'/admin/default/design/astra1'
p4882
asbasbasbag69
(g85
g71
NtRp4883
(dp4884
g74
(dp4885
sg83
g4841
sg76
(lp4886
g69
(g90
g71
NtRp4887
(dp4888
g74
(dp4889
sg83
g4883
sg76
(lp4890
g69
(g70
g71
NtRp4891
(dp4892
g74
(dp4893
g82
I1
ssg83
g4887
sg76
(lp4894
(lp4895
(g4657
(S't\n\x00\x00\x00Controller'
tRp4896
I00
S'/admin/default/edit/astra1/controllers/default.py'
tp4897
a(g4657
(S't\x04\x00\x00\x00View'
tRp4898
I00
S'/admin/default/edit/astra1/views/default/show.html'
tp4899
a(g4657
(S't\x06\x00\x00\x00Layout'
tRp4900
I00
S'/admin/default/edit/astra1/views/layout.html'
tp4901
a(g4657
(S't\n\x00\x00\x00Stylesheet'
tRp4902
I00
S'/admin/default/edit/astra1/static/css/web2py.css'
tp4903
a(g4657
(S's\x08\x00\x00\x00DB Model'
tRp4904
I00
S'/admin/default/edit/astra1/models/db.py'
tp4905
a(g4657
(S's\n\x00\x00\x00Menu Model'
tRp4906
I00
S'/admin/default/edit/astra1/models/menu.py'
tp4907
a(g4657
(S't\x08\x00\x00\x00Database'
tRp4908
I00
S'/astra1/appadmin/index'
tp4909
a(g4657
(S't\x06\x00\x00\x00Errors'
tRp4910
I00
S'/admin/default/errors/astra1'
tp4911
a(g4657
(S't\x05\x00\x00\x00About'
tRp4912
I00
S'/admin/default/about/astra1'
tp4913
aasbasbasbasbasbasbasbag69
(g85
g71
NtRp4914
(dp4915
g74
(dp4916
sg83
g4771
sg76
(lp4917
g69
(g90
g71
NtRp4918
(dp4919
g74
(dp4920
sg83
g4914
sg76
(lp4921
g69
(g70
g71
NtRp4922
(dp4923
g74
(dp4924
g82
I2
ssg83
g4918
sg76
(lp4925
g69
(g78
g71
NtRp4926
(dp4927
g74
(dp4928
g82
I1
ssg83
Nsg76
(lp4929
g69
(g85
g71
NtRp4930
(dp4931
g74
(dp4932
sg83
g4926
sg76
(lp4933
g69
(g90
g71
NtRp4934
(dp4935
g74
(dp4936
sg83
g4930
sg76
(lp4937
g69
(g70
g71
NtRp4938
(dp4939
g74
(dp4940
g82
I1
ssg83
g4934
sg76
(lp4941
S'web2py.com'
p4942
asbasbasbag69
(g85
g71
NtRp4943
(dp4944
g74
(dp4945
sg83
g4926
sg76
(lp4946
g69
(g90
g71
NtRp4947
(dp4948
g74
(dp4949
sg83
g4943
sg76
(lp4950
g69
(g70
g71
NtRp4951
(dp4952
g74
(dp4953
g82
I1
ssg83
g4947
sg76
(lp4954
I00
asbasbasbag69
(g85
g71
NtRp4955
(dp4956
g74
(dp4957
sg83
g4926
sg76
(lp4958
g69
(g90
g71
NtRp4959
(dp4960
g74
(dp4961
sg83
g4955
sg76
(lp4962
g69
(g70
g71
NtRp4963
(dp4964
g74
(dp4965
g82
I1
ssg83
g4959
sg76
(lp4966
S'http://www.web2py.com'
p4967
asbasbasbag69
(g85
g71
NtRp4968
(dp4969
g74
(dp4970
sg83
g4926
sg76
(lp4971
g69
(g90
g71
NtRp4972
(dp4973
g74
(dp4974
sg83
g4968
sg76
(lp4975
g69
(g70
g71
NtRp4976
(dp4977
g74
(dp4978
g82
I1
ssg83
g4972
sg76
(lp4979
(lp4980
(g4657
(S't\x08\x00\x00\x00Download'
tRp4981
I00
S'http://www.web2py.com/examples/default/download'
p4982
tp4983
a(g4657
(S't\x07\x00\x00\x00Support'
tRp4984
I00
S'http://www.web2py.com/examples/default/support'
p4985
tp4986
a(g4657
(S't\x04\x00\x00\x00Demo'
tRp4987
I00
S'http://web2py.com/demo_admin'
p4988
tp4989
a(g4657
(S's\x0e\x00\x00\x00Quick Examples'
tRp4990
I00
S'http://web2py.com/examples/default/examples'
p4991
tp4992
a(g4657
(S't\x03\x00\x00\x00FAQ'
tRp4993
I00
S'http://web2py.com/AlterEgo'
p4994
tp4995
a(g4657
(S't\x06\x00\x00\x00Videos'
tRp4996
I00
S'http://www.web2py.com/examples/default/videos/'
p4997
tp4998
a(g4657
(S's\x11\x00\x00\x00Free Applications'
tRp4999
I00
S'http://web2py.com/appliances'
p5000
tp5001
a(g4657
(S't\x07\x00\x00\x00Plugins'
tRp5002
I00
S'http://web2py.com/plugins'
p5003
tp5004
a(g4657
(S't\x07\x00\x00\x00Layouts'
tRp5005
I00
S'http://web2py.com/layouts'
p5006
tp5007
a(g4657
(S't\x07\x00\x00\x00Recipes'
tRp5008
I00
S'http://web2pyslices.com/'
p5009
tp5010
a(g4657
(S't\x08\x00\x00\x00Semantic'
tRp5011
I00
S'http://web2py.com/semantic'
p5012
tp5013
aasbasbasbasbasbasbasbag69
(g85
g71
NtRp5014
(dp5015
g74
(dp5016
sg83
g4771
sg76
(lp5017
g69
(g90
g71
NtRp5018
(dp5019
g74
(dp5020
sg83
g5014
sg76
(lp5021
g69
(g70
g71
NtRp5022
(dp5023
g74
(dp5024
g82
I2
ssg83
g5018
sg76
(lp5025
g69
(g78
g71
NtRp5026
(dp5027
g74
(dp5028
g82
I1
ssg83
Nsg76
(lp5029
g69
(g85
g71
NtRp5030
(dp5031
g74
(dp5032
sg83
g5026
sg76
(lp5033
g69
(g90
g71
NtRp5034
(dp5035
g74
(dp5036
sg83
g5030
sg76
(lp5037
g69
(g70
g71
NtRp5038
(dp5039
g74
(dp5040
g82
I1
ssg83
g5034
sg76
(lp5041
g4657
(S't\r\x00\x00\x00Documentation'
tRp5042
asbasbasbag69
(g85
g71
NtRp5043
(dp5044
g74
(dp5045
sg83
g5026
sg76
(lp5046
g69
(g90
g71
NtRp5047
(dp5048
g74
(dp5049
sg83
g5043
sg76
(lp5050
g69
(g70
g71
NtRp5051
(dp5052
g74
(dp5053
g82
I1
ssg83
g5047
sg76
(lp5054
I00
asbasbasbag69
(g85
g71
NtRp5055
(dp5056
g74
(dp5057
sg83
g5026
sg76
(lp5058
g69
(g90
g71
NtRp5059
(dp5060
g74
(dp5061
sg83
g5055
sg76
(lp5062
g69
(g70
g71
NtRp5063
(dp5064
g74
(dp5065
g82
I1
ssg83
g5059
sg76
(lp5066
S'http://www.web2py.com/book'
p5067
asbasbasbag69
(g85
g71
NtRp5068
(dp5069
g74
(dp5070
sg83
g5026
sg76
(lp5071
g69
(g90
g71
NtRp5072
(dp5073
g74
(dp5074
sg83
g5068
sg76
(lp5075
g69
(g70
g71
NtRp5076
(dp5077
g74
(dp5078
g82
I1
ssg83
g5072
sg76
(lp5079
(lp5080
(g4657
(S't\x07\x00\x00\x00Preface'
tRp5081
I00
S'http://www.web2py.com/book/default/chapter/00'
p5082
tp5083
a(g4657
(S't\x0c\x00\x00\x00Introduction'
tRp5084
I00
S'http://www.web2py.com/book/default/chapter/01'
p5085
tp5086
a(g4657
(S't\x06\x00\x00\x00Python'
tRp5087
I00
S'http://www.web2py.com/book/default/chapter/02'
p5088
tp5089
a(g4657
(S't\x08\x00\x00\x00Overview'
tRp5090
I00
S'http://www.web2py.com/book/default/chapter/03'
p5091
tp5092
a(g4657
(S's\x08\x00\x00\x00The Core'
tRp5093
I00
S'http://www.web2py.com/book/default/chapter/04'
p5094
tp5095
a(g4657
(S's\t\x00\x00\x00The Views'
tRp5096
I00
S'http://www.web2py.com/book/default/chapter/05'
p5097
tp5098
a(g4657
(S't\x08\x00\x00\x00Database'
tRp5099
I00
S'http://www.web2py.com/book/default/chapter/06'
p5100
tp5101
a(g4657
(S's\x14\x00\x00\x00Forms and Validators'
tRp5102
I00
S'http://www.web2py.com/book/default/chapter/07'
p5103
tp5104
a(g4657
(S's\r\x00\x00\x00Email and SMS'
tRp5105
I00
S'http://www.web2py.com/book/default/chapter/08'
p5106
tp5107
a(g4657
(S's\x0e\x00\x00\x00Access Control'
tRp5108
I00
S'http://www.web2py.com/book/default/chapter/09'
p5109
tp5110
a(g4657
(S't\x08\x00\x00\x00Services'
tRp5111
I00
S'http://www.web2py.com/book/default/chapter/10'
p5112
tp5113
a(g4657
(S's\x0c\x00\x00\x00Ajax Recipes'
tRp5114
I00
S'http://www.web2py.com/book/default/chapter/11'
p5115
tp5116
a(g4657
(S's\x16\x00\x00\x00Components and Plugins'
tRp5117
I00
S'http://www.web2py.com/book/default/chapter/12'
p5118
tp5119
a(g4657
(S's\x12\x00\x00\x00Deployment Recipes'
tRp5120
I00
S'http://www.web2py.com/book/default/chapter/13'
p5121
tp5122
a(g4657
(S's\r\x00\x00\x00Other Recipes'
tRp5123
I00
S'http://www.web2py.com/book/default/chapter/14'
p5124
tp5125
a(g4657
(S's\r\x00\x00\x00Buy this book'
tRp5126
I00
S'http://stores.lulu.com/web2py'
p5127
tp5128
aasbasbasbasbasbasbasbag69
(g85
g71
NtRp5129
(dp5130
g74
(dp5131
sg83
g4771
sg76
(lp5132
g69
(g90
g71
NtRp5133
(dp5134
g74
(dp5135
sg83
g5129
sg76
(lp5136
g69
(g70
g71
NtRp5137
(dp5138
g74
(dp5139
g82
I2
ssg83
g5133
sg76
(lp5140
g69
(g78
g71
NtRp5141
(dp5142
g74
(dp5143
g82
I1
ssg83
Nsg76
(lp5144
g69
(g85
g71
NtRp5145
(dp5146
g74
(dp5147
sg83
g5141
sg76
(lp5148
g69
(g90
g71
NtRp5149
(dp5150
g74
(dp5151
sg83
g5145
sg76
(lp5152
g69
(g70
g71
NtRp5153
(dp5154
g74
(dp5155
g82
I1
ssg83
g5149
sg76
(lp5156
g4657
(S't\t\x00\x00\x00Community'
tRp5157
asbasbasbag69
(g85
g71
NtRp5158
(dp5159
g74
(dp5160
sg83
g5141
sg76
(lp5161
g69
(g90
g71
NtRp5162
(dp5163
g74
(dp5164
sg83
g5158
sg76
(lp5165
g69
(g70
g71
NtRp5166
(dp5167
g74
(dp5168
g82
I1
ssg83
g5162
sg76
(lp5169
I00
asbasbasbag69
(g85
g71
NtRp5170
(dp5171
g74
(dp5172
sg83
g5141
sg76
(lp5173
g69
(g90
g71
NtRp5174
(dp5175
g74
(dp5176
sg83
g5170
sg76
(lp5177
g69
(g70
g71
NtRp5178
(dp5179
g74
(dp5180
g82
I1
ssg83
g5174
sg76
(lp5181
Nasbasbasbag69
(g85
g71
NtRp5182
(dp5183
g74
(dp5184
sg83
g5141
sg76
(lp5185
g69
(g90
g71
NtRp5186
(dp5187
g74
(dp5188
sg83
g5182
sg76
(lp5189
g69
(g70
g71
NtRp5190
(dp5191
g74
(dp5192
g82
I1
ssg83
g5186
sg76
(lp5193
(lp5194
(g4657
(S't\x06\x00\x00\x00Groups'
tRp5195
I00
S'http://www.web2py.com/examples/default/usergroups'
p5196
tp5197
a(g4657
(S't\x07\x00\x00\x00Twitter'
tRp5198
I00
S'http://twitter.com/web2py'
p5199
tp5200
a(g4657
(S's\t\x00\x00\x00Live Chat'
tRp5201
I00
S'http://webchat.freenode.net/?channels=web2py'
p5202
tp5203
aasbasbasbasbasbasbasbag69
(g85
g71
NtRp5204
(dp5205
g74
(dp5206
sg83
g4771
sg76
(lp5207
g69
(g90
g71
NtRp5208
(dp5209
g74
(dp5210
sg83
g5204
sg76
(lp5211
g69
(g70
g71
NtRp5212
(dp5213
g74
(dp5214
g82
I2
ssg83
g5208
sg76
(lp5215
g69
(g78
g71
NtRp5216
(dp5217
g74
(dp5218
g82
I1
ssg83
Nsg76
(lp5219
g69
(g85
g71
NtRp5220
(dp5221
g74
(dp5222
sg83
g5216
sg76
(lp5223
g69
(g90
g71
NtRp5224
(dp5225
g74
(dp5226
sg83
g5220
sg76
(lp5227
g69
(g70
g71
NtRp5228
(dp5229
g74
(dp5230
g82
I1
ssg83
g5224
sg76
(lp5231
g4657
(S't\x07\x00\x00\x00Plugins'
tRp5232
asbasbasbag69
(g85
g71
NtRp5233
(dp5234
g74
(dp5235
sg83
g5216
sg76
(lp5236
g69
(g90
g71
NtRp5237
(dp5238
g74
(dp5239
sg83
g5233
sg76
(lp5240
g69
(g70
g71
NtRp5241
(dp5242
g74
(dp5243
g82
I1
ssg83
g5237
sg76
(lp5244
I00
asbasbasbag69
(g85
g71
NtRp5245
(dp5246
g74
(dp5247
sg83
g5216
sg76
(lp5248
g69
(g90
g71
NtRp5249
(dp5250
g74
(dp5251
sg83
g5245
sg76
(lp5252
g69
(g70
g71
NtRp5253
(dp5254
g74
(dp5255
g82
I1
ssg83
g5249
sg76
(lp5256
Nasbasbasbag69
(g85
g71
NtRp5257
(dp5258
g74
(dp5259
sg83
g5216
sg76
(lp5260
g69
(g90
g71
NtRp5261
(dp5262
g74
(dp5263
sg83
g5257
sg76
(lp5264
g69
(g70
g71
NtRp5265
(dp5266
g74
(dp5267
g82
I1
ssg83
g5261
sg76
(lp5268
(lp5269
(S'plugin_wiki'
p5270
I00
S'http://web2py.com/examples/default/download'
p5271
tp5272
a(g4657
(S's\r\x00\x00\x00Other Plugins'
tRp5273
I00
g5003
tp5274
a(g4657
(S's\x0e\x00\x00\x00Layout Plugins'
tRp5275
I00
g5006
tp5276
aasbasbasbasbasbasbasbasbasbasbasbasbasbasbasbasbasbasbasbag69
(g85
g71
NtRp5277
(dp5278
g74
(dp5279
sg83
g4100
sg76
(lp5280
g69
(g90
g71
NtRp5281
(dp5282
g74
(dp5283
g94
g95
ssg83
g5277
sg76
(lp5284
S'meta'
p5285
asbag69
(g90
g71
NtRp5286
(dp5287
g74
(dp5288
g101
g102
ssg83
g5277
sg76
(lp5289
S':'
asbag69
(g90
g71
NtRp5290
(dp5291
g74
(dp5292
sg83
g5277
sg76
(lp5293
g69
(g70
g71
NtRp5294
(dp5295
g74
(dp5296
g82
I5
ssg83
g5290
sg76
(lp5297
g69
(g78
g71
NtRp5298
(dp5299
g74
(dp5300
g82
I4
ssg83
Nsg76
(lp5301
g69
(g85
g71
NtRp5302
(dp5303
g74
(dp5304
sg83
g5298
sg76
(lp5305
g69
(g90
g71
NtRp5306
(dp5307
g74
(dp5308
g94
g95
ssg83
g5302
sg76
(lp5309
S'author'
p5310
asbag69
(g90
g71
NtRp5311
(dp5312
g74
(dp5313
g101
g102
ssg83
g5302
sg76
(lp5314
S':'
asbag69
(g90
g71
NtRp5315
(dp5316
g74
(dp5317
sg83
g5302
sg76
(lp5318
g69
(g70
g71
NtRp5319
(dp5320
g74
(dp5321
g82
I4
ssg83
g5315
sg76
(lp5322
S'Your Name <you@example.com>'
p5323
asbasbasbag69
(g85
g71
NtRp5324
(dp5325
g74
(dp5326
sg83
g5298
sg76
(lp5327
g69
(g90
g71
NtRp5328
(dp5329
g74
(dp5330
g94
g95
ssg83
g5324
sg76
(lp5331
S'copyright'
p5332
asbag69
(g90
g71
NtRp5333
(dp5334
g74
(dp5335
g101
g102
ssg83
g5324
sg76
(lp5336
S':'
asbag69
(g90
g71
NtRp5337
(dp5338
g74
(dp5339
sg83
g5324
sg76
(lp5340
g69
(g70
g71
NtRp5341
(dp5342
g74
(dp5343
g82
I4
ssg83
g5337
sg76
(lp5344
S'Copyright 2011'
p5345
asbasbasbag69
(g85
g71
NtRp5346
(dp5347
g74
(dp5348
sg83
g5298
sg76
(lp5349
g69
(g90
g71
NtRp5350
(dp5351
g74
(dp5352
g94
g95
ssg83
g5346
sg76
(lp5353
S'description'
p5354
asbag69
(g90
g71
NtRp5355
(dp5356
g74
(dp5357
g101
g102
ssg83
g5346
sg76
(lp5358
S':'
asbag69
(g90
g71
NtRp5359
(dp5360
g74
(dp5361
sg83
g5346
sg76
(lp5362
g69
(g70
g71
NtRp5363
(dp5364
g74
(dp5365
g82
I4
ssg83
g5359
sg76
(lp5366
S'a cool new app'
p5367
asbasbasbag69
(g85
g71
NtRp5368
(dp5369
g74
(dp5370
sg83
g5298
sg76
(lp5371
g69
(g90
g71
NtRp5372
(dp5373
g74
(dp5374
g94
g95
ssg83
g5368
sg76
(lp5375
S'generator'
p5376
asbag69
(g90
g71
NtRp5377
(dp5378
g74
(dp5379
g101
g102
ssg83
g5368
sg76
(lp5380
S':'
asbag69
(g90
g71
NtRp5381
(dp5382
g74
(dp5383
sg83
g5368
sg76
(lp5384
g69
(g70
g71
NtRp5385
(dp5386
g74
(dp5387
g82
I4
ssg83
g5381
sg76
(lp5388
S'Web2py Web Framework'
p5389
asbasbasbag69
(g85
g71
NtRp5390
(dp5391
g74
(dp5392
sg83
g5298
sg76
(lp5393
g69
(g90
g71
NtRp5394
(dp5395
g74
(dp5396
g94
g95
ssg83
g5390
sg76
(lp5397
S'keywords'
p5398
asbag69
(g90
g71
NtRp5399
(dp5400
g74
(dp5401
g101
g102
ssg83
g5390
sg76
(lp5402
S':'
asbag69
(g90
g71
NtRp5403
(dp5404
g74
(dp5405
sg83
g5390
sg76
(lp5406
g69
(g70
g71
NtRp5407
(dp5408
g74
(dp5409
g82
I4
ssg83
g5403
sg76
(lp5410
S'web2py, python, framework'
p5411
asbasbasbasbasbasbasbag69
(g85
g71
NtRp5412
(dp5413
g74
(dp5414
sg83
g4100
sg76
(lp5415
g69
(g90
g71
NtRp5416
(dp5417
g74
(dp5418
g94
g95
ssg83
g5412
sg76
(lp5419
S'postprocessing'
p5420
asbag69
(g90
g71
NtRp5421
(dp5422
g74
(dp5423
g101
g102
ssg83
g5412
sg76
(lp5424
S':'
asbag69
(g90
g71
NtRp5425
(dp5426
g74
(dp5427
sg83
g5412
sg76
(lp5428
g69
(g70
g71
NtRp5429
(dp5430
g74
(dp5431
g82
I5
ssg83
g5425
sg76
(lp5432
g69
(g78
g71
NtRp5433
(dp5434
g74
(dp5435
g82
I4
ssg83
Nsg76
(lp5436
sbasbasbasbag69
(g85
g71
NtRp5437
(dp5438
g74
(dp5439
sg83
g4100
sg76
(lp5440
g69
(g90
g71
NtRp5441
(dp5442
g74
(dp5443
g94
g95
ssg83
g5437
sg76
(lp5444
S'session_file'
p5445
asbag69
(g90
g71
NtRp5446
(dp5447
g74
(dp5448
g101
g102
ssg83
g5437
sg76
(lp5449
S':'
asbag69
(g90
g71
NtRp5450
(dp5451
g74
(dp5452
sg83
g5437
sg76
(lp5453
g69
(g70
g71
NtRp5454
(dp5455
g74
(dp5456
g82
I5
ssg83
g5450
sg76
(lp5457
S"<open file '/home/vishrut/web2py/applications/astra1/sessions/127.0.0.1-6c6943ea-9e10-4b64-9f35-8611eb020dd8', mode 'rb+' at 0xac3c758>"
p5458
asbasbasbag69
(g85
g71
NtRp5459
(dp5460
g74
(dp5461
sg83
g4100
sg76
(lp5462
g69
(g90
g71
NtRp5463
(dp5464
g74
(dp5465
g94
g95
ssg83
g5459
sg76
(lp5466
S'session_filename'
p5467
asbag69
(g90
g71
NtRp5468
(dp5469
g74
(dp5470
g101
g102
ssg83
g5459
sg76
(lp5471
S':'
asbag69
(g90
g71
NtRp5472
(dp5473
g74
(dp5474
sg83
g5459
sg76
(lp5475
g69
(g70
g71
NtRp5476
(dp5477
g74
(dp5478
g82
I5
ssg83
g5472
sg76
(lp5479
S'/home/vishrut/web2py/applications/astra1/sessions/127.0.0.1-6c6943ea-9e10-4b64-9f35-8611eb020dd8'
p5480
asbasbasbag69
(g85
g71
NtRp5481
(dp5482
g74
(dp5483
sg83
g4100
sg76
(lp5484
g69
(g90
g71
NtRp5485
(dp5486
g74
(dp5487
g94
g95
ssg83
g5481
sg76
(lp5488
S'session_id'
p5489
asbag69
(g90
g71
NtRp5490
(dp5491
g74
(dp5492
g101
g102
ssg83
g5481
sg76
(lp5493
S':'
asbag69
(g90
g71
NtRp5494
(dp5495
g74
(dp5496
sg83
g5481
sg76
(lp5497
g69
(g70
g71
NtRp5498
(dp5499
g74
(dp5500
g82
I5
ssg83
g5494
sg76
(lp5501
S'127.0.0.1-6c6943ea-9e10-4b64-9f35-8611eb020dd8'
p5502
asbasbasbag69
(g85
g71
NtRp5503
(dp5504
g74
(dp5505
sg83
g4100
sg76
(lp5506
g69
(g90
g71
NtRp5507
(dp5508
g74
(dp5509
g94
g95
ssg83
g5503
sg76
(lp5510
S'session_id_name'
p5511
asbag69
(g90
g71
NtRp5512
(dp5513
g74
(dp5514
g101
g102
ssg83
g5503
sg76
(lp5515
S':'
asbag69
(g90
g71
NtRp5516
(dp5517
g74
(dp5518
sg83
g5503
sg76
(lp5519
g69
(g70
g71
NtRp5520
(dp5521
g74
(dp5522
g82
I5
ssg83
g5516
sg76
(lp5523
g4157
asbasbasbag69
(g85
g71
NtRp5524
(dp5525
g74
(dp5526
sg83
g4100
sg76
(lp5527
g69
(g90
g71
NtRp5528
(dp5529
g74
(dp5530
g94
g95
ssg83
g5524
sg76
(lp5531
S'session_locked'
p5532
asbag69
(g90
g71
NtRp5533
(dp5534
g74
(dp5535
g101
g102
ssg83
g5524
sg76
(lp5536
S':'
asbag69
(g90
g71
NtRp5537
(dp5538
g74
(dp5539
sg83
g5524
sg76
(lp5540
g69
(g70
g71
NtRp5541
(dp5542
g74
(dp5543
g82
I5
ssg83
g5537
sg76
(lp5544
g2615
asbasbasbag69
(g85
g71
NtRp5545
(dp5546
g74
(dp5547
sg83
g4100
sg76
(lp5548
g69
(g90
g71
NtRp5549
(dp5550
g74
(dp5551
g94
g95
ssg83
g5545
sg76
(lp5552
S'session_new'
p5553
asbag69
(g90
g71
NtRp5554
(dp5555
g74
(dp5556
g101
g102
ssg83
g5545
sg76
(lp5557
S':'
asbag69
(g90
g71
NtRp5558
(dp5559
g74
(dp5560
sg83
g5545
sg76
(lp5561
g69
(g70
g71
NtRp5562
(dp5563
g74
(dp5564
g82
I5
ssg83
g5558
sg76
(lp5565
g112
asbasbasbag69
(g85
g71
NtRp5566
(dp5567
g74
(dp5568
sg83
g4100
sg76
(lp5569
g69
(g90
g71
NtRp5570
(dp5571
g74
(dp5572
g94
g95
ssg83
g5566
sg76
(lp5573
S'status'
p5574
asbag69
(g90
g71
NtRp5575
(dp5576
g74
(dp5577
g101
g102
ssg83
g5566
sg76
(lp5578
S':'
asbag69
(g90
g71
NtRp5579
(dp5580
g74
(dp5581
sg83
g5566
sg76
(lp5582
g69
(g70
g71
NtRp5583
(dp5584
g74
(dp5585
g82
I5
ssg83
g5579
sg76
(lp5586
S'200'
p5587
asbasbasbag69
(g85
g71
NtRp5588
(dp5589
g74
(dp5590
sg83
g4100
sg76
(lp5591
g69
(g90
g71
NtRp5592
(dp5593
g74
(dp5594
g94
g95
ssg83
g5588
sg76
(lp5595
S'subtitle'
p5596
asbag69
(g90
g71
NtRp5597
(dp5598
g74
(dp5599
g101
g102
ssg83
g5588
sg76
(lp5600
S':'
asbag69
(g90
g71
NtRp5601
(dp5602
g74
(dp5603
sg83
g5588
sg76
(lp5604
g69
(g70
g71
NtRp5605
(dp5606
g74
(dp5607
g82
I5
ssg83
g5601
sg76
(lp5608
g4657
(S's\r\x00\x00\x00customize me!'
tRp5609
asbasbasbag69
(g85
g71
NtRp5610
(dp5611
g74
(dp5612
sg83
g4100
sg76
(lp5613
g69
(g90
g71
NtRp5614
(dp5615
g74
(dp5616
g94
g95
ssg83
g5610
sg76
(lp5617
S'title'
p5618
asbag69
(g90
g71
NtRp5619
(dp5620
g74
(dp5621
g101
g102
ssg83
g5610
sg76
(lp5622
S':'
asbag69
(g90
g71
NtRp5623
(dp5624
g74
(dp5625
sg83
g5610
sg76
(lp5626
g69
(g70
g71
NtRp5627
(dp5628
g74
(dp5629
g82
I5
ssg83
g5623
sg76
(lp5630
S'Astra1'
p5631
asbasbasbag69
(g85
g71
NtRp5632
(dp5633
g74
(dp5634
sg83
g4100
sg76
(lp5635
g69
(g90
g71
NtRp5636
(dp5637
g74
(dp5638
g94
g95
ssg83
g5632
sg76
(lp5639
g3279
asbag69
(g90
g71
NtRp5640
(dp5641
g74
(dp5642
g101
g102
ssg83
g5632
sg76
(lp5643
S':'
asbag69
(g90
g71
NtRp5644
(dp5645
g74
(dp5646
sg83
g5632
sg76
(lp5647
g69
(g70
g71
NtRp5648
(dp5649
g74
(dp5650
g82
I5
ssg83
g5644
sg76
(lp5651
g3292
asbasbasbag69
(g85
g71
NtRp5652
(dp5653
g74
(dp5654
sg83
g4100
sg76
(lp5655
g69
(g90
g71
NtRp5656
(dp5657
g74
(dp5658
g94
g95
ssg83
g5652
sg76
(lp5659
S'view'
p5660
asbag69
(g90
g71
NtRp5661
(dp5662
g74
(dp5663
g101
g102
ssg83
g5652
sg76
(lp5664
S':'
asbag69
(g90
g71
NtRp5665
(dp5666
g74
(dp5667
sg83
g5652
sg76
(lp5668
g69
(g70
g71
NtRp5669
(dp5670
g74
(dp5671
g82
I5
ssg83
g5665
sg76
(lp5672
S'default/show.html'
p5673
asbasbasbasbasbsS'locals'
p5674
(dp5675
g4
S"'/home/vishrut/web2py/applications/astra1/views/default/show.html'"
p5676
sg6
S'r"response.write(\'<!DOCTYPE html>\\n<!-- paulirish....ponse.write(\'\\n</body>\\n</html>\\n\', escape=False)"'
p5677
sssS'traceback'
p5678
S'Traceback (most recent call last):\n  File "/home/vishrut/web2py/gluon/restricted.py", line 204, in restricted\n    ccode = compile2(code,layer)\n  File "/home/vishrut/web2py/gluon/restricted.py", line 189, in compile2\n    return compile(code.rstrip().replace(\'\\r\\n\',\'\\n\')+\'\\n\', layer, \'exec\')\n  File "/home/vishrut/web2py/applications/astra1/views/default/show.html", line 88\n    if xxx==None\n               ^\nSyntaxError: invalid syntax\n'
p5679
s.