(dp1
S'output'
p2
S"<type 'exceptions.NameError'> name 'apple' is not defined"
p3
sS'layer'
p4
S'/home/vishrut/web2py/applications/astra1/views/default/show.html'
p5
sS'code'
p6
S'response.write(\'<!DOCTYPE html>\\n<!-- paulirish.com/2008/conditional-stylesheets-vs-css-hacks-answer-neither/ -->\\n<!--[if lt IE 7]><html class="ie ie6 ie-lte9 ie-lte8 ie-lte7 no-js" lang="\', escape=False)\nresponse.write(T.accepted_language or \'en\')\nresponse.write(\'"> <![endif]-->\\n<!--[if IE 7]><html class="ie ie7 ie-lte9 ie-lte8 ie-lte7 no-js" lang="\', escape=False)\nresponse.write(T.accepted_language or \'en\')\nresponse.write(\'"> <![endif]-->\\n<!--[if IE 8]><html class="ie ie8 ie-lte9 ie-lte8 no-js" lang="\', escape=False)\nresponse.write(T.accepted_language or \'en\')\nresponse.write(\'"> <![endif]-->\\n<!--[if IE 9]><html class="ie9 ie-lte9 no-js" lang="\', escape=False)\nresponse.write(T.accepted_language or \'en\')\nresponse.write(\'"> <![endif]-->\\n<!--[if (gt IE 9)|!(IE)]><!--> <html class="no-js" lang="\', escape=False)\nresponse.write(T.accepted_language or \'en\')\nresponse.write(\'"> <!--<![endif]-->\\n<head>\\n  <meta charset="utf-8" />\\n  <!-- www.phpied.com/conditional-comments-block-downloads/ -->\\n  <!-- Always force latest IE rendering engine\\n\\t   (even in intranet) & Chrome Frame\\n\\t   Remove this if you use the .htaccess -->\\n  <!--[if IE]>\\n    <meta http-equiv="X-UA-Compatible" content="IE=edge\', escape=False)\nresponse.write(not request.is_local and \',chrome=1\' or \'\')\nresponse.write(\'">\\n  <![endif]-->\\n  \\n  <title>\', escape=False)\nresponse.write(response.title or request.application)\nresponse.write(\'</title>\\n  \\n  <!-- http://dev.w3.org/html5/markup/meta.name.html -->\\n  <meta name="application-name" content="\', escape=False)\nresponse.write(request.application)\nresponse.write(\'" />\\n  \\n  <!-- Speaking of Google, don\\\'t forget to set your site up:\\n\\t   http://google.com/webmasters -->\\n  <meta name="google-site-verification" content="" />\\n\\n  <!--  Mobile Viewport Fix\\n\\t  j.mp/mobileviewport & davidbcalhoun.com/2010/viewport-metatag\\n\\t  device-width: Occupy full width of the screen in its current orientation\\n\\t  initial-scale = 1.0 retains dimensions instead of zooming out if page height > device height\\n\\t  user-scalable = yes allows the user to zoom in -->\\n  <meta name="viewport" content="width=device-width, initial-scale=1.0, user-scalable=yes">\\n  \\n  <!-- Place favicon.ico and apple-touch-icon.png in the root of your domain and delete these references -->\\n  <link rel="shortcut icon" href="\', escape=False)\nresponse.write(URL(\'static\',\'favicon.ico\'))\nresponse.write(\'" type="image/x-icon">\\n  <link rel="apple-touch-icon" href="\', escape=False)\nresponse.write(URL(\'static\',\'favicon.png\'))\nresponse.write(\'">\\n\\n  <!-- All JavaScript at the bottom, except for Modernizr which enables \\n\\t   HTML5 elements & feature detects -->\\n  <script src="\', escape=False)\nresponse.write(URL(\'static\',\'js/modernizr.custom.js\'))\nresponse.write(\'"></script>  \\n\\n  <!-- include stylesheets -->\\n  \', escape=False)\nresponse.files.append(URL(\'static\',\'css/skeleton.css\'))\nresponse.files.append(URL(\'static\',\'css/web2py.css\'))\nif response.menu:\n    response.files.append(URL(\'static\',\'css/superfish.css\'))\n    response.files.append(URL(\'static\',\'js/superfish.js\'))\n    pass\nresponse.write(\'\\n\\n  \', escape=False)\nresponse.write(\'<script type="text/javascript"><!--\\n    // These variables are used by the web2py_ajax_init function in web2py_ajax.js (which is loaded below).\\n    var w2p_ajax_confirm_message = "\', escape=False)\nresponse.write(T(\'Are you sure you want to delete this object?\'))\nresponse.write(\'";\\n    var w2p_ajax_date_format = "\', escape=False)\nresponse.write(T(\'%Y-%m-%d\'))\nresponse.write(\'";\\n    var w2p_ajax_datetime_format = "\', escape=False)\nresponse.write(T(\'%Y-%m-%d %H:%M:%S\'))\nresponse.write(\'";\\n    //--></script>\\n\', escape=False)\nresponse.files.insert(0,URL(\'static\',\'js/jquery.js\'))\nresponse.files.insert(1,URL(\'static\',\'css/calendar.css\'))\nresponse.files.insert(2,URL(\'static\',\'js/calendar.js\'))\nresponse.files.insert(3,URL(\'static\',\'js/web2py.js\'))\nresponse.include_meta()\nresponse.include_files()\nresponse.write(\'\\n\', escape=False)\nresponse.write(\'\\n\\n  \', escape=False)\nif response.menu:\n    response.write(\'\\n  <script type="text/javascript">\\n    jQuery(function(){ jQuery(\\\'ul.sf-menu\\\').supersubs({minWidth:12,maxWidth:30,extraWidth:3}).superfish(); });\\n  </script>\\n  \', escape=False)\n    pass\nresponse.write(\'\\n\\n  \', escape=False)\n# using sidebars need to know what sidebar you want to use\nleft_sidebar_enabled = globals().get(\'left_sidebar_enabled\',False)\nright_sidebar_enabled = globals().get(\'right_sidebar_enabled\',False)\nmiddle_columns = {0:\'sixteen\',1:\'twelve\',2:\'eight\'}[\n(left_sidebar_enabled and 1 or 0)+(right_sidebar_enabled and 1 or 0)]\nresponse.write(\'\\n\\n  <!-- uncomment here to load jquery-ui\\n  <link rel="stylesheet" href="http://ajax.googleapis.com/ajax/libs/jqueryui/1.8.16/themes/base/jquery-ui.css" type="text/css" media="all" />\\n  <script src="http://ajax.googleapis.com/ajax/libs/jqueryui/1.8.16/jquery-ui.min.js" type="text/javascript"></script>\\n  uncomment to load jquery-ui //-->\\n</head>\\n<body>\\n  <div class="wrapper"><!-- for sticky footer -->\\n  \\n    <div class="topbar">\\n      <div class="container">    \\n        <div class="sixteen columns">\\n          <div id="navbar">\', escape=False)\nresponse.write(\'auth\' in globals() and auth.navbar(separators=(\' \',\' | \',\'\')))\nresponse.write(\'</div>\\n          \', escape=False)\nis_mobile=request.user_agent().is_mobile\nresponse.write(\'\\n\\t  \', escape=False)\nif response.menu:\n    response.write(\'\\n          <div id="menu">\\n             \', escape=False)\n    response.write(MENU(response.menu, _class=\'mobile-menu\' if is_mobile else \'sf-menu\',mobile=is_mobile))\n    response.write(\'\\n          </div>\\n          \', escape=False)\n    pass\nresponse.write(\'\\n        </div>\\n      </div>\\n    </div><!-- topbar -->\\n    \\n    <div class="flash">\', escape=False)\nresponse.write(response.flash or \'\')\nresponse.write(\'</div>\\n    \\n    <div class="header">\\n      <div class="container">         \\n        <div class="sixteen columns">\\n          <h1 class="remove-bottom" style="margin-top: .5em;">\\n          \', escape=False)\nresponse.write(response.title or request.application)\nresponse.write(\'\\n          </h1>\\n          <h5>\', escape=False)\nresponse.write(response.subtitle or \'\')\nresponse.write(\'</h5>\\n        </div>\\n        <div class="sixteen columns">\\n          <div class="statusbar clearfix">\\n            \', escape=False)\nresponse.write(\'\\n            <div class="breadcrumbs">\', escape=False)\nresponse.write(request.function.replace(\'_\', \' \').title())\nresponse.write(\'</div>\\n            \', escape=False)\nresponse.write(\'\\n            <!-- AddToAny BEGIN -->\\n            <div style="float:right; padding-top: .25em;" class="a2a_kit a2a_default_style">\\n            <a class="a2a_dd" href="http://www.addtoany.com/share_save">Share</a></div>\\n            <script type="text/javascript" src="http://static.addtoany.com/menu/page.js"></script>\\n            <!-- AddToAny END -->\\n          </div>\\n        </div>\\n      </div>\\n    </div>\\n\\n    <div class="main">\\n      <div class="container">                 \\n        \', escape=False)\nif left_sidebar_enabled:\n    response.write(\'\\n        <div class="four columns left-sidebar">\\n          \', escape=False)\n    response.write(\'\\n          <h3>Left Sidebar</h3>\\n          <p></p>\\n          \', escape=False)\n    response.write(\'\\n        </div>\\n        \', escape=False)\n    pass\nresponse.write(\'\\n        \\n        <div class="\', escape=False)\nresponse.write(middle_columns)\nresponse.write(\' columns center">\\n          \', escape=False)\nresponse.write(\'\\n          \', escape=False)\nresponse.write(\'\\n<h1>This is the default/show.html template</h1>\\n\', escape=False)\nxxx="apple"\nresponse.write(\'\\n<video width="320" height="240" controls="controls">  \\n        <source src="\', escape=False)\nresponse.write(URL(\'/static/\'+apple+\'ogg\'))\nresponse.write(\'" type="video/ogg">\\n</video>\\n<button type="button" onclick="document.location=\\\'\', escape=False)\nresponse.write(URL("logout"))\nresponse.write(\'\\\'">Logout</button>\\n\', escape=False)\npass\nresponse.write(\'\\n\', escape=False)\npass\nresponse.write(\'\\n\', escape=False)\nresponse.write(BEAUTIFY(response._vars))\nresponse.write(\'\\n\', escape=False)\nresponse.write(\'\\n          \', escape=False)\nresponse.write(\'\\n        </div>\\n        \\n        \', escape=False)\nif right_sidebar_enabled:\n    response.write(\'\\n        <div class="four columns">\\n          \', escape=False)\n    response.write(\'\\n          <h3>Right Sidebar</h3>\\n          <p></p>\\n          \', escape=False)\n    response.write(\'\\n        </div>    \\n        \', escape=False)\n    pass\nresponse.write(\'\\n        \\n      </div><!-- container -->\\n    </div><!-- main -->\\n    \\n    <div class="push"></div>\\n  </div><!-- wrapper -->\\n\\n  <div class="footer">\\n    <div class="container">    \\n      <div class="sixteen columns">\\n        \', escape=False)\nresponse.write(\' <!-- this is default footer -->\\n        <div class="footer-content clearfix">\\n          <div class="copyright">\', escape=False)\nresponse.write(T(\'Copyright\'))\nresponse.write(\' &#169; 2011</div>\\n          <div style="float: right;">\\n            <a href="http://www.web2py.com/">\\n            <img style="padding-bottom: 0;" src="\', escape=False)\nresponse.write(URL(\'static\',\'images/poweredby.png\'))\nresponse.write(\'"/>\\n            </a>\\n          </div>\\n        </div>\\n        \', escape=False)\nresponse.write(\'\\t\\n      </div>\\n    </div><!-- container -->\\n  </div><!-- footer -->\\n  \\n  <!--[if lt IE 7 ]>\\n\\t<script src="\', escape=False)\nresponse.write(URL(\'static\',\'js/dd_belatedpng.js\'))\nresponse.write(\'"></script>\\n\\t<script> DD_belatedPNG.fix(\\\'img, .png_bg\\\'); //fix any <img> or .png_bg background-images </script>\\n\\t<![endif]-->\\n  \', escape=False)\nif response.google_analytics_id:\n    response.write(\'<script type="text/javascript"> var _gaq = _gaq || []; _gaq.push([\\\'_setAccount\\\', \\\'\', escape=False)\n    response.write(response.google_analytics_id)\n    response.write("\']); _gaq.push([\'_trackPageview\']); (function() { var ga = document.createElement(\'script\'); ga.type = \'text/javascript\'; ga.async = true; ga.src = (\'https:\' == document.location.protocol ? \'https://ssl\' : \'http://www\') + \'.google-analytics.com/ga.js\'; var s = document.getElementsByTagName(\'script\')[0]; s.parentNode.insertBefore(ga, s); })(); </script> ", escape=False)\n    pass\nresponse.write(\'\\n</body>\\n</html>\\n\', escape=False)'
p7
sS'snapshot'
p8
(dp9
S'exception'
p10
(dp11
S'__hash__'
p12
S"<method-wrapper '__hash__' of exceptions.NameError object>"
p13
sS'__setattr__'
p14
S"<method-wrapper '__setattr__' of exceptions.NameError object>"
p15
sS'__reduce_ex__'
p16
S'<built-in method __reduce_ex__ of exceptions.NameError object>'
p17
sS'__getslice__'
p18
S"<method-wrapper '__getslice__' of exceptions.NameError object>"
p19
sS'__getitem__'
p20
S"<method-wrapper '__getitem__' of exceptions.NameError object>"
p21
sS'__setstate__'
p22
S'<built-in method __setstate__ of exceptions.NameError object>'
p23
sS'__reduce__'
p24
S'<built-in method __reduce__ of exceptions.NameError object>'
p25
sS'__str__'
p26
S"<method-wrapper '__str__' of exceptions.NameError object>"
p27
sS'__format__'
p28
S'<built-in method __format__ of exceptions.NameError object>'
p29
sS'__getattribute__'
p30
S"<method-wrapper '__getattribute__' of exceptions.NameError object>"
p31
sS'__class__'
p32
S"<type 'exceptions.NameError'>"
p33
sS'__unicode__'
p34
S'<built-in method __unicode__ of exceptions.NameError object>'
p35
sS'__delattr__'
p36
S"<method-wrapper '__delattr__' of exceptions.NameError object>"
p37
sS'__subclasshook__'
p38
S'<built-in method __subclasshook__ of type object>'
p39
sS'__repr__'
p40
S"<method-wrapper '__repr__' of exceptions.NameError object>"
p41
sS'args'
p42
S'("name \'apple\' is not defined",)'
p43
sS'__dict__'
p44
S'{}'
p45
sS'__sizeof__'
p46
S'<built-in method __sizeof__ of exceptions.NameError object>'
p47
sS'__doc__'
p48
S"'Name not found globally.'"
p49
sS'__init__'
p50
S"<method-wrapper '__init__' of exceptions.NameError object>"
p51
sS'__new__'
p52
S'<built-in method __new__ of type object>'
p53
ssS'evalue'
p54
S"name 'apple' is not defined"
p55
sS'request'
p56
ccopy_reg
_reconstructor
p57
(cgluon.html
BEAUTIFY
p58
c__builtin__
object
p59
NtRp60
(dp61
S'attributes'
p62
(dp63
sS'components'
p64
(lp65
g57
(cgluon.html
TABLE
p66
g59
NtRp67
(dp68
g62
(dp69
S'level'
p70
I5
ssS'parent'
p71
Nsg64
(lp72
g57
(cgluon.html
TR
p73
g59
NtRp74
(dp75
g62
(dp76
sg71
g67
sg64
(lp77
g57
(cgluon.html
TD
p78
g59
NtRp79
(dp80
g62
(dp81
S'_style'
p82
S'font-weight:bold;vertical-align:top'
p83
ssg71
g74
sg64
(lp84
S'ajax'
p85
asbag57
(g78
g59
NtRp86
(dp87
g62
(dp88
S'_valign'
p89
S'top'
p90
ssg71
g74
sg64
(lp91
S':'
asbag57
(g78
g59
NtRp92
(dp93
g62
(dp94
sg71
g74
sg64
(lp95
g57
(g58
g59
NtRp96
(dp97
g62
(dp98
g70
I5
ssg71
g92
sg64
(lp99
S'False'
p100
asbasbasbag57
(g73
g59
NtRp101
(dp102
g62
(dp103
sg71
g67
sg64
(lp104
g57
(g78
g59
NtRp105
(dp106
g62
(dp107
g82
g83
ssg71
g101
sg64
(lp108
S'application'
p109
asbag57
(g78
g59
NtRp110
(dp111
g62
(dp112
g89
g90
ssg71
g101
sg64
(lp113
S':'
asbag57
(g78
g59
NtRp114
(dp115
g62
(dp116
sg71
g101
sg64
(lp117
g57
(g58
g59
NtRp118
(dp119
g62
(dp120
g70
I5
ssg71
g114
sg64
(lp121
S'astra1'
p122
asbasbasbag57
(g73
g59
NtRp123
(dp124
g62
(dp125
sg71
g67
sg64
(lp126
g57
(g78
g59
NtRp127
(dp128
g62
(dp129
g82
g83
ssg71
g123
sg64
(lp130
g42
asbag57
(g78
g59
NtRp131
(dp132
g62
(dp133
g89
g90
ssg71
g123
sg64
(lp134
S':'
asbag57
(g78
g59
NtRp135
(dp136
g62
(dp137
sg71
g123
sg64
(lp138
g57
(g58
g59
NtRp139
(dp140
g62
(dp141
g70
I5
ssg71
g135
sg64
(lp142
g57
(g66
g59
NtRp143
(dp144
g62
(dp145
g70
I4
ssg71
Nsg64
(lp146
sbasbasbasbag57
(g73
g59
NtRp147
(dp148
g62
(dp149
sg71
g67
sg64
(lp150
g57
(g78
g59
NtRp151
(dp152
g62
(dp153
g82
g83
ssg71
g147
sg64
(lp154
S'body'
p155
asbag57
(g78
g59
NtRp156
(dp157
g62
(dp158
g89
g90
ssg71
g147
sg64
(lp159
S':'
asbag57
(g78
g59
NtRp160
(dp161
g62
(dp162
sg71
g147
sg64
(lp163
g57
(g58
g59
NtRp164
(dp165
g62
(dp166
g70
I5
ssg71
g160
sg64
(lp167
S'<cStringIO.StringO object at 0xaedd9a0>'
p168
asbasbasbag57
(g73
g59
NtRp169
(dp170
g62
(dp171
sg71
g67
sg64
(lp172
g57
(g78
g59
NtRp173
(dp174
g62
(dp175
g82
g83
ssg71
g169
sg64
(lp176
S'client'
p177
asbag57
(g78
g59
NtRp178
(dp179
g62
(dp180
g89
g90
ssg71
g169
sg64
(lp181
S':'
asbag57
(g78
g59
NtRp182
(dp183
g62
(dp184
sg71
g169
sg64
(lp185
g57
(g58
g59
NtRp186
(dp187
g62
(dp188
g70
I5
ssg71
g182
sg64
(lp189
S'127.0.0.1'
p190
asbasbasbag57
(g73
g59
NtRp191
(dp192
g62
(dp193
sg71
g67
sg64
(lp194
g57
(g78
g59
NtRp195
(dp196
g62
(dp197
g82
g83
ssg71
g191
sg64
(lp198
S'controller'
p199
asbag57
(g78
g59
NtRp200
(dp201
g62
(dp202
g89
g90
ssg71
g191
sg64
(lp203
S':'
asbag57
(g78
g59
NtRp204
(dp205
g62
(dp206
sg71
g191
sg64
(lp207
g57
(g58
g59
NtRp208
(dp209
g62
(dp210
g70
I5
ssg71
g204
sg64
(lp211
S'default'
p212
asbasbasbag57
(g73
g59
NtRp213
(dp214
g62
(dp215
sg71
g67
sg64
(lp216
g57
(g78
g59
NtRp217
(dp218
g62
(dp219
g82
g83
ssg71
g213
sg64
(lp220
S'cookies'
p221
asbag57
(g78
g59
NtRp222
(dp223
g62
(dp224
g89
g90
ssg71
g213
sg64
(lp225
S':'
asbag57
(g78
g59
NtRp226
(dp227
g62
(dp228
sg71
g213
sg64
(lp229
g57
(g58
g59
NtRp230
(dp231
g62
(dp232
g70
I5
ssg71
g226
sg64
(lp233
g57
(g66
g59
NtRp234
(dp235
g62
(dp236
g70
I4
ssg71
Nsg64
(lp237
g57
(g73
g59
NtRp238
(dp239
g62
(dp240
sg71
g234
sg64
(lp241
g57
(g78
g59
NtRp242
(dp243
g62
(dp244
g82
g83
ssg71
g238
sg64
(lp245
S'session_id_admin'
p246
asbag57
(g78
g59
NtRp247
(dp248
g62
(dp249
g89
g90
ssg71
g238
sg64
(lp250
S':'
asbag57
(g78
g59
NtRp251
(dp252
g62
(dp253
sg71
g238
sg64
(lp254
g57
(g58
g59
NtRp255
(dp256
g62
(dp257
g70
I4
ssg71
g251
sg64
(lp258
g57
(g66
g59
NtRp259
(dp260
g62
(dp261
g70
I3
ssg71
Nsg64
(lp262
g57
(g73
g59
NtRp263
(dp264
g62
(dp265
sg71
g259
sg64
(lp266
g57
(g78
g59
NtRp267
(dp268
g62
(dp269
g82
g83
ssg71
g263
sg64
(lp270
S'comment'
p271
asbag57
(g78
g59
NtRp272
(dp273
g62
(dp274
g89
g90
ssg71
g263
sg64
(lp275
S':'
asbag57
(g78
g59
NtRp276
(dp277
g62
(dp278
sg71
g263
sg64
(lp279
g57
(g58
g59
NtRp280
(dp281
g62
(dp282
g70
I3
ssg71
g276
sg64
(lp283
S''
asbasbasbag57
(g73
g59
NtRp284
(dp285
g62
(dp286
sg71
g259
sg64
(lp287
g57
(g78
g59
NtRp288
(dp289
g62
(dp290
g82
g83
ssg71
g284
sg64
(lp291
S'domain'
p292
asbag57
(g78
g59
NtRp293
(dp294
g62
(dp295
g89
g90
ssg71
g284
sg64
(lp296
S':'
asbag57
(g78
g59
NtRp297
(dp298
g62
(dp299
sg71
g284
sg64
(lp300
g57
(g58
g59
NtRp301
(dp302
g62
(dp303
g70
I3
ssg71
g297
sg64
(lp304
S''
asbasbasbag57
(g73
g59
NtRp305
(dp306
g62
(dp307
sg71
g259
sg64
(lp308
g57
(g78
g59
NtRp309
(dp310
g62
(dp311
g82
g83
ssg71
g305
sg64
(lp312
S'expires'
p313
asbag57
(g78
g59
NtRp314
(dp315
g62
(dp316
g89
g90
ssg71
g305
sg64
(lp317
S':'
asbag57
(g78
g59
NtRp318
(dp319
g62
(dp320
sg71
g305
sg64
(lp321
g57
(g58
g59
NtRp322
(dp323
g62
(dp324
g70
I3
ssg71
g318
sg64
(lp325
S''
asbasbasbag57
(g73
g59
NtRp326
(dp327
g62
(dp328
sg71
g259
sg64
(lp329
g57
(g78
g59
NtRp330
(dp331
g62
(dp332
g82
g83
ssg71
g326
sg64
(lp333
S'httponly'
p334
asbag57
(g78
g59
NtRp335
(dp336
g62
(dp337
g89
g90
ssg71
g326
sg64
(lp338
S':'
asbag57
(g78
g59
NtRp339
(dp340
g62
(dp341
sg71
g326
sg64
(lp342
g57
(g58
g59
NtRp343
(dp344
g62
(dp345
g70
I3
ssg71
g339
sg64
(lp346
S''
asbasbasbag57
(g73
g59
NtRp347
(dp348
g62
(dp349
sg71
g259
sg64
(lp350
g57
(g78
g59
NtRp351
(dp352
g62
(dp353
g82
g83
ssg71
g347
sg64
(lp354
S'max-age'
p355
asbag57
(g78
g59
NtRp356
(dp357
g62
(dp358
g89
g90
ssg71
g347
sg64
(lp359
S':'
asbag57
(g78
g59
NtRp360
(dp361
g62
(dp362
sg71
g347
sg64
(lp363
g57
(g58
g59
NtRp364
(dp365
g62
(dp366
g70
I3
ssg71
g360
sg64
(lp367
S''
asbasbasbag57
(g73
g59
NtRp368
(dp369
g62
(dp370
sg71
g259
sg64
(lp371
g57
(g78
g59
NtRp372
(dp373
g62
(dp374
g82
g83
ssg71
g368
sg64
(lp375
S'path'
p376
asbag57
(g78
g59
NtRp377
(dp378
g62
(dp379
g89
g90
ssg71
g368
sg64
(lp380
S':'
asbag57
(g78
g59
NtRp381
(dp382
g62
(dp383
sg71
g368
sg64
(lp384
g57
(g58
g59
NtRp385
(dp386
g62
(dp387
g70
I3
ssg71
g381
sg64
(lp388
S''
asbasbasbag57
(g73
g59
NtRp389
(dp390
g62
(dp391
sg71
g259
sg64
(lp392
g57
(g78
g59
NtRp393
(dp394
g62
(dp395
g82
g83
ssg71
g389
sg64
(lp396
S'secure'
p397
asbag57
(g78
g59
NtRp398
(dp399
g62
(dp400
g89
g90
ssg71
g389
sg64
(lp401
S':'
asbag57
(g78
g59
NtRp402
(dp403
g62
(dp404
sg71
g389
sg64
(lp405
g57
(g58
g59
NtRp406
(dp407
g62
(dp408
g70
I3
ssg71
g402
sg64
(lp409
S''
asbasbasbag57
(g73
g59
NtRp410
(dp411
g62
(dp412
sg71
g259
sg64
(lp413
g57
(g78
g59
NtRp414
(dp415
g62
(dp416
g82
g83
ssg71
g410
sg64
(lp417
S'version'
p418
asbag57
(g78
g59
NtRp419
(dp420
g62
(dp421
g89
g90
ssg71
g410
sg64
(lp422
S':'
asbag57
(g78
g59
NtRp423
(dp424
g62
(dp425
sg71
g410
sg64
(lp426
g57
(g58
g59
NtRp427
(dp428
g62
(dp429
g70
I3
ssg71
g423
sg64
(lp430
S''
asbasbasbasbasbasbasbag57
(g73
g59
NtRp431
(dp432
g62
(dp433
sg71
g234
sg64
(lp434
g57
(g78
g59
NtRp435
(dp436
g62
(dp437
g82
g83
ssg71
g431
sg64
(lp438
S'session_id_astra1'
p439
asbag57
(g78
g59
NtRp440
(dp441
g62
(dp442
g89
g90
ssg71
g431
sg64
(lp443
S':'
asbag57
(g78
g59
NtRp444
(dp445
g62
(dp446
sg71
g431
sg64
(lp447
g57
(g58
g59
NtRp448
(dp449
g62
(dp450
g70
I4
ssg71
g444
sg64
(lp451
g57
(g66
g59
NtRp452
(dp453
g62
(dp454
g70
I3
ssg71
Nsg64
(lp455
g57
(g73
g59
NtRp456
(dp457
g62
(dp458
sg71
g452
sg64
(lp459
g57
(g78
g59
NtRp460
(dp461
g62
(dp462
g82
g83
ssg71
g456
sg64
(lp463
g271
asbag57
(g78
g59
NtRp464
(dp465
g62
(dp466
g89
g90
ssg71
g456
sg64
(lp467
S':'
asbag57
(g78
g59
NtRp468
(dp469
g62
(dp470
sg71
g456
sg64
(lp471
g57
(g58
g59
NtRp472
(dp473
g62
(dp474
g70
I3
ssg71
g468
sg64
(lp475
S''
asbasbasbag57
(g73
g59
NtRp476
(dp477
g62
(dp478
sg71
g452
sg64
(lp479
g57
(g78
g59
NtRp480
(dp481
g62
(dp482
g82
g83
ssg71
g476
sg64
(lp483
g292
asbag57
(g78
g59
NtRp484
(dp485
g62
(dp486
g89
g90
ssg71
g476
sg64
(lp487
S':'
asbag57
(g78
g59
NtRp488
(dp489
g62
(dp490
sg71
g476
sg64
(lp491
g57
(g58
g59
NtRp492
(dp493
g62
(dp494
g70
I3
ssg71
g488
sg64
(lp495
S''
asbasbasbag57
(g73
g59
NtRp496
(dp497
g62
(dp498
sg71
g452
sg64
(lp499
g57
(g78
g59
NtRp500
(dp501
g62
(dp502
g82
g83
ssg71
g496
sg64
(lp503
g313
asbag57
(g78
g59
NtRp504
(dp505
g62
(dp506
g89
g90
ssg71
g496
sg64
(lp507
S':'
asbag57
(g78
g59
NtRp508
(dp509
g62
(dp510
sg71
g496
sg64
(lp511
g57
(g58
g59
NtRp512
(dp513
g62
(dp514
g70
I3
ssg71
g508
sg64
(lp515
S''
asbasbasbag57
(g73
g59
NtRp516
(dp517
g62
(dp518
sg71
g452
sg64
(lp519
g57
(g78
g59
NtRp520
(dp521
g62
(dp522
g82
g83
ssg71
g516
sg64
(lp523
g334
asbag57
(g78
g59
NtRp524
(dp525
g62
(dp526
g89
g90
ssg71
g516
sg64
(lp527
S':'
asbag57
(g78
g59
NtRp528
(dp529
g62
(dp530
sg71
g516
sg64
(lp531
g57
(g58
g59
NtRp532
(dp533
g62
(dp534
g70
I3
ssg71
g528
sg64
(lp535
S''
asbasbasbag57
(g73
g59
NtRp536
(dp537
g62
(dp538
sg71
g452
sg64
(lp539
g57
(g78
g59
NtRp540
(dp541
g62
(dp542
g82
g83
ssg71
g536
sg64
(lp543
g355
asbag57
(g78
g59
NtRp544
(dp545
g62
(dp546
g89
g90
ssg71
g536
sg64
(lp547
S':'
asbag57
(g78
g59
NtRp548
(dp549
g62
(dp550
sg71
g536
sg64
(lp551
g57
(g58
g59
NtRp552
(dp553
g62
(dp554
g70
I3
ssg71
g548
sg64
(lp555
S''
asbasbasbag57
(g73
g59
NtRp556
(dp557
g62
(dp558
sg71
g452
sg64
(lp559
g57
(g78
g59
NtRp560
(dp561
g62
(dp562
g82
g83
ssg71
g556
sg64
(lp563
g376
asbag57
(g78
g59
NtRp564
(dp565
g62
(dp566
g89
g90
ssg71
g556
sg64
(lp567
S':'
asbag57
(g78
g59
NtRp568
(dp569
g62
(dp570
sg71
g556
sg64
(lp571
g57
(g58
g59
NtRp572
(dp573
g62
(dp574
g70
I3
ssg71
g568
sg64
(lp575
S''
asbasbasbag57
(g73
g59
NtRp576
(dp577
g62
(dp578
sg71
g452
sg64
(lp579
g57
(g78
g59
NtRp580
(dp581
g62
(dp582
g82
g83
ssg71
g576
sg64
(lp583
g397
asbag57
(g78
g59
NtRp584
(dp585
g62
(dp586
g89
g90
ssg71
g576
sg64
(lp587
S':'
asbag57
(g78
g59
NtRp588
(dp589
g62
(dp590
sg71
g576
sg64
(lp591
g57
(g58
g59
NtRp592
(dp593
g62
(dp594
g70
I3
ssg71
g588
sg64
(lp595
S''
asbasbasbag57
(g73
g59
NtRp596
(dp597
g62
(dp598
sg71
g452
sg64
(lp599
g57
(g78
g59
NtRp600
(dp601
g62
(dp602
g82
g83
ssg71
g596
sg64
(lp603
g418
asbag57
(g78
g59
NtRp604
(dp605
g62
(dp606
g89
g90
ssg71
g596
sg64
(lp607
S':'
asbag57
(g78
g59
NtRp608
(dp609
g62
(dp610
sg71
g596
sg64
(lp611
g57
(g58
g59
NtRp612
(dp613
g62
(dp614
g70
I3
ssg71
g608
sg64
(lp615
S''
asbasbasbasbasbasbasbag57
(g73
g59
NtRp616
(dp617
g62
(dp618
sg71
g234
sg64
(lp619
g57
(g78
g59
NtRp620
(dp621
g62
(dp622
g82
g83
ssg71
g616
sg64
(lp623
S'session_id_music'
p624
asbag57
(g78
g59
NtRp625
(dp626
g62
(dp627
g89
g90
ssg71
g616
sg64
(lp628
S':'
asbag57
(g78
g59
NtRp629
(dp630
g62
(dp631
sg71
g616
sg64
(lp632
g57
(g58
g59
NtRp633
(dp634
g62
(dp635
g70
I4
ssg71
g629
sg64
(lp636
g57
(g66
g59
NtRp637
(dp638
g62
(dp639
g70
I3
ssg71
Nsg64
(lp640
g57
(g73
g59
NtRp641
(dp642
g62
(dp643
sg71
g637
sg64
(lp644
g57
(g78
g59
NtRp645
(dp646
g62
(dp647
g82
g83
ssg71
g641
sg64
(lp648
g271
asbag57
(g78
g59
NtRp649
(dp650
g62
(dp651
g89
g90
ssg71
g641
sg64
(lp652
S':'
asbag57
(g78
g59
NtRp653
(dp654
g62
(dp655
sg71
g641
sg64
(lp656
g57
(g58
g59
NtRp657
(dp658
g62
(dp659
g70
I3
ssg71
g653
sg64
(lp660
S''
asbasbasbag57
(g73
g59
NtRp661
(dp662
g62
(dp663
sg71
g637
sg64
(lp664
g57
(g78
g59
NtRp665
(dp666
g62
(dp667
g82
g83
ssg71
g661
sg64
(lp668
g292
asbag57
(g78
g59
NtRp669
(dp670
g62
(dp671
g89
g90
ssg71
g661
sg64
(lp672
S':'
asbag57
(g78
g59
NtRp673
(dp674
g62
(dp675
sg71
g661
sg64
(lp676
g57
(g58
g59
NtRp677
(dp678
g62
(dp679
g70
I3
ssg71
g673
sg64
(lp680
S''
asbasbasbag57
(g73
g59
NtRp681
(dp682
g62
(dp683
sg71
g637
sg64
(lp684
g57
(g78
g59
NtRp685
(dp686
g62
(dp687
g82
g83
ssg71
g681
sg64
(lp688
g313
asbag57
(g78
g59
NtRp689
(dp690
g62
(dp691
g89
g90
ssg71
g681
sg64
(lp692
S':'
asbag57
(g78
g59
NtRp693
(dp694
g62
(dp695
sg71
g681
sg64
(lp696
g57
(g58
g59
NtRp697
(dp698
g62
(dp699
g70
I3
ssg71
g693
sg64
(lp700
S''
asbasbasbag57
(g73
g59
NtRp701
(dp702
g62
(dp703
sg71
g637
sg64
(lp704
g57
(g78
g59
NtRp705
(dp706
g62
(dp707
g82
g83
ssg71
g701
sg64
(lp708
g334
asbag57
(g78
g59
NtRp709
(dp710
g62
(dp711
g89
g90
ssg71
g701
sg64
(lp712
S':'
asbag57
(g78
g59
NtRp713
(dp714
g62
(dp715
sg71
g701
sg64
(lp716
g57
(g58
g59
NtRp717
(dp718
g62
(dp719
g70
I3
ssg71
g713
sg64
(lp720
S''
asbasbasbag57
(g73
g59
NtRp721
(dp722
g62
(dp723
sg71
g637
sg64
(lp724
g57
(g78
g59
NtRp725
(dp726
g62
(dp727
g82
g83
ssg71
g721
sg64
(lp728
g355
asbag57
(g78
g59
NtRp729
(dp730
g62
(dp731
g89
g90
ssg71
g721
sg64
(lp732
S':'
asbag57
(g78
g59
NtRp733
(dp734
g62
(dp735
sg71
g721
sg64
(lp736
g57
(g58
g59
NtRp737
(dp738
g62
(dp739
g70
I3
ssg71
g733
sg64
(lp740
S''
asbasbasbag57
(g73
g59
NtRp741
(dp742
g62
(dp743
sg71
g637
sg64
(lp744
g57
(g78
g59
NtRp745
(dp746
g62
(dp747
g82
g83
ssg71
g741
sg64
(lp748
g376
asbag57
(g78
g59
NtRp749
(dp750
g62
(dp751
g89
g90
ssg71
g741
sg64
(lp752
S':'
asbag57
(g78
g59
NtRp753
(dp754
g62
(dp755
sg71
g741
sg64
(lp756
g57
(g58
g59
NtRp757
(dp758
g62
(dp759
g70
I3
ssg71
g753
sg64
(lp760
S''
asbasbasbag57
(g73
g59
NtRp761
(dp762
g62
(dp763
sg71
g637
sg64
(lp764
g57
(g78
g59
NtRp765
(dp766
g62
(dp767
g82
g83
ssg71
g761
sg64
(lp768
g397
asbag57
(g78
g59
NtRp769
(dp770
g62
(dp771
g89
g90
ssg71
g761
sg64
(lp772
S':'
asbag57
(g78
g59
NtRp773
(dp774
g62
(dp775
sg71
g761
sg64
(lp776
g57
(g58
g59
NtRp777
(dp778
g62
(dp779
g70
I3
ssg71
g773
sg64
(lp780
S''
asbasbasbag57
(g73
g59
NtRp781
(dp782
g62
(dp783
sg71
g637
sg64
(lp784
g57
(g78
g59
NtRp785
(dp786
g62
(dp787
g82
g83
ssg71
g781
sg64
(lp788
g418
asbag57
(g78
g59
NtRp789
(dp790
g62
(dp791
g89
g90
ssg71
g781
sg64
(lp792
S':'
asbag57
(g78
g59
NtRp793
(dp794
g62
(dp795
sg71
g781
sg64
(lp796
g57
(g58
g59
NtRp797
(dp798
g62
(dp799
g70
I3
ssg71
g793
sg64
(lp800
S''
asbasbasbasbasbasbasbag57
(g73
g59
NtRp801
(dp802
g62
(dp803
sg71
g234
sg64
(lp804
g57
(g78
g59
NtRp805
(dp806
g62
(dp807
g82
g83
ssg71
g801
sg64
(lp808
S'session_id_music_library'
p809
asbag57
(g78
g59
NtRp810
(dp811
g62
(dp812
g89
g90
ssg71
g801
sg64
(lp813
S':'
asbag57
(g78
g59
NtRp814
(dp815
g62
(dp816
sg71
g801
sg64
(lp817
g57
(g58
g59
NtRp818
(dp819
g62
(dp820
g70
I4
ssg71
g814
sg64
(lp821
g57
(g66
g59
NtRp822
(dp823
g62
(dp824
g70
I3
ssg71
Nsg64
(lp825
g57
(g73
g59
NtRp826
(dp827
g62
(dp828
sg71
g822
sg64
(lp829
g57
(g78
g59
NtRp830
(dp831
g62
(dp832
g82
g83
ssg71
g826
sg64
(lp833
g271
asbag57
(g78
g59
NtRp834
(dp835
g62
(dp836
g89
g90
ssg71
g826
sg64
(lp837
S':'
asbag57
(g78
g59
NtRp838
(dp839
g62
(dp840
sg71
g826
sg64
(lp841
g57
(g58
g59
NtRp842
(dp843
g62
(dp844
g70
I3
ssg71
g838
sg64
(lp845
S''
asbasbasbag57
(g73
g59
NtRp846
(dp847
g62
(dp848
sg71
g822
sg64
(lp849
g57
(g78
g59
NtRp850
(dp851
g62
(dp852
g82
g83
ssg71
g846
sg64
(lp853
g292
asbag57
(g78
g59
NtRp854
(dp855
g62
(dp856
g89
g90
ssg71
g846
sg64
(lp857
S':'
asbag57
(g78
g59
NtRp858
(dp859
g62
(dp860
sg71
g846
sg64
(lp861
g57
(g58
g59
NtRp862
(dp863
g62
(dp864
g70
I3
ssg71
g858
sg64
(lp865
S''
asbasbasbag57
(g73
g59
NtRp866
(dp867
g62
(dp868
sg71
g822
sg64
(lp869
g57
(g78
g59
NtRp870
(dp871
g62
(dp872
g82
g83
ssg71
g866
sg64
(lp873
g313
asbag57
(g78
g59
NtRp874
(dp875
g62
(dp876
g89
g90
ssg71
g866
sg64
(lp877
S':'
asbag57
(g78
g59
NtRp878
(dp879
g62
(dp880
sg71
g866
sg64
(lp881
g57
(g58
g59
NtRp882
(dp883
g62
(dp884
g70
I3
ssg71
g878
sg64
(lp885
S''
asbasbasbag57
(g73
g59
NtRp886
(dp887
g62
(dp888
sg71
g822
sg64
(lp889
g57
(g78
g59
NtRp890
(dp891
g62
(dp892
g82
g83
ssg71
g886
sg64
(lp893
g334
asbag57
(g78
g59
NtRp894
(dp895
g62
(dp896
g89
g90
ssg71
g886
sg64
(lp897
S':'
asbag57
(g78
g59
NtRp898
(dp899
g62
(dp900
sg71
g886
sg64
(lp901
g57
(g58
g59
NtRp902
(dp903
g62
(dp904
g70
I3
ssg71
g898
sg64
(lp905
S''
asbasbasbag57
(g73
g59
NtRp906
(dp907
g62
(dp908
sg71
g822
sg64
(lp909
g57
(g78
g59
NtRp910
(dp911
g62
(dp912
g82
g83
ssg71
g906
sg64
(lp913
g355
asbag57
(g78
g59
NtRp914
(dp915
g62
(dp916
g89
g90
ssg71
g906
sg64
(lp917
S':'
asbag57
(g78
g59
NtRp918
(dp919
g62
(dp920
sg71
g906
sg64
(lp921
g57
(g58
g59
NtRp922
(dp923
g62
(dp924
g70
I3
ssg71
g918
sg64
(lp925
S''
asbasbasbag57
(g73
g59
NtRp926
(dp927
g62
(dp928
sg71
g822
sg64
(lp929
g57
(g78
g59
NtRp930
(dp931
g62
(dp932
g82
g83
ssg71
g926
sg64
(lp933
g376
asbag57
(g78
g59
NtRp934
(dp935
g62
(dp936
g89
g90
ssg71
g926
sg64
(lp937
S':'
asbag57
(g78
g59
NtRp938
(dp939
g62
(dp940
sg71
g926
sg64
(lp941
g57
(g58
g59
NtRp942
(dp943
g62
(dp944
g70
I3
ssg71
g938
sg64
(lp945
S''
asbasbasbag57
(g73
g59
NtRp946
(dp947
g62
(dp948
sg71
g822
sg64
(lp949
g57
(g78
g59
NtRp950
(dp951
g62
(dp952
g82
g83
ssg71
g946
sg64
(lp953
g397
asbag57
(g78
g59
NtRp954
(dp955
g62
(dp956
g89
g90
ssg71
g946
sg64
(lp957
S':'
asbag57
(g78
g59
NtRp958
(dp959
g62
(dp960
sg71
g946
sg64
(lp961
g57
(g58
g59
NtRp962
(dp963
g62
(dp964
g70
I3
ssg71
g958
sg64
(lp965
S''
asbasbasbag57
(g73
g59
NtRp966
(dp967
g62
(dp968
sg71
g822
sg64
(lp969
g57
(g78
g59
NtRp970
(dp971
g62
(dp972
g82
g83
ssg71
g966
sg64
(lp973
g418
asbag57
(g78
g59
NtRp974
(dp975
g62
(dp976
g89
g90
ssg71
g966
sg64
(lp977
S':'
asbag57
(g78
g59
NtRp978
(dp979
g62
(dp980
sg71
g966
sg64
(lp981
g57
(g58
g59
NtRp982
(dp983
g62
(dp984
g70
I3
ssg71
g978
sg64
(lp985
S''
asbasbasbasbasbasbasbag57
(g73
g59
NtRp986
(dp987
g62
(dp988
sg71
g234
sg64
(lp989
g57
(g78
g59
NtRp990
(dp991
g62
(dp992
g82
g83
ssg71
g986
sg64
(lp993
S'session_id_photouploader'
p994
asbag57
(g78
g59
NtRp995
(dp996
g62
(dp997
g89
g90
ssg71
g986
sg64
(lp998
S':'
asbag57
(g78
g59
NtRp999
(dp1000
g62
(dp1001
sg71
g986
sg64
(lp1002
g57
(g58
g59
NtRp1003
(dp1004
g62
(dp1005
g70
I4
ssg71
g999
sg64
(lp1006
g57
(g66
g59
NtRp1007
(dp1008
g62
(dp1009
g70
I3
ssg71
Nsg64
(lp1010
g57
(g73
g59
NtRp1011
(dp1012
g62
(dp1013
sg71
g1007
sg64
(lp1014
g57
(g78
g59
NtRp1015
(dp1016
g62
(dp1017
g82
g83
ssg71
g1011
sg64
(lp1018
g271
asbag57
(g78
g59
NtRp1019
(dp1020
g62
(dp1021
g89
g90
ssg71
g1011
sg64
(lp1022
S':'
asbag57
(g78
g59
NtRp1023
(dp1024
g62
(dp1025
sg71
g1011
sg64
(lp1026
g57
(g58
g59
NtRp1027
(dp1028
g62
(dp1029
g70
I3
ssg71
g1023
sg64
(lp1030
S''
asbasbasbag57
(g73
g59
NtRp1031
(dp1032
g62
(dp1033
sg71
g1007
sg64
(lp1034
g57
(g78
g59
NtRp1035
(dp1036
g62
(dp1037
g82
g83
ssg71
g1031
sg64
(lp1038
g292
asbag57
(g78
g59
NtRp1039
(dp1040
g62
(dp1041
g89
g90
ssg71
g1031
sg64
(lp1042
S':'
asbag57
(g78
g59
NtRp1043
(dp1044
g62
(dp1045
sg71
g1031
sg64
(lp1046
g57
(g58
g59
NtRp1047
(dp1048
g62
(dp1049
g70
I3
ssg71
g1043
sg64
(lp1050
S''
asbasbasbag57
(g73
g59
NtRp1051
(dp1052
g62
(dp1053
sg71
g1007
sg64
(lp1054
g57
(g78
g59
NtRp1055
(dp1056
g62
(dp1057
g82
g83
ssg71
g1051
sg64
(lp1058
g313
asbag57
(g78
g59
NtRp1059
(dp1060
g62
(dp1061
g89
g90
ssg71
g1051
sg64
(lp1062
S':'
asbag57
(g78
g59
NtRp1063
(dp1064
g62
(dp1065
sg71
g1051
sg64
(lp1066
g57
(g58
g59
NtRp1067
(dp1068
g62
(dp1069
g70
I3
ssg71
g1063
sg64
(lp1070
S''
asbasbasbag57
(g73
g59
NtRp1071
(dp1072
g62
(dp1073
sg71
g1007
sg64
(lp1074
g57
(g78
g59
NtRp1075
(dp1076
g62
(dp1077
g82
g83
ssg71
g1071
sg64
(lp1078
g334
asbag57
(g78
g59
NtRp1079
(dp1080
g62
(dp1081
g89
g90
ssg71
g1071
sg64
(lp1082
S':'
asbag57
(g78
g59
NtRp1083
(dp1084
g62
(dp1085
sg71
g1071
sg64
(lp1086
g57
(g58
g59
NtRp1087
(dp1088
g62
(dp1089
g70
I3
ssg71
g1083
sg64
(lp1090
S''
asbasbasbag57
(g73
g59
NtRp1091
(dp1092
g62
(dp1093
sg71
g1007
sg64
(lp1094
g57
(g78
g59
NtRp1095
(dp1096
g62
(dp1097
g82
g83
ssg71
g1091
sg64
(lp1098
g355
asbag57
(g78
g59
NtRp1099
(dp1100
g62
(dp1101
g89
g90
ssg71
g1091
sg64
(lp1102
S':'
asbag57
(g78
g59
NtRp1103
(dp1104
g62
(dp1105
sg71
g1091
sg64
(lp1106
g57
(g58
g59
NtRp1107
(dp1108
g62
(dp1109
g70
I3
ssg71
g1103
sg64
(lp1110
S''
asbasbasbag57
(g73
g59
NtRp1111
(dp1112
g62
(dp1113
sg71
g1007
sg64
(lp1114
g57
(g78
g59
NtRp1115
(dp1116
g62
(dp1117
g82
g83
ssg71
g1111
sg64
(lp1118
g376
asbag57
(g78
g59
NtRp1119
(dp1120
g62
(dp1121
g89
g90
ssg71
g1111
sg64
(lp1122
S':'
asbag57
(g78
g59
NtRp1123
(dp1124
g62
(dp1125
sg71
g1111
sg64
(lp1126
g57
(g58
g59
NtRp1127
(dp1128
g62
(dp1129
g70
I3
ssg71
g1123
sg64
(lp1130
S''
asbasbasbag57
(g73
g59
NtRp1131
(dp1132
g62
(dp1133
sg71
g1007
sg64
(lp1134
g57
(g78
g59
NtRp1135
(dp1136
g62
(dp1137
g82
g83
ssg71
g1131
sg64
(lp1138
g397
asbag57
(g78
g59
NtRp1139
(dp1140
g62
(dp1141
g89
g90
ssg71
g1131
sg64
(lp1142
S':'
asbag57
(g78
g59
NtRp1143
(dp1144
g62
(dp1145
sg71
g1131
sg64
(lp1146
g57
(g58
g59
NtRp1147
(dp1148
g62
(dp1149
g70
I3
ssg71
g1143
sg64
(lp1150
S''
asbasbasbag57
(g73
g59
NtRp1151
(dp1152
g62
(dp1153
sg71
g1007
sg64
(lp1154
g57
(g78
g59
NtRp1155
(dp1156
g62
(dp1157
g82
g83
ssg71
g1151
sg64
(lp1158
g418
asbag57
(g78
g59
NtRp1159
(dp1160
g62
(dp1161
g89
g90
ssg71
g1151
sg64
(lp1162
S':'
asbag57
(g78
g59
NtRp1163
(dp1164
g62
(dp1165
sg71
g1151
sg64
(lp1166
g57
(g58
g59
NtRp1167
(dp1168
g62
(dp1169
g70
I3
ssg71
g1163
sg64
(lp1170
S''
asbasbasbasbasbasbasbag57
(g73
g59
NtRp1171
(dp1172
g62
(dp1173
sg71
g234
sg64
(lp1174
g57
(g78
g59
NtRp1175
(dp1176
g62
(dp1177
g82
g83
ssg71
g1171
sg64
(lp1178
S'session_id_sudoku'
p1179
asbag57
(g78
g59
NtRp1180
(dp1181
g62
(dp1182
g89
g90
ssg71
g1171
sg64
(lp1183
S':'
asbag57
(g78
g59
NtRp1184
(dp1185
g62
(dp1186
sg71
g1171
sg64
(lp1187
g57
(g58
g59
NtRp1188
(dp1189
g62
(dp1190
g70
I4
ssg71
g1184
sg64
(lp1191
g57
(g66
g59
NtRp1192
(dp1193
g62
(dp1194
g70
I3
ssg71
Nsg64
(lp1195
g57
(g73
g59
NtRp1196
(dp1197
g62
(dp1198
sg71
g1192
sg64
(lp1199
g57
(g78
g59
NtRp1200
(dp1201
g62
(dp1202
g82
g83
ssg71
g1196
sg64
(lp1203
g271
asbag57
(g78
g59
NtRp1204
(dp1205
g62
(dp1206
g89
g90
ssg71
g1196
sg64
(lp1207
S':'
asbag57
(g78
g59
NtRp1208
(dp1209
g62
(dp1210
sg71
g1196
sg64
(lp1211
g57
(g58
g59
NtRp1212
(dp1213
g62
(dp1214
g70
I3
ssg71
g1208
sg64
(lp1215
S''
asbasbasbag57
(g73
g59
NtRp1216
(dp1217
g62
(dp1218
sg71
g1192
sg64
(lp1219
g57
(g78
g59
NtRp1220
(dp1221
g62
(dp1222
g82
g83
ssg71
g1216
sg64
(lp1223
g292
asbag57
(g78
g59
NtRp1224
(dp1225
g62
(dp1226
g89
g90
ssg71
g1216
sg64
(lp1227
S':'
asbag57
(g78
g59
NtRp1228
(dp1229
g62
(dp1230
sg71
g1216
sg64
(lp1231
g57
(g58
g59
NtRp1232
(dp1233
g62
(dp1234
g70
I3
ssg71
g1228
sg64
(lp1235
S''
asbasbasbag57
(g73
g59
NtRp1236
(dp1237
g62
(dp1238
sg71
g1192
sg64
(lp1239
g57
(g78
g59
NtRp1240
(dp1241
g62
(dp1242
g82
g83
ssg71
g1236
sg64
(lp1243
g313
asbag57
(g78
g59
NtRp1244
(dp1245
g62
(dp1246
g89
g90
ssg71
g1236
sg64
(lp1247
S':'
asbag57
(g78
g59
NtRp1248
(dp1249
g62
(dp1250
sg71
g1236
sg64
(lp1251
g57
(g58
g59
NtRp1252
(dp1253
g62
(dp1254
g70
I3
ssg71
g1248
sg64
(lp1255
S''
asbasbasbag57
(g73
g59
NtRp1256
(dp1257
g62
(dp1258
sg71
g1192
sg64
(lp1259
g57
(g78
g59
NtRp1260
(dp1261
g62
(dp1262
g82
g83
ssg71
g1256
sg64
(lp1263
g334
asbag57
(g78
g59
NtRp1264
(dp1265
g62
(dp1266
g89
g90
ssg71
g1256
sg64
(lp1267
S':'
asbag57
(g78
g59
NtRp1268
(dp1269
g62
(dp1270
sg71
g1256
sg64
(lp1271
g57
(g58
g59
NtRp1272
(dp1273
g62
(dp1274
g70
I3
ssg71
g1268
sg64
(lp1275
S''
asbasbasbag57
(g73
g59
NtRp1276
(dp1277
g62
(dp1278
sg71
g1192
sg64
(lp1279
g57
(g78
g59
NtRp1280
(dp1281
g62
(dp1282
g82
g83
ssg71
g1276
sg64
(lp1283
g355
asbag57
(g78
g59
NtRp1284
(dp1285
g62
(dp1286
g89
g90
ssg71
g1276
sg64
(lp1287
S':'
asbag57
(g78
g59
NtRp1288
(dp1289
g62
(dp1290
sg71
g1276
sg64
(lp1291
g57
(g58
g59
NtRp1292
(dp1293
g62
(dp1294
g70
I3
ssg71
g1288
sg64
(lp1295
S''
asbasbasbag57
(g73
g59
NtRp1296
(dp1297
g62
(dp1298
sg71
g1192
sg64
(lp1299
g57
(g78
g59
NtRp1300
(dp1301
g62
(dp1302
g82
g83
ssg71
g1296
sg64
(lp1303
g376
asbag57
(g78
g59
NtRp1304
(dp1305
g62
(dp1306
g89
g90
ssg71
g1296
sg64
(lp1307
S':'
asbag57
(g78
g59
NtRp1308
(dp1309
g62
(dp1310
sg71
g1296
sg64
(lp1311
g57
(g58
g59
NtRp1312
(dp1313
g62
(dp1314
g70
I3
ssg71
g1308
sg64
(lp1315
S''
asbasbasbag57
(g73
g59
NtRp1316
(dp1317
g62
(dp1318
sg71
g1192
sg64
(lp1319
g57
(g78
g59
NtRp1320
(dp1321
g62
(dp1322
g82
g83
ssg71
g1316
sg64
(lp1323
g397
asbag57
(g78
g59
NtRp1324
(dp1325
g62
(dp1326
g89
g90
ssg71
g1316
sg64
(lp1327
S':'
asbag57
(g78
g59
NtRp1328
(dp1329
g62
(dp1330
sg71
g1316
sg64
(lp1331
g57
(g58
g59
NtRp1332
(dp1333
g62
(dp1334
g70
I3
ssg71
g1328
sg64
(lp1335
S''
asbasbasbag57
(g73
g59
NtRp1336
(dp1337
g62
(dp1338
sg71
g1192
sg64
(lp1339
g57
(g78
g59
NtRp1340
(dp1341
g62
(dp1342
g82
g83
ssg71
g1336
sg64
(lp1343
g418
asbag57
(g78
g59
NtRp1344
(dp1345
g62
(dp1346
g89
g90
ssg71
g1336
sg64
(lp1347
S':'
asbag57
(g78
g59
NtRp1348
(dp1349
g62
(dp1350
sg71
g1336
sg64
(lp1351
g57
(g58
g59
NtRp1352
(dp1353
g62
(dp1354
g70
I3
ssg71
g1348
sg64
(lp1355
S''
asbasbasbasbasbasbasbag57
(g73
g59
NtRp1356
(dp1357
g62
(dp1358
sg71
g234
sg64
(lp1359
g57
(g78
g59
NtRp1360
(dp1361
g62
(dp1362
g82
g83
ssg71
g1356
sg64
(lp1363
S'session_id_vish'
p1364
asbag57
(g78
g59
NtRp1365
(dp1366
g62
(dp1367
g89
g90
ssg71
g1356
sg64
(lp1368
S':'
asbag57
(g78
g59
NtRp1369
(dp1370
g62
(dp1371
sg71
g1356
sg64
(lp1372
g57
(g58
g59
NtRp1373
(dp1374
g62
(dp1375
g70
I4
ssg71
g1369
sg64
(lp1376
g57
(g66
g59
NtRp1377
(dp1378
g62
(dp1379
g70
I3
ssg71
Nsg64
(lp1380
g57
(g73
g59
NtRp1381
(dp1382
g62
(dp1383
sg71
g1377
sg64
(lp1384
g57
(g78
g59
NtRp1385
(dp1386
g62
(dp1387
g82
g83
ssg71
g1381
sg64
(lp1388
g271
asbag57
(g78
g59
NtRp1389
(dp1390
g62
(dp1391
g89
g90
ssg71
g1381
sg64
(lp1392
S':'
asbag57
(g78
g59
NtRp1393
(dp1394
g62
(dp1395
sg71
g1381
sg64
(lp1396
g57
(g58
g59
NtRp1397
(dp1398
g62
(dp1399
g70
I3
ssg71
g1393
sg64
(lp1400
S''
asbasbasbag57
(g73
g59
NtRp1401
(dp1402
g62
(dp1403
sg71
g1377
sg64
(lp1404
g57
(g78
g59
NtRp1405
(dp1406
g62
(dp1407
g82
g83
ssg71
g1401
sg64
(lp1408
g292
asbag57
(g78
g59
NtRp1409
(dp1410
g62
(dp1411
g89
g90
ssg71
g1401
sg64
(lp1412
S':'
asbag57
(g78
g59
NtRp1413
(dp1414
g62
(dp1415
sg71
g1401
sg64
(lp1416
g57
(g58
g59
NtRp1417
(dp1418
g62
(dp1419
g70
I3
ssg71
g1413
sg64
(lp1420
S''
asbasbasbag57
(g73
g59
NtRp1421
(dp1422
g62
(dp1423
sg71
g1377
sg64
(lp1424
g57
(g78
g59
NtRp1425
(dp1426
g62
(dp1427
g82
g83
ssg71
g1421
sg64
(lp1428
g313
asbag57
(g78
g59
NtRp1429
(dp1430
g62
(dp1431
g89
g90
ssg71
g1421
sg64
(lp1432
S':'
asbag57
(g78
g59
NtRp1433
(dp1434
g62
(dp1435
sg71
g1421
sg64
(lp1436
g57
(g58
g59
NtRp1437
(dp1438
g62
(dp1439
g70
I3
ssg71
g1433
sg64
(lp1440
S''
asbasbasbag57
(g73
g59
NtRp1441
(dp1442
g62
(dp1443
sg71
g1377
sg64
(lp1444
g57
(g78
g59
NtRp1445
(dp1446
g62
(dp1447
g82
g83
ssg71
g1441
sg64
(lp1448
g334
asbag57
(g78
g59
NtRp1449
(dp1450
g62
(dp1451
g89
g90
ssg71
g1441
sg64
(lp1452
S':'
asbag57
(g78
g59
NtRp1453
(dp1454
g62
(dp1455
sg71
g1441
sg64
(lp1456
g57
(g58
g59
NtRp1457
(dp1458
g62
(dp1459
g70
I3
ssg71
g1453
sg64
(lp1460
S''
asbasbasbag57
(g73
g59
NtRp1461
(dp1462
g62
(dp1463
sg71
g1377
sg64
(lp1464
g57
(g78
g59
NtRp1465
(dp1466
g62
(dp1467
g82
g83
ssg71
g1461
sg64
(lp1468
g355
asbag57
(g78
g59
NtRp1469
(dp1470
g62
(dp1471
g89
g90
ssg71
g1461
sg64
(lp1472
S':'
asbag57
(g78
g59
NtRp1473
(dp1474
g62
(dp1475
sg71
g1461
sg64
(lp1476
g57
(g58
g59
NtRp1477
(dp1478
g62
(dp1479
g70
I3
ssg71
g1473
sg64
(lp1480
S''
asbasbasbag57
(g73
g59
NtRp1481
(dp1482
g62
(dp1483
sg71
g1377
sg64
(lp1484
g57
(g78
g59
NtRp1485
(dp1486
g62
(dp1487
g82
g83
ssg71
g1481
sg64
(lp1488
g376
asbag57
(g78
g59
NtRp1489
(dp1490
g62
(dp1491
g89
g90
ssg71
g1481
sg64
(lp1492
S':'
asbag57
(g78
g59
NtRp1493
(dp1494
g62
(dp1495
sg71
g1481
sg64
(lp1496
g57
(g58
g59
NtRp1497
(dp1498
g62
(dp1499
g70
I3
ssg71
g1493
sg64
(lp1500
S''
asbasbasbag57
(g73
g59
NtRp1501
(dp1502
g62
(dp1503
sg71
g1377
sg64
(lp1504
g57
(g78
g59
NtRp1505
(dp1506
g62
(dp1507
g82
g83
ssg71
g1501
sg64
(lp1508
g397
asbag57
(g78
g59
NtRp1509
(dp1510
g62
(dp1511
g89
g90
ssg71
g1501
sg64
(lp1512
S':'
asbag57
(g78
g59
NtRp1513
(dp1514
g62
(dp1515
sg71
g1501
sg64
(lp1516
g57
(g58
g59
NtRp1517
(dp1518
g62
(dp1519
g70
I3
ssg71
g1513
sg64
(lp1520
S''
asbasbasbag57
(g73
g59
NtRp1521
(dp1522
g62
(dp1523
sg71
g1377
sg64
(lp1524
g57
(g78
g59
NtRp1525
(dp1526
g62
(dp1527
g82
g83
ssg71
g1521
sg64
(lp1528
g418
asbag57
(g78
g59
NtRp1529
(dp1530
g62
(dp1531
g89
g90
ssg71
g1521
sg64
(lp1532
S':'
asbag57
(g78
g59
NtRp1533
(dp1534
g62
(dp1535
sg71
g1521
sg64
(lp1536
g57
(g58
g59
NtRp1537
(dp1538
g62
(dp1539
g70
I3
ssg71
g1533
sg64
(lp1540
S''
asbasbasbasbasbasbasbag57
(g73
g59
NtRp1541
(dp1542
g62
(dp1543
sg71
g234
sg64
(lp1544
g57
(g78
g59
NtRp1545
(dp1546
g62
(dp1547
g82
g83
ssg71
g1541
sg64
(lp1548
S'session_id_welcome'
p1549
asbag57
(g78
g59
NtRp1550
(dp1551
g62
(dp1552
g89
g90
ssg71
g1541
sg64
(lp1553
S':'
asbag57
(g78
g59
NtRp1554
(dp1555
g62
(dp1556
sg71
g1541
sg64
(lp1557
g57
(g58
g59
NtRp1558
(dp1559
g62
(dp1560
g70
I4
ssg71
g1554
sg64
(lp1561
g57
(g66
g59
NtRp1562
(dp1563
g62
(dp1564
g70
I3
ssg71
Nsg64
(lp1565
g57
(g73
g59
NtRp1566
(dp1567
g62
(dp1568
sg71
g1562
sg64
(lp1569
g57
(g78
g59
NtRp1570
(dp1571
g62
(dp1572
g82
g83
ssg71
g1566
sg64
(lp1573
g271
asbag57
(g78
g59
NtRp1574
(dp1575
g62
(dp1576
g89
g90
ssg71
g1566
sg64
(lp1577
S':'
asbag57
(g78
g59
NtRp1578
(dp1579
g62
(dp1580
sg71
g1566
sg64
(lp1581
g57
(g58
g59
NtRp1582
(dp1583
g62
(dp1584
g70
I3
ssg71
g1578
sg64
(lp1585
S''
asbasbasbag57
(g73
g59
NtRp1586
(dp1587
g62
(dp1588
sg71
g1562
sg64
(lp1589
g57
(g78
g59
NtRp1590
(dp1591
g62
(dp1592
g82
g83
ssg71
g1586
sg64
(lp1593
g292
asbag57
(g78
g59
NtRp1594
(dp1595
g62
(dp1596
g89
g90
ssg71
g1586
sg64
(lp1597
S':'
asbag57
(g78
g59
NtRp1598
(dp1599
g62
(dp1600
sg71
g1586
sg64
(lp1601
g57
(g58
g59
NtRp1602
(dp1603
g62
(dp1604
g70
I3
ssg71
g1598
sg64
(lp1605
S''
asbasbasbag57
(g73
g59
NtRp1606
(dp1607
g62
(dp1608
sg71
g1562
sg64
(lp1609
g57
(g78
g59
NtRp1610
(dp1611
g62
(dp1612
g82
g83
ssg71
g1606
sg64
(lp1613
g313
asbag57
(g78
g59
NtRp1614
(dp1615
g62
(dp1616
g89
g90
ssg71
g1606
sg64
(lp1617
S':'
asbag57
(g78
g59
NtRp1618
(dp1619
g62
(dp1620
sg71
g1606
sg64
(lp1621
g57
(g58
g59
NtRp1622
(dp1623
g62
(dp1624
g70
I3
ssg71
g1618
sg64
(lp1625
S''
asbasbasbag57
(g73
g59
NtRp1626
(dp1627
g62
(dp1628
sg71
g1562
sg64
(lp1629
g57
(g78
g59
NtRp1630
(dp1631
g62
(dp1632
g82
g83
ssg71
g1626
sg64
(lp1633
g334
asbag57
(g78
g59
NtRp1634
(dp1635
g62
(dp1636
g89
g90
ssg71
g1626
sg64
(lp1637
S':'
asbag57
(g78
g59
NtRp1638
(dp1639
g62
(dp1640
sg71
g1626
sg64
(lp1641
g57
(g58
g59
NtRp1642
(dp1643
g62
(dp1644
g70
I3
ssg71
g1638
sg64
(lp1645
S''
asbasbasbag57
(g73
g59
NtRp1646
(dp1647
g62
(dp1648
sg71
g1562
sg64
(lp1649
g57
(g78
g59
NtRp1650
(dp1651
g62
(dp1652
g82
g83
ssg71
g1646
sg64
(lp1653
g355
asbag57
(g78
g59
NtRp1654
(dp1655
g62
(dp1656
g89
g90
ssg71
g1646
sg64
(lp1657
S':'
asbag57
(g78
g59
NtRp1658
(dp1659
g62
(dp1660
sg71
g1646
sg64
(lp1661
g57
(g58
g59
NtRp1662
(dp1663
g62
(dp1664
g70
I3
ssg71
g1658
sg64
(lp1665
S''
asbasbasbag57
(g73
g59
NtRp1666
(dp1667
g62
(dp1668
sg71
g1562
sg64
(lp1669
g57
(g78
g59
NtRp1670
(dp1671
g62
(dp1672
g82
g83
ssg71
g1666
sg64
(lp1673
g376
asbag57
(g78
g59
NtRp1674
(dp1675
g62
(dp1676
g89
g90
ssg71
g1666
sg64
(lp1677
S':'
asbag57
(g78
g59
NtRp1678
(dp1679
g62
(dp1680
sg71
g1666
sg64
(lp1681
g57
(g58
g59
NtRp1682
(dp1683
g62
(dp1684
g70
I3
ssg71
g1678
sg64
(lp1685
S''
asbasbasbag57
(g73
g59
NtRp1686
(dp1687
g62
(dp1688
sg71
g1562
sg64
(lp1689
g57
(g78
g59
NtRp1690
(dp1691
g62
(dp1692
g82
g83
ssg71
g1686
sg64
(lp1693
g397
asbag57
(g78
g59
NtRp1694
(dp1695
g62
(dp1696
g89
g90
ssg71
g1686
sg64
(lp1697
S':'
asbag57
(g78
g59
NtRp1698
(dp1699
g62
(dp1700
sg71
g1686
sg64
(lp1701
g57
(g58
g59
NtRp1702
(dp1703
g62
(dp1704
g70
I3
ssg71
g1698
sg64
(lp1705
S''
asbasbasbag57
(g73
g59
NtRp1706
(dp1707
g62
(dp1708
sg71
g1562
sg64
(lp1709
g57
(g78
g59
NtRp1710
(dp1711
g62
(dp1712
g82
g83
ssg71
g1706
sg64
(lp1713
g418
asbag57
(g78
g59
NtRp1714
(dp1715
g62
(dp1716
g89
g90
ssg71
g1706
sg64
(lp1717
S':'
asbag57
(g78
g59
NtRp1718
(dp1719
g62
(dp1720
sg71
g1706
sg64
(lp1721
g57
(g58
g59
NtRp1722
(dp1723
g62
(dp1724
g70
I3
ssg71
g1718
sg64
(lp1725
S''
asbasbasbasbasbasbasbasbasbasbasbag57
(g73
g59
NtRp1726
(dp1727
g62
(dp1728
sg71
g67
sg64
(lp1729
g57
(g78
g59
NtRp1730
(dp1731
g62
(dp1732
g82
g83
ssg71
g1726
sg64
(lp1733
S'env'
p1734
asbag57
(g78
g59
NtRp1735
(dp1736
g62
(dp1737
g89
g90
ssg71
g1726
sg64
(lp1738
S':'
asbag57
(g78
g59
NtRp1739
(dp1740
g62
(dp1741
sg71
g1726
sg64
(lp1742
g57
(g58
g59
NtRp1743
(dp1744
g62
(dp1745
g70
I5
ssg71
g1739
sg64
(lp1746
g57
(g66
g59
NtRp1747
(dp1748
g62
(dp1749
g70
I4
ssg71
Nsg64
(lp1750
g57
(g73
g59
NtRp1751
(dp1752
g62
(dp1753
sg71
g1747
sg64
(lp1754
g57
(g78
g59
NtRp1755
(dp1756
g62
(dp1757
g82
g83
ssg71
g1751
sg64
(lp1758
S'app_folders'
p1759
asbag57
(g78
g59
NtRp1760
(dp1761
g62
(dp1762
g89
g90
ssg71
g1751
sg64
(lp1763
S':'
asbag57
(g78
g59
NtRp1764
(dp1765
g62
(dp1766
sg71
g1751
sg64
(lp1767
g57
(g58
g59
NtRp1768
(dp1769
g62
(dp1770
g70
I4
ssg71
g1764
sg64
(lp1771
S"set(['/home/vishrut/web2py/applications/astra1/', '/home/vishrut/web2py/applications/admin/', '/home/vishrut/web2py/applications/PhotoUploader/', '/home/vishrut/web2py/applications/welcome/'])"
p1772
asbasbasbag57
(g73
g59
NtRp1773
(dp1774
g62
(dp1775
sg71
g1747
sg64
(lp1776
g57
(g78
g59
NtRp1777
(dp1778
g62
(dp1779
g82
g83
ssg71
g1773
sg64
(lp1780
S'applications_parent'
p1781
asbag57
(g78
g59
NtRp1782
(dp1783
g62
(dp1784
g89
g90
ssg71
g1773
sg64
(lp1785
S':'
asbag57
(g78
g59
NtRp1786
(dp1787
g62
(dp1788
sg71
g1773
sg64
(lp1789
g57
(g58
g59
NtRp1790
(dp1791
g62
(dp1792
g70
I4
ssg71
g1786
sg64
(lp1793
S'/home/vishrut/web2py'
p1794
asbasbasbag57
(g73
g59
NtRp1795
(dp1796
g62
(dp1797
sg71
g1747
sg64
(lp1798
g57
(g78
g59
NtRp1799
(dp1800
g62
(dp1801
g82
g83
ssg71
g1795
sg64
(lp1802
S'cmd_args'
p1803
asbag57
(g78
g59
NtRp1804
(dp1805
g62
(dp1806
g89
g90
ssg71
g1795
sg64
(lp1807
S':'
asbag57
(g78
g59
NtRp1808
(dp1809
g62
(dp1810
sg71
g1795
sg64
(lp1811
g57
(g58
g59
NtRp1812
(dp1813
g62
(dp1814
g70
I4
ssg71
g1808
sg64
(lp1815
g57
(g66
g59
NtRp1816
(dp1817
g62
(dp1818
g70
I3
ssg71
Nsg64
(lp1819
sbasbasbasbag57
(g73
g59
NtRp1820
(dp1821
g62
(dp1822
sg71
g1747
sg64
(lp1823
g57
(g78
g59
NtRp1824
(dp1825
g62
(dp1826
g82
g83
ssg71
g1820
sg64
(lp1827
S'cmd_options'
p1828
asbag57
(g78
g59
NtRp1829
(dp1830
g62
(dp1831
g89
g90
ssg71
g1820
sg64
(lp1832
S':'
asbag57
(g78
g59
NtRp1833
(dp1834
g62
(dp1835
sg71
g1820
sg64
(lp1836
g57
(g58
g59
NtRp1837
(dp1838
g62
(dp1839
g70
I4
ssg71
g1833
sg64
(lp1840
S"<Values at 0x9d363cc: {'verbose': False, 'ip': '127.0.0.1', 'shutdown_timeout': 5, 'taskbar': False, 'nocron': False, 'pid_filename': 'httpserver.pid', 'maxthreads': None, 'softcron': False, 'server_name': 'vishrut-Vostro-1015', 'bpython': False, 'nogui': False, 'port': 8000, 'extcron': False, 'debuglevel': 30, 'test': None, 'folder': '/home/vishrut/web2py', 'config': '', 'import_models': False, 'winservice': '', 'shell': None, 'run': '', 'log_filename': 'httpserver.log', 'args': [''], 'socket_timeout': 5, 'ssl_ca_certificate': None, 'scheduler': None, 'profiler_filename': None, 'ssl_private_key': '', 'password': '<ask>', 'request_queue_size': 5, 'ssl_certificate': '', 'cronjob': False, 'numthreads': None, 'quiet': False, 'interfaces': None, 'minthreads': None, 'timeout': 10, 'plain': False, 'nobanner': False}>"
p1841
asbasbasbag57
(g73
g59
NtRp1842
(dp1843
g62
(dp1844
sg71
g1747
sg64
(lp1845
g57
(g78
g59
NtRp1846
(dp1847
g62
(dp1848
g82
g83
ssg71
g1842
sg64
(lp1849
S'db_sessions'
p1850
asbag57
(g78
g59
NtRp1851
(dp1852
g62
(dp1853
g89
g90
ssg71
g1842
sg64
(lp1854
S':'
asbag57
(g78
g59
NtRp1855
(dp1856
g62
(dp1857
sg71
g1842
sg64
(lp1858
g57
(g58
g59
NtRp1859
(dp1860
g62
(dp1861
g70
I4
ssg71
g1855
sg64
(lp1862
S'set([])'
p1863
asbasbasbag57
(g73
g59
NtRp1864
(dp1865
g62
(dp1866
sg71
g1747
sg64
(lp1867
g57
(g78
g59
NtRp1868
(dp1869
g62
(dp1870
g82
g83
ssg71
g1864
sg64
(lp1871
S'debugging'
p1872
asbag57
(g78
g59
NtRp1873
(dp1874
g62
(dp1875
g89
g90
ssg71
g1864
sg64
(lp1876
S':'
asbag57
(g78
g59
NtRp1877
(dp1878
g62
(dp1879
sg71
g1864
sg64
(lp1880
g57
(g58
g59
NtRp1881
(dp1882
g62
(dp1883
g70
I4
ssg71
g1877
sg64
(lp1884
g100
asbasbasbag57
(g73
g59
NtRp1885
(dp1886
g62
(dp1887
sg71
g1747
sg64
(lp1888
g57
(g78
g59
NtRp1889
(dp1890
g62
(dp1891
g82
g83
ssg71
g1885
sg64
(lp1892
S'gluon_parent'
p1893
asbag57
(g78
g59
NtRp1894
(dp1895
g62
(dp1896
g89
g90
ssg71
g1885
sg64
(lp1897
S':'
asbag57
(g78
g59
NtRp1898
(dp1899
g62
(dp1900
sg71
g1885
sg64
(lp1901
g57
(g58
g59
NtRp1902
(dp1903
g62
(dp1904
g70
I4
ssg71
g1898
sg64
(lp1905
S'/home/vishrut/web2py'
p1906
asbasbasbag57
(g73
g59
NtRp1907
(dp1908
g62
(dp1909
sg71
g1747
sg64
(lp1910
g57
(g78
g59
NtRp1911
(dp1912
g62
(dp1913
g82
g83
ssg71
g1907
sg64
(lp1914
S'http_accept'
p1915
asbag57
(g78
g59
NtRp1916
(dp1917
g62
(dp1918
g89
g90
ssg71
g1907
sg64
(lp1919
S':'
asbag57
(g78
g59
NtRp1920
(dp1921
g62
(dp1922
sg71
g1907
sg64
(lp1923
g57
(g58
g59
NtRp1924
(dp1925
g62
(dp1926
g70
I4
ssg71
g1920
sg64
(lp1927
S'text/html,application/xhtml+xml,application/xml;q=0.9,*/*;q=0.8'
p1928
asbasbasbag57
(g73
g59
NtRp1929
(dp1930
g62
(dp1931
sg71
g1747
sg64
(lp1932
g57
(g78
g59
NtRp1933
(dp1934
g62
(dp1935
g82
g83
ssg71
g1929
sg64
(lp1936
S'http_accept_encoding'
p1937
asbag57
(g78
g59
NtRp1938
(dp1939
g62
(dp1940
g89
g90
ssg71
g1929
sg64
(lp1941
S':'
asbag57
(g78
g59
NtRp1942
(dp1943
g62
(dp1944
sg71
g1929
sg64
(lp1945
g57
(g58
g59
NtRp1946
(dp1947
g62
(dp1948
g70
I4
ssg71
g1942
sg64
(lp1949
S'gzip, deflate'
p1950
asbasbasbag57
(g73
g59
NtRp1951
(dp1952
g62
(dp1953
sg71
g1747
sg64
(lp1954
g57
(g78
g59
NtRp1955
(dp1956
g62
(dp1957
g82
g83
ssg71
g1951
sg64
(lp1958
S'http_accept_language'
p1959
asbag57
(g78
g59
NtRp1960
(dp1961
g62
(dp1962
g89
g90
ssg71
g1951
sg64
(lp1963
S':'
asbag57
(g78
g59
NtRp1964
(dp1965
g62
(dp1966
sg71
g1951
sg64
(lp1967
g57
(g58
g59
NtRp1968
(dp1969
g62
(dp1970
g70
I4
ssg71
g1964
sg64
(lp1971
S'en-US,en;q=0.5'
p1972
asbasbasbag57
(g73
g59
NtRp1973
(dp1974
g62
(dp1975
sg71
g1747
sg64
(lp1976
g57
(g78
g59
NtRp1977
(dp1978
g62
(dp1979
g82
g83
ssg71
g1973
sg64
(lp1980
S'http_connection'
p1981
asbag57
(g78
g59
NtRp1982
(dp1983
g62
(dp1984
g89
g90
ssg71
g1973
sg64
(lp1985
S':'
asbag57
(g78
g59
NtRp1986
(dp1987
g62
(dp1988
sg71
g1973
sg64
(lp1989
g57
(g58
g59
NtRp1990
(dp1991
g62
(dp1992
g70
I4
ssg71
g1986
sg64
(lp1993
S'keep-alive'
p1994
asbasbasbag57
(g73
g59
NtRp1995
(dp1996
g62
(dp1997
sg71
g1747
sg64
(lp1998
g57
(g78
g59
NtRp1999
(dp2000
g62
(dp2001
g82
g83
ssg71
g1995
sg64
(lp2002
S'http_cookie'
p2003
asbag57
(g78
g59
NtRp2004
(dp2005
g62
(dp2006
g89
g90
ssg71
g1995
sg64
(lp2007
S':'
asbag57
(g78
g59
NtRp2008
(dp2009
g62
(dp2010
sg71
g1995
sg64
(lp2011
g57
(g58
g59
NtRp2012
(dp2013
g62
(dp2014
g70
I4
ssg71
g2008
sg64
(lp2015
S'session_id_photouploader=127.0.0.1-83bacd5e-b575-49a8-9b6e-fdc698e775f9; session_id_astra1=127.0.0.1-6c6943ea-9e10-4b64-9f35-8611eb020dd8; session_id_sudoku=127.0.0.1-a38f9f54-52d0-4767-a55e-9a1db318fe95; session_id_music=127.0.0.1-5772fb54-09d1-429f-9de0-d5ccdcb57f3a; session_id_welcome=127.0.0.1-ce947a26-bb3e-43d4-9cd9-87c4abcec933; session_id_admin=127.0.0.1-6c67b90d-3883-4b37-ba21-eef2525d3981; session_id_vish=127.0.0.1-bfddb273-c13f-44aa-9345-6c2c33dcf2db; session_id_music_library=127.0.0.1-868801ee-bee6-4d4d-8081-d21e25945ab6'
p2016
asbasbasbag57
(g73
g59
NtRp2017
(dp2018
g62
(dp2019
sg71
g1747
sg64
(lp2020
g57
(g78
g59
NtRp2021
(dp2022
g62
(dp2023
g82
g83
ssg71
g2017
sg64
(lp2024
S'http_host'
p2025
asbag57
(g78
g59
NtRp2026
(dp2027
g62
(dp2028
g89
g90
ssg71
g2017
sg64
(lp2029
S':'
asbag57
(g78
g59
NtRp2030
(dp2031
g62
(dp2032
sg71
g2017
sg64
(lp2033
g57
(g58
g59
NtRp2034
(dp2035
g62
(dp2036
g70
I4
ssg71
g2030
sg64
(lp2037
S'127.0.0.1:8000'
p2038
asbasbasbag57
(g73
g59
NtRp2039
(dp2040
g62
(dp2041
sg71
g1747
sg64
(lp2042
g57
(g78
g59
NtRp2043
(dp2044
g62
(dp2045
g82
g83
ssg71
g2039
sg64
(lp2046
S'http_user_agent'
p2047
asbag57
(g78
g59
NtRp2048
(dp2049
g62
(dp2050
g89
g90
ssg71
g2039
sg64
(lp2051
S':'
asbag57
(g78
g59
NtRp2052
(dp2053
g62
(dp2054
sg71
g2039
sg64
(lp2055
g57
(g58
g59
NtRp2056
(dp2057
g62
(dp2058
g70
I4
ssg71
g2052
sg64
(lp2059
S'Mozilla/5.0 (X11; Ubuntu; Linux i686; rv:16.0) Gecko/20100101 Firefox/16.0'
p2060
asbasbasbag57
(g73
g59
NtRp2061
(dp2062
g62
(dp2063
sg71
g1747
sg64
(lp2064
g57
(g78
g59
NtRp2065
(dp2066
g62
(dp2067
g82
g83
ssg71
g2061
sg64
(lp2068
S'is_jython'
p2069
asbag57
(g78
g59
NtRp2070
(dp2071
g62
(dp2072
g89
g90
ssg71
g2061
sg64
(lp2073
S':'
asbag57
(g78
g59
NtRp2074
(dp2075
g62
(dp2076
sg71
g2061
sg64
(lp2077
g57
(g58
g59
NtRp2078
(dp2079
g62
(dp2080
g70
I4
ssg71
g2074
sg64
(lp2081
g100
asbasbasbag57
(g73
g59
NtRp2082
(dp2083
g62
(dp2084
sg71
g1747
sg64
(lp2085
g57
(g78
g59
NtRp2086
(dp2087
g62
(dp2088
g82
g83
ssg71
g2082
sg64
(lp2089
S'is_pypy'
p2090
asbag57
(g78
g59
NtRp2091
(dp2092
g62
(dp2093
g89
g90
ssg71
g2082
sg64
(lp2094
S':'
asbag57
(g78
g59
NtRp2095
(dp2096
g62
(dp2097
sg71
g2082
sg64
(lp2098
g57
(g58
g59
NtRp2099
(dp2100
g62
(dp2101
g70
I4
ssg71
g2095
sg64
(lp2102
g100
asbasbasbag57
(g73
g59
NtRp2103
(dp2104
g62
(dp2105
sg71
g1747
sg64
(lp2106
g57
(g78
g59
NtRp2107
(dp2108
g62
(dp2109
g82
g83
ssg71
g2103
sg64
(lp2110
S'path_info'
p2111
asbag57
(g78
g59
NtRp2112
(dp2113
g62
(dp2114
g89
g90
ssg71
g2103
sg64
(lp2115
S':'
asbag57
(g78
g59
NtRp2116
(dp2117
g62
(dp2118
sg71
g2103
sg64
(lp2119
g57
(g58
g59
NtRp2120
(dp2121
g62
(dp2122
g70
I4
ssg71
g2116
sg64
(lp2123
S'/astra1/default/show'
p2124
asbasbasbag57
(g73
g59
NtRp2125
(dp2126
g62
(dp2127
sg71
g1747
sg64
(lp2128
g57
(g78
g59
NtRp2129
(dp2130
g62
(dp2131
g82
g83
ssg71
g2125
sg64
(lp2132
S'query_string'
p2133
asbag57
(g78
g59
NtRp2134
(dp2135
g62
(dp2136
g89
g90
ssg71
g2125
sg64
(lp2137
S':'
asbag57
(g78
g59
NtRp2138
(dp2139
g62
(dp2140
sg71
g2125
sg64
(lp2141
g57
(g58
g59
NtRp2142
(dp2143
g62
(dp2144
g70
I4
ssg71
g2138
sg64
(lp2145
S''
asbasbasbag57
(g73
g59
NtRp2146
(dp2147
g62
(dp2148
sg71
g1747
sg64
(lp2149
g57
(g78
g59
NtRp2150
(dp2151
g62
(dp2152
g82
g83
ssg71
g2146
sg64
(lp2153
S'remote_addr'
p2154
asbag57
(g78
g59
NtRp2155
(dp2156
g62
(dp2157
g89
g90
ssg71
g2146
sg64
(lp2158
S':'
asbag57
(g78
g59
NtRp2159
(dp2160
g62
(dp2161
sg71
g2146
sg64
(lp2162
g57
(g58
g59
NtRp2163
(dp2164
g62
(dp2165
g70
I4
ssg71
g2159
sg64
(lp2166
g190
asbasbasbag57
(g73
g59
NtRp2167
(dp2168
g62
(dp2169
sg71
g1747
sg64
(lp2170
g57
(g78
g59
NtRp2171
(dp2172
g62
(dp2173
g82
g83
ssg71
g2167
sg64
(lp2174
S'remote_port'
p2175
asbag57
(g78
g59
NtRp2176
(dp2177
g62
(dp2178
g89
g90
ssg71
g2167
sg64
(lp2179
S':'
asbag57
(g78
g59
NtRp2180
(dp2181
g62
(dp2182
sg71
g2167
sg64
(lp2183
g57
(g58
g59
NtRp2184
(dp2185
g62
(dp2186
g70
I4
ssg71
g2180
sg64
(lp2187
S'45296'
p2188
asbasbasbag57
(g73
g59
NtRp2189
(dp2190
g62
(dp2191
sg71
g1747
sg64
(lp2192
g57
(g78
g59
NtRp2193
(dp2194
g62
(dp2195
g82
g83
ssg71
g2189
sg64
(lp2196
S'request_method'
p2197
asbag57
(g78
g59
NtRp2198
(dp2199
g62
(dp2200
g89
g90
ssg71
g2189
sg64
(lp2201
S':'
asbag57
(g78
g59
NtRp2202
(dp2203
g62
(dp2204
sg71
g2189
sg64
(lp2205
g57
(g58
g59
NtRp2206
(dp2207
g62
(dp2208
g70
I4
ssg71
g2202
sg64
(lp2209
S'GET'
p2210
asbasbasbag57
(g73
g59
NtRp2211
(dp2212
g62
(dp2213
sg71
g1747
sg64
(lp2214
g57
(g78
g59
NtRp2215
(dp2216
g62
(dp2217
g82
g83
ssg71
g2211
sg64
(lp2218
S'script_name'
p2219
asbag57
(g78
g59
NtRp2220
(dp2221
g62
(dp2222
g89
g90
ssg71
g2211
sg64
(lp2223
S':'
asbag57
(g78
g59
NtRp2224
(dp2225
g62
(dp2226
sg71
g2211
sg64
(lp2227
g57
(g58
g59
NtRp2228
(dp2229
g62
(dp2230
g70
I4
ssg71
g2224
sg64
(lp2231
S''
asbasbasbag57
(g73
g59
NtRp2232
(dp2233
g62
(dp2234
sg71
g1747
sg64
(lp2235
g57
(g78
g59
NtRp2236
(dp2237
g62
(dp2238
g82
g83
ssg71
g2232
sg64
(lp2239
S'server_name'
p2240
asbag57
(g78
g59
NtRp2241
(dp2242
g62
(dp2243
g89
g90
ssg71
g2232
sg64
(lp2244
S':'
asbag57
(g78
g59
NtRp2245
(dp2246
g62
(dp2247
sg71
g2232
sg64
(lp2248
g57
(g58
g59
NtRp2249
(dp2250
g62
(dp2251
g70
I4
ssg71
g2245
sg64
(lp2252
S'vishrut-Vostro-1015'
p2253
asbasbasbag57
(g73
g59
NtRp2254
(dp2255
g62
(dp2256
sg71
g1747
sg64
(lp2257
g57
(g78
g59
NtRp2258
(dp2259
g62
(dp2260
g82
g83
ssg71
g2254
sg64
(lp2261
S'server_port'
p2262
asbag57
(g78
g59
NtRp2263
(dp2264
g62
(dp2265
g89
g90
ssg71
g2254
sg64
(lp2266
S':'
asbag57
(g78
g59
NtRp2267
(dp2268
g62
(dp2269
sg71
g2254
sg64
(lp2270
g57
(g58
g59
NtRp2271
(dp2272
g62
(dp2273
g70
I4
ssg71
g2267
sg64
(lp2274
S'8000'
p2275
asbasbasbag57
(g73
g59
NtRp2276
(dp2277
g62
(dp2278
sg71
g1747
sg64
(lp2279
g57
(g78
g59
NtRp2280
(dp2281
g62
(dp2282
g82
g83
ssg71
g2276
sg64
(lp2283
S'server_protocol'
p2284
asbag57
(g78
g59
NtRp2285
(dp2286
g62
(dp2287
g89
g90
ssg71
g2276
sg64
(lp2288
S':'
asbag57
(g78
g59
NtRp2289
(dp2290
g62
(dp2291
sg71
g2276
sg64
(lp2292
g57
(g58
g59
NtRp2293
(dp2294
g62
(dp2295
g70
I4
ssg71
g2289
sg64
(lp2296
S'HTTP/1.1'
p2297
asbasbasbag57
(g73
g59
NtRp2298
(dp2299
g62
(dp2300
sg71
g1747
sg64
(lp2301
g57
(g78
g59
NtRp2302
(dp2303
g62
(dp2304
g82
g83
ssg71
g2298
sg64
(lp2305
S'server_software'
p2306
asbag57
(g78
g59
NtRp2307
(dp2308
g62
(dp2309
g89
g90
ssg71
g2298
sg64
(lp2310
S':'
asbag57
(g78
g59
NtRp2311
(dp2312
g62
(dp2313
sg71
g2298
sg64
(lp2314
g57
(g58
g59
NtRp2315
(dp2316
g62
(dp2317
g70
I4
ssg71
g2311
sg64
(lp2318
S'Rocket 1.2.4'
p2319
asbasbasbag57
(g73
g59
NtRp2320
(dp2321
g62
(dp2322
sg71
g1747
sg64
(lp2323
g57
(g78
g59
NtRp2324
(dp2325
g62
(dp2326
g82
g83
ssg71
g2320
sg64
(lp2327
S'web2py_crontype'
p2328
asbag57
(g78
g59
NtRp2329
(dp2330
g62
(dp2331
g89
g90
ssg71
g2320
sg64
(lp2332
S':'
asbag57
(g78
g59
NtRp2333
(dp2334
g62
(dp2335
sg71
g2320
sg64
(lp2336
g57
(g58
g59
NtRp2337
(dp2338
g62
(dp2339
g70
I4
ssg71
g2333
sg64
(lp2340
S'hard'
p2341
asbasbasbag57
(g73
g59
NtRp2342
(dp2343
g62
(dp2344
sg71
g1747
sg64
(lp2345
g57
(g78
g59
NtRp2346
(dp2347
g62
(dp2348
g82
g83
ssg71
g2342
sg64
(lp2349
S'web2py_path'
p2350
asbag57
(g78
g59
NtRp2351
(dp2352
g62
(dp2353
g89
g90
ssg71
g2342
sg64
(lp2354
S':'
asbag57
(g78
g59
NtRp2355
(dp2356
g62
(dp2357
sg71
g2342
sg64
(lp2358
g57
(g58
g59
NtRp2359
(dp2360
g62
(dp2361
g70
I4
ssg71
g2355
sg64
(lp2362
g1794
asbasbasbag57
(g73
g59
NtRp2363
(dp2364
g62
(dp2365
sg71
g1747
sg64
(lp2366
g57
(g78
g59
NtRp2367
(dp2368
g62
(dp2369
g82
g83
ssg71
g2363
sg64
(lp2370
S'web2py_version'
p2371
asbag57
(g78
g59
NtRp2372
(dp2373
g62
(dp2374
g89
g90
ssg71
g2363
sg64
(lp2375
S':'
asbag57
(g78
g59
NtRp2376
(dp2377
g62
(dp2378
sg71
g2363
sg64
(lp2379
g57
(g58
g59
NtRp2380
(dp2381
g62
(dp2382
g70
I4
ssg71
g2376
sg64
(lp2383
g57
(g66
g59
NtRp2384
(dp2385
g62
(dp2386
g70
I3
ssg71
Nsg64
(lp2387
g57
(g73
g59
NtRp2388
(dp2389
g62
(dp2390
sg71
g2384
sg64
(lp2391
g57
(g78
g59
NtRp2392
(dp2393
g62
(dp2394
sg71
g2388
sg64
(lp2395
g57
(g58
g59
NtRp2396
(dp2397
g62
(dp2398
g70
I3
ssg71
g2392
sg64
(lp2399
S'1'
asbasbasbag57
(g73
g59
NtRp2400
(dp2401
g62
(dp2402
sg71
g2384
sg64
(lp2403
g57
(g78
g59
NtRp2404
(dp2405
g62
(dp2406
sg71
g2400
sg64
(lp2407
g57
(g58
g59
NtRp2408
(dp2409
g62
(dp2410
g70
I3
ssg71
g2404
sg64
(lp2411
S'99'
p2412
asbasbasbag57
(g73
g59
NtRp2413
(dp2414
g62
(dp2415
sg71
g2384
sg64
(lp2416
g57
(g78
g59
NtRp2417
(dp2418
g62
(dp2419
sg71
g2413
sg64
(lp2420
g57
(g58
g59
NtRp2421
(dp2422
g62
(dp2423
g70
I3
ssg71
g2417
sg64
(lp2424
S'7'
asbasbasbag57
(g73
g59
NtRp2425
(dp2426
g62
(dp2427
sg71
g2384
sg64
(lp2428
g57
(g78
g59
NtRp2429
(dp2430
g62
(dp2431
sg71
g2425
sg64
(lp2432
g57
(g58
g59
NtRp2433
(dp2434
g62
(dp2435
g70
I3
ssg71
g2429
sg64
(lp2436
S'datetime.datetime(2012, 3, 4, 22, 12, 8)'
p2437
asbasbasbag57
(g73
g59
NtRp2438
(dp2439
g62
(dp2440
sg71
g2384
sg64
(lp2441
g57
(g78
g59
NtRp2442
(dp2443
g62
(dp2444
sg71
g2438
sg64
(lp2445
g57
(g58
g59
NtRp2446
(dp2447
g62
(dp2448
g70
I3
ssg71
g2442
sg64
(lp2449
S'stable'
p2450
asbasbasbasbasbasbasbag57
(g73
g59
NtRp2451
(dp2452
g62
(dp2453
sg71
g1747
sg64
(lp2454
g57
(g78
g59
NtRp2455
(dp2456
g62
(dp2457
g82
g83
ssg71
g2451
sg64
(lp2458
S'wsgi_errors'
p2459
asbag57
(g78
g59
NtRp2460
(dp2461
g62
(dp2462
g89
g90
ssg71
g2451
sg64
(lp2463
S':'
asbag57
(g78
g59
NtRp2464
(dp2465
g62
(dp2466
sg71
g2451
sg64
(lp2467
g57
(g58
g59
NtRp2468
(dp2469
g62
(dp2470
g70
I4
ssg71
g2464
sg64
(lp2471
S"<open file '<stderr>', mode 'w' at 0xb77bc0d0>"
p2472
asbasbasbag57
(g73
g59
NtRp2473
(dp2474
g62
(dp2475
sg71
g1747
sg64
(lp2476
g57
(g78
g59
NtRp2477
(dp2478
g62
(dp2479
g82
g83
ssg71
g2473
sg64
(lp2480
S'wsgi_file_wrapper'
p2481
asbag57
(g78
g59
NtRp2482
(dp2483
g62
(dp2484
g89
g90
ssg71
g2473
sg64
(lp2485
S':'
asbag57
(g78
g59
NtRp2486
(dp2487
g62
(dp2488
sg71
g2473
sg64
(lp2489
g57
(g58
g59
NtRp2490
(dp2491
g62
(dp2492
g70
I4
ssg71
g2486
sg64
(lp2493
S'<class wsgiref.util.FileWrapper at 0x9c55aac>'
p2494
asbasbasbag57
(g73
g59
NtRp2495
(dp2496
g62
(dp2497
sg71
g1747
sg64
(lp2498
g57
(g78
g59
NtRp2499
(dp2500
g62
(dp2501
g82
g83
ssg71
g2495
sg64
(lp2502
S'wsgi_input'
p2503
asbag57
(g78
g59
NtRp2504
(dp2505
g62
(dp2506
g89
g90
ssg71
g2495
sg64
(lp2507
S':'
asbag57
(g78
g59
NtRp2508
(dp2509
g62
(dp2510
sg71
g2495
sg64
(lp2511
g57
(g58
g59
NtRp2512
(dp2513
g62
(dp2514
g70
I4
ssg71
g2508
sg64
(lp2515
S'<socket._fileobject object at 0xa707eec>'
p2516
asbasbasbag57
(g73
g59
NtRp2517
(dp2518
g62
(dp2519
sg71
g1747
sg64
(lp2520
g57
(g78
g59
NtRp2521
(dp2522
g62
(dp2523
g82
g83
ssg71
g2517
sg64
(lp2524
S'wsgi_multiprocess'
p2525
asbag57
(g78
g59
NtRp2526
(dp2527
g62
(dp2528
g89
g90
ssg71
g2517
sg64
(lp2529
S':'
asbag57
(g78
g59
NtRp2530
(dp2531
g62
(dp2532
sg71
g2517
sg64
(lp2533
g57
(g58
g59
NtRp2534
(dp2535
g62
(dp2536
g70
I4
ssg71
g2530
sg64
(lp2537
g100
asbasbasbag57
(g73
g59
NtRp2538
(dp2539
g62
(dp2540
sg71
g1747
sg64
(lp2541
g57
(g78
g59
NtRp2542
(dp2543
g62
(dp2544
g82
g83
ssg71
g2538
sg64
(lp2545
S'wsgi_multithread'
p2546
asbag57
(g78
g59
NtRp2547
(dp2548
g62
(dp2549
g89
g90
ssg71
g2538
sg64
(lp2550
S':'
asbag57
(g78
g59
NtRp2551
(dp2552
g62
(dp2553
sg71
g2538
sg64
(lp2554
g57
(g58
g59
NtRp2555
(dp2556
g62
(dp2557
g70
I4
ssg71
g2551
sg64
(lp2558
S'True'
p2559
asbasbasbag57
(g73
g59
NtRp2560
(dp2561
g62
(dp2562
sg71
g1747
sg64
(lp2563
g57
(g78
g59
NtRp2564
(dp2565
g62
(dp2566
g82
g83
ssg71
g2560
sg64
(lp2567
S'wsgi_run_once'
p2568
asbag57
(g78
g59
NtRp2569
(dp2570
g62
(dp2571
g89
g90
ssg71
g2560
sg64
(lp2572
S':'
asbag57
(g78
g59
NtRp2573
(dp2574
g62
(dp2575
sg71
g2560
sg64
(lp2576
g57
(g58
g59
NtRp2577
(dp2578
g62
(dp2579
g70
I4
ssg71
g2573
sg64
(lp2580
g100
asbasbasbag57
(g73
g59
NtRp2581
(dp2582
g62
(dp2583
sg71
g1747
sg64
(lp2584
g57
(g78
g59
NtRp2585
(dp2586
g62
(dp2587
g82
g83
ssg71
g2581
sg64
(lp2588
S'wsgi_url_scheme'
p2589
asbag57
(g78
g59
NtRp2590
(dp2591
g62
(dp2592
g89
g90
ssg71
g2581
sg64
(lp2593
S':'
asbag57
(g78
g59
NtRp2594
(dp2595
g62
(dp2596
sg71
g2581
sg64
(lp2597
g57
(g58
g59
NtRp2598
(dp2599
g62
(dp2600
g70
I4
ssg71
g2594
sg64
(lp2601
S'http'
p2602
asbasbasbag57
(g73
g59
NtRp2603
(dp2604
g62
(dp2605
sg71
g1747
sg64
(lp2606
g57
(g78
g59
NtRp2607
(dp2608
g62
(dp2609
g82
g83
ssg71
g2603
sg64
(lp2610
S'wsgi_version'
p2611
asbag57
(g78
g59
NtRp2612
(dp2613
g62
(dp2614
g89
g90
ssg71
g2603
sg64
(lp2615
S':'
asbag57
(g78
g59
NtRp2616
(dp2617
g62
(dp2618
sg71
g2603
sg64
(lp2619
g57
(g58
g59
NtRp2620
(dp2621
g62
(dp2622
g70
I4
ssg71
g2616
sg64
(lp2623
g57
(g66
g59
NtRp2624
(dp2625
g62
(dp2626
g70
I3
ssg71
Nsg64
(lp2627
g57
(g73
g59
NtRp2628
(dp2629
g62
(dp2630
sg71
g2624
sg64
(lp2631
g57
(g78
g59
NtRp2632
(dp2633
g62
(dp2634
sg71
g2628
sg64
(lp2635
g57
(g58
g59
NtRp2636
(dp2637
g62
(dp2638
g70
I3
ssg71
g2632
sg64
(lp2639
S'1'
asbasbasbag57
(g73
g59
NtRp2640
(dp2641
g62
(dp2642
sg71
g2624
sg64
(lp2643
g57
(g78
g59
NtRp2644
(dp2645
g62
(dp2646
sg71
g2640
sg64
(lp2647
g57
(g58
g59
NtRp2648
(dp2649
g62
(dp2650
g70
I3
ssg71
g2644
sg64
(lp2651
S'0'
asbasbasbasbasbasbasbasbasbasbasbag57
(g73
g59
NtRp2652
(dp2653
g62
(dp2654
sg71
g67
sg64
(lp2655
g57
(g78
g59
NtRp2656
(dp2657
g62
(dp2658
g82
g83
ssg71
g2652
sg64
(lp2659
S'extension'
p2660
asbag57
(g78
g59
NtRp2661
(dp2662
g62
(dp2663
g89
g90
ssg71
g2652
sg64
(lp2664
S':'
asbag57
(g78
g59
NtRp2665
(dp2666
g62
(dp2667
sg71
g2652
sg64
(lp2668
g57
(g58
g59
NtRp2669
(dp2670
g62
(dp2671
g70
I5
ssg71
g2665
sg64
(lp2672
S'html'
p2673
asbasbasbag57
(g73
g59
NtRp2674
(dp2675
g62
(dp2676
sg71
g67
sg64
(lp2677
g57
(g78
g59
NtRp2678
(dp2679
g62
(dp2680
g82
g83
ssg71
g2674
sg64
(lp2681
S'folder'
p2682
asbag57
(g78
g59
NtRp2683
(dp2684
g62
(dp2685
g89
g90
ssg71
g2674
sg64
(lp2686
S':'
asbag57
(g78
g59
NtRp2687
(dp2688
g62
(dp2689
sg71
g2674
sg64
(lp2690
g57
(g58
g59
NtRp2691
(dp2692
g62
(dp2693
g70
I5
ssg71
g2687
sg64
(lp2694
S'/home/vishrut/web2py/applications/astra1/'
p2695
asbasbasbag57
(g73
g59
NtRp2696
(dp2697
g62
(dp2698
sg71
g67
sg64
(lp2699
g57
(g78
g59
NtRp2700
(dp2701
g62
(dp2702
g82
g83
ssg71
g2696
sg64
(lp2703
S'function'
p2704
asbag57
(g78
g59
NtRp2705
(dp2706
g62
(dp2707
g89
g90
ssg71
g2696
sg64
(lp2708
S':'
asbag57
(g78
g59
NtRp2709
(dp2710
g62
(dp2711
sg71
g2696
sg64
(lp2712
g57
(g58
g59
NtRp2713
(dp2714
g62
(dp2715
g70
I5
ssg71
g2709
sg64
(lp2716
S'show'
p2717
asbasbasbag57
(g73
g59
NtRp2718
(dp2719
g62
(dp2720
sg71
g67
sg64
(lp2721
g57
(g78
g59
NtRp2722
(dp2723
g62
(dp2724
g82
g83
ssg71
g2718
sg64
(lp2725
S'get_vars'
p2726
asbag57
(g78
g59
NtRp2727
(dp2728
g62
(dp2729
g89
g90
ssg71
g2718
sg64
(lp2730
S':'
asbag57
(g78
g59
NtRp2731
(dp2732
g62
(dp2733
sg71
g2718
sg64
(lp2734
g57
(g58
g59
NtRp2735
(dp2736
g62
(dp2737
g70
I5
ssg71
g2731
sg64
(lp2738
g57
(g66
g59
NtRp2739
(dp2740
g62
(dp2741
g70
I4
ssg71
Nsg64
(lp2742
sbasbasbasbag57
(g73
g59
NtRp2743
(dp2744
g62
(dp2745
sg71
g67
sg64
(lp2746
g57
(g78
g59
NtRp2747
(dp2748
g62
(dp2749
g82
g83
ssg71
g2743
sg64
(lp2750
S'global_settings'
p2751
asbag57
(g78
g59
NtRp2752
(dp2753
g62
(dp2754
g89
g90
ssg71
g2743
sg64
(lp2755
S':'
asbag57
(g78
g59
NtRp2756
(dp2757
g62
(dp2758
sg71
g2743
sg64
(lp2759
g57
(g58
g59
NtRp2760
(dp2761
g62
(dp2762
g70
I5
ssg71
g2756
sg64
(lp2763
g57
(g66
g59
NtRp2764
(dp2765
g62
(dp2766
g70
I4
ssg71
Nsg64
(lp2767
g57
(g73
g59
NtRp2768
(dp2769
g62
(dp2770
sg71
g2764
sg64
(lp2771
g57
(g78
g59
NtRp2772
(dp2773
g62
(dp2774
g82
g83
ssg71
g2768
sg64
(lp2775
g1759
asbag57
(g78
g59
NtRp2776
(dp2777
g62
(dp2778
g89
g90
ssg71
g2768
sg64
(lp2779
S':'
asbag57
(g78
g59
NtRp2780
(dp2781
g62
(dp2782
sg71
g2768
sg64
(lp2783
g57
(g58
g59
NtRp2784
(dp2785
g62
(dp2786
g70
I4
ssg71
g2780
sg64
(lp2787
S"set(['/home/vishrut/web2py/applications/astra1/', '/home/vishrut/web2py/applications/admin/', '/home/vishrut/web2py/applications/PhotoUploader/', '/home/vishrut/web2py/applications/welcome/'])"
p2788
asbasbasbag57
(g73
g59
NtRp2789
(dp2790
g62
(dp2791
sg71
g2764
sg64
(lp2792
g57
(g78
g59
NtRp2793
(dp2794
g62
(dp2795
g82
g83
ssg71
g2789
sg64
(lp2796
g1781
asbag57
(g78
g59
NtRp2797
(dp2798
g62
(dp2799
g89
g90
ssg71
g2789
sg64
(lp2800
S':'
asbag57
(g78
g59
NtRp2801
(dp2802
g62
(dp2803
sg71
g2789
sg64
(lp2804
g57
(g58
g59
NtRp2805
(dp2806
g62
(dp2807
g70
I4
ssg71
g2801
sg64
(lp2808
g1794
asbasbasbag57
(g73
g59
NtRp2809
(dp2810
g62
(dp2811
sg71
g2764
sg64
(lp2812
g57
(g78
g59
NtRp2813
(dp2814
g62
(dp2815
g82
g83
ssg71
g2809
sg64
(lp2816
g1803
asbag57
(g78
g59
NtRp2817
(dp2818
g62
(dp2819
g89
g90
ssg71
g2809
sg64
(lp2820
S':'
asbag57
(g78
g59
NtRp2821
(dp2822
g62
(dp2823
sg71
g2809
sg64
(lp2824
g57
(g58
g59
NtRp2825
(dp2826
g62
(dp2827
g70
I4
ssg71
g2821
sg64
(lp2828
g57
(g66
g59
NtRp2829
(dp2830
g62
(dp2831
g70
I3
ssg71
Nsg64
(lp2832
sbasbasbasbag57
(g73
g59
NtRp2833
(dp2834
g62
(dp2835
sg71
g2764
sg64
(lp2836
g57
(g78
g59
NtRp2837
(dp2838
g62
(dp2839
g82
g83
ssg71
g2833
sg64
(lp2840
g1828
asbag57
(g78
g59
NtRp2841
(dp2842
g62
(dp2843
g89
g90
ssg71
g2833
sg64
(lp2844
S':'
asbag57
(g78
g59
NtRp2845
(dp2846
g62
(dp2847
sg71
g2833
sg64
(lp2848
g57
(g58
g59
NtRp2849
(dp2850
g62
(dp2851
g70
I4
ssg71
g2845
sg64
(lp2852
S"<Values at 0x9d363cc: {'verbose': False, 'ip': '127.0.0.1', 'shutdown_timeout': 5, 'taskbar': False, 'nocron': False, 'pid_filename': 'httpserver.pid', 'maxthreads': None, 'softcron': False, 'server_name': 'vishrut-Vostro-1015', 'bpython': False, 'nogui': False, 'port': 8000, 'extcron': False, 'debuglevel': 30, 'test': None, 'folder': '/home/vishrut/web2py', 'config': '', 'import_models': False, 'winservice': '', 'shell': None, 'run': '', 'log_filename': 'httpserver.log', 'args': [''], 'socket_timeout': 5, 'ssl_ca_certificate': None, 'scheduler': None, 'profiler_filename': None, 'ssl_private_key': '', 'password': '<ask>', 'request_queue_size': 5, 'ssl_certificate': '', 'cronjob': False, 'numthreads': None, 'quiet': False, 'interfaces': None, 'minthreads': None, 'timeout': 10, 'plain': False, 'nobanner': False}>"
p2853
asbasbasbag57
(g73
g59
NtRp2854
(dp2855
g62
(dp2856
sg71
g2764
sg64
(lp2857
g57
(g78
g59
NtRp2858
(dp2859
g62
(dp2860
g82
g83
ssg71
g2854
sg64
(lp2861
g1850
asbag57
(g78
g59
NtRp2862
(dp2863
g62
(dp2864
g89
g90
ssg71
g2854
sg64
(lp2865
S':'
asbag57
(g78
g59
NtRp2866
(dp2867
g62
(dp2868
sg71
g2854
sg64
(lp2869
g57
(g58
g59
NtRp2870
(dp2871
g62
(dp2872
g70
I4
ssg71
g2866
sg64
(lp2873
S'set([])'
p2874
asbasbasbag57
(g73
g59
NtRp2875
(dp2876
g62
(dp2877
sg71
g2764
sg64
(lp2878
g57
(g78
g59
NtRp2879
(dp2880
g62
(dp2881
g82
g83
ssg71
g2875
sg64
(lp2882
g1872
asbag57
(g78
g59
NtRp2883
(dp2884
g62
(dp2885
g89
g90
ssg71
g2875
sg64
(lp2886
S':'
asbag57
(g78
g59
NtRp2887
(dp2888
g62
(dp2889
sg71
g2875
sg64
(lp2890
g57
(g58
g59
NtRp2891
(dp2892
g62
(dp2893
g70
I4
ssg71
g2887
sg64
(lp2894
g100
asbasbasbag57
(g73
g59
NtRp2895
(dp2896
g62
(dp2897
sg71
g2764
sg64
(lp2898
g57
(g78
g59
NtRp2899
(dp2900
g62
(dp2901
g82
g83
ssg71
g2895
sg64
(lp2902
g1893
asbag57
(g78
g59
NtRp2903
(dp2904
g62
(dp2905
g89
g90
ssg71
g2895
sg64
(lp2906
S':'
asbag57
(g78
g59
NtRp2907
(dp2908
g62
(dp2909
sg71
g2895
sg64
(lp2910
g57
(g58
g59
NtRp2911
(dp2912
g62
(dp2913
g70
I4
ssg71
g2907
sg64
(lp2914
g1906
asbasbasbag57
(g73
g59
NtRp2915
(dp2916
g62
(dp2917
sg71
g2764
sg64
(lp2918
g57
(g78
g59
NtRp2919
(dp2920
g62
(dp2921
g82
g83
ssg71
g2915
sg64
(lp2922
g2069
asbag57
(g78
g59
NtRp2923
(dp2924
g62
(dp2925
g89
g90
ssg71
g2915
sg64
(lp2926
S':'
asbag57
(g78
g59
NtRp2927
(dp2928
g62
(dp2929
sg71
g2915
sg64
(lp2930
g57
(g58
g59
NtRp2931
(dp2932
g62
(dp2933
g70
I4
ssg71
g2927
sg64
(lp2934
g100
asbasbasbag57
(g73
g59
NtRp2935
(dp2936
g62
(dp2937
sg71
g2764
sg64
(lp2938
g57
(g78
g59
NtRp2939
(dp2940
g62
(dp2941
g82
g83
ssg71
g2935
sg64
(lp2942
g2090
asbag57
(g78
g59
NtRp2943
(dp2944
g62
(dp2945
g89
g90
ssg71
g2935
sg64
(lp2946
S':'
asbag57
(g78
g59
NtRp2947
(dp2948
g62
(dp2949
sg71
g2935
sg64
(lp2950
g57
(g58
g59
NtRp2951
(dp2952
g62
(dp2953
g70
I4
ssg71
g2947
sg64
(lp2954
g100
asbasbasbag57
(g73
g59
NtRp2955
(dp2956
g62
(dp2957
sg71
g2764
sg64
(lp2958
g57
(g78
g59
NtRp2959
(dp2960
g62
(dp2961
g82
g83
ssg71
g2955
sg64
(lp2962
g2328
asbag57
(g78
g59
NtRp2963
(dp2964
g62
(dp2965
g89
g90
ssg71
g2955
sg64
(lp2966
S':'
asbag57
(g78
g59
NtRp2967
(dp2968
g62
(dp2969
sg71
g2955
sg64
(lp2970
g57
(g58
g59
NtRp2971
(dp2972
g62
(dp2973
g70
I4
ssg71
g2967
sg64
(lp2974
g2341
asbasbasbag57
(g73
g59
NtRp2975
(dp2976
g62
(dp2977
sg71
g2764
sg64
(lp2978
g57
(g78
g59
NtRp2979
(dp2980
g62
(dp2981
g82
g83
ssg71
g2975
sg64
(lp2982
g2371
asbag57
(g78
g59
NtRp2983
(dp2984
g62
(dp2985
g89
g90
ssg71
g2975
sg64
(lp2986
S':'
asbag57
(g78
g59
NtRp2987
(dp2988
g62
(dp2989
sg71
g2975
sg64
(lp2990
g57
(g58
g59
NtRp2991
(dp2992
g62
(dp2993
g70
I4
ssg71
g2987
sg64
(lp2994
g57
(g66
g59
NtRp2995
(dp2996
g62
(dp2997
g70
I3
ssg71
Nsg64
(lp2998
g57
(g73
g59
NtRp2999
(dp3000
g62
(dp3001
sg71
g2995
sg64
(lp3002
g57
(g78
g59
NtRp3003
(dp3004
g62
(dp3005
sg71
g2999
sg64
(lp3006
g57
(g58
g59
NtRp3007
(dp3008
g62
(dp3009
g70
I3
ssg71
g3003
sg64
(lp3010
S'1'
asbasbasbag57
(g73
g59
NtRp3011
(dp3012
g62
(dp3013
sg71
g2995
sg64
(lp3014
g57
(g78
g59
NtRp3015
(dp3016
g62
(dp3017
sg71
g3011
sg64
(lp3018
g57
(g58
g59
NtRp3019
(dp3020
g62
(dp3021
g70
I3
ssg71
g3015
sg64
(lp3022
S'99'
p3023
asbasbasbag57
(g73
g59
NtRp3024
(dp3025
g62
(dp3026
sg71
g2995
sg64
(lp3027
g57
(g78
g59
NtRp3028
(dp3029
g62
(dp3030
sg71
g3024
sg64
(lp3031
g57
(g58
g59
NtRp3032
(dp3033
g62
(dp3034
g70
I3
ssg71
g3028
sg64
(lp3035
S'7'
asbasbasbag57
(g73
g59
NtRp3036
(dp3037
g62
(dp3038
sg71
g2995
sg64
(lp3039
g57
(g78
g59
NtRp3040
(dp3041
g62
(dp3042
sg71
g3036
sg64
(lp3043
g57
(g58
g59
NtRp3044
(dp3045
g62
(dp3046
g70
I3
ssg71
g3040
sg64
(lp3047
S'datetime.datetime(2012, 3, 4, 22, 12, 8)'
p3048
asbasbasbag57
(g73
g59
NtRp3049
(dp3050
g62
(dp3051
sg71
g2995
sg64
(lp3052
g57
(g78
g59
NtRp3053
(dp3054
g62
(dp3055
sg71
g3049
sg64
(lp3056
g57
(g58
g59
NtRp3057
(dp3058
g62
(dp3059
g70
I3
ssg71
g3053
sg64
(lp3060
g2450
asbasbasbasbasbasbasbasbasbasbasbag57
(g73
g59
NtRp3061
(dp3062
g62
(dp3063
sg71
g67
sg64
(lp3064
g57
(g78
g59
NtRp3065
(dp3066
g62
(dp3067
g82
g83
ssg71
g3061
sg64
(lp3068
S'is_https'
p3069
asbag57
(g78
g59
NtRp3070
(dp3071
g62
(dp3072
g89
g90
ssg71
g3061
sg64
(lp3073
S':'
asbag57
(g78
g59
NtRp3074
(dp3075
g62
(dp3076
sg71
g3061
sg64
(lp3077
g57
(g58
g59
NtRp3078
(dp3079
g62
(dp3080
g70
I5
ssg71
g3074
sg64
(lp3081
g100
asbasbasbag57
(g73
g59
NtRp3082
(dp3083
g62
(dp3084
sg71
g67
sg64
(lp3085
g57
(g78
g59
NtRp3086
(dp3087
g62
(dp3088
g82
g83
ssg71
g3082
sg64
(lp3089
S'is_local'
p3090
asbag57
(g78
g59
NtRp3091
(dp3092
g62
(dp3093
g89
g90
ssg71
g3082
sg64
(lp3094
S':'
asbag57
(g78
g59
NtRp3095
(dp3096
g62
(dp3097
sg71
g3082
sg64
(lp3098
g57
(g58
g59
NtRp3099
(dp3100
g62
(dp3101
g70
I5
ssg71
g3095
sg64
(lp3102
g2559
asbasbasbag57
(g73
g59
NtRp3103
(dp3104
g62
(dp3105
sg71
g67
sg64
(lp3106
g57
(g78
g59
NtRp3107
(dp3108
g62
(dp3109
g82
g83
ssg71
g3103
sg64
(lp3110
S'is_restful'
p3111
asbag57
(g78
g59
NtRp3112
(dp3113
g62
(dp3114
g89
g90
ssg71
g3103
sg64
(lp3115
S':'
asbag57
(g78
g59
NtRp3116
(dp3117
g62
(dp3118
sg71
g3103
sg64
(lp3119
g57
(g58
g59
NtRp3120
(dp3121
g62
(dp3122
g70
I5
ssg71
g3116
sg64
(lp3123
g100
asbasbasbag57
(g73
g59
NtRp3124
(dp3125
g62
(dp3126
sg71
g67
sg64
(lp3127
g57
(g78
g59
NtRp3128
(dp3129
g62
(dp3130
g82
g83
ssg71
g3124
sg64
(lp3131
S'now'
p3132
asbag57
(g78
g59
NtRp3133
(dp3134
g62
(dp3135
g89
g90
ssg71
g3124
sg64
(lp3136
S':'
asbag57
(g78
g59
NtRp3137
(dp3138
g62
(dp3139
sg71
g3124
sg64
(lp3140
g57
(g58
g59
NtRp3141
(dp3142
g62
(dp3143
g70
I5
ssg71
g3137
sg64
(lp3144
S'datetime.datetime(2012, 10, 15, 0, 56, 19, 324580)'
p3145
asbasbasbag57
(g73
g59
NtRp3146
(dp3147
g62
(dp3148
sg71
g67
sg64
(lp3149
g57
(g78
g59
NtRp3150
(dp3151
g62
(dp3152
g82
g83
ssg71
g3146
sg64
(lp3153
S'post_vars'
p3154
asbag57
(g78
g59
NtRp3155
(dp3156
g62
(dp3157
g89
g90
ssg71
g3146
sg64
(lp3158
S':'
asbag57
(g78
g59
NtRp3159
(dp3160
g62
(dp3161
sg71
g3146
sg64
(lp3162
g57
(g58
g59
NtRp3163
(dp3164
g62
(dp3165
g70
I5
ssg71
g3159
sg64
(lp3166
g57
(g66
g59
NtRp3167
(dp3168
g62
(dp3169
g70
I4
ssg71
Nsg64
(lp3170
sbasbasbasbag57
(g73
g59
NtRp3171
(dp3172
g62
(dp3173
sg71
g67
sg64
(lp3174
g57
(g78
g59
NtRp3175
(dp3176
g62
(dp3177
g82
g83
ssg71
g3171
sg64
(lp3178
S'url'
p3179
asbag57
(g78
g59
NtRp3180
(dp3181
g62
(dp3182
g89
g90
ssg71
g3171
sg64
(lp3183
S':'
asbag57
(g78
g59
NtRp3184
(dp3185
g62
(dp3186
sg71
g3171
sg64
(lp3187
g57
(g58
g59
NtRp3188
(dp3189
g62
(dp3190
g70
I5
ssg71
g3184
sg64
(lp3191
S'/astra1/default/show'
p3192
asbasbasbag57
(g73
g59
NtRp3193
(dp3194
g62
(dp3195
sg71
g67
sg64
(lp3196
g57
(g78
g59
NtRp3197
(dp3198
g62
(dp3199
g82
g83
ssg71
g3193
sg64
(lp3200
S'utcnow'
p3201
asbag57
(g78
g59
NtRp3202
(dp3203
g62
(dp3204
g89
g90
ssg71
g3193
sg64
(lp3205
S':'
asbag57
(g78
g59
NtRp3206
(dp3207
g62
(dp3208
sg71
g3193
sg64
(lp3209
g57
(g58
g59
NtRp3210
(dp3211
g62
(dp3212
g70
I5
ssg71
g3206
sg64
(lp3213
S'datetime.datetime(2012, 10, 14, 19, 56, 19, 324617)'
p3214
asbasbasbag57
(g73
g59
NtRp3215
(dp3216
g62
(dp3217
sg71
g67
sg64
(lp3218
g57
(g78
g59
NtRp3219
(dp3220
g62
(dp3221
g82
g83
ssg71
g3215
sg64
(lp3222
S'uuid'
p3223
asbag57
(g78
g59
NtRp3224
(dp3225
g62
(dp3226
g89
g90
ssg71
g3215
sg64
(lp3227
S':'
asbag57
(g78
g59
NtRp3228
(dp3229
g62
(dp3230
sg71
g3215
sg64
(lp3231
g57
(g58
g59
NtRp3232
(dp3233
g62
(dp3234
g70
I5
ssg71
g3228
sg64
(lp3235
S'astra1/127.0.0.1.2012-10-15.00-56-19.9931d848-7b9d-4c6b-9fb0-1e63206c5779'
p3236
asbasbasbag57
(g73
g59
NtRp3237
(dp3238
g62
(dp3239
sg71
g67
sg64
(lp3240
g57
(g78
g59
NtRp3241
(dp3242
g62
(dp3243
g82
g83
ssg71
g3237
sg64
(lp3244
S'vars'
p3245
asbag57
(g78
g59
NtRp3246
(dp3247
g62
(dp3248
g89
g90
ssg71
g3237
sg64
(lp3249
S':'
asbag57
(g78
g59
NtRp3250
(dp3251
g62
(dp3252
sg71
g3237
sg64
(lp3253
g57
(g58
g59
NtRp3254
(dp3255
g62
(dp3256
g70
I5
ssg71
g3250
sg64
(lp3257
g57
(g66
g59
NtRp3258
(dp3259
g62
(dp3260
g70
I4
ssg71
Nsg64
(lp3261
sbasbasbasbag57
(g73
g59
NtRp3262
(dp3263
g62
(dp3264
sg71
g67
sg64
(lp3265
g57
(g78
g59
NtRp3266
(dp3267
g62
(dp3268
g82
g83
ssg71
g3262
sg64
(lp3269
S'wsgi'
p3270
asbag57
(g78
g59
NtRp3271
(dp3272
g62
(dp3273
g89
g90
ssg71
g3262
sg64
(lp3274
S':'
asbag57
(g78
g59
NtRp3275
(dp3276
g62
(dp3277
sg71
g3262
sg64
(lp3278
g57
(g58
g59
NtRp3279
(dp3280
g62
(dp3281
g70
I5
ssg71
g3275
sg64
(lp3282
g57
(g66
g59
NtRp3283
(dp3284
g62
(dp3285
g70
I4
ssg71
Nsg64
(lp3286
g57
(g73
g59
NtRp3287
(dp3288
g62
(dp3289
sg71
g3283
sg64
(lp3290
g57
(g78
g59
NtRp3291
(dp3292
g62
(dp3293
g82
g83
ssg71
g3287
sg64
(lp3294
S'environ'
p3295
asbag57
(g78
g59
NtRp3296
(dp3297
g62
(dp3298
g89
g90
ssg71
g3287
sg64
(lp3299
S':'
asbag57
(g78
g59
NtRp3300
(dp3301
g62
(dp3302
sg71
g3287
sg64
(lp3303
g57
(g58
g59
NtRp3304
(dp3305
g62
(dp3306
g70
I4
ssg71
g3300
sg64
(lp3307
g57
(g66
g59
NtRp3308
(dp3309
g62
(dp3310
g70
I3
ssg71
Nsg64
(lp3311
g57
(g73
g59
NtRp3312
(dp3313
g62
(dp3314
sg71
g3308
sg64
(lp3315
g57
(g78
g59
NtRp3316
(dp3317
g62
(dp3318
g82
g83
ssg71
g3312
sg64
(lp3319
S'HTTP_ACCEPT'
p3320
asbag57
(g78
g59
NtRp3321
(dp3322
g62
(dp3323
g89
g90
ssg71
g3312
sg64
(lp3324
S':'
asbag57
(g78
g59
NtRp3325
(dp3326
g62
(dp3327
sg71
g3312
sg64
(lp3328
g57
(g58
g59
NtRp3329
(dp3330
g62
(dp3331
g70
I3
ssg71
g3325
sg64
(lp3332
g1928
asbasbasbag57
(g73
g59
NtRp3333
(dp3334
g62
(dp3335
sg71
g3308
sg64
(lp3336
g57
(g78
g59
NtRp3337
(dp3338
g62
(dp3339
g82
g83
ssg71
g3333
sg64
(lp3340
S'HTTP_ACCEPT_ENCODING'
p3341
asbag57
(g78
g59
NtRp3342
(dp3343
g62
(dp3344
g89
g90
ssg71
g3333
sg64
(lp3345
S':'
asbag57
(g78
g59
NtRp3346
(dp3347
g62
(dp3348
sg71
g3333
sg64
(lp3349
g57
(g58
g59
NtRp3350
(dp3351
g62
(dp3352
g70
I3
ssg71
g3346
sg64
(lp3353
g1950
asbasbasbag57
(g73
g59
NtRp3354
(dp3355
g62
(dp3356
sg71
g3308
sg64
(lp3357
g57
(g78
g59
NtRp3358
(dp3359
g62
(dp3360
g82
g83
ssg71
g3354
sg64
(lp3361
S'HTTP_ACCEPT_LANGUAGE'
p3362
asbag57
(g78
g59
NtRp3363
(dp3364
g62
(dp3365
g89
g90
ssg71
g3354
sg64
(lp3366
S':'
asbag57
(g78
g59
NtRp3367
(dp3368
g62
(dp3369
sg71
g3354
sg64
(lp3370
g57
(g58
g59
NtRp3371
(dp3372
g62
(dp3373
g70
I3
ssg71
g3367
sg64
(lp3374
g1972
asbasbasbag57
(g73
g59
NtRp3375
(dp3376
g62
(dp3377
sg71
g3308
sg64
(lp3378
g57
(g78
g59
NtRp3379
(dp3380
g62
(dp3381
g82
g83
ssg71
g3375
sg64
(lp3382
S'HTTP_CONNECTION'
p3383
asbag57
(g78
g59
NtRp3384
(dp3385
g62
(dp3386
g89
g90
ssg71
g3375
sg64
(lp3387
S':'
asbag57
(g78
g59
NtRp3388
(dp3389
g62
(dp3390
sg71
g3375
sg64
(lp3391
g57
(g58
g59
NtRp3392
(dp3393
g62
(dp3394
g70
I3
ssg71
g3388
sg64
(lp3395
g1994
asbasbasbag57
(g73
g59
NtRp3396
(dp3397
g62
(dp3398
sg71
g3308
sg64
(lp3399
g57
(g78
g59
NtRp3400
(dp3401
g62
(dp3402
g82
g83
ssg71
g3396
sg64
(lp3403
S'HTTP_COOKIE'
p3404
asbag57
(g78
g59
NtRp3405
(dp3406
g62
(dp3407
g89
g90
ssg71
g3396
sg64
(lp3408
S':'
asbag57
(g78
g59
NtRp3409
(dp3410
g62
(dp3411
sg71
g3396
sg64
(lp3412
g57
(g58
g59
NtRp3413
(dp3414
g62
(dp3415
g70
I3
ssg71
g3409
sg64
(lp3416
g2016
asbasbasbag57
(g73
g59
NtRp3417
(dp3418
g62
(dp3419
sg71
g3308
sg64
(lp3420
g57
(g78
g59
NtRp3421
(dp3422
g62
(dp3423
g82
g83
ssg71
g3417
sg64
(lp3424
S'HTTP_HOST'
p3425
asbag57
(g78
g59
NtRp3426
(dp3427
g62
(dp3428
g89
g90
ssg71
g3417
sg64
(lp3429
S':'
asbag57
(g78
g59
NtRp3430
(dp3431
g62
(dp3432
sg71
g3417
sg64
(lp3433
g57
(g58
g59
NtRp3434
(dp3435
g62
(dp3436
g70
I3
ssg71
g3430
sg64
(lp3437
g2038
asbasbasbag57
(g73
g59
NtRp3438
(dp3439
g62
(dp3440
sg71
g3308
sg64
(lp3441
g57
(g78
g59
NtRp3442
(dp3443
g62
(dp3444
g82
g83
ssg71
g3438
sg64
(lp3445
S'HTTP_USER_AGENT'
p3446
asbag57
(g78
g59
NtRp3447
(dp3448
g62
(dp3449
g89
g90
ssg71
g3438
sg64
(lp3450
S':'
asbag57
(g78
g59
NtRp3451
(dp3452
g62
(dp3453
sg71
g3438
sg64
(lp3454
g57
(g58
g59
NtRp3455
(dp3456
g62
(dp3457
g70
I3
ssg71
g3451
sg64
(lp3458
g2060
asbasbasbag57
(g73
g59
NtRp3459
(dp3460
g62
(dp3461
sg71
g3308
sg64
(lp3462
g57
(g78
g59
NtRp3463
(dp3464
g62
(dp3465
g82
g83
ssg71
g3459
sg64
(lp3466
S'PATH_INFO'
p3467
asbag57
(g78
g59
NtRp3468
(dp3469
g62
(dp3470
g89
g90
ssg71
g3459
sg64
(lp3471
S':'
asbag57
(g78
g59
NtRp3472
(dp3473
g62
(dp3474
sg71
g3459
sg64
(lp3475
g57
(g58
g59
NtRp3476
(dp3477
g62
(dp3478
g70
I3
ssg71
g3472
sg64
(lp3479
g2124
asbasbasbag57
(g73
g59
NtRp3480
(dp3481
g62
(dp3482
sg71
g3308
sg64
(lp3483
g57
(g78
g59
NtRp3484
(dp3485
g62
(dp3486
g82
g83
ssg71
g3480
sg64
(lp3487
S'QUERY_STRING'
p3488
asbag57
(g78
g59
NtRp3489
(dp3490
g62
(dp3491
g89
g90
ssg71
g3480
sg64
(lp3492
S':'
asbag57
(g78
g59
NtRp3493
(dp3494
g62
(dp3495
sg71
g3480
sg64
(lp3496
g57
(g58
g59
NtRp3497
(dp3498
g62
(dp3499
g70
I3
ssg71
g3493
sg64
(lp3500
S''
asbasbasbag57
(g73
g59
NtRp3501
(dp3502
g62
(dp3503
sg71
g3308
sg64
(lp3504
g57
(g78
g59
NtRp3505
(dp3506
g62
(dp3507
g82
g83
ssg71
g3501
sg64
(lp3508
S'REMOTE_ADDR'
p3509
asbag57
(g78
g59
NtRp3510
(dp3511
g62
(dp3512
g89
g90
ssg71
g3501
sg64
(lp3513
S':'
asbag57
(g78
g59
NtRp3514
(dp3515
g62
(dp3516
sg71
g3501
sg64
(lp3517
g57
(g58
g59
NtRp3518
(dp3519
g62
(dp3520
g70
I3
ssg71
g3514
sg64
(lp3521
g190
asbasbasbag57
(g73
g59
NtRp3522
(dp3523
g62
(dp3524
sg71
g3308
sg64
(lp3525
g57
(g78
g59
NtRp3526
(dp3527
g62
(dp3528
g82
g83
ssg71
g3522
sg64
(lp3529
S'REMOTE_PORT'
p3530
asbag57
(g78
g59
NtRp3531
(dp3532
g62
(dp3533
g89
g90
ssg71
g3522
sg64
(lp3534
S':'
asbag57
(g78
g59
NtRp3535
(dp3536
g62
(dp3537
sg71
g3522
sg64
(lp3538
g57
(g58
g59
NtRp3539
(dp3540
g62
(dp3541
g70
I3
ssg71
g3535
sg64
(lp3542
g2188
asbasbasbag57
(g73
g59
NtRp3543
(dp3544
g62
(dp3545
sg71
g3308
sg64
(lp3546
g57
(g78
g59
NtRp3547
(dp3548
g62
(dp3549
g82
g83
ssg71
g3543
sg64
(lp3550
S'REQUEST_METHOD'
p3551
asbag57
(g78
g59
NtRp3552
(dp3553
g62
(dp3554
g89
g90
ssg71
g3543
sg64
(lp3555
S':'
asbag57
(g78
g59
NtRp3556
(dp3557
g62
(dp3558
sg71
g3543
sg64
(lp3559
g57
(g58
g59
NtRp3560
(dp3561
g62
(dp3562
g70
I3
ssg71
g3556
sg64
(lp3563
g2210
asbasbasbag57
(g73
g59
NtRp3564
(dp3565
g62
(dp3566
sg71
g3308
sg64
(lp3567
g57
(g78
g59
NtRp3568
(dp3569
g62
(dp3570
g82
g83
ssg71
g3564
sg64
(lp3571
S'SCRIPT_NAME'
p3572
asbag57
(g78
g59
NtRp3573
(dp3574
g62
(dp3575
g89
g90
ssg71
g3564
sg64
(lp3576
S':'
asbag57
(g78
g59
NtRp3577
(dp3578
g62
(dp3579
sg71
g3564
sg64
(lp3580
g57
(g58
g59
NtRp3581
(dp3582
g62
(dp3583
g70
I3
ssg71
g3577
sg64
(lp3584
S''
asbasbasbag57
(g73
g59
NtRp3585
(dp3586
g62
(dp3587
sg71
g3308
sg64
(lp3588
g57
(g78
g59
NtRp3589
(dp3590
g62
(dp3591
g82
g83
ssg71
g3585
sg64
(lp3592
S'SERVER_NAME'
p3593
asbag57
(g78
g59
NtRp3594
(dp3595
g62
(dp3596
g89
g90
ssg71
g3585
sg64
(lp3597
S':'
asbag57
(g78
g59
NtRp3598
(dp3599
g62
(dp3600
sg71
g3585
sg64
(lp3601
g57
(g58
g59
NtRp3602
(dp3603
g62
(dp3604
g70
I3
ssg71
g3598
sg64
(lp3605
g2253
asbasbasbag57
(g73
g59
NtRp3606
(dp3607
g62
(dp3608
sg71
g3308
sg64
(lp3609
g57
(g78
g59
NtRp3610
(dp3611
g62
(dp3612
g82
g83
ssg71
g3606
sg64
(lp3613
S'SERVER_PORT'
p3614
asbag57
(g78
g59
NtRp3615
(dp3616
g62
(dp3617
g89
g90
ssg71
g3606
sg64
(lp3618
S':'
asbag57
(g78
g59
NtRp3619
(dp3620
g62
(dp3621
sg71
g3606
sg64
(lp3622
g57
(g58
g59
NtRp3623
(dp3624
g62
(dp3625
g70
I3
ssg71
g3619
sg64
(lp3626
g2275
asbasbasbag57
(g73
g59
NtRp3627
(dp3628
g62
(dp3629
sg71
g3308
sg64
(lp3630
g57
(g78
g59
NtRp3631
(dp3632
g62
(dp3633
g82
g83
ssg71
g3627
sg64
(lp3634
S'SERVER_PROTOCOL'
p3635
asbag57
(g78
g59
NtRp3636
(dp3637
g62
(dp3638
g89
g90
ssg71
g3627
sg64
(lp3639
S':'
asbag57
(g78
g59
NtRp3640
(dp3641
g62
(dp3642
sg71
g3627
sg64
(lp3643
g57
(g58
g59
NtRp3644
(dp3645
g62
(dp3646
g70
I3
ssg71
g3640
sg64
(lp3647
g2297
asbasbasbag57
(g73
g59
NtRp3648
(dp3649
g62
(dp3650
sg71
g3308
sg64
(lp3651
g57
(g78
g59
NtRp3652
(dp3653
g62
(dp3654
g82
g83
ssg71
g3648
sg64
(lp3655
S'SERVER_SOFTWARE'
p3656
asbag57
(g78
g59
NtRp3657
(dp3658
g62
(dp3659
g89
g90
ssg71
g3648
sg64
(lp3660
S':'
asbag57
(g78
g59
NtRp3661
(dp3662
g62
(dp3663
sg71
g3648
sg64
(lp3664
g57
(g58
g59
NtRp3665
(dp3666
g62
(dp3667
g70
I3
ssg71
g3661
sg64
(lp3668
g2319
asbasbasbag57
(g73
g59
NtRp3669
(dp3670
g62
(dp3671
sg71
g3308
sg64
(lp3672
g57
(g78
g59
NtRp3673
(dp3674
g62
(dp3675
g82
g83
ssg71
g3669
sg64
(lp3676
S'wsgi.errors'
p3677
asbag57
(g78
g59
NtRp3678
(dp3679
g62
(dp3680
g89
g90
ssg71
g3669
sg64
(lp3681
S':'
asbag57
(g78
g59
NtRp3682
(dp3683
g62
(dp3684
sg71
g3669
sg64
(lp3685
g57
(g58
g59
NtRp3686
(dp3687
g62
(dp3688
g70
I3
ssg71
g3682
sg64
(lp3689
S"<open file '<stderr>', mode 'w' at 0xb77bc0d0>"
p3690
asbasbasbag57
(g73
g59
NtRp3691
(dp3692
g62
(dp3693
sg71
g3308
sg64
(lp3694
g57
(g78
g59
NtRp3695
(dp3696
g62
(dp3697
g82
g83
ssg71
g3691
sg64
(lp3698
S'wsgi.file_wrapper'
p3699
asbag57
(g78
g59
NtRp3700
(dp3701
g62
(dp3702
g89
g90
ssg71
g3691
sg64
(lp3703
S':'
asbag57
(g78
g59
NtRp3704
(dp3705
g62
(dp3706
sg71
g3691
sg64
(lp3707
g57
(g58
g59
NtRp3708
(dp3709
g62
(dp3710
g70
I3
ssg71
g3704
sg64
(lp3711
S'<class wsgiref.util.FileWrapper at 0x9c55aac>'
p3712
asbasbasbag57
(g73
g59
NtRp3713
(dp3714
g62
(dp3715
sg71
g3308
sg64
(lp3716
g57
(g78
g59
NtRp3717
(dp3718
g62
(dp3719
g82
g83
ssg71
g3713
sg64
(lp3720
S'wsgi.input'
p3721
asbag57
(g78
g59
NtRp3722
(dp3723
g62
(dp3724
g89
g90
ssg71
g3713
sg64
(lp3725
S':'
asbag57
(g78
g59
NtRp3726
(dp3727
g62
(dp3728
sg71
g3713
sg64
(lp3729
g57
(g58
g59
NtRp3730
(dp3731
g62
(dp3732
g70
I3
ssg71
g3726
sg64
(lp3733
S'<cStringIO.StringO object at 0xaedd9a0>'
p3734
asbasbasbag57
(g73
g59
NtRp3735
(dp3736
g62
(dp3737
sg71
g3308
sg64
(lp3738
g57
(g78
g59
NtRp3739
(dp3740
g62
(dp3741
g82
g83
ssg71
g3735
sg64
(lp3742
S'wsgi.multiprocess'
p3743
asbag57
(g78
g59
NtRp3744
(dp3745
g62
(dp3746
g89
g90
ssg71
g3735
sg64
(lp3747
S':'
asbag57
(g78
g59
NtRp3748
(dp3749
g62
(dp3750
sg71
g3735
sg64
(lp3751
g57
(g58
g59
NtRp3752
(dp3753
g62
(dp3754
g70
I3
ssg71
g3748
sg64
(lp3755
g100
asbasbasbag57
(g73
g59
NtRp3756
(dp3757
g62
(dp3758
sg71
g3308
sg64
(lp3759
g57
(g78
g59
NtRp3760
(dp3761
g62
(dp3762
g82
g83
ssg71
g3756
sg64
(lp3763
S'wsgi.multithread'
p3764
asbag57
(g78
g59
NtRp3765
(dp3766
g62
(dp3767
g89
g90
ssg71
g3756
sg64
(lp3768
S':'
asbag57
(g78
g59
NtRp3769
(dp3770
g62
(dp3771
sg71
g3756
sg64
(lp3772
g57
(g58
g59
NtRp3773
(dp3774
g62
(dp3775
g70
I3
ssg71
g3769
sg64
(lp3776
g2559
asbasbasbag57
(g73
g59
NtRp3777
(dp3778
g62
(dp3779
sg71
g3308
sg64
(lp3780
g57
(g78
g59
NtRp3781
(dp3782
g62
(dp3783
g82
g83
ssg71
g3777
sg64
(lp3784
S'wsgi.run_once'
p3785
asbag57
(g78
g59
NtRp3786
(dp3787
g62
(dp3788
g89
g90
ssg71
g3777
sg64
(lp3789
S':'
asbag57
(g78
g59
NtRp3790
(dp3791
g62
(dp3792
sg71
g3777
sg64
(lp3793
g57
(g58
g59
NtRp3794
(dp3795
g62
(dp3796
g70
I3
ssg71
g3790
sg64
(lp3797
g100
asbasbasbag57
(g73
g59
NtRp3798
(dp3799
g62
(dp3800
sg71
g3308
sg64
(lp3801
g57
(g78
g59
NtRp3802
(dp3803
g62
(dp3804
g82
g83
ssg71
g3798
sg64
(lp3805
S'wsgi.url_scheme'
p3806
asbag57
(g78
g59
NtRp3807
(dp3808
g62
(dp3809
g89
g90
ssg71
g3798
sg64
(lp3810
S':'
asbag57
(g78
g59
NtRp3811
(dp3812
g62
(dp3813
sg71
g3798
sg64
(lp3814
g57
(g58
g59
NtRp3815
(dp3816
g62
(dp3817
g70
I3
ssg71
g3811
sg64
(lp3818
g2602
asbasbasbag57
(g73
g59
NtRp3819
(dp3820
g62
(dp3821
sg71
g3308
sg64
(lp3822
g57
(g78
g59
NtRp3823
(dp3824
g62
(dp3825
g82
g83
ssg71
g3819
sg64
(lp3826
S'wsgi.version'
p3827
asbag57
(g78
g59
NtRp3828
(dp3829
g62
(dp3830
g89
g90
ssg71
g3819
sg64
(lp3831
S':'
asbag57
(g78
g59
NtRp3832
(dp3833
g62
(dp3834
sg71
g3819
sg64
(lp3835
g57
(g58
g59
NtRp3836
(dp3837
g62
(dp3838
g70
I3
ssg71
g3832
sg64
(lp3839
S'1'
asbasbasbasbasbasbasbasbasbasbasbasbasbsS'frames'
p3840
(lp3841
(dp3842
S'file'
p3843
S'/home/vishrut/web2py/gluon/restricted.py'
p3844
sS'dump'
p3845
(dp3846
S'environment'
p3847
S"{'A': <class 'gluon.html.A'>, 'Auth': <class 'gluon.tools.Auth'>, 'B': <class 'gluon.html.B'>, 'BEAUTIFY': <class 'gluon.html.BEAUTIFY'>, 'BODY': <class 'gluon.html.BODY'>, 'BR': <class 'gluon.html.BR'>, 'BUTTON': <class 'gluon.html.BUTTON'>, 'CAT': <class 'gluon.html.CAT'>, 'CENTER': <class 'gluon.html.CENTER'>, 'CLEANUP': <class 'gluon.validators.CLEANUP'>, ...}"
p3848
sS'ccode'
p3849
S'<code object <module> at 0xa107068, file "/home/...ications/astra1/views/default/show.html", line 1>'
p3850
ssS'lnum'
p3851
I205
sS'lines'
p3852
(dp3853
I200
S'    try:'
p3854
sI201
S'        if type(code) == types.CodeType:'
p3855
sI202
S'            ccode = code'
p3856
sI203
S'        else:'
p3857
sI204
S'            ccode = compile2(code,layer)'
p3858
sI205
S'        exec ccode in environment'
p3859
sI206
S'    except HTTP:'
p3860
sI207
S'        raise'
p3861
sI208
S'    except RestrictedError:'
p3862
sI209
S'        # do not encapsulate (obfuscate) the original RestrictedError'
p3863
ssS'call'
p3864
S'(code=r"response.write(\'<!DOCTYPE html>\\n<!-- paulirish....ponse.write(\'\\n</body>\\n</html>\\n\', escape=False)", environment={\'A\': <class \'gluon.html.A\'>, \'Auth\': <class \'gluon.tools.Auth\'>, \'B\': <class \'gluon.html.B\'>, \'BEAUTIFY\': <class \'gluon.html.BEAUTIFY\'>, \'BODY\': <class \'gluon.html.BODY\'>, \'BR\': <class \'gluon.html.BR\'>, \'BUTTON\': <class \'gluon.html.BUTTON\'>, \'CAT\': <class \'gluon.html.CAT\'>, \'CENTER\': <class \'gluon.html.CENTER\'>, \'CLEANUP\': <class \'gluon.validators.CLEANUP\'>, ...}, layer=\'/home/vishrut/web2py/applications/astra1/views/default/show.html\')'
p3865
sS'func'
p3866
S'restricted'
p3867
sa(dp3868
g3843
S'/home/vishrut/web2py/applications/astra1/views/default/show.html'
p3869
sg3845
(dp3870
sg3851
I88
sg3852
(dp3871
I96
S'response.write(BEAUTIFY(response._vars))'
p3872
sI97
S"response.write('\\n', escape=False)"
p3873
sI98
S"response.write('\\n          ', escape=False)"
p3874
sI79
S"    response.write('\\n        </div>\\n        ', escape=False)"
p3875
sI80
S'    pass'
p3876
sI81
S'response.write(\'\\n        \\n        <div class="\', escape=False)'
p3877
sI82
S'response.write(middle_columns)'
p3878
sI83
S'response.write(\' columns center">\\n          \', escape=False)'
p3879
sI84
S"response.write('\\n          ', escape=False)"
p3880
sI85
S"response.write('\\n<h1>This is the default/show.html template</h1>\\n', escape=False)"
p3881
sI86
S'xxx="apple"'
p3882
sI87
S'response.write(\'\\n<video width="320" height="240" controls="controls">  \\n        <source src="\', escape=False)'
p3883
sI88
S"response.write(URL('/static/'+apple+'ogg'))"
p3884
sI89
S'response.write(\'" type="video/ogg">\\n</video>\\n<button type="button" onclick="document.location=\\\'\', escape=False)'
p3885
sI90
S'response.write(URL("logout"))'
p3886
sI91
S'response.write(\'\\\'">Logout</button>\\n\', escape=False)'
p3887
sI92
S'pass'
p3888
sI93
S"response.write('\\n', escape=False)"
p3889
sI94
S'pass'
p3890
sI95
S"response.write('\\n', escape=False)"
p3891
ssg3864
S'()'
p3892
sg3866
S'<module>'
p3893
sasS'pyver'
p3894
S'Python 2.7.2+: /usr/bin/python'
p3895
sS'session'
p3896
g57
(g58
g59
NtRp3897
(dp3898
g62
(dp3899
sg64
(lp3900
g57
(g66
g59
NtRp3901
(dp3902
g62
(dp3903
g70
I5
ssg71
Nsg64
(lp3904
g57
(g73
g59
NtRp3905
(dp3906
g62
(dp3907
sg71
g3901
sg64
(lp3908
g57
(g78
g59
NtRp3909
(dp3910
g62
(dp3911
g82
g83
ssg71
g3905
sg64
(lp3912
S'last_query'
p3913
asbag57
(g78
g59
NtRp3914
(dp3915
g62
(dp3916
g89
g90
ssg71
g3905
sg64
(lp3917
S':'
asbag57
(g78
g59
NtRp3918
(dp3919
g62
(dp3920
sg71
g3905
sg64
(lp3921
g57
(g58
g59
NtRp3922
(dp3923
g62
(dp3924
g70
I5
ssg71
g3918
sg64
(lp3925
S'db.rooms.id>0'
p3926
asbasbasbag57
(g73
g59
NtRp3927
(dp3928
g62
(dp3929
sg71
g3901
sg64
(lp3930
g57
(g78
g59
NtRp3931
(dp3932
g62
(dp3933
g82
g83
ssg71
g3927
sg64
(lp3934
S'logged'
p3935
asbag57
(g78
g59
NtRp3936
(dp3937
g62
(dp3938
g89
g90
ssg71
g3927
sg64
(lp3939
S':'
asbag57
(g78
g59
NtRp3940
(dp3941
g62
(dp3942
sg71
g3927
sg64
(lp3943
g57
(g58
g59
NtRp3944
(dp3945
g62
(dp3946
g70
I5
ssg71
g3940
sg64
(lp3947
S'0'
asbasbasbag57
(g73
g59
NtRp3948
(dp3949
g62
(dp3950
sg71
g3901
sg64
(lp3951
g57
(g78
g59
NtRp3952
(dp3953
g62
(dp3954
g82
g83
ssg71
g3948
sg64
(lp3955
S'name'
p3956
asbag57
(g78
g59
NtRp3957
(dp3958
g62
(dp3959
g89
g90
ssg71
g3948
sg64
(lp3960
S':'
asbag57
(g78
g59
NtRp3961
(dp3962
g62
(dp3963
sg71
g3948
sg64
(lp3964
g57
(g58
g59
NtRp3965
(dp3966
g62
(dp3967
g70
I5
ssg71
g3961
sg64
(lp3968
S'Hist'
p3969
asbasbasbag57
(g73
g59
NtRp3970
(dp3971
g62
(dp3972
sg71
g3901
sg64
(lp3973
g57
(g78
g59
NtRp3974
(dp3975
g62
(dp3976
g82
g83
ssg71
g3970
sg64
(lp3977
S'username'
p3978
asbag57
(g78
g59
NtRp3979
(dp3980
g62
(dp3981
g89
g90
ssg71
g3970
sg64
(lp3982
S':'
asbag57
(g78
g59
NtRp3983
(dp3984
g62
(dp3985
sg71
g3970
sg64
(lp3986
g57
(g58
g59
NtRp3987
(dp3988
g62
(dp3989
g70
I5
ssg71
g3983
sg64
(lp3990
S'Tan'
p3991
asbasbasbasbasbsS'etype'
p3992
S"<type 'exceptions.NameError'>"
p3993
sS'date'
p3994
S'Mon Oct 15 00:56:19 2012'
p3995
sS'response'
p3996
g57
(g58
g59
NtRp3997
(dp3998
g62
(dp3999
sg64
(lp4000
g57
(g66
g59
NtRp4001
(dp4002
g62
(dp4003
g70
I5
ssg71
Nsg64
(lp4004
g57
(g73
g59
NtRp4005
(dp4006
g62
(dp4007
sg71
g4001
sg64
(lp4008
g57
(g78
g59
NtRp4009
(dp4010
g62
(dp4011
g82
g83
ssg71
g4005
sg64
(lp4012
g155
asbag57
(g78
g59
NtRp4013
(dp4014
g62
(dp4015
g89
g90
ssg71
g4005
sg64
(lp4016
S':'
asbag57
(g78
g59
NtRp4017
(dp4018
g62
(dp4019
sg71
g4005
sg64
(lp4020
g57
(g58
g59
NtRp4021
(dp4022
g62
(dp4023
g70
I5
ssg71
g4017
sg64
(lp4024
S'<cStringIO.StringO object at 0xa859840>'
p4025
asbasbasbag57
(g73
g59
NtRp4026
(dp4027
g62
(dp4028
sg71
g4001
sg64
(lp4029
g57
(g78
g59
NtRp4030
(dp4031
g62
(dp4032
g82
g83
ssg71
g4026
sg64
(lp4033
g221
asbag57
(g78
g59
NtRp4034
(dp4035
g62
(dp4036
g89
g90
ssg71
g4026
sg64
(lp4037
S':'
asbag57
(g78
g59
NtRp4038
(dp4039
g62
(dp4040
sg71
g4026
sg64
(lp4041
g57
(g58
g59
NtRp4042
(dp4043
g62
(dp4044
g70
I5
ssg71
g4038
sg64
(lp4045
g57
(g66
g59
NtRp4046
(dp4047
g62
(dp4048
g70
I4
ssg71
Nsg64
(lp4049
g57
(g73
g59
NtRp4050
(dp4051
g62
(dp4052
sg71
g4046
sg64
(lp4053
g57
(g78
g59
NtRp4054
(dp4055
g62
(dp4056
g82
g83
ssg71
g4050
sg64
(lp4057
S'session_id_astra1'
p4058
asbag57
(g78
g59
NtRp4059
(dp4060
g62
(dp4061
g89
g90
ssg71
g4050
sg64
(lp4062
S':'
asbag57
(g78
g59
NtRp4063
(dp4064
g62
(dp4065
sg71
g4050
sg64
(lp4066
g57
(g58
g59
NtRp4067
(dp4068
g62
(dp4069
g70
I4
ssg71
g4063
sg64
(lp4070
g57
(g66
g59
NtRp4071
(dp4072
g62
(dp4073
g70
I3
ssg71
Nsg64
(lp4074
g57
(g73
g59
NtRp4075
(dp4076
g62
(dp4077
sg71
g4071
sg64
(lp4078
g57
(g78
g59
NtRp4079
(dp4080
g62
(dp4081
g82
g83
ssg71
g4075
sg64
(lp4082
g271
asbag57
(g78
g59
NtRp4083
(dp4084
g62
(dp4085
g89
g90
ssg71
g4075
sg64
(lp4086
S':'
asbag57
(g78
g59
NtRp4087
(dp4088
g62
(dp4089
sg71
g4075
sg64
(lp4090
g57
(g58
g59
NtRp4091
(dp4092
g62
(dp4093
g70
I3
ssg71
g4087
sg64
(lp4094
S''
asbasbasbag57
(g73
g59
NtRp4095
(dp4096
g62
(dp4097
sg71
g4071
sg64
(lp4098
g57
(g78
g59
NtRp4099
(dp4100
g62
(dp4101
g82
g83
ssg71
g4095
sg64
(lp4102
g292
asbag57
(g78
g59
NtRp4103
(dp4104
g62
(dp4105
g89
g90
ssg71
g4095
sg64
(lp4106
S':'
asbag57
(g78
g59
NtRp4107
(dp4108
g62
(dp4109
sg71
g4095
sg64
(lp4110
g57
(g58
g59
NtRp4111
(dp4112
g62
(dp4113
g70
I3
ssg71
g4107
sg64
(lp4114
S''
asbasbasbag57
(g73
g59
NtRp4115
(dp4116
g62
(dp4117
sg71
g4071
sg64
(lp4118
g57
(g78
g59
NtRp4119
(dp4120
g62
(dp4121
g82
g83
ssg71
g4115
sg64
(lp4122
g313
asbag57
(g78
g59
NtRp4123
(dp4124
g62
(dp4125
g89
g90
ssg71
g4115
sg64
(lp4126
S':'
asbag57
(g78
g59
NtRp4127
(dp4128
g62
(dp4129
sg71
g4115
sg64
(lp4130
g57
(g58
g59
NtRp4131
(dp4132
g62
(dp4133
g70
I3
ssg71
g4127
sg64
(lp4134
S''
asbasbasbag57
(g73
g59
NtRp4135
(dp4136
g62
(dp4137
sg71
g4071
sg64
(lp4138
g57
(g78
g59
NtRp4139
(dp4140
g62
(dp4141
g82
g83
ssg71
g4135
sg64
(lp4142
g334
asbag57
(g78
g59
NtRp4143
(dp4144
g62
(dp4145
g89
g90
ssg71
g4135
sg64
(lp4146
S':'
asbag57
(g78
g59
NtRp4147
(dp4148
g62
(dp4149
sg71
g4135
sg64
(lp4150
g57
(g58
g59
NtRp4151
(dp4152
g62
(dp4153
g70
I3
ssg71
g4147
sg64
(lp4154
S''
asbasbasbag57
(g73
g59
NtRp4155
(dp4156
g62
(dp4157
sg71
g4071
sg64
(lp4158
g57
(g78
g59
NtRp4159
(dp4160
g62
(dp4161
g82
g83
ssg71
g4155
sg64
(lp4162
g355
asbag57
(g78
g59
NtRp4163
(dp4164
g62
(dp4165
g89
g90
ssg71
g4155
sg64
(lp4166
S':'
asbag57
(g78
g59
NtRp4167
(dp4168
g62
(dp4169
sg71
g4155
sg64
(lp4170
g57
(g58
g59
NtRp4171
(dp4172
g62
(dp4173
g70
I3
ssg71
g4167
sg64
(lp4174
S''
asbasbasbag57
(g73
g59
NtRp4175
(dp4176
g62
(dp4177
sg71
g4071
sg64
(lp4178
g57
(g78
g59
NtRp4179
(dp4180
g62
(dp4181
g82
g83
ssg71
g4175
sg64
(lp4182
g376
asbag57
(g78
g59
NtRp4183
(dp4184
g62
(dp4185
g89
g90
ssg71
g4175
sg64
(lp4186
S':'
asbag57
(g78
g59
NtRp4187
(dp4188
g62
(dp4189
sg71
g4175
sg64
(lp4190
g57
(g58
g59
NtRp4191
(dp4192
g62
(dp4193
g70
I3
ssg71
g4187
sg64
(lp4194
S'/'
asbasbasbag57
(g73
g59
NtRp4195
(dp4196
g62
(dp4197
sg71
g4071
sg64
(lp4198
g57
(g78
g59
NtRp4199
(dp4200
g62
(dp4201
g82
g83
ssg71
g4195
sg64
(lp4202
g397
asbag57
(g78
g59
NtRp4203
(dp4204
g62
(dp4205
g89
g90
ssg71
g4195
sg64
(lp4206
S':'
asbag57
(g78
g59
NtRp4207
(dp4208
g62
(dp4209
sg71
g4195
sg64
(lp4210
g57
(g58
g59
NtRp4211
(dp4212
g62
(dp4213
g70
I3
ssg71
g4207
sg64
(lp4214
S''
asbasbasbag57
(g73
g59
NtRp4215
(dp4216
g62
(dp4217
sg71
g4071
sg64
(lp4218
g57
(g78
g59
NtRp4219
(dp4220
g62
(dp4221
g82
g83
ssg71
g4215
sg64
(lp4222
g418
asbag57
(g78
g59
NtRp4223
(dp4224
g62
(dp4225
g89
g90
ssg71
g4215
sg64
(lp4226
S':'
asbag57
(g78
g59
NtRp4227
(dp4228
g62
(dp4229
sg71
g4215
sg64
(lp4230
g57
(g58
g59
NtRp4231
(dp4232
g62
(dp4233
g70
I3
ssg71
g4227
sg64
(lp4234
S''
asbasbasbasbasbasbasbasbasbasbasbag57
(g73
g59
NtRp4235
(dp4236
g62
(dp4237
sg71
g4001
sg64
(lp4238
g57
(g78
g59
NtRp4239
(dp4240
g62
(dp4241
g82
g83
ssg71
g4235
sg64
(lp4242
S'delimiters'
p4243
asbag57
(g78
g59
NtRp4244
(dp4245
g62
(dp4246
g89
g90
ssg71
g4235
sg64
(lp4247
S':'
asbag57
(g78
g59
NtRp4248
(dp4249
g62
(dp4250
sg71
g4235
sg64
(lp4251
g57
(g58
g59
NtRp4252
(dp4253
g62
(dp4254
g70
I5
ssg71
g4248
sg64
(lp4255
g57
(g66
g59
NtRp4256
(dp4257
g62
(dp4258
g70
I4
ssg71
Nsg64
(lp4259
g57
(g73
g59
NtRp4260
(dp4261
g62
(dp4262
sg71
g4256
sg64
(lp4263
g57
(g78
g59
NtRp4264
(dp4265
g62
(dp4266
sg71
g4260
sg64
(lp4267
g57
(g58
g59
NtRp4268
(dp4269
g62
(dp4270
g70
I4
ssg71
g4264
sg64
(lp4271
S'{{'
p4272
asbasbasbag57
(g73
g59
NtRp4273
(dp4274
g62
(dp4275
sg71
g4256
sg64
(lp4276
g57
(g78
g59
NtRp4277
(dp4278
g62
(dp4279
sg71
g4273
sg64
(lp4280
g57
(g58
g59
NtRp4281
(dp4282
g62
(dp4283
g70
I4
ssg71
g4277
sg64
(lp4284
S'}}'
p4285
asbasbasbasbasbasbasbag57
(g73
g59
NtRp4286
(dp4287
g62
(dp4288
sg71
g4001
sg64
(lp4289
g57
(g78
g59
NtRp4290
(dp4291
g62
(dp4292
g82
g83
ssg71
g4286
sg64
(lp4293
S'files'
p4294
asbag57
(g78
g59
NtRp4295
(dp4296
g62
(dp4297
g89
g90
ssg71
g4286
sg64
(lp4298
S':'
asbag57
(g78
g59
NtRp4299
(dp4300
g62
(dp4301
sg71
g4286
sg64
(lp4302
g57
(g58
g59
NtRp4303
(dp4304
g62
(dp4305
g70
I5
ssg71
g4299
sg64
(lp4306
g57
(g66
g59
NtRp4307
(dp4308
g62
(dp4309
g70
I4
ssg71
Nsg64
(lp4310
g57
(g73
g59
NtRp4311
(dp4312
g62
(dp4313
sg71
g4307
sg64
(lp4314
g57
(g78
g59
NtRp4315
(dp4316
g62
(dp4317
sg71
g4311
sg64
(lp4318
g57
(g58
g59
NtRp4319
(dp4320
g62
(dp4321
g70
I4
ssg71
g4315
sg64
(lp4322
S'/astra1/static/js/jquery.js'
p4323
asbasbasbag57
(g73
g59
NtRp4324
(dp4325
g62
(dp4326
sg71
g4307
sg64
(lp4327
g57
(g78
g59
NtRp4328
(dp4329
g62
(dp4330
sg71
g4324
sg64
(lp4331
g57
(g58
g59
NtRp4332
(dp4333
g62
(dp4334
g70
I4
ssg71
g4328
sg64
(lp4335
S'/astra1/static/css/calendar.css'
p4336
asbasbasbag57
(g73
g59
NtRp4337
(dp4338
g62
(dp4339
sg71
g4307
sg64
(lp4340
g57
(g78
g59
NtRp4341
(dp4342
g62
(dp4343
sg71
g4337
sg64
(lp4344
g57
(g58
g59
NtRp4345
(dp4346
g62
(dp4347
g70
I4
ssg71
g4341
sg64
(lp4348
S'/astra1/static/js/calendar.js'
p4349
asbasbasbag57
(g73
g59
NtRp4350
(dp4351
g62
(dp4352
sg71
g4307
sg64
(lp4353
g57
(g78
g59
NtRp4354
(dp4355
g62
(dp4356
sg71
g4350
sg64
(lp4357
g57
(g58
g59
NtRp4358
(dp4359
g62
(dp4360
g70
I4
ssg71
g4354
sg64
(lp4361
S'/astra1/static/js/web2py.js'
p4362
asbasbasbag57
(g73
g59
NtRp4363
(dp4364
g62
(dp4365
sg71
g4307
sg64
(lp4366
g57
(g78
g59
NtRp4367
(dp4368
g62
(dp4369
sg71
g4363
sg64
(lp4370
g57
(g58
g59
NtRp4371
(dp4372
g62
(dp4373
g70
I4
ssg71
g4367
sg64
(lp4374
S'/astra1/static/css/skeleton.css'
p4375
asbasbasbag57
(g73
g59
NtRp4376
(dp4377
g62
(dp4378
sg71
g4307
sg64
(lp4379
g57
(g78
g59
NtRp4380
(dp4381
g62
(dp4382
sg71
g4376
sg64
(lp4383
g57
(g58
g59
NtRp4384
(dp4385
g62
(dp4386
g70
I4
ssg71
g4380
sg64
(lp4387
S'/astra1/static/css/web2py.css'
p4388
asbasbasbag57
(g73
g59
NtRp4389
(dp4390
g62
(dp4391
sg71
g4307
sg64
(lp4392
g57
(g78
g59
NtRp4393
(dp4394
g62
(dp4395
sg71
g4389
sg64
(lp4396
g57
(g58
g59
NtRp4397
(dp4398
g62
(dp4399
g70
I4
ssg71
g4393
sg64
(lp4400
S'/astra1/static/css/superfish.css'
p4401
asbasbasbag57
(g73
g59
NtRp4402
(dp4403
g62
(dp4404
sg71
g4307
sg64
(lp4405
g57
(g78
g59
NtRp4406
(dp4407
g62
(dp4408
sg71
g4402
sg64
(lp4409
g57
(g58
g59
NtRp4410
(dp4411
g62
(dp4412
g70
I4
ssg71
g4406
sg64
(lp4413
S'/astra1/static/js/superfish.js'
p4414
asbasbasbasbasbasbasbag57
(g73
g59
NtRp4415
(dp4416
g62
(dp4417
sg71
g4001
sg64
(lp4418
g57
(g78
g59
NtRp4419
(dp4420
g62
(dp4421
g82
g83
ssg71
g4415
sg64
(lp4422
S'flash'
p4423
asbag57
(g78
g59
NtRp4424
(dp4425
g62
(dp4426
g89
g90
ssg71
g4415
sg64
(lp4427
S':'
asbag57
(g78
g59
NtRp4428
(dp4429
g62
(dp4430
sg71
g4415
sg64
(lp4431
g57
(g58
g59
NtRp4432
(dp4433
g62
(dp4434
g70
I5
ssg71
g4428
sg64
(lp4435
S'Welcome Tan'
p4436
asbasbasbag57
(g73
g59
NtRp4437
(dp4438
g62
(dp4439
sg71
g4001
sg64
(lp4440
g57
(g78
g59
NtRp4441
(dp4442
g62
(dp4443
g82
g83
ssg71
g4437
sg64
(lp4444
S'generic_patterns'
p4445
asbag57
(g78
g59
NtRp4446
(dp4447
g62
(dp4448
g89
g90
ssg71
g4437
sg64
(lp4449
S':'
asbag57
(g78
g59
NtRp4450
(dp4451
g62
(dp4452
sg71
g4437
sg64
(lp4453
g57
(g58
g59
NtRp4454
(dp4455
g62
(dp4456
g70
I5
ssg71
g4450
sg64
(lp4457
g57
(g66
g59
NtRp4458
(dp4459
g62
(dp4460
g70
I4
ssg71
Nsg64
(lp4461
g57
(g73
g59
NtRp4462
(dp4463
g62
(dp4464
sg71
g4458
sg64
(lp4465
g57
(g78
g59
NtRp4466
(dp4467
g62
(dp4468
sg71
g4462
sg64
(lp4469
g57
(g58
g59
NtRp4470
(dp4471
g62
(dp4472
g70
I4
ssg71
g4466
sg64
(lp4473
S'*'
asbasbasbasbasbasbasbag57
(g73
g59
NtRp4474
(dp4475
g62
(dp4476
sg71
g4001
sg64
(lp4477
g57
(g78
g59
NtRp4478
(dp4479
g62
(dp4480
g82
g83
ssg71
g4474
sg64
(lp4481
S'headers'
p4482
asbag57
(g78
g59
NtRp4483
(dp4484
g62
(dp4485
g89
g90
ssg71
g4474
sg64
(lp4486
S':'
asbag57
(g78
g59
NtRp4487
(dp4488
g62
(dp4489
sg71
g4474
sg64
(lp4490
g57
(g58
g59
NtRp4491
(dp4492
g62
(dp4493
g70
I5
ssg71
g4487
sg64
(lp4494
g57
(g66
g59
NtRp4495
(dp4496
g62
(dp4497
g70
I4
ssg71
Nsg64
(lp4498
g57
(g73
g59
NtRp4499
(dp4500
g62
(dp4501
sg71
g4495
sg64
(lp4502
g57
(g78
g59
NtRp4503
(dp4504
g62
(dp4505
g82
g83
ssg71
g4499
sg64
(lp4506
S'Cache-Control'
p4507
asbag57
(g78
g59
NtRp4508
(dp4509
g62
(dp4510
g89
g90
ssg71
g4499
sg64
(lp4511
S':'
asbag57
(g78
g59
NtRp4512
(dp4513
g62
(dp4514
sg71
g4499
sg64
(lp4515
g57
(g58
g59
NtRp4516
(dp4517
g62
(dp4518
g70
I4
ssg71
g4512
sg64
(lp4519
S'no-store, no-cache, must-revalidate, post-check=0, pre-check=0'
p4520
asbasbasbag57
(g73
g59
NtRp4521
(dp4522
g62
(dp4523
sg71
g4495
sg64
(lp4524
g57
(g78
g59
NtRp4525
(dp4526
g62
(dp4527
g82
g83
ssg71
g4521
sg64
(lp4528
S'Content-Type'
p4529
asbag57
(g78
g59
NtRp4530
(dp4531
g62
(dp4532
g89
g90
ssg71
g4521
sg64
(lp4533
S':'
asbag57
(g78
g59
NtRp4534
(dp4535
g62
(dp4536
sg71
g4521
sg64
(lp4537
g57
(g58
g59
NtRp4538
(dp4539
g62
(dp4540
g70
I4
ssg71
g4534
sg64
(lp4541
S'text/html; charset=utf-8'
p4542
asbasbasbag57
(g73
g59
NtRp4543
(dp4544
g62
(dp4545
sg71
g4495
sg64
(lp4546
g57
(g78
g59
NtRp4547
(dp4548
g62
(dp4549
g82
g83
ssg71
g4543
sg64
(lp4550
S'Expires'
p4551
asbag57
(g78
g59
NtRp4552
(dp4553
g62
(dp4554
g89
g90
ssg71
g4543
sg64
(lp4555
S':'
asbag57
(g78
g59
NtRp4556
(dp4557
g62
(dp4558
sg71
g4543
sg64
(lp4559
g57
(g58
g59
NtRp4560
(dp4561
g62
(dp4562
g70
I4
ssg71
g4556
sg64
(lp4563
S'Sun, 14 Oct 2012 19:56:19 GMT'
p4564
asbasbasbag57
(g73
g59
NtRp4565
(dp4566
g62
(dp4567
sg71
g4495
sg64
(lp4568
g57
(g78
g59
NtRp4569
(dp4570
g62
(dp4571
g82
g83
ssg71
g4565
sg64
(lp4572
S'Pragma'
p4573
asbag57
(g78
g59
NtRp4574
(dp4575
g62
(dp4576
g89
g90
ssg71
g4565
sg64
(lp4577
S':'
asbag57
(g78
g59
NtRp4578
(dp4579
g62
(dp4580
sg71
g4565
sg64
(lp4581
g57
(g58
g59
NtRp4582
(dp4583
g62
(dp4584
g70
I4
ssg71
g4578
sg64
(lp4585
S'no-cache'
p4586
asbasbasbag57
(g73
g59
NtRp4587
(dp4588
g62
(dp4589
sg71
g4495
sg64
(lp4590
g57
(g78
g59
NtRp4591
(dp4592
g62
(dp4593
g82
g83
ssg71
g4587
sg64
(lp4594
S'X-Powered-By'
p4595
asbag57
(g78
g59
NtRp4596
(dp4597
g62
(dp4598
g89
g90
ssg71
g4587
sg64
(lp4599
S':'
asbag57
(g78
g59
NtRp4600
(dp4601
g62
(dp4602
sg71
g4587
sg64
(lp4603
g57
(g58
g59
NtRp4604
(dp4605
g62
(dp4606
g70
I4
ssg71
g4600
sg64
(lp4607
S'web2py'
p4608
asbasbasbasbasbasbasbag57
(g73
g59
NtRp4609
(dp4610
g62
(dp4611
sg71
g4001
sg64
(lp4612
g57
(g78
g59
NtRp4613
(dp4614
g62
(dp4615
g82
g83
ssg71
g4609
sg64
(lp4616
S'menu'
p4617
asbag57
(g78
g59
NtRp4618
(dp4619
g62
(dp4620
g89
g90
ssg71
g4609
sg64
(lp4621
S':'
asbag57
(g78
g59
NtRp4622
(dp4623
g62
(dp4624
sg71
g4609
sg64
(lp4625
g57
(g58
g59
NtRp4626
(dp4627
g62
(dp4628
g70
I5
ssg71
g4622
sg64
(lp4629
g57
(g66
g59
NtRp4630
(dp4631
g62
(dp4632
g70
I4
ssg71
Nsg64
(lp4633
g57
(g73
g59
NtRp4634
(dp4635
g62
(dp4636
sg71
g4630
sg64
(lp4637
g57
(g78
g59
NtRp4638
(dp4639
g62
(dp4640
sg71
g4634
sg64
(lp4641
g57
(g58
g59
NtRp4642
(dp4643
g62
(dp4644
g70
I4
ssg71
g4638
sg64
(lp4645
g57
(g66
g59
NtRp4646
(dp4647
g62
(dp4648
g70
I3
ssg71
Nsg64
(lp4649
g57
(g73
g59
NtRp4650
(dp4651
g62
(dp4652
sg71
g4646
sg64
(lp4653
g57
(g78
g59
NtRp4654
(dp4655
g62
(dp4656
sg71
g4650
sg64
(lp4657
g57
(g58
g59
NtRp4658
(dp4659
g62
(dp4660
g70
I3
ssg71
g4654
sg64
(lp4661
cgluon.languages
lazyT_unpickle
p4662
(S't\x04\x00\x00\x00Home'
tRp4663
asbasbasbag57
(g73
g59
NtRp4664
(dp4665
g62
(dp4666
sg71
g4646
sg64
(lp4667
g57
(g78
g59
NtRp4668
(dp4669
g62
(dp4670
sg71
g4664
sg64
(lp4671
g57
(g58
g59
NtRp4672
(dp4673
g62
(dp4674
g70
I3
ssg71
g4668
sg64
(lp4675
g100
asbasbasbag57
(g73
g59
NtRp4676
(dp4677
g62
(dp4678
sg71
g4646
sg64
(lp4679
g57
(g78
g59
NtRp4680
(dp4681
g62
(dp4682
sg71
g4676
sg64
(lp4683
g57
(g58
g59
NtRp4684
(dp4685
g62
(dp4686
g70
I3
ssg71
g4680
sg64
(lp4687
S'/astra1/default/index'
p4688
asbasbasbag57
(g73
g59
NtRp4689
(dp4690
g62
(dp4691
sg71
g4646
sg64
(lp4692
g57
(g78
g59
NtRp4693
(dp4694
g62
(dp4695
sg71
g4689
sg64
(lp4696
g57
(g58
g59
NtRp4697
(dp4698
g62
(dp4699
g70
I3
ssg71
g4693
sg64
(lp4700
g57
(g66
g59
NtRp4701
(dp4702
g62
(dp4703
g70
I2
ssg71
Nsg64
(lp4704
sbasbasbasbasbasbasbasbag57
(g73
g59
NtRp4705
(dp4706
g62
(dp4707
sg71
g4630
sg64
(lp4708
g57
(g78
g59
NtRp4709
(dp4710
g62
(dp4711
sg71
g4705
sg64
(lp4712
g57
(g58
g59
NtRp4713
(dp4714
g62
(dp4715
g70
I4
ssg71
g4709
sg64
(lp4716
g57
(g66
g59
NtRp4717
(dp4718
g62
(dp4719
g70
I3
ssg71
Nsg64
(lp4720
g57
(g73
g59
NtRp4721
(dp4722
g62
(dp4723
sg71
g4717
sg64
(lp4724
g57
(g78
g59
NtRp4725
(dp4726
g62
(dp4727
sg71
g4721
sg64
(lp4728
g57
(g58
g59
NtRp4729
(dp4730
g62
(dp4731
g70
I3
ssg71
g4725
sg64
(lp4732
g57
(cgluon.html
SPAN
p4733
g59
NtRp4734
(dp4735
g62
(dp4736
g82
S'color:yellow'
p4737
ssg71
g57
(cgluon.html
A
p4738
g59
NtRp4739
(dp4740
g62
(dp4741
S'_onclick'
p4742
S'javascript:void(0);return false;'
p4743
sS'_href'
p4744
S'#'
ssg71
g57
(cgluon.html
LI
p4745
g59
NtRp4746
(dp4747
g62
(dp4748
S'_class'
p4749
S'web2py-menu-expand'
p4750
ssg71
g57
(cgluon.html
UL
p4751
g59
NtRp4752
(dp4753
g62
(dp4754
S'mobile'
p4755
I00
sS'li_class'
p4756
g4750
sg4749
S'sf-menu'
p4757
sS'ul_class'
p4758
S'web2py-menu-vertical'
p4759
sS'li_active'
p4760
S'web2py-menu-active'
p4761
ssg71
Nsg64
(lp4762
g57
(g4745
g59
NtRp4763
(dp4764
g62
(dp4765
sg71
g4752
sg64
(lp4766
g57
(g4738
g59
NtRp4767
(dp4768
g62
(dp4769
g4744
g4688
ssg71
g4763
sg64
(lp4770
g4663
asbasbag4746
asbsg64
(lp4771
g4739
ag57
(g4751
g59
NtRp4772
(dp4773
g62
(dp4774
g4749
g4759
ssg71
g4746
sg64
(lp4775
g57
(g4745
g59
NtRp4776
(dp4777
g62
(dp4778
sg71
g4772
sg64
(lp4779
g57
(g4738
g59
NtRp4780
(dp4781
g62
(dp4782
g4744
S'/admin/default/site'
p4783
ssg71
g4776
sg64
(lp4784
g4662
(S's\x08\x00\x00\x00My Sites'
tRp4785
asbasbag57
(g4745
g59
NtRp4786
(dp4787
g62
(dp4788
g4749
g4750
ssg71
g4772
sg64
(lp4789
g57
(g4738
g59
NtRp4790
(dp4791
g62
(dp4792
g4744
S'/admin/default/design/astra1'
p4793
ssg71
g4786
sg64
(lp4794
g4662
(S's\x08\x00\x00\x00This App'
tRp4795
asbag57
(g4751
g59
NtRp4796
(dp4797
g62
(dp4798
g4749
g4759
ssg71
g4786
sg64
(lp4799
g57
(g4745
g59
NtRp4800
(dp4801
g62
(dp4802
sg71
g4796
sg64
(lp4803
g57
(g4738
g59
NtRp4804
(dp4805
g62
(dp4806
g4744
S'/admin/default/edit/astra1/controllers/default.py'
p4807
ssg71
g4800
sg64
(lp4808
g4662
(S't\n\x00\x00\x00Controller'
tRp4809
asbasbag57
(g4745
g59
NtRp4810
(dp4811
g62
(dp4812
sg71
g4796
sg64
(lp4813
g57
(g4738
g59
NtRp4814
(dp4815
g62
(dp4816
g4744
S'/admin/default/edit/astra1/views/default/show.html'
p4817
ssg71
g4810
sg64
(lp4818
g4662
(S't\x04\x00\x00\x00View'
tRp4819
asbasbag57
(g4745
g59
NtRp4820
(dp4821
g62
(dp4822
sg71
g4796
sg64
(lp4823
g57
(g4738
g59
NtRp4824
(dp4825
g62
(dp4826
g4744
S'/admin/default/edit/astra1/views/layout.html'
p4827
ssg71
g4820
sg64
(lp4828
g4662
(S't\x06\x00\x00\x00Layout'
tRp4829
asbasbag57
(g4745
g59
NtRp4830
(dp4831
g62
(dp4832
sg71
g4796
sg64
(lp4833
g57
(g4738
g59
NtRp4834
(dp4835
g62
(dp4836
g4744
S'/admin/default/edit/astra1/static/css/web2py.css'
p4837
ssg71
g4830
sg64
(lp4838
g4662
(S't\n\x00\x00\x00Stylesheet'
tRp4839
asbasbag57
(g4745
g59
NtRp4840
(dp4841
g62
(dp4842
sg71
g4796
sg64
(lp4843
g57
(g4738
g59
NtRp4844
(dp4845
g62
(dp4846
g4744
S'/admin/default/edit/astra1/models/db.py'
p4847
ssg71
g4840
sg64
(lp4848
g4662
(S's\x08\x00\x00\x00DB Model'
tRp4849
asbasbag57
(g4745
g59
NtRp4850
(dp4851
g62
(dp4852
sg71
g4796
sg64
(lp4853
g57
(g4738
g59
NtRp4854
(dp4855
g62
(dp4856
g4744
S'/admin/default/edit/astra1/models/menu.py'
p4857
ssg71
g4850
sg64
(lp4858
g4662
(S's\n\x00\x00\x00Menu Model'
tRp4859
asbasbag57
(g4745
g59
NtRp4860
(dp4861
g62
(dp4862
sg71
g4796
sg64
(lp4863
g57
(g4738
g59
NtRp4864
(dp4865
g62
(dp4866
g4744
S'/astra1/appadmin/index'
p4867
ssg71
g4860
sg64
(lp4868
g4662
(S't\x08\x00\x00\x00Database'
tRp4869
asbasbag57
(g4745
g59
NtRp4870
(dp4871
g62
(dp4872
sg71
g4796
sg64
(lp4873
g57
(g4738
g59
NtRp4874
(dp4875
g62
(dp4876
g4744
S'/admin/default/errors/astra1'
p4877
ssg71
g4870
sg64
(lp4878
g4662
(S't\x06\x00\x00\x00Errors'
tRp4879
asbasbag57
(g4745
g59
NtRp4880
(dp4881
g62
(dp4882
sg71
g4796
sg64
(lp4883
g57
(g4738
g59
NtRp4884
(dp4885
g62
(dp4886
g4744
S'/admin/default/about/astra1'
p4887
ssg71
g4880
sg64
(lp4888
g4662
(S't\x05\x00\x00\x00About'
tRp4889
asbasbasbasbag57
(g4745
g59
NtRp4890
(dp4891
g62
(dp4892
g4749
g4750
ssg71
g4772
sg64
(lp4893
g57
(g4738
g59
NtRp4894
(dp4895
g62
(dp4896
g4744
S'http://www.web2py.com'
p4897
ssg71
g4890
sg64
(lp4898
S'web2py.com'
p4899
asbag57
(g4751
g59
NtRp4900
(dp4901
g62
(dp4902
g4749
g4759
ssg71
g4890
sg64
(lp4903
g57
(g4745
g59
NtRp4904
(dp4905
g62
(dp4906
sg71
g4900
sg64
(lp4907
g57
(g4738
g59
NtRp4908
(dp4909
g62
(dp4910
g4744
S'http://www.web2py.com/examples/default/download'
p4911
ssg71
g4904
sg64
(lp4912
g4662
(S't\x08\x00\x00\x00Download'
tRp4913
asbasbag57
(g4745
g59
NtRp4914
(dp4915
g62
(dp4916
sg71
g4900
sg64
(lp4917
g57
(g4738
g59
NtRp4918
(dp4919
g62
(dp4920
g4744
S'http://www.web2py.com/examples/default/support'
p4921
ssg71
g4914
sg64
(lp4922
g4662
(S't\x07\x00\x00\x00Support'
tRp4923
asbasbag57
(g4745
g59
NtRp4924
(dp4925
g62
(dp4926
sg71
g4900
sg64
(lp4927
g57
(g4738
g59
NtRp4928
(dp4929
g62
(dp4930
g4744
S'http://web2py.com/demo_admin'
p4931
ssg71
g4924
sg64
(lp4932
g4662
(S't\x04\x00\x00\x00Demo'
tRp4933
asbasbag57
(g4745
g59
NtRp4934
(dp4935
g62
(dp4936
sg71
g4900
sg64
(lp4937
g57
(g4738
g59
NtRp4938
(dp4939
g62
(dp4940
g4744
S'http://web2py.com/examples/default/examples'
p4941
ssg71
g4934
sg64
(lp4942
g4662
(S's\x0e\x00\x00\x00Quick Examples'
tRp4943
asbasbag57
(g4745
g59
NtRp4944
(dp4945
g62
(dp4946
sg71
g4900
sg64
(lp4947
g57
(g4738
g59
NtRp4948
(dp4949
g62
(dp4950
g4744
S'http://web2py.com/AlterEgo'
p4951
ssg71
g4944
sg64
(lp4952
g4662
(S't\x03\x00\x00\x00FAQ'
tRp4953
asbasbag57
(g4745
g59
NtRp4954
(dp4955
g62
(dp4956
sg71
g4900
sg64
(lp4957
g57
(g4738
g59
NtRp4958
(dp4959
g62
(dp4960
g4744
S'http://www.web2py.com/examples/default/videos/'
p4961
ssg71
g4954
sg64
(lp4962
g4662
(S't\x06\x00\x00\x00Videos'
tRp4963
asbasbag57
(g4745
g59
NtRp4964
(dp4965
g62
(dp4966
sg71
g4900
sg64
(lp4967
g57
(g4738
g59
NtRp4968
(dp4969
g62
(dp4970
g4744
S'http://web2py.com/appliances'
p4971
ssg71
g4964
sg64
(lp4972
g4662
(S's\x11\x00\x00\x00Free Applications'
tRp4973
asbasbag57
(g4745
g59
NtRp4974
(dp4975
g62
(dp4976
sg71
g4900
sg64
(lp4977
g57
(g4738
g59
NtRp4978
(dp4979
g62
(dp4980
g4744
S'http://web2py.com/plugins'
p4981
ssg71
g4974
sg64
(lp4982
g4662
(S't\x07\x00\x00\x00Plugins'
tRp4983
asbasbag57
(g4745
g59
NtRp4984
(dp4985
g62
(dp4986
sg71
g4900
sg64
(lp4987
g57
(g4738
g59
NtRp4988
(dp4989
g62
(dp4990
g4744
S'http://web2py.com/layouts'
p4991
ssg71
g4984
sg64
(lp4992
g4662
(S't\x07\x00\x00\x00Layouts'
tRp4993
asbasbag57
(g4745
g59
NtRp4994
(dp4995
g62
(dp4996
sg71
g4900
sg64
(lp4997
g57
(g4738
g59
NtRp4998
(dp4999
g62
(dp5000
g4744
S'http://web2pyslices.com/'
p5001
ssg71
g4994
sg64
(lp5002
g4662
(S't\x07\x00\x00\x00Recipes'
tRp5003
asbasbag57
(g4745
g59
NtRp5004
(dp5005
g62
(dp5006
sg71
g4900
sg64
(lp5007
g57
(g4738
g59
NtRp5008
(dp5009
g62
(dp5010
g4744
S'http://web2py.com/semantic'
p5011
ssg71
g5004
sg64
(lp5012
g4662
(S't\x08\x00\x00\x00Semantic'
tRp5013
asbasbasbasbag57
(g4745
g59
NtRp5014
(dp5015
g62
(dp5016
g4749
g4750
ssg71
g4772
sg64
(lp5017
g57
(g4738
g59
NtRp5018
(dp5019
g62
(dp5020
g4744
S'http://www.web2py.com/book'
p5021
ssg71
g5014
sg64
(lp5022
g4662
(S't\r\x00\x00\x00Documentation'
tRp5023
asbag57
(g4751
g59
NtRp5024
(dp5025
g62
(dp5026
g4749
g4759
ssg71
g5014
sg64
(lp5027
g57
(g4745
g59
NtRp5028
(dp5029
g62
(dp5030
sg71
g5024
sg64
(lp5031
g57
(g4738
g59
NtRp5032
(dp5033
g62
(dp5034
g4744
S'http://www.web2py.com/book/default/chapter/00'
p5035
ssg71
g5028
sg64
(lp5036
g4662
(S't\x07\x00\x00\x00Preface'
tRp5037
asbasbag57
(g4745
g59
NtRp5038
(dp5039
g62
(dp5040
sg71
g5024
sg64
(lp5041
g57
(g4738
g59
NtRp5042
(dp5043
g62
(dp5044
g4744
S'http://www.web2py.com/book/default/chapter/01'
p5045
ssg71
g5038
sg64
(lp5046
g4662
(S't\x0c\x00\x00\x00Introduction'
tRp5047
asbasbag57
(g4745
g59
NtRp5048
(dp5049
g62
(dp5050
sg71
g5024
sg64
(lp5051
g57
(g4738
g59
NtRp5052
(dp5053
g62
(dp5054
g4744
S'http://www.web2py.com/book/default/chapter/02'
p5055
ssg71
g5048
sg64
(lp5056
g4662
(S't\x06\x00\x00\x00Python'
tRp5057
asbasbag57
(g4745
g59
NtRp5058
(dp5059
g62
(dp5060
sg71
g5024
sg64
(lp5061
g57
(g4738
g59
NtRp5062
(dp5063
g62
(dp5064
g4744
S'http://www.web2py.com/book/default/chapter/03'
p5065
ssg71
g5058
sg64
(lp5066
g4662
(S't\x08\x00\x00\x00Overview'
tRp5067
asbasbag57
(g4745
g59
NtRp5068
(dp5069
g62
(dp5070
sg71
g5024
sg64
(lp5071
g57
(g4738
g59
NtRp5072
(dp5073
g62
(dp5074
g4744
S'http://www.web2py.com/book/default/chapter/04'
p5075
ssg71
g5068
sg64
(lp5076
g4662
(S's\x08\x00\x00\x00The Core'
tRp5077
asbasbag57
(g4745
g59
NtRp5078
(dp5079
g62
(dp5080
sg71
g5024
sg64
(lp5081
g57
(g4738
g59
NtRp5082
(dp5083
g62
(dp5084
g4744
S'http://www.web2py.com/book/default/chapter/05'
p5085
ssg71
g5078
sg64
(lp5086
g4662
(S's\t\x00\x00\x00The Views'
tRp5087
asbasbag57
(g4745
g59
NtRp5088
(dp5089
g62
(dp5090
sg71
g5024
sg64
(lp5091
g57
(g4738
g59
NtRp5092
(dp5093
g62
(dp5094
g4744
S'http://www.web2py.com/book/default/chapter/06'
p5095
ssg71
g5088
sg64
(lp5096
g4662
(S't\x08\x00\x00\x00Database'
tRp5097
asbasbag57
(g4745
g59
NtRp5098
(dp5099
g62
(dp5100
sg71
g5024
sg64
(lp5101
g57
(g4738
g59
NtRp5102
(dp5103
g62
(dp5104
g4744
S'http://www.web2py.com/book/default/chapter/07'
p5105
ssg71
g5098
sg64
(lp5106
g4662
(S's\x14\x00\x00\x00Forms and Validators'
tRp5107
asbasbag57
(g4745
g59
NtRp5108
(dp5109
g62
(dp5110
sg71
g5024
sg64
(lp5111
g57
(g4738
g59
NtRp5112
(dp5113
g62
(dp5114
g4744
S'http://www.web2py.com/book/default/chapter/08'
p5115
ssg71
g5108
sg64
(lp5116
g4662
(S's\r\x00\x00\x00Email and SMS'
tRp5117
asbasbag57
(g4745
g59
NtRp5118
(dp5119
g62
(dp5120
sg71
g5024
sg64
(lp5121
g57
(g4738
g59
NtRp5122
(dp5123
g62
(dp5124
g4744
S'http://www.web2py.com/book/default/chapter/09'
p5125
ssg71
g5118
sg64
(lp5126
g4662
(S's\x0e\x00\x00\x00Access Control'
tRp5127
asbasbag57
(g4745
g59
NtRp5128
(dp5129
g62
(dp5130
sg71
g5024
sg64
(lp5131
g57
(g4738
g59
NtRp5132
(dp5133
g62
(dp5134
g4744
S'http://www.web2py.com/book/default/chapter/10'
p5135
ssg71
g5128
sg64
(lp5136
g4662
(S't\x08\x00\x00\x00Services'
tRp5137
asbasbag57
(g4745
g59
NtRp5138
(dp5139
g62
(dp5140
sg71
g5024
sg64
(lp5141
g57
(g4738
g59
NtRp5142
(dp5143
g62
(dp5144
g4744
S'http://www.web2py.com/book/default/chapter/11'
p5145
ssg71
g5138
sg64
(lp5146
g4662
(S's\x0c\x00\x00\x00Ajax Recipes'
tRp5147
asbasbag57
(g4745
g59
NtRp5148
(dp5149
g62
(dp5150
sg71
g5024
sg64
(lp5151
g57
(g4738
g59
NtRp5152
(dp5153
g62
(dp5154
g4744
S'http://www.web2py.com/book/default/chapter/12'
p5155
ssg71
g5148
sg64
(lp5156
g4662
(S's\x16\x00\x00\x00Components and Plugins'
tRp5157
asbasbag57
(g4745
g59
NtRp5158
(dp5159
g62
(dp5160
sg71
g5024
sg64
(lp5161
g57
(g4738
g59
NtRp5162
(dp5163
g62
(dp5164
g4744
S'http://www.web2py.com/book/default/chapter/13'
p5165
ssg71
g5158
sg64
(lp5166
g4662
(S's\x12\x00\x00\x00Deployment Recipes'
tRp5167
asbasbag57
(g4745
g59
NtRp5168
(dp5169
g62
(dp5170
sg71
g5024
sg64
(lp5171
g57
(g4738
g59
NtRp5172
(dp5173
g62
(dp5174
g4744
S'http://www.web2py.com/book/default/chapter/14'
p5175
ssg71
g5168
sg64
(lp5176
g4662
(S's\r\x00\x00\x00Other Recipes'
tRp5177
asbasbag57
(g4745
g59
NtRp5178
(dp5179
g62
(dp5180
sg71
g5024
sg64
(lp5181
g57
(g4738
g59
NtRp5182
(dp5183
g62
(dp5184
g4744
S'http://stores.lulu.com/web2py'
p5185
ssg71
g5178
sg64
(lp5186
g4662
(S's\r\x00\x00\x00Buy this book'
tRp5187
asbasbasbasbag57
(g4745
g59
NtRp5188
(dp5189
g62
(dp5190
g4749
g4750
ssg71
g4772
sg64
(lp5191
g57
(g4738
g59
NtRp5192
(dp5193
g62
(dp5194
g4742
g4743
sg4744
S'#'
ssg71
g5188
sg64
(lp5195
g4662
(S't\t\x00\x00\x00Community'
tRp5196
asbag57
(g4751
g59
NtRp5197
(dp5198
g62
(dp5199
g4749
g4759
ssg71
g5188
sg64
(lp5200
g57
(g4745
g59
NtRp5201
(dp5202
g62
(dp5203
sg71
g5197
sg64
(lp5204
g57
(g4738
g59
NtRp5205
(dp5206
g62
(dp5207
g4744
S'http://www.web2py.com/examples/default/usergroups'
p5208
ssg71
g5201
sg64
(lp5209
g4662
(S't\x06\x00\x00\x00Groups'
tRp5210
asbasbag57
(g4745
g59
NtRp5211
(dp5212
g62
(dp5213
sg71
g5197
sg64
(lp5214
g57
(g4738
g59
NtRp5215
(dp5216
g62
(dp5217
g4744
S'http://twitter.com/web2py'
p5218
ssg71
g5211
sg64
(lp5219
g4662
(S't\x07\x00\x00\x00Twitter'
tRp5220
asbasbag57
(g4745
g59
NtRp5221
(dp5222
g62
(dp5223
sg71
g5197
sg64
(lp5224
g57
(g4738
g59
NtRp5225
(dp5226
g62
(dp5227
g4744
S'http://webchat.freenode.net/?channels=web2py'
p5228
ssg71
g5221
sg64
(lp5229
g4662
(S's\t\x00\x00\x00Live Chat'
tRp5230
asbasbasbasbag57
(g4745
g59
NtRp5231
(dp5232
g62
(dp5233
g4749
g4750
ssg71
g4772
sg64
(lp5234
g57
(g4738
g59
NtRp5235
(dp5236
g62
(dp5237
g4742
g4743
sg4744
S'#'
ssg71
g5231
sg64
(lp5238
g4662
(S't\x07\x00\x00\x00Plugins'
tRp5239
asbag57
(g4751
g59
NtRp5240
(dp5241
g62
(dp5242
g4749
g4759
ssg71
g5231
sg64
(lp5243
g57
(g4745
g59
NtRp5244
(dp5245
g62
(dp5246
sg71
g5240
sg64
(lp5247
g57
(g4738
g59
NtRp5248
(dp5249
g62
(dp5250
g4744
S'http://web2py.com/examples/default/download'
p5251
ssg71
g5244
sg64
(lp5252
S'plugin_wiki'
p5253
asbasbag57
(g4745
g59
NtRp5254
(dp5255
g62
(dp5256
sg71
g5240
sg64
(lp5257
g57
(g4738
g59
NtRp5258
(dp5259
g62
(dp5260
g4744
g4981
ssg71
g5254
sg64
(lp5261
g4662
(S's\r\x00\x00\x00Other Plugins'
tRp5262
asbasbag57
(g4745
g59
NtRp5263
(dp5264
g62
(dp5265
sg71
g5240
sg64
(lp5266
g57
(g4738
g59
NtRp5267
(dp5268
g62
(dp5269
g4744
g4991
ssg71
g5263
sg64
(lp5270
g4662
(S's\x0e\x00\x00\x00Layout Plugins'
tRp5271
asbasbasbasbasbasbsg64
(lp5272
g4734
asbsg64
(lp5273
g4608
asbasbasbasbag57
(g73
g59
NtRp5274
(dp5275
g62
(dp5276
sg71
g4717
sg64
(lp5277
g57
(g78
g59
NtRp5278
(dp5279
g62
(dp5280
sg71
g5274
sg64
(lp5281
g57
(g58
g59
NtRp5282
(dp5283
g62
(dp5284
g70
I3
ssg71
g5278
sg64
(lp5285
g100
asbasbasbag57
(g73
g59
NtRp5286
(dp5287
g62
(dp5288
sg71
g4717
sg64
(lp5289
g57
(g78
g59
NtRp5290
(dp5291
g62
(dp5292
sg71
g5286
sg64
(lp5293
g57
(g58
g59
NtRp5294
(dp5295
g62
(dp5296
g70
I3
ssg71
g5290
sg64
(lp5297
S'None'
p5298
asbasbasbag57
(g73
g59
NtRp5299
(dp5300
g62
(dp5301
sg71
g4717
sg64
(lp5302
g57
(g78
g59
NtRp5303
(dp5304
g62
(dp5305
sg71
g5299
sg64
(lp5306
g57
(g58
g59
NtRp5307
(dp5308
g62
(dp5309
g70
I3
ssg71
g5303
sg64
(lp5310
g57
(g66
g59
NtRp5311
(dp5312
g62
(dp5313
g70
I2
ssg71
Nsg64
(lp5314
g57
(g73
g59
NtRp5315
(dp5316
g62
(dp5317
sg71
g5311
sg64
(lp5318
g57
(g78
g59
NtRp5319
(dp5320
g62
(dp5321
sg71
g5315
sg64
(lp5322
g57
(g58
g59
NtRp5323
(dp5324
g62
(dp5325
g70
I2
ssg71
g5319
sg64
(lp5326
g57
(g66
g59
NtRp5327
(dp5328
g62
(dp5329
g70
I1
ssg71
Nsg64
(lp5330
g57
(g73
g59
NtRp5331
(dp5332
g62
(dp5333
sg71
g5327
sg64
(lp5334
g57
(g78
g59
NtRp5335
(dp5336
g62
(dp5337
sg71
g5331
sg64
(lp5338
g57
(g58
g59
NtRp5339
(dp5340
g62
(dp5341
g70
I1
ssg71
g5335
sg64
(lp5342
g4785
asbasbasbag57
(g73
g59
NtRp5343
(dp5344
g62
(dp5345
sg71
g5327
sg64
(lp5346
g57
(g78
g59
NtRp5347
(dp5348
g62
(dp5349
sg71
g5343
sg64
(lp5350
g57
(g58
g59
NtRp5351
(dp5352
g62
(dp5353
g70
I1
ssg71
g5347
sg64
(lp5354
I00
asbasbasbag57
(g73
g59
NtRp5355
(dp5356
g62
(dp5357
sg71
g5327
sg64
(lp5358
g57
(g78
g59
NtRp5359
(dp5360
g62
(dp5361
sg71
g5355
sg64
(lp5362
g57
(g58
g59
NtRp5363
(dp5364
g62
(dp5365
g70
I1
ssg71
g5359
sg64
(lp5366
g4783
asbasbasbasbasbasbasbag57
(g73
g59
NtRp5367
(dp5368
g62
(dp5369
sg71
g5311
sg64
(lp5370
g57
(g78
g59
NtRp5371
(dp5372
g62
(dp5373
sg71
g5367
sg64
(lp5374
g57
(g58
g59
NtRp5375
(dp5376
g62
(dp5377
g70
I2
ssg71
g5371
sg64
(lp5378
g57
(g66
g59
NtRp5379
(dp5380
g62
(dp5381
g70
I1
ssg71
Nsg64
(lp5382
g57
(g73
g59
NtRp5383
(dp5384
g62
(dp5385
sg71
g5379
sg64
(lp5386
g57
(g78
g59
NtRp5387
(dp5388
g62
(dp5389
sg71
g5383
sg64
(lp5390
g57
(g58
g59
NtRp5391
(dp5392
g62
(dp5393
g70
I1
ssg71
g5387
sg64
(lp5394
g4795
asbasbasbag57
(g73
g59
NtRp5395
(dp5396
g62
(dp5397
sg71
g5379
sg64
(lp5398
g57
(g78
g59
NtRp5399
(dp5400
g62
(dp5401
sg71
g5395
sg64
(lp5402
g57
(g58
g59
NtRp5403
(dp5404
g62
(dp5405
g70
I1
ssg71
g5399
sg64
(lp5406
I00
asbasbasbag57
(g73
g59
NtRp5407
(dp5408
g62
(dp5409
sg71
g5379
sg64
(lp5410
g57
(g78
g59
NtRp5411
(dp5412
g62
(dp5413
sg71
g5407
sg64
(lp5414
g57
(g58
g59
NtRp5415
(dp5416
g62
(dp5417
g70
I1
ssg71
g5411
sg64
(lp5418
g4793
asbasbasbag57
(g73
g59
NtRp5419
(dp5420
g62
(dp5421
sg71
g5379
sg64
(lp5422
g57
(g78
g59
NtRp5423
(dp5424
g62
(dp5425
sg71
g5419
sg64
(lp5426
g57
(g58
g59
NtRp5427
(dp5428
g62
(dp5429
g70
I1
ssg71
g5423
sg64
(lp5430
(lp5431
(g4809
I00
g4807
tp5432
a(g4819
I00
g4817
tp5433
a(g4829
I00
g4827
tp5434
a(g4839
I00
g4837
tp5435
a(g4849
I00
g4847
tp5436
a(g4859
I00
g4857
tp5437
a(g4869
I00
g4867
tp5438
a(g4879
I00
g4877
tp5439
a(g4889
I00
g4887
tp5440
aasbasbasbasbasbasbasbag57
(g73
g59
NtRp5441
(dp5442
g62
(dp5443
sg71
g5311
sg64
(lp5444
g57
(g78
g59
NtRp5445
(dp5446
g62
(dp5447
sg71
g5441
sg64
(lp5448
g57
(g58
g59
NtRp5449
(dp5450
g62
(dp5451
g70
I2
ssg71
g5445
sg64
(lp5452
g57
(g66
g59
NtRp5453
(dp5454
g62
(dp5455
g70
I1
ssg71
Nsg64
(lp5456
g57
(g73
g59
NtRp5457
(dp5458
g62
(dp5459
sg71
g5453
sg64
(lp5460
g57
(g78
g59
NtRp5461
(dp5462
g62
(dp5463
sg71
g5457
sg64
(lp5464
g57
(g58
g59
NtRp5465
(dp5466
g62
(dp5467
g70
I1
ssg71
g5461
sg64
(lp5468
g4899
asbasbasbag57
(g73
g59
NtRp5469
(dp5470
g62
(dp5471
sg71
g5453
sg64
(lp5472
g57
(g78
g59
NtRp5473
(dp5474
g62
(dp5475
sg71
g5469
sg64
(lp5476
g57
(g58
g59
NtRp5477
(dp5478
g62
(dp5479
g70
I1
ssg71
g5473
sg64
(lp5480
I00
asbasbasbag57
(g73
g59
NtRp5481
(dp5482
g62
(dp5483
sg71
g5453
sg64
(lp5484
g57
(g78
g59
NtRp5485
(dp5486
g62
(dp5487
sg71
g5481
sg64
(lp5488
g57
(g58
g59
NtRp5489
(dp5490
g62
(dp5491
g70
I1
ssg71
g5485
sg64
(lp5492
g4897
asbasbasbag57
(g73
g59
NtRp5493
(dp5494
g62
(dp5495
sg71
g5453
sg64
(lp5496
g57
(g78
g59
NtRp5497
(dp5498
g62
(dp5499
sg71
g5493
sg64
(lp5500
g57
(g58
g59
NtRp5501
(dp5502
g62
(dp5503
g70
I1
ssg71
g5497
sg64
(lp5504
(lp5505
(g4913
I00
g4911
tp5506
a(g4923
I00
g4921
tp5507
a(g4933
I00
g4931
tp5508
a(g4943
I00
g4941
tp5509
a(g4953
I00
g4951
tp5510
a(g4963
I00
g4961
tp5511
a(g4973
I00
g4971
tp5512
a(g4983
I00
g4981
tp5513
a(g4993
I00
g4991
tp5514
a(g5003
I00
g5001
tp5515
a(g5013
I00
g5011
tp5516
aasbasbasbasbasbasbasbag57
(g73
g59
NtRp5517
(dp5518
g62
(dp5519
sg71
g5311
sg64
(lp5520
g57
(g78
g59
NtRp5521
(dp5522
g62
(dp5523
sg71
g5517
sg64
(lp5524
g57
(g58
g59
NtRp5525
(dp5526
g62
(dp5527
g70
I2
ssg71
g5521
sg64
(lp5528
g57
(g66
g59
NtRp5529
(dp5530
g62
(dp5531
g70
I1
ssg71
Nsg64
(lp5532
g57
(g73
g59
NtRp5533
(dp5534
g62
(dp5535
sg71
g5529
sg64
(lp5536
g57
(g78
g59
NtRp5537
(dp5538
g62
(dp5539
sg71
g5533
sg64
(lp5540
g57
(g58
g59
NtRp5541
(dp5542
g62
(dp5543
g70
I1
ssg71
g5537
sg64
(lp5544
g5023
asbasbasbag57
(g73
g59
NtRp5545
(dp5546
g62
(dp5547
sg71
g5529
sg64
(lp5548
g57
(g78
g59
NtRp5549
(dp5550
g62
(dp5551
sg71
g5545
sg64
(lp5552
g57
(g58
g59
NtRp5553
(dp5554
g62
(dp5555
g70
I1
ssg71
g5549
sg64
(lp5556
I00
asbasbasbag57
(g73
g59
NtRp5557
(dp5558
g62
(dp5559
sg71
g5529
sg64
(lp5560
g57
(g78
g59
NtRp5561
(dp5562
g62
(dp5563
sg71
g5557
sg64
(lp5564
g57
(g58
g59
NtRp5565
(dp5566
g62
(dp5567
g70
I1
ssg71
g5561
sg64
(lp5568
g5021
asbasbasbag57
(g73
g59
NtRp5569
(dp5570
g62
(dp5571
sg71
g5529
sg64
(lp5572
g57
(g78
g59
NtRp5573
(dp5574
g62
(dp5575
sg71
g5569
sg64
(lp5576
g57
(g58
g59
NtRp5577
(dp5578
g62
(dp5579
g70
I1
ssg71
g5573
sg64
(lp5580
(lp5581
(g5037
I00
g5035
tp5582
a(g5047
I00
g5045
tp5583
a(g5057
I00
g5055
tp5584
a(g5067
I00
g5065
tp5585
a(g5077
I00
g5075
tp5586
a(g5087
I00
g5085
tp5587
a(g5097
I00
g5095
tp5588
a(g5107
I00
g5105
tp5589
a(g5117
I00
g5115
tp5590
a(g5127
I00
g5125
tp5591
a(g5137
I00
g5135
tp5592
a(g5147
I00
g5145
tp5593
a(g5157
I00
g5155
tp5594
a(g5167
I00
g5165
tp5595
a(g5177
I00
g5175
tp5596
a(g5187
I00
g5185
tp5597
aasbasbasbasbasbasbasbag57
(g73
g59
NtRp5598
(dp5599
g62
(dp5600
sg71
g5311
sg64
(lp5601
g57
(g78
g59
NtRp5602
(dp5603
g62
(dp5604
sg71
g5598
sg64
(lp5605
g57
(g58
g59
NtRp5606
(dp5607
g62
(dp5608
g70
I2
ssg71
g5602
sg64
(lp5609
g57
(g66
g59
NtRp5610
(dp5611
g62
(dp5612
g70
I1
ssg71
Nsg64
(lp5613
g57
(g73
g59
NtRp5614
(dp5615
g62
(dp5616
sg71
g5610
sg64
(lp5617
g57
(g78
g59
NtRp5618
(dp5619
g62
(dp5620
sg71
g5614
sg64
(lp5621
g57
(g58
g59
NtRp5622
(dp5623
g62
(dp5624
g70
I1
ssg71
g5618
sg64
(lp5625
g5196
asbasbasbag57
(g73
g59
NtRp5626
(dp5627
g62
(dp5628
sg71
g5610
sg64
(lp5629
g57
(g78
g59
NtRp5630
(dp5631
g62
(dp5632
sg71
g5626
sg64
(lp5633
g57
(g58
g59
NtRp5634
(dp5635
g62
(dp5636
g70
I1
ssg71
g5630
sg64
(lp5637
I00
asbasbasbag57
(g73
g59
NtRp5638
(dp5639
g62
(dp5640
sg71
g5610
sg64
(lp5641
g57
(g78
g59
NtRp5642
(dp5643
g62
(dp5644
sg71
g5638
sg64
(lp5645
g57
(g58
g59
NtRp5646
(dp5647
g62
(dp5648
g70
I1
ssg71
g5642
sg64
(lp5649
Nasbasbasbag57
(g73
g59
NtRp5650
(dp5651
g62
(dp5652
sg71
g5610
sg64
(lp5653
g57
(g78
g59
NtRp5654
(dp5655
g62
(dp5656
sg71
g5650
sg64
(lp5657
g57
(g58
g59
NtRp5658
(dp5659
g62
(dp5660
g70
I1
ssg71
g5654
sg64
(lp5661
(lp5662
(g5210
I00
g5208
tp5663
a(g5220
I00
g5218
tp5664
a(g5230
I00
g5228
tp5665
aasbasbasbasbasbasbasbag57
(g73
g59
NtRp5666
(dp5667
g62
(dp5668
sg71
g5311
sg64
(lp5669
g57
(g78
g59
NtRp5670
(dp5671
g62
(dp5672
sg71
g5666
sg64
(lp5673
g57
(g58
g59
NtRp5674
(dp5675
g62
(dp5676
g70
I2
ssg71
g5670
sg64
(lp5677
g57
(g66
g59
NtRp5678
(dp5679
g62
(dp5680
g70
I1
ssg71
Nsg64
(lp5681
g57
(g73
g59
NtRp5682
(dp5683
g62
(dp5684
sg71
g5678
sg64
(lp5685
g57
(g78
g59
NtRp5686
(dp5687
g62
(dp5688
sg71
g5682
sg64
(lp5689
g57
(g58
g59
NtRp5690
(dp5691
g62
(dp5692
g70
I1
ssg71
g5686
sg64
(lp5693
g5239
asbasbasbag57
(g73
g59
NtRp5694
(dp5695
g62
(dp5696
sg71
g5678
sg64
(lp5697
g57
(g78
g59
NtRp5698
(dp5699
g62
(dp5700
sg71
g5694
sg64
(lp5701
g57
(g58
g59
NtRp5702
(dp5703
g62
(dp5704
g70
I1
ssg71
g5698
sg64
(lp5705
I00
asbasbasbag57
(g73
g59
NtRp5706
(dp5707
g62
(dp5708
sg71
g5678
sg64
(lp5709
g57
(g78
g59
NtRp5710
(dp5711
g62
(dp5712
sg71
g5706
sg64
(lp5713
g57
(g58
g59
NtRp5714
(dp5715
g62
(dp5716
g70
I1
ssg71
g5710
sg64
(lp5717
Nasbasbasbag57
(g73
g59
NtRp5718
(dp5719
g62
(dp5720
sg71
g5678
sg64
(lp5721
g57
(g78
g59
NtRp5722
(dp5723
g62
(dp5724
sg71
g5718
sg64
(lp5725
g57
(g58
g59
NtRp5726
(dp5727
g62
(dp5728
g70
I1
ssg71
g5722
sg64
(lp5729
(lp5730
(g5253
I00
g5251
tp5731
a(g5262
I00
g4981
tp5732
a(g5271
I00
g4991
tp5733
aasbasbasbasbasbasbasbasbasbasbasbasbasbasbasbasbasbasbasbag57
(g73
g59
NtRp5734
(dp5735
g62
(dp5736
sg71
g4001
sg64
(lp5737
g57
(g78
g59
NtRp5738
(dp5739
g62
(dp5740
g82
g83
ssg71
g5734
sg64
(lp5741
S'meta'
p5742
asbag57
(g78
g59
NtRp5743
(dp5744
g62
(dp5745
g89
g90
ssg71
g5734
sg64
(lp5746
S':'
asbag57
(g78
g59
NtRp5747
(dp5748
g62
(dp5749
sg71
g5734
sg64
(lp5750
g57
(g58
g59
NtRp5751
(dp5752
g62
(dp5753
g70
I5
ssg71
g5747
sg64
(lp5754
g57
(g66
g59
NtRp5755
(dp5756
g62
(dp5757
g70
I4
ssg71
Nsg64
(lp5758
g57
(g73
g59
NtRp5759
(dp5760
g62
(dp5761
sg71
g5755
sg64
(lp5762
g57
(g78
g59
NtRp5763
(dp5764
g62
(dp5765
g82
g83
ssg71
g5759
sg64
(lp5766
S'author'
p5767
asbag57
(g78
g59
NtRp5768
(dp5769
g62
(dp5770
g89
g90
ssg71
g5759
sg64
(lp5771
S':'
asbag57
(g78
g59
NtRp5772
(dp5773
g62
(dp5774
sg71
g5759
sg64
(lp5775
g57
(g58
g59
NtRp5776
(dp5777
g62
(dp5778
g70
I4
ssg71
g5772
sg64
(lp5779
S'Your Name <you@example.com>'
p5780
asbasbasbag57
(g73
g59
NtRp5781
(dp5782
g62
(dp5783
sg71
g5755
sg64
(lp5784
g57
(g78
g59
NtRp5785
(dp5786
g62
(dp5787
g82
g83
ssg71
g5781
sg64
(lp5788
S'copyright'
p5789
asbag57
(g78
g59
NtRp5790
(dp5791
g62
(dp5792
g89
g90
ssg71
g5781
sg64
(lp5793
S':'
asbag57
(g78
g59
NtRp5794
(dp5795
g62
(dp5796
sg71
g5781
sg64
(lp5797
g57
(g58
g59
NtRp5798
(dp5799
g62
(dp5800
g70
I4
ssg71
g5794
sg64
(lp5801
S'Copyright 2011'
p5802
asbasbasbag57
(g73
g59
NtRp5803
(dp5804
g62
(dp5805
sg71
g5755
sg64
(lp5806
g57
(g78
g59
NtRp5807
(dp5808
g62
(dp5809
g82
g83
ssg71
g5803
sg64
(lp5810
S'description'
p5811
asbag57
(g78
g59
NtRp5812
(dp5813
g62
(dp5814
g89
g90
ssg71
g5803
sg64
(lp5815
S':'
asbag57
(g78
g59
NtRp5816
(dp5817
g62
(dp5818
sg71
g5803
sg64
(lp5819
g57
(g58
g59
NtRp5820
(dp5821
g62
(dp5822
g70
I4
ssg71
g5816
sg64
(lp5823
S'a cool new app'
p5824
asbasbasbag57
(g73
g59
NtRp5825
(dp5826
g62
(dp5827
sg71
g5755
sg64
(lp5828
g57
(g78
g59
NtRp5829
(dp5830
g62
(dp5831
g82
g83
ssg71
g5825
sg64
(lp5832
S'generator'
p5833
asbag57
(g78
g59
NtRp5834
(dp5835
g62
(dp5836
g89
g90
ssg71
g5825
sg64
(lp5837
S':'
asbag57
(g78
g59
NtRp5838
(dp5839
g62
(dp5840
sg71
g5825
sg64
(lp5841
g57
(g58
g59
NtRp5842
(dp5843
g62
(dp5844
g70
I4
ssg71
g5838
sg64
(lp5845
S'Web2py Web Framework'
p5846
asbasbasbag57
(g73
g59
NtRp5847
(dp5848
g62
(dp5849
sg71
g5755
sg64
(lp5850
g57
(g78
g59
NtRp5851
(dp5852
g62
(dp5853
g82
g83
ssg71
g5847
sg64
(lp5854
S'keywords'
p5855
asbag57
(g78
g59
NtRp5856
(dp5857
g62
(dp5858
g89
g90
ssg71
g5847
sg64
(lp5859
S':'
asbag57
(g78
g59
NtRp5860
(dp5861
g62
(dp5862
sg71
g5847
sg64
(lp5863
g57
(g58
g59
NtRp5864
(dp5865
g62
(dp5866
g70
I4
ssg71
g5860
sg64
(lp5867
S'web2py, python, framework'
p5868
asbasbasbasbasbasbasbag57
(g73
g59
NtRp5869
(dp5870
g62
(dp5871
sg71
g4001
sg64
(lp5872
g57
(g78
g59
NtRp5873
(dp5874
g62
(dp5875
g82
g83
ssg71
g5869
sg64
(lp5876
S'postprocessing'
p5877
asbag57
(g78
g59
NtRp5878
(dp5879
g62
(dp5880
g89
g90
ssg71
g5869
sg64
(lp5881
S':'
asbag57
(g78
g59
NtRp5882
(dp5883
g62
(dp5884
sg71
g5869
sg64
(lp5885
g57
(g58
g59
NtRp5886
(dp5887
g62
(dp5888
g70
I5
ssg71
g5882
sg64
(lp5889
g57
(g66
g59
NtRp5890
(dp5891
g62
(dp5892
g70
I4
ssg71
Nsg64
(lp5893
sbasbasbasbag57
(g73
g59
NtRp5894
(dp5895
g62
(dp5896
sg71
g4001
sg64
(lp5897
g57
(g78
g59
NtRp5898
(dp5899
g62
(dp5900
g82
g83
ssg71
g5894
sg64
(lp5901
S'session_file'
p5902
asbag57
(g78
g59
NtRp5903
(dp5904
g62
(dp5905
g89
g90
ssg71
g5894
sg64
(lp5906
S':'
asbag57
(g78
g59
NtRp5907
(dp5908
g62
(dp5909
sg71
g5894
sg64
(lp5910
g57
(g58
g59
NtRp5911
(dp5912
g62
(dp5913
g70
I5
ssg71
g5907
sg64
(lp5914
S"<open file '/home/vishrut/web2py/applications/astra1/sessions/127.0.0.1-6c6943ea-9e10-4b64-9f35-8611eb020dd8', mode 'rb+' at 0xabaae38>"
p5915
asbasbasbag57
(g73
g59
NtRp5916
(dp5917
g62
(dp5918
sg71
g4001
sg64
(lp5919
g57
(g78
g59
NtRp5920
(dp5921
g62
(dp5922
g82
g83
ssg71
g5916
sg64
(lp5923
S'session_filename'
p5924
asbag57
(g78
g59
NtRp5925
(dp5926
g62
(dp5927
g89
g90
ssg71
g5916
sg64
(lp5928
S':'
asbag57
(g78
g59
NtRp5929
(dp5930
g62
(dp5931
sg71
g5916
sg64
(lp5932
g57
(g58
g59
NtRp5933
(dp5934
g62
(dp5935
g70
I5
ssg71
g5929
sg64
(lp5936
S'/home/vishrut/web2py/applications/astra1/sessions/127.0.0.1-6c6943ea-9e10-4b64-9f35-8611eb020dd8'
p5937
asbasbasbag57
(g73
g59
NtRp5938
(dp5939
g62
(dp5940
sg71
g4001
sg64
(lp5941
g57
(g78
g59
NtRp5942
(dp5943
g62
(dp5944
g82
g83
ssg71
g5938
sg64
(lp5945
S'session_id'
p5946
asbag57
(g78
g59
NtRp5947
(dp5948
g62
(dp5949
g89
g90
ssg71
g5938
sg64
(lp5950
S':'
asbag57
(g78
g59
NtRp5951
(dp5952
g62
(dp5953
sg71
g5938
sg64
(lp5954
g57
(g58
g59
NtRp5955
(dp5956
g62
(dp5957
g70
I5
ssg71
g5951
sg64
(lp5958
S'127.0.0.1-6c6943ea-9e10-4b64-9f35-8611eb020dd8'
p5959
asbasbasbag57
(g73
g59
NtRp5960
(dp5961
g62
(dp5962
sg71
g4001
sg64
(lp5963
g57
(g78
g59
NtRp5964
(dp5965
g62
(dp5966
g82
g83
ssg71
g5960
sg64
(lp5967
S'session_id_name'
p5968
asbag57
(g78
g59
NtRp5969
(dp5970
g62
(dp5971
g89
g90
ssg71
g5960
sg64
(lp5972
S':'
asbag57
(g78
g59
NtRp5973
(dp5974
g62
(dp5975
sg71
g5960
sg64
(lp5976
g57
(g58
g59
NtRp5977
(dp5978
g62
(dp5979
g70
I5
ssg71
g5973
sg64
(lp5980
g4058
asbasbasbag57
(g73
g59
NtRp5981
(dp5982
g62
(dp5983
sg71
g4001
sg64
(lp5984
g57
(g78
g59
NtRp5985
(dp5986
g62
(dp5987
g82
g83
ssg71
g5981
sg64
(lp5988
S'session_locked'
p5989
asbag57
(g78
g59
NtRp5990
(dp5991
g62
(dp5992
g89
g90
ssg71
g5981
sg64
(lp5993
S':'
asbag57
(g78
g59
NtRp5994
(dp5995
g62
(dp5996
sg71
g5981
sg64
(lp5997
g57
(g58
g59
NtRp5998
(dp5999
g62
(dp6000
g70
I5
ssg71
g5994
sg64
(lp6001
g2559
asbasbasbag57
(g73
g59
NtRp6002
(dp6003
g62
(dp6004
sg71
g4001
sg64
(lp6005
g57
(g78
g59
NtRp6006
(dp6007
g62
(dp6008
g82
g83
ssg71
g6002
sg64
(lp6009
S'session_new'
p6010
asbag57
(g78
g59
NtRp6011
(dp6012
g62
(dp6013
g89
g90
ssg71
g6002
sg64
(lp6014
S':'
asbag57
(g78
g59
NtRp6015
(dp6016
g62
(dp6017
sg71
g6002
sg64
(lp6018
g57
(g58
g59
NtRp6019
(dp6020
g62
(dp6021
g70
I5
ssg71
g6015
sg64
(lp6022
g100
asbasbasbag57
(g73
g59
NtRp6023
(dp6024
g62
(dp6025
sg71
g4001
sg64
(lp6026
g57
(g78
g59
NtRp6027
(dp6028
g62
(dp6029
g82
g83
ssg71
g6023
sg64
(lp6030
S'status'
p6031
asbag57
(g78
g59
NtRp6032
(dp6033
g62
(dp6034
g89
g90
ssg71
g6023
sg64
(lp6035
S':'
asbag57
(g78
g59
NtRp6036
(dp6037
g62
(dp6038
sg71
g6023
sg64
(lp6039
g57
(g58
g59
NtRp6040
(dp6041
g62
(dp6042
g70
I5
ssg71
g6036
sg64
(lp6043
S'200'
p6044
asbasbasbag57
(g73
g59
NtRp6045
(dp6046
g62
(dp6047
sg71
g4001
sg64
(lp6048
g57
(g78
g59
NtRp6049
(dp6050
g62
(dp6051
g82
g83
ssg71
g6045
sg64
(lp6052
S'subtitle'
p6053
asbag57
(g78
g59
NtRp6054
(dp6055
g62
(dp6056
g89
g90
ssg71
g6045
sg64
(lp6057
S':'
asbag57
(g78
g59
NtRp6058
(dp6059
g62
(dp6060
sg71
g6045
sg64
(lp6061
g57
(g58
g59
NtRp6062
(dp6063
g62
(dp6064
g70
I5
ssg71
g6058
sg64
(lp6065
g4662
(S's\r\x00\x00\x00customize me!'
tRp6066
asbasbasbag57
(g73
g59
NtRp6067
(dp6068
g62
(dp6069
sg71
g4001
sg64
(lp6070
g57
(g78
g59
NtRp6071
(dp6072
g62
(dp6073
g82
g83
ssg71
g6067
sg64
(lp6074
S'title'
p6075
asbag57
(g78
g59
NtRp6076
(dp6077
g62
(dp6078
g89
g90
ssg71
g6067
sg64
(lp6079
S':'
asbag57
(g78
g59
NtRp6080
(dp6081
g62
(dp6082
sg71
g6067
sg64
(lp6083
g57
(g58
g59
NtRp6084
(dp6085
g62
(dp6086
g70
I5
ssg71
g6080
sg64
(lp6087
S'Astra1'
p6088
asbasbasbag57
(g73
g59
NtRp6089
(dp6090
g62
(dp6091
sg71
g4001
sg64
(lp6092
g57
(g78
g59
NtRp6093
(dp6094
g62
(dp6095
g82
g83
ssg71
g6089
sg64
(lp6096
g3223
asbag57
(g78
g59
NtRp6097
(dp6098
g62
(dp6099
g89
g90
ssg71
g6089
sg64
(lp6100
S':'
asbag57
(g78
g59
NtRp6101
(dp6102
g62
(dp6103
sg71
g6089
sg64
(lp6104
g57
(g58
g59
NtRp6105
(dp6106
g62
(dp6107
g70
I5
ssg71
g6101
sg64
(lp6108
g3236
asbasbasbag57
(g73
g59
NtRp6109
(dp6110
g62
(dp6111
sg71
g4001
sg64
(lp6112
g57
(g78
g59
NtRp6113
(dp6114
g62
(dp6115
g82
g83
ssg71
g6109
sg64
(lp6116
S'view'
p6117
asbag57
(g78
g59
NtRp6118
(dp6119
g62
(dp6120
g89
g90
ssg71
g6109
sg64
(lp6121
S':'
asbag57
(g78
g59
NtRp6122
(dp6123
g62
(dp6124
sg71
g6109
sg64
(lp6125
g57
(g58
g59
NtRp6126
(dp6127
g62
(dp6128
g70
I5
ssg71
g6122
sg64
(lp6129
S'default/show.html'
p6130
asbasbasbasbasbsS'locals'
p6131
(dp6132
S'Service'
p6133
S"<class 'gluon.tools.Service'>"
p6134
sS'OBJECT'
p6135
S"<class 'gluon.html.OBJECT'>"
p6136
sS'SQLDB'
p6137
S"<class 'gluon.dal.DAL'>"
p6138
sg3896
S"<Storage {'username': 'Tan', 'last_query': 'db.r...oms/1]': '82782c3f-c3b5-4b21-b29f-85f19d6226d7'}>"
p6139
sS'LINK'
p6140
S"<class 'gluon.html.LINK'>"
p6141
sS'BR'
p6142
S"<class 'gluon.html.BR'>"
p6143
sS'local_import'
p6144
S'<function <lambda>>'
p6145
sS'OPTGROUP'
p6146
S"<class 'gluon.html.OPTGROUP'>"
p6147
sS'__package__'
p6148
S'None'
p6149
sS'PRE'
p6150
S"<class 'gluon.html.PRE'>"
p6151
sS'IS_INT_IN_RANGE'
p6152
S"<class 'gluon.validators.IS_INT_IN_RANGE'>"
p6153
sS'left_sidebar_enabled'
p6154
g100
sS'IS_LOWER'
p6155
S"<class 'gluon.validators.IS_LOWER'>"
p6156
sS'IS_STRONG'
p6157
S"<class 'gluon.validators.IS_STRONG'>"
p6158
sS'cache'
p6159
S'<gluon.cache.Cache object>'
p6160
sS'IS_IN_DB'
p6161
S"<class 'gluon.validators.IS_IN_DB'>"
p6162
sS'TAG'
p6163
S'<gluon.html.__TAG__ object>'
p6164
sS'SQLField'
p6165
S"<class 'gluon.dal.Field'>"
p6166
sS'mail'
p6167
S'<gluon.tools.Mail object>'
p6168
sS'BODY'
p6169
S"<class 'gluon.html.BODY'>"
p6170
sS'IS_DATE_IN_RANGE'
p6171
S"<class 'gluon.validators.IS_DATE_IN_RANGE'>"
p6172
sS'TH'
p6173
S"<class 'gluon.html.TH'>"
p6174
sS'URL'
p6175
S'<function URL>'
p6176
sS'__file__'
p6177
S"'/home/vishrut/web2py/applications/astra1/views/default/show.html'"
p6178
sS'db'
p6179
S"<DAL {'auth_event': <Table {'origin': <gluon.dal...n_key': <gluon.dal.Field object at 0xa96d3ec>}>}>"
p6180
sS'auth'
p6181
S'<gluon.tools.Auth object>'
p6182
sS'P'
S"<class 'gluon.html.P'>"
p6183
sS'TFOOT'
p6184
S"<class 'gluon.html.TFOOT'>"
p6185
sS'XHTML'
p6186
S"<class 'gluon.html.XHTML'>"
p6187
sS'ON'
p6188
g2559
sS'OL'
p6189
S"<class 'gluon.html.OL'>"
p6190
sS'TEXTAREA'
p6191
S"<class 'gluon.html.TEXTAREA'>"
p6192
sS'MENU'
p6193
S"<class 'gluon.html.MENU'>"
p6194
sS'LOAD'
p6195
S'<function LOAD>'
p6196
sS'CODE'
p6197
S"<class 'gluon.html.CODE'>"
p6198
sS'HTTP'
p6199
S"<class 'gluon.http.HTTP'>"
p6200
sS'HR'
p6201
S"<class 'gluon.html.HR'>"
p6202
sS'IS_DATETIME'
p6203
S"<class 'gluon.validators.IS_DATETIME'>"
p6204
sS'HEAD'
p6205
S"<class 'gluon.html.HEAD'>"
p6206
sS'LABEL'
p6207
S"<class 'gluon.html.LABEL'>"
p6208
sS'CLEANUP'
p6209
S"<class 'gluon.validators.CLEANUP'>"
p6210
sS'plugins'
p6211
S'<gluon.tools.PluginManager object>'
p6212
sS'SELECT'
p6213
S"<class 'gluon.html.SELECT'>"
p6214
sS'use_janrain'
p6215
S'<function use_janrain>'
p6216
sS'CENTER'
p6217
S"<class 'gluon.html.CENTER'>"
p6218
sS'prettydate'
p6219
S'<function prettydate>'
p6220
sS'Crud'
p6221
S"<class 'gluon.tools.Crud'>"
p6222
sS'Auth'
p6223
S"<class 'gluon.tools.Auth'>"
p6224
sS'__builtins__'
p6225
S"{'ArithmeticError': <type 'exceptions.ArithmeticError'>, 'AssertionError': <type 'exceptions.AssertionError'>, 'AttributeError': <type 'exceptions.AttributeError'>, 'BaseException': <type 'exceptions.BaseException'>, 'BufferError': <type 'exceptions.BufferError'>, 'BytesWarning': <type 'exceptions.BytesWarning'>, 'DeprecationWarning': <type 'exceptions.DeprecationWarning'>, 'EOFError': <type 'exceptions.EOFError'>, 'Ellipsis': Ellipsis, 'EnvironmentError': <type 'exceptions.EnvironmentError'>, ...}"
p6226
sS'HTML'
p6227
S"<class 'gluon.html.HTML'>"
p6228
sS'SQLFORM'
p6229
S"<class 'gluon.sqlhtml.SQLFORM'>"
p6230
sS'EM'
p6231
S"<class 'gluon.html.EM'>"
p6232
sS'redirect'
p6233
S'<function redirect>'
p6234
sS'FIELDSET'
p6235
S"<class 'gluon.html.FIELDSET'>"
p6236
sS'IS_EQUAL_TO'
p6237
S"<class 'gluon.validators.IS_EQUAL_TO'>"
p6238
sS'embed64'
p6239
S'<function embed64>'
p6240
sS'IS_LIST_OF'
p6241
S"<class 'gluon.validators.IS_LIST_OF'>"
p6242
sS'__name__'
p6243
S"'__restricted__'"
p6244
sS'EMBED'
p6245
S"<class 'gluon.html.EMBED'>"
p6246
sS'_'
S'<function _>'
p6247
sS'FORM'
p6248
S"<class 'gluon.html.FORM'>"
p6249
sS'H2'
p6250
S"<class 'gluon.html.H2'>"
p6251
sS'H3'
p6252
S"<class 'gluon.html.H3'>"
p6253
sS'BUTTON'
p6254
S"<class 'gluon.html.BUTTON'>"
p6255
sS'H1'
p6256
S"<class 'gluon.html.H1'>"
p6257
sS'H6'
p6258
S"<class 'gluon.html.H6'>"
p6259
sS'H4'
p6260
S"<class 'gluon.html.H4'>"
p6261
sS'H5'
p6262
S"<class 'gluon.html.H5'>"
p6263
sS'UL'
p6264
S"<class 'gluon.html.UL'>"
p6265
sS'IS_UPPER'
p6266
S"<class 'gluon.validators.IS_UPPER'>"
p6267
sS'xmlescape'
p6268
S'<function xmlescape>'
p6269
sS'IS_TIME'
p6270
S"<class 'gluon.validators.IS_TIME'>"
p6271
sS'OPTION'
p6272
S"<class 'gluon.html.OPTION'>"
p6273
sS'TITLE'
p6274
S"<class 'gluon.html.TITLE'>"
p6275
sS'CRYPT'
p6276
S"<class 'gluon.validators.CRYPT'>"
p6277
sS'IS_EMPTY_OR'
p6278
S"<class 'gluon.validators.IS_EMPTY_OR'>"
p6279
sS'MARKMIN'
p6280
S"<class 'gluon.html.MARKMIN'>"
p6281
sS'INPUT'
p6282
S"<class 'gluon.html.INPUT'>"
p6283
sS'COL'
p6284
S"<class 'gluon.html.COL'>"
p6285
sS'service'
p6286
S'<gluon.tools.Service object>'
p6287
sS'SCRIPT'
p6288
S"<class 'gluon.html.SCRIPT'>"
p6289
sS'is_mobile'
p6290
g100
sS'TABLE'
p6291
S"<class 'gluon.html.TABLE'>"
p6292
sS'IS_IPV4'
p6293
S"<class 'gluon.validators.IS_IPV4'>"
p6294
sS'IS_LENGTH'
p6295
S"<class 'gluon.validators.IS_LENGTH'>"
p6296
sS'XML'
p6297
S"<class 'gluon.html.XML'>"
p6298
sS'B'
S"<class 'gluon.html.B'>"
p6299
sS'IMG'
p6300
S"<class 'gluon.html.IMG'>"
p6301
sS'SQLTABLE'
p6302
S"<class 'gluon.sqlhtml.SQLTABLE'>"
p6303
sS'IS_MATCH'
p6304
S"<class 'gluon.validators.IS_MATCH'>"
p6305
sS'xxx'
p6306
S"'apple'"
p6307
sS'IS_ALPHANUMERIC'
p6308
S"<class 'gluon.validators.IS_ALPHANUMERIC'>"
p6309
sS'SPAN'
p6310
S"<class 'gluon.html.SPAN'>"
p6311
sS'IS_SLUG'
p6312
S"<class 'gluon.validators.IS_SLUG'>"
p6313
sS'BEAUTIFY'
p6314
S"<class 'gluon.html.BEAUTIFY'>"
p6315
sS'META'
p6316
S"<class 'gluon.html.META'>"
p6317
sS'IS_DATE'
p6318
S"<class 'gluon.validators.IS_DATE'>"
p6319
sS'IS_EMAIL'
p6320
S"<class 'gluon.validators.IS_EMAIL'>"
p6321
sS'IS_NOT_EMPTY'
p6322
S"<class 'gluon.validators.IS_NOT_EMPTY'>"
p6323
sS'IS_FLOAT_IN_RANGE'
p6324
S"<class 'gluon.validators.IS_FLOAT_IN_RANGE'>"
p6325
sS'TBODY'
p6326
S"<class 'gluon.html.TBODY'>"
p6327
sS'CAT'
p6328
S"<class 'gluon.html.CAT'>"
p6329
sS'Field'
p6330
S"<class 'gluon.dal.Field'>"
p6331
sS'middle_columns'
p6332
S"'sixteen'"
p6333
sS'DIV'
p6334
S"<class 'gluon.html.DIV'>"
p6335
sS'LEGEND'
p6336
S"<class 'gluon.html.LEGEND'>"
p6337
sS'COLGROUP'
p6338
S"<class 'gluon.html.COLGROUP'>"
p6339
sS'DAL'
p6340
S"<class 'gluon.dal.DAL'>"
p6341
sS'TT'
p6342
S"<class 'gluon.html.TT'>"
p6343
sS'TR'
p6344
S"<class 'gluon.html.TR'>"
p6345
sS'LI'
p6346
S"<class 'gluon.html.LI'>"
p6347
sS'right_sidebar_enabled'
p6348
g100
sS'IFRAME'
p6349
S"<class 'gluon.html.IFRAME'>"
p6350
sS'TD'
p6351
S"<class 'gluon.html.TD'>"
p6352
sS'PluginManager'
p6353
S"<class 'gluon.tools.PluginManager'>"
p6354
sS'IS_URL'
p6355
S"<class 'gluon.validators.IS_URL'>"
p6356
sS'A'
S"<class 'gluon.html.A'>"
p6357
sS'STYLE'
p6358
S"<class 'gluon.html.STYLE'>"
p6359
sS'IS_DATETIME_IN_RANGE'
p6360
S"<class 'gluon.validators.IS_DATETIME_IN_RANGE'>"
p6361
sS'IS_IMAGE'
p6362
S"<class 'gluon.validators.IS_IMAGE'>"
p6363
sS'I'
S"<class 'gluon.html.I'>"
p6364
sS'crud'
p6365
S'<gluon.tools.Crud object>'
p6366
sS'IS_NOT_IN_DB'
p6367
S"<class 'gluon.validators.IS_NOT_IN_DB'>"
p6368
sg3996
S"<Storage {'body': <cStringIO.StringO object at 0...bda> at 0xb03cfb4>, 'view': 'default/show.html'}>"
p6369
sS'THEAD'
p6370
S"<class 'gluon.html.THEAD'>"
p6371
sS'IS_NULL_OR'
p6372
S"<class 'gluon.validators.IS_EMPTY_OR'>"
p6373
sg56
S"<Storage {'body': <cStringIO.StringO object at 0..._vars': <Storage {}>, 'post_vars': <Storage {}>}>"
p6374
sS'IS_EXPR'
p6375
S"<class 'gluon.validators.IS_EXPR'>"
p6376
sS'T'
S'<gluon.languages.translator object>'
p6377
sS'IS_IN_SET'
p6378
S"<class 'gluon.validators.IS_IN_SET'>"
p6379
sS'IS_UPLOAD_FILENAME'
p6380
S"<class 'gluon.validators.IS_UPLOAD_FILENAME'>"
p6381
sS'IS_DECIMAL_IN_RANGE'
p6382
S"<class 'gluon.validators.IS_DECIMAL_IN_RANGE'>"
p6383
sssS'traceback'
p6384
S'Traceback (most recent call last):\n  File "/home/vishrut/web2py/gluon/restricted.py", line 205, in restricted\n    exec ccode in environment\n  File "/home/vishrut/web2py/applications/astra1/views/default/show.html", line 88, in <module>\nNameError: name \'apple\' is not defined\n'
p6385
s.