(dp1
S'output'
p2
S"<type 'exceptions.TypeError'> unsupported operand type(s) for +: 'NoneType' and 'str'"
p3
sS'layer'
p4
S'/home/vishrut/web2py/applications/astra1/views/default/show.html'
p5
sS'code'
p6
S'response.write(\'<!DOCTYPE html>\\n<!-- paulirish.com/2008/conditional-stylesheets-vs-css-hacks-answer-neither/ -->\\n<!--[if lt IE 7]><html class="ie ie6 ie-lte9 ie-lte8 ie-lte7 no-js" lang="\', escape=False)\nresponse.write(T.accepted_language or \'en\')\nresponse.write(\'"> <![endif]-->\\n<!--[if IE 7]><html class="ie ie7 ie-lte9 ie-lte8 ie-lte7 no-js" lang="\', escape=False)\nresponse.write(T.accepted_language or \'en\')\nresponse.write(\'"> <![endif]-->\\n<!--[if IE 8]><html class="ie ie8 ie-lte9 ie-lte8 no-js" lang="\', escape=False)\nresponse.write(T.accepted_language or \'en\')\nresponse.write(\'"> <![endif]-->\\n<!--[if IE 9]><html class="ie9 ie-lte9 no-js" lang="\', escape=False)\nresponse.write(T.accepted_language or \'en\')\nresponse.write(\'"> <![endif]-->\\n<!--[if (gt IE 9)|!(IE)]><!--> <html class="no-js" lang="\', escape=False)\nresponse.write(T.accepted_language or \'en\')\nresponse.write(\'"> <!--<![endif]-->\\n<head>\\n  <meta charset="utf-8" />\\n  <!-- www.phpied.com/conditional-comments-block-downloads/ -->\\n  <!-- Always force latest IE rendering engine\\n\\t   (even in intranet) & Chrome Frame\\n\\t   Remove this if you use the .htaccess -->\\n  <!--[if IE]>\\n    <meta http-equiv="X-UA-Compatible" content="IE=edge\', escape=False)\nresponse.write(not request.is_local and \',chrome=1\' or \'\')\nresponse.write(\'">\\n  <![endif]-->\\n  \\n  <title>\', escape=False)\nresponse.write(response.title or request.application)\nresponse.write(\'</title>\\n  \\n  <!-- http://dev.w3.org/html5/markup/meta.name.html -->\\n  <meta name="application-name" content="\', escape=False)\nresponse.write(request.application)\nresponse.write(\'" />\\n  \\n  <!-- Speaking of Google, don\\\'t forget to set your site up:\\n\\t   http://google.com/webmasters -->\\n  <meta name="google-site-verification" content="" />\\n\\n  <!--  Mobile Viewport Fix\\n\\t  j.mp/mobileviewport & davidbcalhoun.com/2010/viewport-metatag\\n\\t  device-width: Occupy full width of the screen in its current orientation\\n\\t  initial-scale = 1.0 retains dimensions instead of zooming out if page height > device height\\n\\t  user-scalable = yes allows the user to zoom in -->\\n  <meta name="viewport" content="width=device-width, initial-scale=1.0, user-scalable=yes">\\n  \\n  <!-- Place favicon.ico and apple-touch-icon.png in the root of your domain and delete these references -->\\n  <link rel="shortcut icon" href="\', escape=False)\nresponse.write(URL(\'static\',\'favicon.ico\'))\nresponse.write(\'" type="image/x-icon">\\n  <link rel="apple-touch-icon" href="\', escape=False)\nresponse.write(URL(\'static\',\'favicon.png\'))\nresponse.write(\'">\\n\\n  <!-- All JavaScript at the bottom, except for Modernizr which enables \\n\\t   HTML5 elements & feature detects -->\\n  <script src="\', escape=False)\nresponse.write(URL(\'static\',\'js/modernizr.custom.js\'))\nresponse.write(\'"></script>  \\n\\n  <!-- include stylesheets -->\\n  \', escape=False)\nresponse.files.append(URL(\'static\',\'css/skeleton.css\'))\nresponse.files.append(URL(\'static\',\'css/web2py.css\'))\nif response.menu:\n    response.files.append(URL(\'static\',\'css/superfish.css\'))\n    response.files.append(URL(\'static\',\'js/superfish.js\'))\n    pass\nresponse.write(\'\\n\\n  \', escape=False)\nresponse.write(\'<script type="text/javascript"><!--\\n    // These variables are used by the web2py_ajax_init function in web2py_ajax.js (which is loaded below).\\n    var w2p_ajax_confirm_message = "\', escape=False)\nresponse.write(T(\'Are you sure you want to delete this object?\'))\nresponse.write(\'";\\n    var w2p_ajax_date_format = "\', escape=False)\nresponse.write(T(\'%Y-%m-%d\'))\nresponse.write(\'";\\n    var w2p_ajax_datetime_format = "\', escape=False)\nresponse.write(T(\'%Y-%m-%d %H:%M:%S\'))\nresponse.write(\'";\\n    //--></script>\\n\', escape=False)\nresponse.files.insert(0,URL(\'static\',\'js/jquery.js\'))\nresponse.files.insert(1,URL(\'static\',\'css/calendar.css\'))\nresponse.files.insert(2,URL(\'static\',\'js/calendar.js\'))\nresponse.files.insert(3,URL(\'static\',\'js/web2py.js\'))\nresponse.include_meta()\nresponse.include_files()\nresponse.write(\'\\n\', escape=False)\nresponse.write(\'\\n\\n  \', escape=False)\nif response.menu:\n    response.write(\'\\n  <script type="text/javascript">\\n    jQuery(function(){ jQuery(\\\'ul.sf-menu\\\').supersubs({minWidth:12,maxWidth:30,extraWidth:3}).superfish(); });\\n  </script>\\n  \', escape=False)\n    pass\nresponse.write(\'\\n\\n  \', escape=False)\n# using sidebars need to know what sidebar you want to use\nleft_sidebar_enabled = globals().get(\'left_sidebar_enabled\',False)\nright_sidebar_enabled = globals().get(\'right_sidebar_enabled\',False)\nmiddle_columns = {0:\'sixteen\',1:\'twelve\',2:\'eight\'}[\n(left_sidebar_enabled and 1 or 0)+(right_sidebar_enabled and 1 or 0)]\nresponse.write(\'\\n\\n  <!-- uncomment here to load jquery-ui\\n  <link rel="stylesheet" href="http://ajax.googleapis.com/ajax/libs/jqueryui/1.8.16/themes/base/jquery-ui.css" type="text/css" media="all" />\\n  <script src="http://ajax.googleapis.com/ajax/libs/jqueryui/1.8.16/jquery-ui.min.js" type="text/javascript"></script>\\n  uncomment to load jquery-ui //-->\\n</head>\\n<body>\\n  <div class="wrapper"><!-- for sticky footer -->\\n  \\n    <div class="topbar">\\n      <div class="container">    \\n        <div class="sixteen columns">\\n          <div id="navbar">\', escape=False)\nresponse.write(\'auth\' in globals() and auth.navbar(separators=(\' \',\' | \',\'\')))\nresponse.write(\'</div>\\n          \', escape=False)\nis_mobile=request.user_agent().is_mobile\nresponse.write(\'\\n\\t  \', escape=False)\nif response.menu:\n    response.write(\'\\n          <div id="menu">\\n             \', escape=False)\n    response.write(MENU(response.menu, _class=\'mobile-menu\' if is_mobile else \'sf-menu\',mobile=is_mobile))\n    response.write(\'\\n          </div>\\n          \', escape=False)\n    pass\nresponse.write(\'\\n        </div>\\n      </div>\\n    </div><!-- topbar -->\\n    \\n    <div class="flash">\', escape=False)\nresponse.write(response.flash or \'\')\nresponse.write(\'</div>\\n    \\n    <div class="header">\\n      <div class="container">         \\n        <div class="sixteen columns">\\n          <h1 class="remove-bottom" style="margin-top: .5em;">\\n          \', escape=False)\nresponse.write(response.title or request.application)\nresponse.write(\'\\n          </h1>\\n          <h5>\', escape=False)\nresponse.write(response.subtitle or \'\')\nresponse.write(\'</h5>\\n        </div>\\n        <div class="sixteen columns">\\n          <div class="statusbar clearfix">\\n            \', escape=False)\nresponse.write(\'\\n            <div class="breadcrumbs">\', escape=False)\nresponse.write(request.function.replace(\'_\', \' \').title())\nresponse.write(\'</div>\\n            \', escape=False)\nresponse.write(\'\\n            <!-- AddToAny BEGIN -->\\n            <div style="float:right; padding-top: .25em;" class="a2a_kit a2a_default_style">\\n            <a class="a2a_dd" href="http://www.addtoany.com/share_save">Share</a></div>\\n            <script type="text/javascript" src="http://static.addtoany.com/menu/page.js"></script>\\n            <!-- AddToAny END -->\\n          </div>\\n        </div>\\n      </div>\\n    </div>\\n\\n    <div class="main">\\n      <div class="container">                 \\n        \', escape=False)\nif left_sidebar_enabled:\n    response.write(\'\\n        <div class="four columns left-sidebar">\\n          \', escape=False)\n    response.write(\'\\n          <h3>Left Sidebar</h3>\\n          <p></p>\\n          \', escape=False)\n    response.write(\'\\n        </div>\\n        \', escape=False)\n    pass\nresponse.write(\'\\n        \\n        <div class="\', escape=False)\nresponse.write(middle_columns)\nresponse.write(\' columns center">\\n          \', escape=False)\nresponse.write(\'\\n          \', escape=False)\nresponse.write(\'\\n<h1>This is the default/show.html template</h1>\\n\', escape=False)\nxxx=db(db.kids.username==session.username).select().first().rno\nresponse.write(\'\\n\', escape=False)\nif xxx==None:\n    response.write(\'\\n<img src="/astra1/static/hh.jpeg"> </img>\\n\', escape=False)\n    pass\nresponse.write(\'\\n<video width="320" height="240" controls="controls">  \\n        <source src="\', escape=False)\nresponse.write(URL(\'static\', xxx+\'.ogv\'))\nresponse.write(\'" type="video/ogg">\\n</video>\\n\\n\', escape=False)\nfor row in db(db.rooms.active==True).select(orderby=db.rooms.rnum):\n    response.write(\'\\n<p><a href=\', escape=False)\n    response.write(URL(\'enter\', args=row.rnum))\n    response.write(\'>\', escape=False)\n    response.write(row.rnum)\n    response.write(\'</a></p>\\n\', escape=False)\n    pass\nresponse.write(\'\\n\\n<button type="button" onclick="document.location=\\\'\', escape=False)\nresponse.write(URL("logout"))\nresponse.write(\'\\\'">Logout</button>\\n\', escape=False)\npass\nresponse.write(\'\\n\', escape=False)\npass\nresponse.write(\'\\n\', escape=False)\nresponse.write(BEAUTIFY(response._vars))\nresponse.write(\'\\n\', escape=False)\nresponse.write(\'\\n          \', escape=False)\nresponse.write(\'\\n        </div>\\n        \\n        \', escape=False)\nif right_sidebar_enabled:\n    response.write(\'\\n        <div class="four columns">\\n          \', escape=False)\n    response.write(\'\\n          <h3>Right Sidebar</h3>\\n          <p></p>\\n          \', escape=False)\n    response.write(\'\\n        </div>    \\n        \', escape=False)\n    pass\nresponse.write(\'\\n        \\n      </div><!-- container -->\\n    </div><!-- main -->\\n    \\n    <div class="push"></div>\\n  </div><!-- wrapper -->\\n\\n  <div class="footer">\\n    <div class="container">    \\n      <div class="sixteen columns">\\n        \', escape=False)\nresponse.write(\' <!-- this is default footer -->\\n        <div class="footer-content clearfix">\\n          <div class="copyright">\', escape=False)\nresponse.write(T(\'Copyright\'))\nresponse.write(\' &#169; 2011</div>\\n          <div style="float: right;">\\n            <a href="http://www.web2py.com/">\\n            <img style="padding-bottom: 0;" src="\', escape=False)\nresponse.write(URL(\'static\',\'images/poweredby.png\'))\nresponse.write(\'"/>\\n            </a>\\n          </div>\\n        </div>\\n        \', escape=False)\nresponse.write(\'\\t\\n      </div>\\n    </div><!-- container -->\\n  </div><!-- footer -->\\n  \\n  <!--[if lt IE 7 ]>\\n\\t<script src="\', escape=False)\nresponse.write(URL(\'static\',\'js/dd_belatedpng.js\'))\nresponse.write(\'"></script>\\n\\t<script> DD_belatedPNG.fix(\\\'img, .png_bg\\\'); //fix any <img> or .png_bg background-images </script>\\n\\t<![endif]-->\\n  \', escape=False)\nif response.google_analytics_id:\n    response.write(\'<script type="text/javascript"> var _gaq = _gaq || []; _gaq.push([\\\'_setAccount\\\', \\\'\', escape=False)\n    response.write(response.google_analytics_id)\n    response.write("\']); _gaq.push([\'_trackPageview\']); (function() { var ga = document.createElement(\'script\'); ga.type = \'text/javascript\'; ga.async = true; ga.src = (\'https:\' == document.location.protocol ? \'https://ssl\' : \'http://www\') + \'.google-analytics.com/ga.js\'; var s = document.getElementsByTagName(\'script\')[0]; s.parentNode.insertBefore(ga, s); })(); </script> ", escape=False)\n    pass\nresponse.write(\'\\n</body>\\n</html>\\n\', escape=False)'
p7
sS'snapshot'
p8
(dp9
S'exception'
p10
(dp11
S'__hash__'
p12
S"<method-wrapper '__hash__' of exceptions.TypeError object>"
p13
sS'__setattr__'
p14
S"<method-wrapper '__setattr__' of exceptions.TypeError object>"
p15
sS'__reduce_ex__'
p16
S'<built-in method __reduce_ex__ of exceptions.TypeError object>'
p17
sS'__getslice__'
p18
S"<method-wrapper '__getslice__' of exceptions.TypeError object>"
p19
sS'__getitem__'
p20
S"<method-wrapper '__getitem__' of exceptions.TypeError object>"
p21
sS'__setstate__'
p22
S'<built-in method __setstate__ of exceptions.TypeError object>'
p23
sS'__reduce__'
p24
S'<built-in method __reduce__ of exceptions.TypeError object>'
p25
sS'__str__'
p26
S"<method-wrapper '__str__' of exceptions.TypeError object>"
p27
sS'__format__'
p28
S'<built-in method __format__ of exceptions.TypeError object>'
p29
sS'__getattribute__'
p30
S"<method-wrapper '__getattribute__' of exceptions.TypeError object>"
p31
sS'__class__'
p32
S"<type 'exceptions.TypeError'>"
p33
sS'__unicode__'
p34
S'<built-in method __unicode__ of exceptions.TypeError object>'
p35
sS'__delattr__'
p36
S"<method-wrapper '__delattr__' of exceptions.TypeError object>"
p37
sS'__subclasshook__'
p38
S'<built-in method __subclasshook__ of type object>'
p39
sS'__repr__'
p40
S"<method-wrapper '__repr__' of exceptions.TypeError object>"
p41
sS'args'
p42
S'("unsupported operand type(s) for +: \'NoneType\' and \'str\'",)'
p43
sS'__dict__'
p44
S'{}'
p45
sS'__sizeof__'
p46
S'<built-in method __sizeof__ of exceptions.TypeError object>'
p47
sS'__doc__'
p48
S"'Inappropriate argument type.'"
p49
sS'__init__'
p50
S"<method-wrapper '__init__' of exceptions.TypeError object>"
p51
sS'__new__'
p52
S'<built-in method __new__ of type object>'
p53
ssS'evalue'
p54
S"unsupported operand type(s) for +: 'NoneType' and 'str'"
p55
sS'request'
p56
ccopy_reg
_reconstructor
p57
(cgluon.html
BEAUTIFY
p58
c__builtin__
object
p59
NtRp60
(dp61
S'attributes'
p62
(dp63
sS'components'
p64
(lp65
g57
(cgluon.html
TABLE
p66
g59
NtRp67
(dp68
g62
(dp69
S'level'
p70
I5
ssS'parent'
p71
Nsg64
(lp72
g57
(cgluon.html
TR
p73
g59
NtRp74
(dp75
g62
(dp76
sg71
g67
sg64
(lp77
g57
(cgluon.html
TD
p78
g59
NtRp79
(dp80
g62
(dp81
S'_style'
p82
S'font-weight:bold;vertical-align:top'
p83
ssg71
g74
sg64
(lp84
S'ajax'
p85
asbag57
(g78
g59
NtRp86
(dp87
g62
(dp88
S'_valign'
p89
S'top'
p90
ssg71
g74
sg64
(lp91
S':'
asbag57
(g78
g59
NtRp92
(dp93
g62
(dp94
sg71
g74
sg64
(lp95
g57
(g58
g59
NtRp96
(dp97
g62
(dp98
g70
I5
ssg71
g92
sg64
(lp99
S'False'
p100
asbasbasbag57
(g73
g59
NtRp101
(dp102
g62
(dp103
sg71
g67
sg64
(lp104
g57
(g78
g59
NtRp105
(dp106
g62
(dp107
g82
g83
ssg71
g101
sg64
(lp108
S'application'
p109
asbag57
(g78
g59
NtRp110
(dp111
g62
(dp112
g89
g90
ssg71
g101
sg64
(lp113
S':'
asbag57
(g78
g59
NtRp114
(dp115
g62
(dp116
sg71
g101
sg64
(lp117
g57
(g58
g59
NtRp118
(dp119
g62
(dp120
g70
I5
ssg71
g114
sg64
(lp121
S'astra1'
p122
asbasbasbag57
(g73
g59
NtRp123
(dp124
g62
(dp125
sg71
g67
sg64
(lp126
g57
(g78
g59
NtRp127
(dp128
g62
(dp129
g82
g83
ssg71
g123
sg64
(lp130
g42
asbag57
(g78
g59
NtRp131
(dp132
g62
(dp133
g89
g90
ssg71
g123
sg64
(lp134
S':'
asbag57
(g78
g59
NtRp135
(dp136
g62
(dp137
sg71
g123
sg64
(lp138
g57
(g58
g59
NtRp139
(dp140
g62
(dp141
g70
I5
ssg71
g135
sg64
(lp142
g57
(g66
g59
NtRp143
(dp144
g62
(dp145
g70
I4
ssg71
Nsg64
(lp146
sbasbasbasbag57
(g73
g59
NtRp147
(dp148
g62
(dp149
sg71
g67
sg64
(lp150
g57
(g78
g59
NtRp151
(dp152
g62
(dp153
g82
g83
ssg71
g147
sg64
(lp154
S'body'
p155
asbag57
(g78
g59
NtRp156
(dp157
g62
(dp158
g89
g90
ssg71
g147
sg64
(lp159
S':'
asbag57
(g78
g59
NtRp160
(dp161
g62
(dp162
sg71
g147
sg64
(lp163
g57
(g58
g59
NtRp164
(dp165
g62
(dp166
g70
I5
ssg71
g160
sg64
(lp167
S'<cStringIO.StringO object at 0xa10a060>'
p168
asbasbasbag57
(g73
g59
NtRp169
(dp170
g62
(dp171
sg71
g67
sg64
(lp172
g57
(g78
g59
NtRp173
(dp174
g62
(dp175
g82
g83
ssg71
g169
sg64
(lp176
S'client'
p177
asbag57
(g78
g59
NtRp178
(dp179
g62
(dp180
g89
g90
ssg71
g169
sg64
(lp181
S':'
asbag57
(g78
g59
NtRp182
(dp183
g62
(dp184
sg71
g169
sg64
(lp185
g57
(g58
g59
NtRp186
(dp187
g62
(dp188
g70
I5
ssg71
g182
sg64
(lp189
S'127.0.0.1'
p190
asbasbasbag57
(g73
g59
NtRp191
(dp192
g62
(dp193
sg71
g67
sg64
(lp194
g57
(g78
g59
NtRp195
(dp196
g62
(dp197
g82
g83
ssg71
g191
sg64
(lp198
S'controller'
p199
asbag57
(g78
g59
NtRp200
(dp201
g62
(dp202
g89
g90
ssg71
g191
sg64
(lp203
S':'
asbag57
(g78
g59
NtRp204
(dp205
g62
(dp206
sg71
g191
sg64
(lp207
g57
(g58
g59
NtRp208
(dp209
g62
(dp210
g70
I5
ssg71
g204
sg64
(lp211
S'default'
p212
asbasbasbag57
(g73
g59
NtRp213
(dp214
g62
(dp215
sg71
g67
sg64
(lp216
g57
(g78
g59
NtRp217
(dp218
g62
(dp219
g82
g83
ssg71
g213
sg64
(lp220
S'cookies'
p221
asbag57
(g78
g59
NtRp222
(dp223
g62
(dp224
g89
g90
ssg71
g213
sg64
(lp225
S':'
asbag57
(g78
g59
NtRp226
(dp227
g62
(dp228
sg71
g213
sg64
(lp229
g57
(g58
g59
NtRp230
(dp231
g62
(dp232
g70
I5
ssg71
g226
sg64
(lp233
g57
(g66
g59
NtRp234
(dp235
g62
(dp236
g70
I4
ssg71
Nsg64
(lp237
g57
(g73
g59
NtRp238
(dp239
g62
(dp240
sg71
g234
sg64
(lp241
g57
(g78
g59
NtRp242
(dp243
g62
(dp244
g82
g83
ssg71
g238
sg64
(lp245
S'session_id_admin'
p246
asbag57
(g78
g59
NtRp247
(dp248
g62
(dp249
g89
g90
ssg71
g238
sg64
(lp250
S':'
asbag57
(g78
g59
NtRp251
(dp252
g62
(dp253
sg71
g238
sg64
(lp254
g57
(g58
g59
NtRp255
(dp256
g62
(dp257
g70
I4
ssg71
g251
sg64
(lp258
g57
(g66
g59
NtRp259
(dp260
g62
(dp261
g70
I3
ssg71
Nsg64
(lp262
g57
(g73
g59
NtRp263
(dp264
g62
(dp265
sg71
g259
sg64
(lp266
g57
(g78
g59
NtRp267
(dp268
g62
(dp269
g82
g83
ssg71
g263
sg64
(lp270
S'comment'
p271
asbag57
(g78
g59
NtRp272
(dp273
g62
(dp274
g89
g90
ssg71
g263
sg64
(lp275
S':'
asbag57
(g78
g59
NtRp276
(dp277
g62
(dp278
sg71
g263
sg64
(lp279
g57
(g58
g59
NtRp280
(dp281
g62
(dp282
g70
I3
ssg71
g276
sg64
(lp283
S''
asbasbasbag57
(g73
g59
NtRp284
(dp285
g62
(dp286
sg71
g259
sg64
(lp287
g57
(g78
g59
NtRp288
(dp289
g62
(dp290
g82
g83
ssg71
g284
sg64
(lp291
S'domain'
p292
asbag57
(g78
g59
NtRp293
(dp294
g62
(dp295
g89
g90
ssg71
g284
sg64
(lp296
S':'
asbag57
(g78
g59
NtRp297
(dp298
g62
(dp299
sg71
g284
sg64
(lp300
g57
(g58
g59
NtRp301
(dp302
g62
(dp303
g70
I3
ssg71
g297
sg64
(lp304
S''
asbasbasbag57
(g73
g59
NtRp305
(dp306
g62
(dp307
sg71
g259
sg64
(lp308
g57
(g78
g59
NtRp309
(dp310
g62
(dp311
g82
g83
ssg71
g305
sg64
(lp312
S'expires'
p313
asbag57
(g78
g59
NtRp314
(dp315
g62
(dp316
g89
g90
ssg71
g305
sg64
(lp317
S':'
asbag57
(g78
g59
NtRp318
(dp319
g62
(dp320
sg71
g305
sg64
(lp321
g57
(g58
g59
NtRp322
(dp323
g62
(dp324
g70
I3
ssg71
g318
sg64
(lp325
S''
asbasbasbag57
(g73
g59
NtRp326
(dp327
g62
(dp328
sg71
g259
sg64
(lp329
g57
(g78
g59
NtRp330
(dp331
g62
(dp332
g82
g83
ssg71
g326
sg64
(lp333
S'httponly'
p334
asbag57
(g78
g59
NtRp335
(dp336
g62
(dp337
g89
g90
ssg71
g326
sg64
(lp338
S':'
asbag57
(g78
g59
NtRp339
(dp340
g62
(dp341
sg71
g326
sg64
(lp342
g57
(g58
g59
NtRp343
(dp344
g62
(dp345
g70
I3
ssg71
g339
sg64
(lp346
S''
asbasbasbag57
(g73
g59
NtRp347
(dp348
g62
(dp349
sg71
g259
sg64
(lp350
g57
(g78
g59
NtRp351
(dp352
g62
(dp353
g82
g83
ssg71
g347
sg64
(lp354
S'max-age'
p355
asbag57
(g78
g59
NtRp356
(dp357
g62
(dp358
g89
g90
ssg71
g347
sg64
(lp359
S':'
asbag57
(g78
g59
NtRp360
(dp361
g62
(dp362
sg71
g347
sg64
(lp363
g57
(g58
g59
NtRp364
(dp365
g62
(dp366
g70
I3
ssg71
g360
sg64
(lp367
S''
asbasbasbag57
(g73
g59
NtRp368
(dp369
g62
(dp370
sg71
g259
sg64
(lp371
g57
(g78
g59
NtRp372
(dp373
g62
(dp374
g82
g83
ssg71
g368
sg64
(lp375
S'path'
p376
asbag57
(g78
g59
NtRp377
(dp378
g62
(dp379
g89
g90
ssg71
g368
sg64
(lp380
S':'
asbag57
(g78
g59
NtRp381
(dp382
g62
(dp383
sg71
g368
sg64
(lp384
g57
(g58
g59
NtRp385
(dp386
g62
(dp387
g70
I3
ssg71
g381
sg64
(lp388
S''
asbasbasbag57
(g73
g59
NtRp389
(dp390
g62
(dp391
sg71
g259
sg64
(lp392
g57
(g78
g59
NtRp393
(dp394
g62
(dp395
g82
g83
ssg71
g389
sg64
(lp396
S'secure'
p397
asbag57
(g78
g59
NtRp398
(dp399
g62
(dp400
g89
g90
ssg71
g389
sg64
(lp401
S':'
asbag57
(g78
g59
NtRp402
(dp403
g62
(dp404
sg71
g389
sg64
(lp405
g57
(g58
g59
NtRp406
(dp407
g62
(dp408
g70
I3
ssg71
g402
sg64
(lp409
S''
asbasbasbag57
(g73
g59
NtRp410
(dp411
g62
(dp412
sg71
g259
sg64
(lp413
g57
(g78
g59
NtRp414
(dp415
g62
(dp416
g82
g83
ssg71
g410
sg64
(lp417
S'version'
p418
asbag57
(g78
g59
NtRp419
(dp420
g62
(dp421
g89
g90
ssg71
g410
sg64
(lp422
S':'
asbag57
(g78
g59
NtRp423
(dp424
g62
(dp425
sg71
g410
sg64
(lp426
g57
(g58
g59
NtRp427
(dp428
g62
(dp429
g70
I3
ssg71
g423
sg64
(lp430
S''
asbasbasbasbasbasbasbag57
(g73
g59
NtRp431
(dp432
g62
(dp433
sg71
g234
sg64
(lp434
g57
(g78
g59
NtRp435
(dp436
g62
(dp437
g82
g83
ssg71
g431
sg64
(lp438
S'session_id_astra1'
p439
asbag57
(g78
g59
NtRp440
(dp441
g62
(dp442
g89
g90
ssg71
g431
sg64
(lp443
S':'
asbag57
(g78
g59
NtRp444
(dp445
g62
(dp446
sg71
g431
sg64
(lp447
g57
(g58
g59
NtRp448
(dp449
g62
(dp450
g70
I4
ssg71
g444
sg64
(lp451
g57
(g66
g59
NtRp452
(dp453
g62
(dp454
g70
I3
ssg71
Nsg64
(lp455
g57
(g73
g59
NtRp456
(dp457
g62
(dp458
sg71
g452
sg64
(lp459
g57
(g78
g59
NtRp460
(dp461
g62
(dp462
g82
g83
ssg71
g456
sg64
(lp463
g271
asbag57
(g78
g59
NtRp464
(dp465
g62
(dp466
g89
g90
ssg71
g456
sg64
(lp467
S':'
asbag57
(g78
g59
NtRp468
(dp469
g62
(dp470
sg71
g456
sg64
(lp471
g57
(g58
g59
NtRp472
(dp473
g62
(dp474
g70
I3
ssg71
g468
sg64
(lp475
S''
asbasbasbag57
(g73
g59
NtRp476
(dp477
g62
(dp478
sg71
g452
sg64
(lp479
g57
(g78
g59
NtRp480
(dp481
g62
(dp482
g82
g83
ssg71
g476
sg64
(lp483
g292
asbag57
(g78
g59
NtRp484
(dp485
g62
(dp486
g89
g90
ssg71
g476
sg64
(lp487
S':'
asbag57
(g78
g59
NtRp488
(dp489
g62
(dp490
sg71
g476
sg64
(lp491
g57
(g58
g59
NtRp492
(dp493
g62
(dp494
g70
I3
ssg71
g488
sg64
(lp495
S''
asbasbasbag57
(g73
g59
NtRp496
(dp497
g62
(dp498
sg71
g452
sg64
(lp499
g57
(g78
g59
NtRp500
(dp501
g62
(dp502
g82
g83
ssg71
g496
sg64
(lp503
g313
asbag57
(g78
g59
NtRp504
(dp505
g62
(dp506
g89
g90
ssg71
g496
sg64
(lp507
S':'
asbag57
(g78
g59
NtRp508
(dp509
g62
(dp510
sg71
g496
sg64
(lp511
g57
(g58
g59
NtRp512
(dp513
g62
(dp514
g70
I3
ssg71
g508
sg64
(lp515
S''
asbasbasbag57
(g73
g59
NtRp516
(dp517
g62
(dp518
sg71
g452
sg64
(lp519
g57
(g78
g59
NtRp520
(dp521
g62
(dp522
g82
g83
ssg71
g516
sg64
(lp523
g334
asbag57
(g78
g59
NtRp524
(dp525
g62
(dp526
g89
g90
ssg71
g516
sg64
(lp527
S':'
asbag57
(g78
g59
NtRp528
(dp529
g62
(dp530
sg71
g516
sg64
(lp531
g57
(g58
g59
NtRp532
(dp533
g62
(dp534
g70
I3
ssg71
g528
sg64
(lp535
S''
asbasbasbag57
(g73
g59
NtRp536
(dp537
g62
(dp538
sg71
g452
sg64
(lp539
g57
(g78
g59
NtRp540
(dp541
g62
(dp542
g82
g83
ssg71
g536
sg64
(lp543
g355
asbag57
(g78
g59
NtRp544
(dp545
g62
(dp546
g89
g90
ssg71
g536
sg64
(lp547
S':'
asbag57
(g78
g59
NtRp548
(dp549
g62
(dp550
sg71
g536
sg64
(lp551
g57
(g58
g59
NtRp552
(dp553
g62
(dp554
g70
I3
ssg71
g548
sg64
(lp555
S''
asbasbasbag57
(g73
g59
NtRp556
(dp557
g62
(dp558
sg71
g452
sg64
(lp559
g57
(g78
g59
NtRp560
(dp561
g62
(dp562
g82
g83
ssg71
g556
sg64
(lp563
g376
asbag57
(g78
g59
NtRp564
(dp565
g62
(dp566
g89
g90
ssg71
g556
sg64
(lp567
S':'
asbag57
(g78
g59
NtRp568
(dp569
g62
(dp570
sg71
g556
sg64
(lp571
g57
(g58
g59
NtRp572
(dp573
g62
(dp574
g70
I3
ssg71
g568
sg64
(lp575
S''
asbasbasbag57
(g73
g59
NtRp576
(dp577
g62
(dp578
sg71
g452
sg64
(lp579
g57
(g78
g59
NtRp580
(dp581
g62
(dp582
g82
g83
ssg71
g576
sg64
(lp583
g397
asbag57
(g78
g59
NtRp584
(dp585
g62
(dp586
g89
g90
ssg71
g576
sg64
(lp587
S':'
asbag57
(g78
g59
NtRp588
(dp589
g62
(dp590
sg71
g576
sg64
(lp591
g57
(g58
g59
NtRp592
(dp593
g62
(dp594
g70
I3
ssg71
g588
sg64
(lp595
S''
asbasbasbag57
(g73
g59
NtRp596
(dp597
g62
(dp598
sg71
g452
sg64
(lp599
g57
(g78
g59
NtRp600
(dp601
g62
(dp602
g82
g83
ssg71
g596
sg64
(lp603
g418
asbag57
(g78
g59
NtRp604
(dp605
g62
(dp606
g89
g90
ssg71
g596
sg64
(lp607
S':'
asbag57
(g78
g59
NtRp608
(dp609
g62
(dp610
sg71
g596
sg64
(lp611
g57
(g58
g59
NtRp612
(dp613
g62
(dp614
g70
I3
ssg71
g608
sg64
(lp615
S''
asbasbasbasbasbasbasbag57
(g73
g59
NtRp616
(dp617
g62
(dp618
sg71
g234
sg64
(lp619
g57
(g78
g59
NtRp620
(dp621
g62
(dp622
g82
g83
ssg71
g616
sg64
(lp623
S'session_id_music'
p624
asbag57
(g78
g59
NtRp625
(dp626
g62
(dp627
g89
g90
ssg71
g616
sg64
(lp628
S':'
asbag57
(g78
g59
NtRp629
(dp630
g62
(dp631
sg71
g616
sg64
(lp632
g57
(g58
g59
NtRp633
(dp634
g62
(dp635
g70
I4
ssg71
g629
sg64
(lp636
g57
(g66
g59
NtRp637
(dp638
g62
(dp639
g70
I3
ssg71
Nsg64
(lp640
g57
(g73
g59
NtRp641
(dp642
g62
(dp643
sg71
g637
sg64
(lp644
g57
(g78
g59
NtRp645
(dp646
g62
(dp647
g82
g83
ssg71
g641
sg64
(lp648
g271
asbag57
(g78
g59
NtRp649
(dp650
g62
(dp651
g89
g90
ssg71
g641
sg64
(lp652
S':'
asbag57
(g78
g59
NtRp653
(dp654
g62
(dp655
sg71
g641
sg64
(lp656
g57
(g58
g59
NtRp657
(dp658
g62
(dp659
g70
I3
ssg71
g653
sg64
(lp660
S''
asbasbasbag57
(g73
g59
NtRp661
(dp662
g62
(dp663
sg71
g637
sg64
(lp664
g57
(g78
g59
NtRp665
(dp666
g62
(dp667
g82
g83
ssg71
g661
sg64
(lp668
g292
asbag57
(g78
g59
NtRp669
(dp670
g62
(dp671
g89
g90
ssg71
g661
sg64
(lp672
S':'
asbag57
(g78
g59
NtRp673
(dp674
g62
(dp675
sg71
g661
sg64
(lp676
g57
(g58
g59
NtRp677
(dp678
g62
(dp679
g70
I3
ssg71
g673
sg64
(lp680
S''
asbasbasbag57
(g73
g59
NtRp681
(dp682
g62
(dp683
sg71
g637
sg64
(lp684
g57
(g78
g59
NtRp685
(dp686
g62
(dp687
g82
g83
ssg71
g681
sg64
(lp688
g313
asbag57
(g78
g59
NtRp689
(dp690
g62
(dp691
g89
g90
ssg71
g681
sg64
(lp692
S':'
asbag57
(g78
g59
NtRp693
(dp694
g62
(dp695
sg71
g681
sg64
(lp696
g57
(g58
g59
NtRp697
(dp698
g62
(dp699
g70
I3
ssg71
g693
sg64
(lp700
S''
asbasbasbag57
(g73
g59
NtRp701
(dp702
g62
(dp703
sg71
g637
sg64
(lp704
g57
(g78
g59
NtRp705
(dp706
g62
(dp707
g82
g83
ssg71
g701
sg64
(lp708
g334
asbag57
(g78
g59
NtRp709
(dp710
g62
(dp711
g89
g90
ssg71
g701
sg64
(lp712
S':'
asbag57
(g78
g59
NtRp713
(dp714
g62
(dp715
sg71
g701
sg64
(lp716
g57
(g58
g59
NtRp717
(dp718
g62
(dp719
g70
I3
ssg71
g713
sg64
(lp720
S''
asbasbasbag57
(g73
g59
NtRp721
(dp722
g62
(dp723
sg71
g637
sg64
(lp724
g57
(g78
g59
NtRp725
(dp726
g62
(dp727
g82
g83
ssg71
g721
sg64
(lp728
g355
asbag57
(g78
g59
NtRp729
(dp730
g62
(dp731
g89
g90
ssg71
g721
sg64
(lp732
S':'
asbag57
(g78
g59
NtRp733
(dp734
g62
(dp735
sg71
g721
sg64
(lp736
g57
(g58
g59
NtRp737
(dp738
g62
(dp739
g70
I3
ssg71
g733
sg64
(lp740
S''
asbasbasbag57
(g73
g59
NtRp741
(dp742
g62
(dp743
sg71
g637
sg64
(lp744
g57
(g78
g59
NtRp745
(dp746
g62
(dp747
g82
g83
ssg71
g741
sg64
(lp748
g376
asbag57
(g78
g59
NtRp749
(dp750
g62
(dp751
g89
g90
ssg71
g741
sg64
(lp752
S':'
asbag57
(g78
g59
NtRp753
(dp754
g62
(dp755
sg71
g741
sg64
(lp756
g57
(g58
g59
NtRp757
(dp758
g62
(dp759
g70
I3
ssg71
g753
sg64
(lp760
S''
asbasbasbag57
(g73
g59
NtRp761
(dp762
g62
(dp763
sg71
g637
sg64
(lp764
g57
(g78
g59
NtRp765
(dp766
g62
(dp767
g82
g83
ssg71
g761
sg64
(lp768
g397
asbag57
(g78
g59
NtRp769
(dp770
g62
(dp771
g89
g90
ssg71
g761
sg64
(lp772
S':'
asbag57
(g78
g59
NtRp773
(dp774
g62
(dp775
sg71
g761
sg64
(lp776
g57
(g58
g59
NtRp777
(dp778
g62
(dp779
g70
I3
ssg71
g773
sg64
(lp780
S''
asbasbasbag57
(g73
g59
NtRp781
(dp782
g62
(dp783
sg71
g637
sg64
(lp784
g57
(g78
g59
NtRp785
(dp786
g62
(dp787
g82
g83
ssg71
g781
sg64
(lp788
g418
asbag57
(g78
g59
NtRp789
(dp790
g62
(dp791
g89
g90
ssg71
g781
sg64
(lp792
S':'
asbag57
(g78
g59
NtRp793
(dp794
g62
(dp795
sg71
g781
sg64
(lp796
g57
(g58
g59
NtRp797
(dp798
g62
(dp799
g70
I3
ssg71
g793
sg64
(lp800
S''
asbasbasbasbasbasbasbag57
(g73
g59
NtRp801
(dp802
g62
(dp803
sg71
g234
sg64
(lp804
g57
(g78
g59
NtRp805
(dp806
g62
(dp807
g82
g83
ssg71
g801
sg64
(lp808
S'session_id_music_library'
p809
asbag57
(g78
g59
NtRp810
(dp811
g62
(dp812
g89
g90
ssg71
g801
sg64
(lp813
S':'
asbag57
(g78
g59
NtRp814
(dp815
g62
(dp816
sg71
g801
sg64
(lp817
g57
(g58
g59
NtRp818
(dp819
g62
(dp820
g70
I4
ssg71
g814
sg64
(lp821
g57
(g66
g59
NtRp822
(dp823
g62
(dp824
g70
I3
ssg71
Nsg64
(lp825
g57
(g73
g59
NtRp826
(dp827
g62
(dp828
sg71
g822
sg64
(lp829
g57
(g78
g59
NtRp830
(dp831
g62
(dp832
g82
g83
ssg71
g826
sg64
(lp833
g271
asbag57
(g78
g59
NtRp834
(dp835
g62
(dp836
g89
g90
ssg71
g826
sg64
(lp837
S':'
asbag57
(g78
g59
NtRp838
(dp839
g62
(dp840
sg71
g826
sg64
(lp841
g57
(g58
g59
NtRp842
(dp843
g62
(dp844
g70
I3
ssg71
g838
sg64
(lp845
S''
asbasbasbag57
(g73
g59
NtRp846
(dp847
g62
(dp848
sg71
g822
sg64
(lp849
g57
(g78
g59
NtRp850
(dp851
g62
(dp852
g82
g83
ssg71
g846
sg64
(lp853
g292
asbag57
(g78
g59
NtRp854
(dp855
g62
(dp856
g89
g90
ssg71
g846
sg64
(lp857
S':'
asbag57
(g78
g59
NtRp858
(dp859
g62
(dp860
sg71
g846
sg64
(lp861
g57
(g58
g59
NtRp862
(dp863
g62
(dp864
g70
I3
ssg71
g858
sg64
(lp865
S''
asbasbasbag57
(g73
g59
NtRp866
(dp867
g62
(dp868
sg71
g822
sg64
(lp869
g57
(g78
g59
NtRp870
(dp871
g62
(dp872
g82
g83
ssg71
g866
sg64
(lp873
g313
asbag57
(g78
g59
NtRp874
(dp875
g62
(dp876
g89
g90
ssg71
g866
sg64
(lp877
S':'
asbag57
(g78
g59
NtRp878
(dp879
g62
(dp880
sg71
g866
sg64
(lp881
g57
(g58
g59
NtRp882
(dp883
g62
(dp884
g70
I3
ssg71
g878
sg64
(lp885
S''
asbasbasbag57
(g73
g59
NtRp886
(dp887
g62
(dp888
sg71
g822
sg64
(lp889
g57
(g78
g59
NtRp890
(dp891
g62
(dp892
g82
g83
ssg71
g886
sg64
(lp893
g334
asbag57
(g78
g59
NtRp894
(dp895
g62
(dp896
g89
g90
ssg71
g886
sg64
(lp897
S':'
asbag57
(g78
g59
NtRp898
(dp899
g62
(dp900
sg71
g886
sg64
(lp901
g57
(g58
g59
NtRp902
(dp903
g62
(dp904
g70
I3
ssg71
g898
sg64
(lp905
S''
asbasbasbag57
(g73
g59
NtRp906
(dp907
g62
(dp908
sg71
g822
sg64
(lp909
g57
(g78
g59
NtRp910
(dp911
g62
(dp912
g82
g83
ssg71
g906
sg64
(lp913
g355
asbag57
(g78
g59
NtRp914
(dp915
g62
(dp916
g89
g90
ssg71
g906
sg64
(lp917
S':'
asbag57
(g78
g59
NtRp918
(dp919
g62
(dp920
sg71
g906
sg64
(lp921
g57
(g58
g59
NtRp922
(dp923
g62
(dp924
g70
I3
ssg71
g918
sg64
(lp925
S''
asbasbasbag57
(g73
g59
NtRp926
(dp927
g62
(dp928
sg71
g822
sg64
(lp929
g57
(g78
g59
NtRp930
(dp931
g62
(dp932
g82
g83
ssg71
g926
sg64
(lp933
g376
asbag57
(g78
g59
NtRp934
(dp935
g62
(dp936
g89
g90
ssg71
g926
sg64
(lp937
S':'
asbag57
(g78
g59
NtRp938
(dp939
g62
(dp940
sg71
g926
sg64
(lp941
g57
(g58
g59
NtRp942
(dp943
g62
(dp944
g70
I3
ssg71
g938
sg64
(lp945
S''
asbasbasbag57
(g73
g59
NtRp946
(dp947
g62
(dp948
sg71
g822
sg64
(lp949
g57
(g78
g59
NtRp950
(dp951
g62
(dp952
g82
g83
ssg71
g946
sg64
(lp953
g397
asbag57
(g78
g59
NtRp954
(dp955
g62
(dp956
g89
g90
ssg71
g946
sg64
(lp957
S':'
asbag57
(g78
g59
NtRp958
(dp959
g62
(dp960
sg71
g946
sg64
(lp961
g57
(g58
g59
NtRp962
(dp963
g62
(dp964
g70
I3
ssg71
g958
sg64
(lp965
S''
asbasbasbag57
(g73
g59
NtRp966
(dp967
g62
(dp968
sg71
g822
sg64
(lp969
g57
(g78
g59
NtRp970
(dp971
g62
(dp972
g82
g83
ssg71
g966
sg64
(lp973
g418
asbag57
(g78
g59
NtRp974
(dp975
g62
(dp976
g89
g90
ssg71
g966
sg64
(lp977
S':'
asbag57
(g78
g59
NtRp978
(dp979
g62
(dp980
sg71
g966
sg64
(lp981
g57
(g58
g59
NtRp982
(dp983
g62
(dp984
g70
I3
ssg71
g978
sg64
(lp985
S''
asbasbasbasbasbasbasbag57
(g73
g59
NtRp986
(dp987
g62
(dp988
sg71
g234
sg64
(lp989
g57
(g78
g59
NtRp990
(dp991
g62
(dp992
g82
g83
ssg71
g986
sg64
(lp993
S'session_id_photouploader'
p994
asbag57
(g78
g59
NtRp995
(dp996
g62
(dp997
g89
g90
ssg71
g986
sg64
(lp998
S':'
asbag57
(g78
g59
NtRp999
(dp1000
g62
(dp1001
sg71
g986
sg64
(lp1002
g57
(g58
g59
NtRp1003
(dp1004
g62
(dp1005
g70
I4
ssg71
g999
sg64
(lp1006
g57
(g66
g59
NtRp1007
(dp1008
g62
(dp1009
g70
I3
ssg71
Nsg64
(lp1010
g57
(g73
g59
NtRp1011
(dp1012
g62
(dp1013
sg71
g1007
sg64
(lp1014
g57
(g78
g59
NtRp1015
(dp1016
g62
(dp1017
g82
g83
ssg71
g1011
sg64
(lp1018
g271
asbag57
(g78
g59
NtRp1019
(dp1020
g62
(dp1021
g89
g90
ssg71
g1011
sg64
(lp1022
S':'
asbag57
(g78
g59
NtRp1023
(dp1024
g62
(dp1025
sg71
g1011
sg64
(lp1026
g57
(g58
g59
NtRp1027
(dp1028
g62
(dp1029
g70
I3
ssg71
g1023
sg64
(lp1030
S''
asbasbasbag57
(g73
g59
NtRp1031
(dp1032
g62
(dp1033
sg71
g1007
sg64
(lp1034
g57
(g78
g59
NtRp1035
(dp1036
g62
(dp1037
g82
g83
ssg71
g1031
sg64
(lp1038
g292
asbag57
(g78
g59
NtRp1039
(dp1040
g62
(dp1041
g89
g90
ssg71
g1031
sg64
(lp1042
S':'
asbag57
(g78
g59
NtRp1043
(dp1044
g62
(dp1045
sg71
g1031
sg64
(lp1046
g57
(g58
g59
NtRp1047
(dp1048
g62
(dp1049
g70
I3
ssg71
g1043
sg64
(lp1050
S''
asbasbasbag57
(g73
g59
NtRp1051
(dp1052
g62
(dp1053
sg71
g1007
sg64
(lp1054
g57
(g78
g59
NtRp1055
(dp1056
g62
(dp1057
g82
g83
ssg71
g1051
sg64
(lp1058
g313
asbag57
(g78
g59
NtRp1059
(dp1060
g62
(dp1061
g89
g90
ssg71
g1051
sg64
(lp1062
S':'
asbag57
(g78
g59
NtRp1063
(dp1064
g62
(dp1065
sg71
g1051
sg64
(lp1066
g57
(g58
g59
NtRp1067
(dp1068
g62
(dp1069
g70
I3
ssg71
g1063
sg64
(lp1070
S''
asbasbasbag57
(g73
g59
NtRp1071
(dp1072
g62
(dp1073
sg71
g1007
sg64
(lp1074
g57
(g78
g59
NtRp1075
(dp1076
g62
(dp1077
g82
g83
ssg71
g1071
sg64
(lp1078
g334
asbag57
(g78
g59
NtRp1079
(dp1080
g62
(dp1081
g89
g90
ssg71
g1071
sg64
(lp1082
S':'
asbag57
(g78
g59
NtRp1083
(dp1084
g62
(dp1085
sg71
g1071
sg64
(lp1086
g57
(g58
g59
NtRp1087
(dp1088
g62
(dp1089
g70
I3
ssg71
g1083
sg64
(lp1090
S''
asbasbasbag57
(g73
g59
NtRp1091
(dp1092
g62
(dp1093
sg71
g1007
sg64
(lp1094
g57
(g78
g59
NtRp1095
(dp1096
g62
(dp1097
g82
g83
ssg71
g1091
sg64
(lp1098
g355
asbag57
(g78
g59
NtRp1099
(dp1100
g62
(dp1101
g89
g90
ssg71
g1091
sg64
(lp1102
S':'
asbag57
(g78
g59
NtRp1103
(dp1104
g62
(dp1105
sg71
g1091
sg64
(lp1106
g57
(g58
g59
NtRp1107
(dp1108
g62
(dp1109
g70
I3
ssg71
g1103
sg64
(lp1110
S''
asbasbasbag57
(g73
g59
NtRp1111
(dp1112
g62
(dp1113
sg71
g1007
sg64
(lp1114
g57
(g78
g59
NtRp1115
(dp1116
g62
(dp1117
g82
g83
ssg71
g1111
sg64
(lp1118
g376
asbag57
(g78
g59
NtRp1119
(dp1120
g62
(dp1121
g89
g90
ssg71
g1111
sg64
(lp1122
S':'
asbag57
(g78
g59
NtRp1123
(dp1124
g62
(dp1125
sg71
g1111
sg64
(lp1126
g57
(g58
g59
NtRp1127
(dp1128
g62
(dp1129
g70
I3
ssg71
g1123
sg64
(lp1130
S''
asbasbasbag57
(g73
g59
NtRp1131
(dp1132
g62
(dp1133
sg71
g1007
sg64
(lp1134
g57
(g78
g59
NtRp1135
(dp1136
g62
(dp1137
g82
g83
ssg71
g1131
sg64
(lp1138
g397
asbag57
(g78
g59
NtRp1139
(dp1140
g62
(dp1141
g89
g90
ssg71
g1131
sg64
(lp1142
S':'
asbag57
(g78
g59
NtRp1143
(dp1144
g62
(dp1145
sg71
g1131
sg64
(lp1146
g57
(g58
g59
NtRp1147
(dp1148
g62
(dp1149
g70
I3
ssg71
g1143
sg64
(lp1150
S''
asbasbasbag57
(g73
g59
NtRp1151
(dp1152
g62
(dp1153
sg71
g1007
sg64
(lp1154
g57
(g78
g59
NtRp1155
(dp1156
g62
(dp1157
g82
g83
ssg71
g1151
sg64
(lp1158
g418
asbag57
(g78
g59
NtRp1159
(dp1160
g62
(dp1161
g89
g90
ssg71
g1151
sg64
(lp1162
S':'
asbag57
(g78
g59
NtRp1163
(dp1164
g62
(dp1165
sg71
g1151
sg64
(lp1166
g57
(g58
g59
NtRp1167
(dp1168
g62
(dp1169
g70
I3
ssg71
g1163
sg64
(lp1170
S''
asbasbasbasbasbasbasbag57
(g73
g59
NtRp1171
(dp1172
g62
(dp1173
sg71
g234
sg64
(lp1174
g57
(g78
g59
NtRp1175
(dp1176
g62
(dp1177
g82
g83
ssg71
g1171
sg64
(lp1178
S'session_id_sudoku'
p1179
asbag57
(g78
g59
NtRp1180
(dp1181
g62
(dp1182
g89
g90
ssg71
g1171
sg64
(lp1183
S':'
asbag57
(g78
g59
NtRp1184
(dp1185
g62
(dp1186
sg71
g1171
sg64
(lp1187
g57
(g58
g59
NtRp1188
(dp1189
g62
(dp1190
g70
I4
ssg71
g1184
sg64
(lp1191
g57
(g66
g59
NtRp1192
(dp1193
g62
(dp1194
g70
I3
ssg71
Nsg64
(lp1195
g57
(g73
g59
NtRp1196
(dp1197
g62
(dp1198
sg71
g1192
sg64
(lp1199
g57
(g78
g59
NtRp1200
(dp1201
g62
(dp1202
g82
g83
ssg71
g1196
sg64
(lp1203
g271
asbag57
(g78
g59
NtRp1204
(dp1205
g62
(dp1206
g89
g90
ssg71
g1196
sg64
(lp1207
S':'
asbag57
(g78
g59
NtRp1208
(dp1209
g62
(dp1210
sg71
g1196
sg64
(lp1211
g57
(g58
g59
NtRp1212
(dp1213
g62
(dp1214
g70
I3
ssg71
g1208
sg64
(lp1215
S''
asbasbasbag57
(g73
g59
NtRp1216
(dp1217
g62
(dp1218
sg71
g1192
sg64
(lp1219
g57
(g78
g59
NtRp1220
(dp1221
g62
(dp1222
g82
g83
ssg71
g1216
sg64
(lp1223
g292
asbag57
(g78
g59
NtRp1224
(dp1225
g62
(dp1226
g89
g90
ssg71
g1216
sg64
(lp1227
S':'
asbag57
(g78
g59
NtRp1228
(dp1229
g62
(dp1230
sg71
g1216
sg64
(lp1231
g57
(g58
g59
NtRp1232
(dp1233
g62
(dp1234
g70
I3
ssg71
g1228
sg64
(lp1235
S''
asbasbasbag57
(g73
g59
NtRp1236
(dp1237
g62
(dp1238
sg71
g1192
sg64
(lp1239
g57
(g78
g59
NtRp1240
(dp1241
g62
(dp1242
g82
g83
ssg71
g1236
sg64
(lp1243
g313
asbag57
(g78
g59
NtRp1244
(dp1245
g62
(dp1246
g89
g90
ssg71
g1236
sg64
(lp1247
S':'
asbag57
(g78
g59
NtRp1248
(dp1249
g62
(dp1250
sg71
g1236
sg64
(lp1251
g57
(g58
g59
NtRp1252
(dp1253
g62
(dp1254
g70
I3
ssg71
g1248
sg64
(lp1255
S''
asbasbasbag57
(g73
g59
NtRp1256
(dp1257
g62
(dp1258
sg71
g1192
sg64
(lp1259
g57
(g78
g59
NtRp1260
(dp1261
g62
(dp1262
g82
g83
ssg71
g1256
sg64
(lp1263
g334
asbag57
(g78
g59
NtRp1264
(dp1265
g62
(dp1266
g89
g90
ssg71
g1256
sg64
(lp1267
S':'
asbag57
(g78
g59
NtRp1268
(dp1269
g62
(dp1270
sg71
g1256
sg64
(lp1271
g57
(g58
g59
NtRp1272
(dp1273
g62
(dp1274
g70
I3
ssg71
g1268
sg64
(lp1275
S''
asbasbasbag57
(g73
g59
NtRp1276
(dp1277
g62
(dp1278
sg71
g1192
sg64
(lp1279
g57
(g78
g59
NtRp1280
(dp1281
g62
(dp1282
g82
g83
ssg71
g1276
sg64
(lp1283
g355
asbag57
(g78
g59
NtRp1284
(dp1285
g62
(dp1286
g89
g90
ssg71
g1276
sg64
(lp1287
S':'
asbag57
(g78
g59
NtRp1288
(dp1289
g62
(dp1290
sg71
g1276
sg64
(lp1291
g57
(g58
g59
NtRp1292
(dp1293
g62
(dp1294
g70
I3
ssg71
g1288
sg64
(lp1295
S''
asbasbasbag57
(g73
g59
NtRp1296
(dp1297
g62
(dp1298
sg71
g1192
sg64
(lp1299
g57
(g78
g59
NtRp1300
(dp1301
g62
(dp1302
g82
g83
ssg71
g1296
sg64
(lp1303
g376
asbag57
(g78
g59
NtRp1304
(dp1305
g62
(dp1306
g89
g90
ssg71
g1296
sg64
(lp1307
S':'
asbag57
(g78
g59
NtRp1308
(dp1309
g62
(dp1310
sg71
g1296
sg64
(lp1311
g57
(g58
g59
NtRp1312
(dp1313
g62
(dp1314
g70
I3
ssg71
g1308
sg64
(lp1315
S''
asbasbasbag57
(g73
g59
NtRp1316
(dp1317
g62
(dp1318
sg71
g1192
sg64
(lp1319
g57
(g78
g59
NtRp1320
(dp1321
g62
(dp1322
g82
g83
ssg71
g1316
sg64
(lp1323
g397
asbag57
(g78
g59
NtRp1324
(dp1325
g62
(dp1326
g89
g90
ssg71
g1316
sg64
(lp1327
S':'
asbag57
(g78
g59
NtRp1328
(dp1329
g62
(dp1330
sg71
g1316
sg64
(lp1331
g57
(g58
g59
NtRp1332
(dp1333
g62
(dp1334
g70
I3
ssg71
g1328
sg64
(lp1335
S''
asbasbasbag57
(g73
g59
NtRp1336
(dp1337
g62
(dp1338
sg71
g1192
sg64
(lp1339
g57
(g78
g59
NtRp1340
(dp1341
g62
(dp1342
g82
g83
ssg71
g1336
sg64
(lp1343
g418
asbag57
(g78
g59
NtRp1344
(dp1345
g62
(dp1346
g89
g90
ssg71
g1336
sg64
(lp1347
S':'
asbag57
(g78
g59
NtRp1348
(dp1349
g62
(dp1350
sg71
g1336
sg64
(lp1351
g57
(g58
g59
NtRp1352
(dp1353
g62
(dp1354
g70
I3
ssg71
g1348
sg64
(lp1355
S''
asbasbasbasbasbasbasbag57
(g73
g59
NtRp1356
(dp1357
g62
(dp1358
sg71
g234
sg64
(lp1359
g57
(g78
g59
NtRp1360
(dp1361
g62
(dp1362
g82
g83
ssg71
g1356
sg64
(lp1363
S'session_id_vish'
p1364
asbag57
(g78
g59
NtRp1365
(dp1366
g62
(dp1367
g89
g90
ssg71
g1356
sg64
(lp1368
S':'
asbag57
(g78
g59
NtRp1369
(dp1370
g62
(dp1371
sg71
g1356
sg64
(lp1372
g57
(g58
g59
NtRp1373
(dp1374
g62
(dp1375
g70
I4
ssg71
g1369
sg64
(lp1376
g57
(g66
g59
NtRp1377
(dp1378
g62
(dp1379
g70
I3
ssg71
Nsg64
(lp1380
g57
(g73
g59
NtRp1381
(dp1382
g62
(dp1383
sg71
g1377
sg64
(lp1384
g57
(g78
g59
NtRp1385
(dp1386
g62
(dp1387
g82
g83
ssg71
g1381
sg64
(lp1388
g271
asbag57
(g78
g59
NtRp1389
(dp1390
g62
(dp1391
g89
g90
ssg71
g1381
sg64
(lp1392
S':'
asbag57
(g78
g59
NtRp1393
(dp1394
g62
(dp1395
sg71
g1381
sg64
(lp1396
g57
(g58
g59
NtRp1397
(dp1398
g62
(dp1399
g70
I3
ssg71
g1393
sg64
(lp1400
S''
asbasbasbag57
(g73
g59
NtRp1401
(dp1402
g62
(dp1403
sg71
g1377
sg64
(lp1404
g57
(g78
g59
NtRp1405
(dp1406
g62
(dp1407
g82
g83
ssg71
g1401
sg64
(lp1408
g292
asbag57
(g78
g59
NtRp1409
(dp1410
g62
(dp1411
g89
g90
ssg71
g1401
sg64
(lp1412
S':'
asbag57
(g78
g59
NtRp1413
(dp1414
g62
(dp1415
sg71
g1401
sg64
(lp1416
g57
(g58
g59
NtRp1417
(dp1418
g62
(dp1419
g70
I3
ssg71
g1413
sg64
(lp1420
S''
asbasbasbag57
(g73
g59
NtRp1421
(dp1422
g62
(dp1423
sg71
g1377
sg64
(lp1424
g57
(g78
g59
NtRp1425
(dp1426
g62
(dp1427
g82
g83
ssg71
g1421
sg64
(lp1428
g313
asbag57
(g78
g59
NtRp1429
(dp1430
g62
(dp1431
g89
g90
ssg71
g1421
sg64
(lp1432
S':'
asbag57
(g78
g59
NtRp1433
(dp1434
g62
(dp1435
sg71
g1421
sg64
(lp1436
g57
(g58
g59
NtRp1437
(dp1438
g62
(dp1439
g70
I3
ssg71
g1433
sg64
(lp1440
S''
asbasbasbag57
(g73
g59
NtRp1441
(dp1442
g62
(dp1443
sg71
g1377
sg64
(lp1444
g57
(g78
g59
NtRp1445
(dp1446
g62
(dp1447
g82
g83
ssg71
g1441
sg64
(lp1448
g334
asbag57
(g78
g59
NtRp1449
(dp1450
g62
(dp1451
g89
g90
ssg71
g1441
sg64
(lp1452
S':'
asbag57
(g78
g59
NtRp1453
(dp1454
g62
(dp1455
sg71
g1441
sg64
(lp1456
g57
(g58
g59
NtRp1457
(dp1458
g62
(dp1459
g70
I3
ssg71
g1453
sg64
(lp1460
S''
asbasbasbag57
(g73
g59
NtRp1461
(dp1462
g62
(dp1463
sg71
g1377
sg64
(lp1464
g57
(g78
g59
NtRp1465
(dp1466
g62
(dp1467
g82
g83
ssg71
g1461
sg64
(lp1468
g355
asbag57
(g78
g59
NtRp1469
(dp1470
g62
(dp1471
g89
g90
ssg71
g1461
sg64
(lp1472
S':'
asbag57
(g78
g59
NtRp1473
(dp1474
g62
(dp1475
sg71
g1461
sg64
(lp1476
g57
(g58
g59
NtRp1477
(dp1478
g62
(dp1479
g70
I3
ssg71
g1473
sg64
(lp1480
S''
asbasbasbag57
(g73
g59
NtRp1481
(dp1482
g62
(dp1483
sg71
g1377
sg64
(lp1484
g57
(g78
g59
NtRp1485
(dp1486
g62
(dp1487
g82
g83
ssg71
g1481
sg64
(lp1488
g376
asbag57
(g78
g59
NtRp1489
(dp1490
g62
(dp1491
g89
g90
ssg71
g1481
sg64
(lp1492
S':'
asbag57
(g78
g59
NtRp1493
(dp1494
g62
(dp1495
sg71
g1481
sg64
(lp1496
g57
(g58
g59
NtRp1497
(dp1498
g62
(dp1499
g70
I3
ssg71
g1493
sg64
(lp1500
S''
asbasbasbag57
(g73
g59
NtRp1501
(dp1502
g62
(dp1503
sg71
g1377
sg64
(lp1504
g57
(g78
g59
NtRp1505
(dp1506
g62
(dp1507
g82
g83
ssg71
g1501
sg64
(lp1508
g397
asbag57
(g78
g59
NtRp1509
(dp1510
g62
(dp1511
g89
g90
ssg71
g1501
sg64
(lp1512
S':'
asbag57
(g78
g59
NtRp1513
(dp1514
g62
(dp1515
sg71
g1501
sg64
(lp1516
g57
(g58
g59
NtRp1517
(dp1518
g62
(dp1519
g70
I3
ssg71
g1513
sg64
(lp1520
S''
asbasbasbag57
(g73
g59
NtRp1521
(dp1522
g62
(dp1523
sg71
g1377
sg64
(lp1524
g57
(g78
g59
NtRp1525
(dp1526
g62
(dp1527
g82
g83
ssg71
g1521
sg64
(lp1528
g418
asbag57
(g78
g59
NtRp1529
(dp1530
g62
(dp1531
g89
g90
ssg71
g1521
sg64
(lp1532
S':'
asbag57
(g78
g59
NtRp1533
(dp1534
g62
(dp1535
sg71
g1521
sg64
(lp1536
g57
(g58
g59
NtRp1537
(dp1538
g62
(dp1539
g70
I3
ssg71
g1533
sg64
(lp1540
S''
asbasbasbasbasbasbasbag57
(g73
g59
NtRp1541
(dp1542
g62
(dp1543
sg71
g234
sg64
(lp1544
g57
(g78
g59
NtRp1545
(dp1546
g62
(dp1547
g82
g83
ssg71
g1541
sg64
(lp1548
S'session_id_welcome'
p1549
asbag57
(g78
g59
NtRp1550
(dp1551
g62
(dp1552
g89
g90
ssg71
g1541
sg64
(lp1553
S':'
asbag57
(g78
g59
NtRp1554
(dp1555
g62
(dp1556
sg71
g1541
sg64
(lp1557
g57
(g58
g59
NtRp1558
(dp1559
g62
(dp1560
g70
I4
ssg71
g1554
sg64
(lp1561
g57
(g66
g59
NtRp1562
(dp1563
g62
(dp1564
g70
I3
ssg71
Nsg64
(lp1565
g57
(g73
g59
NtRp1566
(dp1567
g62
(dp1568
sg71
g1562
sg64
(lp1569
g57
(g78
g59
NtRp1570
(dp1571
g62
(dp1572
g82
g83
ssg71
g1566
sg64
(lp1573
g271
asbag57
(g78
g59
NtRp1574
(dp1575
g62
(dp1576
g89
g90
ssg71
g1566
sg64
(lp1577
S':'
asbag57
(g78
g59
NtRp1578
(dp1579
g62
(dp1580
sg71
g1566
sg64
(lp1581
g57
(g58
g59
NtRp1582
(dp1583
g62
(dp1584
g70
I3
ssg71
g1578
sg64
(lp1585
S''
asbasbasbag57
(g73
g59
NtRp1586
(dp1587
g62
(dp1588
sg71
g1562
sg64
(lp1589
g57
(g78
g59
NtRp1590
(dp1591
g62
(dp1592
g82
g83
ssg71
g1586
sg64
(lp1593
g292
asbag57
(g78
g59
NtRp1594
(dp1595
g62
(dp1596
g89
g90
ssg71
g1586
sg64
(lp1597
S':'
asbag57
(g78
g59
NtRp1598
(dp1599
g62
(dp1600
sg71
g1586
sg64
(lp1601
g57
(g58
g59
NtRp1602
(dp1603
g62
(dp1604
g70
I3
ssg71
g1598
sg64
(lp1605
S''
asbasbasbag57
(g73
g59
NtRp1606
(dp1607
g62
(dp1608
sg71
g1562
sg64
(lp1609
g57
(g78
g59
NtRp1610
(dp1611
g62
(dp1612
g82
g83
ssg71
g1606
sg64
(lp1613
g313
asbag57
(g78
g59
NtRp1614
(dp1615
g62
(dp1616
g89
g90
ssg71
g1606
sg64
(lp1617
S':'
asbag57
(g78
g59
NtRp1618
(dp1619
g62
(dp1620
sg71
g1606
sg64
(lp1621
g57
(g58
g59
NtRp1622
(dp1623
g62
(dp1624
g70
I3
ssg71
g1618
sg64
(lp1625
S''
asbasbasbag57
(g73
g59
NtRp1626
(dp1627
g62
(dp1628
sg71
g1562
sg64
(lp1629
g57
(g78
g59
NtRp1630
(dp1631
g62
(dp1632
g82
g83
ssg71
g1626
sg64
(lp1633
g334
asbag57
(g78
g59
NtRp1634
(dp1635
g62
(dp1636
g89
g90
ssg71
g1626
sg64
(lp1637
S':'
asbag57
(g78
g59
NtRp1638
(dp1639
g62
(dp1640
sg71
g1626
sg64
(lp1641
g57
(g58
g59
NtRp1642
(dp1643
g62
(dp1644
g70
I3
ssg71
g1638
sg64
(lp1645
S''
asbasbasbag57
(g73
g59
NtRp1646
(dp1647
g62
(dp1648
sg71
g1562
sg64
(lp1649
g57
(g78
g59
NtRp1650
(dp1651
g62
(dp1652
g82
g83
ssg71
g1646
sg64
(lp1653
g355
asbag57
(g78
g59
NtRp1654
(dp1655
g62
(dp1656
g89
g90
ssg71
g1646
sg64
(lp1657
S':'
asbag57
(g78
g59
NtRp1658
(dp1659
g62
(dp1660
sg71
g1646
sg64
(lp1661
g57
(g58
g59
NtRp1662
(dp1663
g62
(dp1664
g70
I3
ssg71
g1658
sg64
(lp1665
S''
asbasbasbag57
(g73
g59
NtRp1666
(dp1667
g62
(dp1668
sg71
g1562
sg64
(lp1669
g57
(g78
g59
NtRp1670
(dp1671
g62
(dp1672
g82
g83
ssg71
g1666
sg64
(lp1673
g376
asbag57
(g78
g59
NtRp1674
(dp1675
g62
(dp1676
g89
g90
ssg71
g1666
sg64
(lp1677
S':'
asbag57
(g78
g59
NtRp1678
(dp1679
g62
(dp1680
sg71
g1666
sg64
(lp1681
g57
(g58
g59
NtRp1682
(dp1683
g62
(dp1684
g70
I3
ssg71
g1678
sg64
(lp1685
S''
asbasbasbag57
(g73
g59
NtRp1686
(dp1687
g62
(dp1688
sg71
g1562
sg64
(lp1689
g57
(g78
g59
NtRp1690
(dp1691
g62
(dp1692
g82
g83
ssg71
g1686
sg64
(lp1693
g397
asbag57
(g78
g59
NtRp1694
(dp1695
g62
(dp1696
g89
g90
ssg71
g1686
sg64
(lp1697
S':'
asbag57
(g78
g59
NtRp1698
(dp1699
g62
(dp1700
sg71
g1686
sg64
(lp1701
g57
(g58
g59
NtRp1702
(dp1703
g62
(dp1704
g70
I3
ssg71
g1698
sg64
(lp1705
S''
asbasbasbag57
(g73
g59
NtRp1706
(dp1707
g62
(dp1708
sg71
g1562
sg64
(lp1709
g57
(g78
g59
NtRp1710
(dp1711
g62
(dp1712
g82
g83
ssg71
g1706
sg64
(lp1713
g418
asbag57
(g78
g59
NtRp1714
(dp1715
g62
(dp1716
g89
g90
ssg71
g1706
sg64
(lp1717
S':'
asbag57
(g78
g59
NtRp1718
(dp1719
g62
(dp1720
sg71
g1706
sg64
(lp1721
g57
(g58
g59
NtRp1722
(dp1723
g62
(dp1724
g70
I3
ssg71
g1718
sg64
(lp1725
S''
asbasbasbasbasbasbasbasbasbasbasbag57
(g73
g59
NtRp1726
(dp1727
g62
(dp1728
sg71
g67
sg64
(lp1729
g57
(g78
g59
NtRp1730
(dp1731
g62
(dp1732
g82
g83
ssg71
g1726
sg64
(lp1733
S'env'
p1734
asbag57
(g78
g59
NtRp1735
(dp1736
g62
(dp1737
g89
g90
ssg71
g1726
sg64
(lp1738
S':'
asbag57
(g78
g59
NtRp1739
(dp1740
g62
(dp1741
sg71
g1726
sg64
(lp1742
g57
(g58
g59
NtRp1743
(dp1744
g62
(dp1745
g70
I5
ssg71
g1739
sg64
(lp1746
g57
(g66
g59
NtRp1747
(dp1748
g62
(dp1749
g70
I4
ssg71
Nsg64
(lp1750
g57
(g73
g59
NtRp1751
(dp1752
g62
(dp1753
sg71
g1747
sg64
(lp1754
g57
(g78
g59
NtRp1755
(dp1756
g62
(dp1757
g82
g83
ssg71
g1751
sg64
(lp1758
S'app_folders'
p1759
asbag57
(g78
g59
NtRp1760
(dp1761
g62
(dp1762
g89
g90
ssg71
g1751
sg64
(lp1763
S':'
asbag57
(g78
g59
NtRp1764
(dp1765
g62
(dp1766
sg71
g1751
sg64
(lp1767
g57
(g58
g59
NtRp1768
(dp1769
g62
(dp1770
g70
I4
ssg71
g1764
sg64
(lp1771
S"set(['/home/vishrut/web2py/applications/astra1/', '/home/vishrut/web2py/applications/admin/', '/home/vishrut/web2py/applications/PhotoUploader/', '/home/vishrut/web2py/applications/welcome/'])"
p1772
asbasbasbag57
(g73
g59
NtRp1773
(dp1774
g62
(dp1775
sg71
g1747
sg64
(lp1776
g57
(g78
g59
NtRp1777
(dp1778
g62
(dp1779
g82
g83
ssg71
g1773
sg64
(lp1780
S'applications_parent'
p1781
asbag57
(g78
g59
NtRp1782
(dp1783
g62
(dp1784
g89
g90
ssg71
g1773
sg64
(lp1785
S':'
asbag57
(g78
g59
NtRp1786
(dp1787
g62
(dp1788
sg71
g1773
sg64
(lp1789
g57
(g58
g59
NtRp1790
(dp1791
g62
(dp1792
g70
I4
ssg71
g1786
sg64
(lp1793
S'/home/vishrut/web2py'
p1794
asbasbasbag57
(g73
g59
NtRp1795
(dp1796
g62
(dp1797
sg71
g1747
sg64
(lp1798
g57
(g78
g59
NtRp1799
(dp1800
g62
(dp1801
g82
g83
ssg71
g1795
sg64
(lp1802
S'cmd_args'
p1803
asbag57
(g78
g59
NtRp1804
(dp1805
g62
(dp1806
g89
g90
ssg71
g1795
sg64
(lp1807
S':'
asbag57
(g78
g59
NtRp1808
(dp1809
g62
(dp1810
sg71
g1795
sg64
(lp1811
g57
(g58
g59
NtRp1812
(dp1813
g62
(dp1814
g70
I4
ssg71
g1808
sg64
(lp1815
g57
(g66
g59
NtRp1816
(dp1817
g62
(dp1818
g70
I3
ssg71
Nsg64
(lp1819
sbasbasbasbag57
(g73
g59
NtRp1820
(dp1821
g62
(dp1822
sg71
g1747
sg64
(lp1823
g57
(g78
g59
NtRp1824
(dp1825
g62
(dp1826
g82
g83
ssg71
g1820
sg64
(lp1827
S'cmd_options'
p1828
asbag57
(g78
g59
NtRp1829
(dp1830
g62
(dp1831
g89
g90
ssg71
g1820
sg64
(lp1832
S':'
asbag57
(g78
g59
NtRp1833
(dp1834
g62
(dp1835
sg71
g1820
sg64
(lp1836
g57
(g58
g59
NtRp1837
(dp1838
g62
(dp1839
g70
I4
ssg71
g1833
sg64
(lp1840
S"<Values at 0x9d363cc: {'verbose': False, 'ip': '127.0.0.1', 'shutdown_timeout': 5, 'taskbar': False, 'nocron': False, 'pid_filename': 'httpserver.pid', 'maxthreads': None, 'softcron': False, 'server_name': 'vishrut-Vostro-1015', 'bpython': False, 'nogui': False, 'port': 8000, 'extcron': False, 'debuglevel': 30, 'test': None, 'folder': '/home/vishrut/web2py', 'config': '', 'import_models': False, 'winservice': '', 'shell': None, 'run': '', 'log_filename': 'httpserver.log', 'args': [''], 'socket_timeout': 5, 'ssl_ca_certificate': None, 'scheduler': None, 'profiler_filename': None, 'ssl_private_key': '', 'password': '<ask>', 'request_queue_size': 5, 'ssl_certificate': '', 'cronjob': False, 'numthreads': None, 'quiet': False, 'interfaces': None, 'minthreads': None, 'timeout': 10, 'plain': False, 'nobanner': False}>"
p1841
asbasbasbag57
(g73
g59
NtRp1842
(dp1843
g62
(dp1844
sg71
g1747
sg64
(lp1845
g57
(g78
g59
NtRp1846
(dp1847
g62
(dp1848
g82
g83
ssg71
g1842
sg64
(lp1849
S'db_sessions'
p1850
asbag57
(g78
g59
NtRp1851
(dp1852
g62
(dp1853
g89
g90
ssg71
g1842
sg64
(lp1854
S':'
asbag57
(g78
g59
NtRp1855
(dp1856
g62
(dp1857
sg71
g1842
sg64
(lp1858
g57
(g58
g59
NtRp1859
(dp1860
g62
(dp1861
g70
I4
ssg71
g1855
sg64
(lp1862
S'set([])'
p1863
asbasbasbag57
(g73
g59
NtRp1864
(dp1865
g62
(dp1866
sg71
g1747
sg64
(lp1867
g57
(g78
g59
NtRp1868
(dp1869
g62
(dp1870
g82
g83
ssg71
g1864
sg64
(lp1871
S'debugging'
p1872
asbag57
(g78
g59
NtRp1873
(dp1874
g62
(dp1875
g89
g90
ssg71
g1864
sg64
(lp1876
S':'
asbag57
(g78
g59
NtRp1877
(dp1878
g62
(dp1879
sg71
g1864
sg64
(lp1880
g57
(g58
g59
NtRp1881
(dp1882
g62
(dp1883
g70
I4
ssg71
g1877
sg64
(lp1884
g100
asbasbasbag57
(g73
g59
NtRp1885
(dp1886
g62
(dp1887
sg71
g1747
sg64
(lp1888
g57
(g78
g59
NtRp1889
(dp1890
g62
(dp1891
g82
g83
ssg71
g1885
sg64
(lp1892
S'gluon_parent'
p1893
asbag57
(g78
g59
NtRp1894
(dp1895
g62
(dp1896
g89
g90
ssg71
g1885
sg64
(lp1897
S':'
asbag57
(g78
g59
NtRp1898
(dp1899
g62
(dp1900
sg71
g1885
sg64
(lp1901
g57
(g58
g59
NtRp1902
(dp1903
g62
(dp1904
g70
I4
ssg71
g1898
sg64
(lp1905
S'/home/vishrut/web2py'
p1906
asbasbasbag57
(g73
g59
NtRp1907
(dp1908
g62
(dp1909
sg71
g1747
sg64
(lp1910
g57
(g78
g59
NtRp1911
(dp1912
g62
(dp1913
g82
g83
ssg71
g1907
sg64
(lp1914
S'http_accept'
p1915
asbag57
(g78
g59
NtRp1916
(dp1917
g62
(dp1918
g89
g90
ssg71
g1907
sg64
(lp1919
S':'
asbag57
(g78
g59
NtRp1920
(dp1921
g62
(dp1922
sg71
g1907
sg64
(lp1923
g57
(g58
g59
NtRp1924
(dp1925
g62
(dp1926
g70
I4
ssg71
g1920
sg64
(lp1927
S'text/html,application/xhtml+xml,application/xml;q=0.9,*/*;q=0.8'
p1928
asbasbasbag57
(g73
g59
NtRp1929
(dp1930
g62
(dp1931
sg71
g1747
sg64
(lp1932
g57
(g78
g59
NtRp1933
(dp1934
g62
(dp1935
g82
g83
ssg71
g1929
sg64
(lp1936
S'http_accept_encoding'
p1937
asbag57
(g78
g59
NtRp1938
(dp1939
g62
(dp1940
g89
g90
ssg71
g1929
sg64
(lp1941
S':'
asbag57
(g78
g59
NtRp1942
(dp1943
g62
(dp1944
sg71
g1929
sg64
(lp1945
g57
(g58
g59
NtRp1946
(dp1947
g62
(dp1948
g70
I4
ssg71
g1942
sg64
(lp1949
S'gzip, deflate'
p1950
asbasbasbag57
(g73
g59
NtRp1951
(dp1952
g62
(dp1953
sg71
g1747
sg64
(lp1954
g57
(g78
g59
NtRp1955
(dp1956
g62
(dp1957
g82
g83
ssg71
g1951
sg64
(lp1958
S'http_accept_language'
p1959
asbag57
(g78
g59
NtRp1960
(dp1961
g62
(dp1962
g89
g90
ssg71
g1951
sg64
(lp1963
S':'
asbag57
(g78
g59
NtRp1964
(dp1965
g62
(dp1966
sg71
g1951
sg64
(lp1967
g57
(g58
g59
NtRp1968
(dp1969
g62
(dp1970
g70
I4
ssg71
g1964
sg64
(lp1971
S'en-US,en;q=0.5'
p1972
asbasbasbag57
(g73
g59
NtRp1973
(dp1974
g62
(dp1975
sg71
g1747
sg64
(lp1976
g57
(g78
g59
NtRp1977
(dp1978
g62
(dp1979
g82
g83
ssg71
g1973
sg64
(lp1980
S'http_cache_control'
p1981
asbag57
(g78
g59
NtRp1982
(dp1983
g62
(dp1984
g89
g90
ssg71
g1973
sg64
(lp1985
S':'
asbag57
(g78
g59
NtRp1986
(dp1987
g62
(dp1988
sg71
g1973
sg64
(lp1989
g57
(g58
g59
NtRp1990
(dp1991
g62
(dp1992
g70
I4
ssg71
g1986
sg64
(lp1993
S'max-age=0'
p1994
asbasbasbag57
(g73
g59
NtRp1995
(dp1996
g62
(dp1997
sg71
g1747
sg64
(lp1998
g57
(g78
g59
NtRp1999
(dp2000
g62
(dp2001
g82
g83
ssg71
g1995
sg64
(lp2002
S'http_connection'
p2003
asbag57
(g78
g59
NtRp2004
(dp2005
g62
(dp2006
g89
g90
ssg71
g1995
sg64
(lp2007
S':'
asbag57
(g78
g59
NtRp2008
(dp2009
g62
(dp2010
sg71
g1995
sg64
(lp2011
g57
(g58
g59
NtRp2012
(dp2013
g62
(dp2014
g70
I4
ssg71
g2008
sg64
(lp2015
S'keep-alive'
p2016
asbasbasbag57
(g73
g59
NtRp2017
(dp2018
g62
(dp2019
sg71
g1747
sg64
(lp2020
g57
(g78
g59
NtRp2021
(dp2022
g62
(dp2023
g82
g83
ssg71
g2017
sg64
(lp2024
S'http_cookie'
p2025
asbag57
(g78
g59
NtRp2026
(dp2027
g62
(dp2028
g89
g90
ssg71
g2017
sg64
(lp2029
S':'
asbag57
(g78
g59
NtRp2030
(dp2031
g62
(dp2032
sg71
g2017
sg64
(lp2033
g57
(g58
g59
NtRp2034
(dp2035
g62
(dp2036
g70
I4
ssg71
g2030
sg64
(lp2037
S'session_id_photouploader=127.0.0.1-83bacd5e-b575-49a8-9b6e-fdc698e775f9; session_id_astra1=127.0.0.1-6c6943ea-9e10-4b64-9f35-8611eb020dd8; session_id_sudoku=127.0.0.1-a38f9f54-52d0-4767-a55e-9a1db318fe95; session_id_music=127.0.0.1-5772fb54-09d1-429f-9de0-d5ccdcb57f3a; session_id_welcome=127.0.0.1-ce947a26-bb3e-43d4-9cd9-87c4abcec933; session_id_admin=127.0.0.1-6c67b90d-3883-4b37-ba21-eef2525d3981; session_id_vish=127.0.0.1-bfddb273-c13f-44aa-9345-6c2c33dcf2db; session_id_music_library=127.0.0.1-868801ee-bee6-4d4d-8081-d21e25945ab6'
p2038
asbasbasbag57
(g73
g59
NtRp2039
(dp2040
g62
(dp2041
sg71
g1747
sg64
(lp2042
g57
(g78
g59
NtRp2043
(dp2044
g62
(dp2045
g82
g83
ssg71
g2039
sg64
(lp2046
S'http_host'
p2047
asbag57
(g78
g59
NtRp2048
(dp2049
g62
(dp2050
g89
g90
ssg71
g2039
sg64
(lp2051
S':'
asbag57
(g78
g59
NtRp2052
(dp2053
g62
(dp2054
sg71
g2039
sg64
(lp2055
g57
(g58
g59
NtRp2056
(dp2057
g62
(dp2058
g70
I4
ssg71
g2052
sg64
(lp2059
S'127.0.0.1:8000'
p2060
asbasbasbag57
(g73
g59
NtRp2061
(dp2062
g62
(dp2063
sg71
g1747
sg64
(lp2064
g57
(g78
g59
NtRp2065
(dp2066
g62
(dp2067
g82
g83
ssg71
g2061
sg64
(lp2068
S'http_referer'
p2069
asbag57
(g78
g59
NtRp2070
(dp2071
g62
(dp2072
g89
g90
ssg71
g2061
sg64
(lp2073
S':'
asbag57
(g78
g59
NtRp2074
(dp2075
g62
(dp2076
sg71
g2061
sg64
(lp2077
g57
(g58
g59
NtRp2078
(dp2079
g62
(dp2080
g70
I4
ssg71
g2074
sg64
(lp2081
S'http://127.0.0.1:8000/astra1/default/index'
p2082
asbasbasbag57
(g73
g59
NtRp2083
(dp2084
g62
(dp2085
sg71
g1747
sg64
(lp2086
g57
(g78
g59
NtRp2087
(dp2088
g62
(dp2089
g82
g83
ssg71
g2083
sg64
(lp2090
S'http_user_agent'
p2091
asbag57
(g78
g59
NtRp2092
(dp2093
g62
(dp2094
g89
g90
ssg71
g2083
sg64
(lp2095
S':'
asbag57
(g78
g59
NtRp2096
(dp2097
g62
(dp2098
sg71
g2083
sg64
(lp2099
g57
(g58
g59
NtRp2100
(dp2101
g62
(dp2102
g70
I4
ssg71
g2096
sg64
(lp2103
S'Mozilla/5.0 (X11; Ubuntu; Linux i686; rv:16.0) Gecko/20100101 Firefox/16.0'
p2104
asbasbasbag57
(g73
g59
NtRp2105
(dp2106
g62
(dp2107
sg71
g1747
sg64
(lp2108
g57
(g78
g59
NtRp2109
(dp2110
g62
(dp2111
g82
g83
ssg71
g2105
sg64
(lp2112
S'is_jython'
p2113
asbag57
(g78
g59
NtRp2114
(dp2115
g62
(dp2116
g89
g90
ssg71
g2105
sg64
(lp2117
S':'
asbag57
(g78
g59
NtRp2118
(dp2119
g62
(dp2120
sg71
g2105
sg64
(lp2121
g57
(g58
g59
NtRp2122
(dp2123
g62
(dp2124
g70
I4
ssg71
g2118
sg64
(lp2125
g100
asbasbasbag57
(g73
g59
NtRp2126
(dp2127
g62
(dp2128
sg71
g1747
sg64
(lp2129
g57
(g78
g59
NtRp2130
(dp2131
g62
(dp2132
g82
g83
ssg71
g2126
sg64
(lp2133
S'is_pypy'
p2134
asbag57
(g78
g59
NtRp2135
(dp2136
g62
(dp2137
g89
g90
ssg71
g2126
sg64
(lp2138
S':'
asbag57
(g78
g59
NtRp2139
(dp2140
g62
(dp2141
sg71
g2126
sg64
(lp2142
g57
(g58
g59
NtRp2143
(dp2144
g62
(dp2145
g70
I4
ssg71
g2139
sg64
(lp2146
g100
asbasbasbag57
(g73
g59
NtRp2147
(dp2148
g62
(dp2149
sg71
g1747
sg64
(lp2150
g57
(g78
g59
NtRp2151
(dp2152
g62
(dp2153
g82
g83
ssg71
g2147
sg64
(lp2154
S'path_info'
p2155
asbag57
(g78
g59
NtRp2156
(dp2157
g62
(dp2158
g89
g90
ssg71
g2147
sg64
(lp2159
S':'
asbag57
(g78
g59
NtRp2160
(dp2161
g62
(dp2162
sg71
g2147
sg64
(lp2163
g57
(g58
g59
NtRp2164
(dp2165
g62
(dp2166
g70
I4
ssg71
g2160
sg64
(lp2167
S'/astra1/default/show'
p2168
asbasbasbag57
(g73
g59
NtRp2169
(dp2170
g62
(dp2171
sg71
g1747
sg64
(lp2172
g57
(g78
g59
NtRp2173
(dp2174
g62
(dp2175
g82
g83
ssg71
g2169
sg64
(lp2176
S'query_string'
p2177
asbag57
(g78
g59
NtRp2178
(dp2179
g62
(dp2180
g89
g90
ssg71
g2169
sg64
(lp2181
S':'
asbag57
(g78
g59
NtRp2182
(dp2183
g62
(dp2184
sg71
g2169
sg64
(lp2185
g57
(g58
g59
NtRp2186
(dp2187
g62
(dp2188
g70
I4
ssg71
g2182
sg64
(lp2189
S''
asbasbasbag57
(g73
g59
NtRp2190
(dp2191
g62
(dp2192
sg71
g1747
sg64
(lp2193
g57
(g78
g59
NtRp2194
(dp2195
g62
(dp2196
g82
g83
ssg71
g2190
sg64
(lp2197
S'remote_addr'
p2198
asbag57
(g78
g59
NtRp2199
(dp2200
g62
(dp2201
g89
g90
ssg71
g2190
sg64
(lp2202
S':'
asbag57
(g78
g59
NtRp2203
(dp2204
g62
(dp2205
sg71
g2190
sg64
(lp2206
g57
(g58
g59
NtRp2207
(dp2208
g62
(dp2209
g70
I4
ssg71
g2203
sg64
(lp2210
g190
asbasbasbag57
(g73
g59
NtRp2211
(dp2212
g62
(dp2213
sg71
g1747
sg64
(lp2214
g57
(g78
g59
NtRp2215
(dp2216
g62
(dp2217
g82
g83
ssg71
g2211
sg64
(lp2218
S'remote_port'
p2219
asbag57
(g78
g59
NtRp2220
(dp2221
g62
(dp2222
g89
g90
ssg71
g2211
sg64
(lp2223
S':'
asbag57
(g78
g59
NtRp2224
(dp2225
g62
(dp2226
sg71
g2211
sg64
(lp2227
g57
(g58
g59
NtRp2228
(dp2229
g62
(dp2230
g70
I4
ssg71
g2224
sg64
(lp2231
S'45754'
p2232
asbasbasbag57
(g73
g59
NtRp2233
(dp2234
g62
(dp2235
sg71
g1747
sg64
(lp2236
g57
(g78
g59
NtRp2237
(dp2238
g62
(dp2239
g82
g83
ssg71
g2233
sg64
(lp2240
S'request_method'
p2241
asbag57
(g78
g59
NtRp2242
(dp2243
g62
(dp2244
g89
g90
ssg71
g2233
sg64
(lp2245
S':'
asbag57
(g78
g59
NtRp2246
(dp2247
g62
(dp2248
sg71
g2233
sg64
(lp2249
g57
(g58
g59
NtRp2250
(dp2251
g62
(dp2252
g70
I4
ssg71
g2246
sg64
(lp2253
S'GET'
p2254
asbasbasbag57
(g73
g59
NtRp2255
(dp2256
g62
(dp2257
sg71
g1747
sg64
(lp2258
g57
(g78
g59
NtRp2259
(dp2260
g62
(dp2261
g82
g83
ssg71
g2255
sg64
(lp2262
S'script_name'
p2263
asbag57
(g78
g59
NtRp2264
(dp2265
g62
(dp2266
g89
g90
ssg71
g2255
sg64
(lp2267
S':'
asbag57
(g78
g59
NtRp2268
(dp2269
g62
(dp2270
sg71
g2255
sg64
(lp2271
g57
(g58
g59
NtRp2272
(dp2273
g62
(dp2274
g70
I4
ssg71
g2268
sg64
(lp2275
S''
asbasbasbag57
(g73
g59
NtRp2276
(dp2277
g62
(dp2278
sg71
g1747
sg64
(lp2279
g57
(g78
g59
NtRp2280
(dp2281
g62
(dp2282
g82
g83
ssg71
g2276
sg64
(lp2283
S'server_name'
p2284
asbag57
(g78
g59
NtRp2285
(dp2286
g62
(dp2287
g89
g90
ssg71
g2276
sg64
(lp2288
S':'
asbag57
(g78
g59
NtRp2289
(dp2290
g62
(dp2291
sg71
g2276
sg64
(lp2292
g57
(g58
g59
NtRp2293
(dp2294
g62
(dp2295
g70
I4
ssg71
g2289
sg64
(lp2296
S'vishrut-Vostro-1015'
p2297
asbasbasbag57
(g73
g59
NtRp2298
(dp2299
g62
(dp2300
sg71
g1747
sg64
(lp2301
g57
(g78
g59
NtRp2302
(dp2303
g62
(dp2304
g82
g83
ssg71
g2298
sg64
(lp2305
S'server_port'
p2306
asbag57
(g78
g59
NtRp2307
(dp2308
g62
(dp2309
g89
g90
ssg71
g2298
sg64
(lp2310
S':'
asbag57
(g78
g59
NtRp2311
(dp2312
g62
(dp2313
sg71
g2298
sg64
(lp2314
g57
(g58
g59
NtRp2315
(dp2316
g62
(dp2317
g70
I4
ssg71
g2311
sg64
(lp2318
S'8000'
p2319
asbasbasbag57
(g73
g59
NtRp2320
(dp2321
g62
(dp2322
sg71
g1747
sg64
(lp2323
g57
(g78
g59
NtRp2324
(dp2325
g62
(dp2326
g82
g83
ssg71
g2320
sg64
(lp2327
S'server_protocol'
p2328
asbag57
(g78
g59
NtRp2329
(dp2330
g62
(dp2331
g89
g90
ssg71
g2320
sg64
(lp2332
S':'
asbag57
(g78
g59
NtRp2333
(dp2334
g62
(dp2335
sg71
g2320
sg64
(lp2336
g57
(g58
g59
NtRp2337
(dp2338
g62
(dp2339
g70
I4
ssg71
g2333
sg64
(lp2340
S'HTTP/1.1'
p2341
asbasbasbag57
(g73
g59
NtRp2342
(dp2343
g62
(dp2344
sg71
g1747
sg64
(lp2345
g57
(g78
g59
NtRp2346
(dp2347
g62
(dp2348
g82
g83
ssg71
g2342
sg64
(lp2349
S'server_software'
p2350
asbag57
(g78
g59
NtRp2351
(dp2352
g62
(dp2353
g89
g90
ssg71
g2342
sg64
(lp2354
S':'
asbag57
(g78
g59
NtRp2355
(dp2356
g62
(dp2357
sg71
g2342
sg64
(lp2358
g57
(g58
g59
NtRp2359
(dp2360
g62
(dp2361
g70
I4
ssg71
g2355
sg64
(lp2362
S'Rocket 1.2.4'
p2363
asbasbasbag57
(g73
g59
NtRp2364
(dp2365
g62
(dp2366
sg71
g1747
sg64
(lp2367
g57
(g78
g59
NtRp2368
(dp2369
g62
(dp2370
g82
g83
ssg71
g2364
sg64
(lp2371
S'web2py_crontype'
p2372
asbag57
(g78
g59
NtRp2373
(dp2374
g62
(dp2375
g89
g90
ssg71
g2364
sg64
(lp2376
S':'
asbag57
(g78
g59
NtRp2377
(dp2378
g62
(dp2379
sg71
g2364
sg64
(lp2380
g57
(g58
g59
NtRp2381
(dp2382
g62
(dp2383
g70
I4
ssg71
g2377
sg64
(lp2384
S'hard'
p2385
asbasbasbag57
(g73
g59
NtRp2386
(dp2387
g62
(dp2388
sg71
g1747
sg64
(lp2389
g57
(g78
g59
NtRp2390
(dp2391
g62
(dp2392
g82
g83
ssg71
g2386
sg64
(lp2393
S'web2py_path'
p2394
asbag57
(g78
g59
NtRp2395
(dp2396
g62
(dp2397
g89
g90
ssg71
g2386
sg64
(lp2398
S':'
asbag57
(g78
g59
NtRp2399
(dp2400
g62
(dp2401
sg71
g2386
sg64
(lp2402
g57
(g58
g59
NtRp2403
(dp2404
g62
(dp2405
g70
I4
ssg71
g2399
sg64
(lp2406
g1794
asbasbasbag57
(g73
g59
NtRp2407
(dp2408
g62
(dp2409
sg71
g1747
sg64
(lp2410
g57
(g78
g59
NtRp2411
(dp2412
g62
(dp2413
g82
g83
ssg71
g2407
sg64
(lp2414
S'web2py_version'
p2415
asbag57
(g78
g59
NtRp2416
(dp2417
g62
(dp2418
g89
g90
ssg71
g2407
sg64
(lp2419
S':'
asbag57
(g78
g59
NtRp2420
(dp2421
g62
(dp2422
sg71
g2407
sg64
(lp2423
g57
(g58
g59
NtRp2424
(dp2425
g62
(dp2426
g70
I4
ssg71
g2420
sg64
(lp2427
g57
(g66
g59
NtRp2428
(dp2429
g62
(dp2430
g70
I3
ssg71
Nsg64
(lp2431
g57
(g73
g59
NtRp2432
(dp2433
g62
(dp2434
sg71
g2428
sg64
(lp2435
g57
(g78
g59
NtRp2436
(dp2437
g62
(dp2438
sg71
g2432
sg64
(lp2439
g57
(g58
g59
NtRp2440
(dp2441
g62
(dp2442
g70
I3
ssg71
g2436
sg64
(lp2443
S'1'
asbasbasbag57
(g73
g59
NtRp2444
(dp2445
g62
(dp2446
sg71
g2428
sg64
(lp2447
g57
(g78
g59
NtRp2448
(dp2449
g62
(dp2450
sg71
g2444
sg64
(lp2451
g57
(g58
g59
NtRp2452
(dp2453
g62
(dp2454
g70
I3
ssg71
g2448
sg64
(lp2455
S'99'
p2456
asbasbasbag57
(g73
g59
NtRp2457
(dp2458
g62
(dp2459
sg71
g2428
sg64
(lp2460
g57
(g78
g59
NtRp2461
(dp2462
g62
(dp2463
sg71
g2457
sg64
(lp2464
g57
(g58
g59
NtRp2465
(dp2466
g62
(dp2467
g70
I3
ssg71
g2461
sg64
(lp2468
S'7'
asbasbasbag57
(g73
g59
NtRp2469
(dp2470
g62
(dp2471
sg71
g2428
sg64
(lp2472
g57
(g78
g59
NtRp2473
(dp2474
g62
(dp2475
sg71
g2469
sg64
(lp2476
g57
(g58
g59
NtRp2477
(dp2478
g62
(dp2479
g70
I3
ssg71
g2473
sg64
(lp2480
S'datetime.datetime(2012, 3, 4, 22, 12, 8)'
p2481
asbasbasbag57
(g73
g59
NtRp2482
(dp2483
g62
(dp2484
sg71
g2428
sg64
(lp2485
g57
(g78
g59
NtRp2486
(dp2487
g62
(dp2488
sg71
g2482
sg64
(lp2489
g57
(g58
g59
NtRp2490
(dp2491
g62
(dp2492
g70
I3
ssg71
g2486
sg64
(lp2493
S'stable'
p2494
asbasbasbasbasbasbasbag57
(g73
g59
NtRp2495
(dp2496
g62
(dp2497
sg71
g1747
sg64
(lp2498
g57
(g78
g59
NtRp2499
(dp2500
g62
(dp2501
g82
g83
ssg71
g2495
sg64
(lp2502
S'wsgi_errors'
p2503
asbag57
(g78
g59
NtRp2504
(dp2505
g62
(dp2506
g89
g90
ssg71
g2495
sg64
(lp2507
S':'
asbag57
(g78
g59
NtRp2508
(dp2509
g62
(dp2510
sg71
g2495
sg64
(lp2511
g57
(g58
g59
NtRp2512
(dp2513
g62
(dp2514
g70
I4
ssg71
g2508
sg64
(lp2515
S"<open file '<stderr>', mode 'w' at 0xb77bc0d0>"
p2516
asbasbasbag57
(g73
g59
NtRp2517
(dp2518
g62
(dp2519
sg71
g1747
sg64
(lp2520
g57
(g78
g59
NtRp2521
(dp2522
g62
(dp2523
g82
g83
ssg71
g2517
sg64
(lp2524
S'wsgi_file_wrapper'
p2525
asbag57
(g78
g59
NtRp2526
(dp2527
g62
(dp2528
g89
g90
ssg71
g2517
sg64
(lp2529
S':'
asbag57
(g78
g59
NtRp2530
(dp2531
g62
(dp2532
sg71
g2517
sg64
(lp2533
g57
(g58
g59
NtRp2534
(dp2535
g62
(dp2536
g70
I4
ssg71
g2530
sg64
(lp2537
S'<class wsgiref.util.FileWrapper at 0x9c55aac>'
p2538
asbasbasbag57
(g73
g59
NtRp2539
(dp2540
g62
(dp2541
sg71
g1747
sg64
(lp2542
g57
(g78
g59
NtRp2543
(dp2544
g62
(dp2545
g82
g83
ssg71
g2539
sg64
(lp2546
S'wsgi_input'
p2547
asbag57
(g78
g59
NtRp2548
(dp2549
g62
(dp2550
g89
g90
ssg71
g2539
sg64
(lp2551
S':'
asbag57
(g78
g59
NtRp2552
(dp2553
g62
(dp2554
sg71
g2539
sg64
(lp2555
g57
(g58
g59
NtRp2556
(dp2557
g62
(dp2558
g70
I4
ssg71
g2552
sg64
(lp2559
S'<socket._fileobject object at 0xa24e6ec>'
p2560
asbasbasbag57
(g73
g59
NtRp2561
(dp2562
g62
(dp2563
sg71
g1747
sg64
(lp2564
g57
(g78
g59
NtRp2565
(dp2566
g62
(dp2567
g82
g83
ssg71
g2561
sg64
(lp2568
S'wsgi_multiprocess'
p2569
asbag57
(g78
g59
NtRp2570
(dp2571
g62
(dp2572
g89
g90
ssg71
g2561
sg64
(lp2573
S':'
asbag57
(g78
g59
NtRp2574
(dp2575
g62
(dp2576
sg71
g2561
sg64
(lp2577
g57
(g58
g59
NtRp2578
(dp2579
g62
(dp2580
g70
I4
ssg71
g2574
sg64
(lp2581
g100
asbasbasbag57
(g73
g59
NtRp2582
(dp2583
g62
(dp2584
sg71
g1747
sg64
(lp2585
g57
(g78
g59
NtRp2586
(dp2587
g62
(dp2588
g82
g83
ssg71
g2582
sg64
(lp2589
S'wsgi_multithread'
p2590
asbag57
(g78
g59
NtRp2591
(dp2592
g62
(dp2593
g89
g90
ssg71
g2582
sg64
(lp2594
S':'
asbag57
(g78
g59
NtRp2595
(dp2596
g62
(dp2597
sg71
g2582
sg64
(lp2598
g57
(g58
g59
NtRp2599
(dp2600
g62
(dp2601
g70
I4
ssg71
g2595
sg64
(lp2602
S'True'
p2603
asbasbasbag57
(g73
g59
NtRp2604
(dp2605
g62
(dp2606
sg71
g1747
sg64
(lp2607
g57
(g78
g59
NtRp2608
(dp2609
g62
(dp2610
g82
g83
ssg71
g2604
sg64
(lp2611
S'wsgi_run_once'
p2612
asbag57
(g78
g59
NtRp2613
(dp2614
g62
(dp2615
g89
g90
ssg71
g2604
sg64
(lp2616
S':'
asbag57
(g78
g59
NtRp2617
(dp2618
g62
(dp2619
sg71
g2604
sg64
(lp2620
g57
(g58
g59
NtRp2621
(dp2622
g62
(dp2623
g70
I4
ssg71
g2617
sg64
(lp2624
g100
asbasbasbag57
(g73
g59
NtRp2625
(dp2626
g62
(dp2627
sg71
g1747
sg64
(lp2628
g57
(g78
g59
NtRp2629
(dp2630
g62
(dp2631
g82
g83
ssg71
g2625
sg64
(lp2632
S'wsgi_url_scheme'
p2633
asbag57
(g78
g59
NtRp2634
(dp2635
g62
(dp2636
g89
g90
ssg71
g2625
sg64
(lp2637
S':'
asbag57
(g78
g59
NtRp2638
(dp2639
g62
(dp2640
sg71
g2625
sg64
(lp2641
g57
(g58
g59
NtRp2642
(dp2643
g62
(dp2644
g70
I4
ssg71
g2638
sg64
(lp2645
S'http'
p2646
asbasbasbag57
(g73
g59
NtRp2647
(dp2648
g62
(dp2649
sg71
g1747
sg64
(lp2650
g57
(g78
g59
NtRp2651
(dp2652
g62
(dp2653
g82
g83
ssg71
g2647
sg64
(lp2654
S'wsgi_version'
p2655
asbag57
(g78
g59
NtRp2656
(dp2657
g62
(dp2658
g89
g90
ssg71
g2647
sg64
(lp2659
S':'
asbag57
(g78
g59
NtRp2660
(dp2661
g62
(dp2662
sg71
g2647
sg64
(lp2663
g57
(g58
g59
NtRp2664
(dp2665
g62
(dp2666
g70
I4
ssg71
g2660
sg64
(lp2667
g57
(g66
g59
NtRp2668
(dp2669
g62
(dp2670
g70
I3
ssg71
Nsg64
(lp2671
g57
(g73
g59
NtRp2672
(dp2673
g62
(dp2674
sg71
g2668
sg64
(lp2675
g57
(g78
g59
NtRp2676
(dp2677
g62
(dp2678
sg71
g2672
sg64
(lp2679
g57
(g58
g59
NtRp2680
(dp2681
g62
(dp2682
g70
I3
ssg71
g2676
sg64
(lp2683
S'1'
asbasbasbag57
(g73
g59
NtRp2684
(dp2685
g62
(dp2686
sg71
g2668
sg64
(lp2687
g57
(g78
g59
NtRp2688
(dp2689
g62
(dp2690
sg71
g2684
sg64
(lp2691
g57
(g58
g59
NtRp2692
(dp2693
g62
(dp2694
g70
I3
ssg71
g2688
sg64
(lp2695
S'0'
asbasbasbasbasbasbasbasbasbasbasbag57
(g73
g59
NtRp2696
(dp2697
g62
(dp2698
sg71
g67
sg64
(lp2699
g57
(g78
g59
NtRp2700
(dp2701
g62
(dp2702
g82
g83
ssg71
g2696
sg64
(lp2703
S'extension'
p2704
asbag57
(g78
g59
NtRp2705
(dp2706
g62
(dp2707
g89
g90
ssg71
g2696
sg64
(lp2708
S':'
asbag57
(g78
g59
NtRp2709
(dp2710
g62
(dp2711
sg71
g2696
sg64
(lp2712
g57
(g58
g59
NtRp2713
(dp2714
g62
(dp2715
g70
I5
ssg71
g2709
sg64
(lp2716
S'html'
p2717
asbasbasbag57
(g73
g59
NtRp2718
(dp2719
g62
(dp2720
sg71
g67
sg64
(lp2721
g57
(g78
g59
NtRp2722
(dp2723
g62
(dp2724
g82
g83
ssg71
g2718
sg64
(lp2725
S'folder'
p2726
asbag57
(g78
g59
NtRp2727
(dp2728
g62
(dp2729
g89
g90
ssg71
g2718
sg64
(lp2730
S':'
asbag57
(g78
g59
NtRp2731
(dp2732
g62
(dp2733
sg71
g2718
sg64
(lp2734
g57
(g58
g59
NtRp2735
(dp2736
g62
(dp2737
g70
I5
ssg71
g2731
sg64
(lp2738
S'/home/vishrut/web2py/applications/astra1/'
p2739
asbasbasbag57
(g73
g59
NtRp2740
(dp2741
g62
(dp2742
sg71
g67
sg64
(lp2743
g57
(g78
g59
NtRp2744
(dp2745
g62
(dp2746
g82
g83
ssg71
g2740
sg64
(lp2747
S'function'
p2748
asbag57
(g78
g59
NtRp2749
(dp2750
g62
(dp2751
g89
g90
ssg71
g2740
sg64
(lp2752
S':'
asbag57
(g78
g59
NtRp2753
(dp2754
g62
(dp2755
sg71
g2740
sg64
(lp2756
g57
(g58
g59
NtRp2757
(dp2758
g62
(dp2759
g70
I5
ssg71
g2753
sg64
(lp2760
S'show'
p2761
asbasbasbag57
(g73
g59
NtRp2762
(dp2763
g62
(dp2764
sg71
g67
sg64
(lp2765
g57
(g78
g59
NtRp2766
(dp2767
g62
(dp2768
g82
g83
ssg71
g2762
sg64
(lp2769
S'get_vars'
p2770
asbag57
(g78
g59
NtRp2771
(dp2772
g62
(dp2773
g89
g90
ssg71
g2762
sg64
(lp2774
S':'
asbag57
(g78
g59
NtRp2775
(dp2776
g62
(dp2777
sg71
g2762
sg64
(lp2778
g57
(g58
g59
NtRp2779
(dp2780
g62
(dp2781
g70
I5
ssg71
g2775
sg64
(lp2782
g57
(g66
g59
NtRp2783
(dp2784
g62
(dp2785
g70
I4
ssg71
Nsg64
(lp2786
sbasbasbasbag57
(g73
g59
NtRp2787
(dp2788
g62
(dp2789
sg71
g67
sg64
(lp2790
g57
(g78
g59
NtRp2791
(dp2792
g62
(dp2793
g82
g83
ssg71
g2787
sg64
(lp2794
S'global_settings'
p2795
asbag57
(g78
g59
NtRp2796
(dp2797
g62
(dp2798
g89
g90
ssg71
g2787
sg64
(lp2799
S':'
asbag57
(g78
g59
NtRp2800
(dp2801
g62
(dp2802
sg71
g2787
sg64
(lp2803
g57
(g58
g59
NtRp2804
(dp2805
g62
(dp2806
g70
I5
ssg71
g2800
sg64
(lp2807
g57
(g66
g59
NtRp2808
(dp2809
g62
(dp2810
g70
I4
ssg71
Nsg64
(lp2811
g57
(g73
g59
NtRp2812
(dp2813
g62
(dp2814
sg71
g2808
sg64
(lp2815
g57
(g78
g59
NtRp2816
(dp2817
g62
(dp2818
g82
g83
ssg71
g2812
sg64
(lp2819
g1759
asbag57
(g78
g59
NtRp2820
(dp2821
g62
(dp2822
g89
g90
ssg71
g2812
sg64
(lp2823
S':'
asbag57
(g78
g59
NtRp2824
(dp2825
g62
(dp2826
sg71
g2812
sg64
(lp2827
g57
(g58
g59
NtRp2828
(dp2829
g62
(dp2830
g70
I4
ssg71
g2824
sg64
(lp2831
S"set(['/home/vishrut/web2py/applications/astra1/', '/home/vishrut/web2py/applications/admin/', '/home/vishrut/web2py/applications/PhotoUploader/', '/home/vishrut/web2py/applications/welcome/'])"
p2832
asbasbasbag57
(g73
g59
NtRp2833
(dp2834
g62
(dp2835
sg71
g2808
sg64
(lp2836
g57
(g78
g59
NtRp2837
(dp2838
g62
(dp2839
g82
g83
ssg71
g2833
sg64
(lp2840
g1781
asbag57
(g78
g59
NtRp2841
(dp2842
g62
(dp2843
g89
g90
ssg71
g2833
sg64
(lp2844
S':'
asbag57
(g78
g59
NtRp2845
(dp2846
g62
(dp2847
sg71
g2833
sg64
(lp2848
g57
(g58
g59
NtRp2849
(dp2850
g62
(dp2851
g70
I4
ssg71
g2845
sg64
(lp2852
g1794
asbasbasbag57
(g73
g59
NtRp2853
(dp2854
g62
(dp2855
sg71
g2808
sg64
(lp2856
g57
(g78
g59
NtRp2857
(dp2858
g62
(dp2859
g82
g83
ssg71
g2853
sg64
(lp2860
g1803
asbag57
(g78
g59
NtRp2861
(dp2862
g62
(dp2863
g89
g90
ssg71
g2853
sg64
(lp2864
S':'
asbag57
(g78
g59
NtRp2865
(dp2866
g62
(dp2867
sg71
g2853
sg64
(lp2868
g57
(g58
g59
NtRp2869
(dp2870
g62
(dp2871
g70
I4
ssg71
g2865
sg64
(lp2872
g57
(g66
g59
NtRp2873
(dp2874
g62
(dp2875
g70
I3
ssg71
Nsg64
(lp2876
sbasbasbasbag57
(g73
g59
NtRp2877
(dp2878
g62
(dp2879
sg71
g2808
sg64
(lp2880
g57
(g78
g59
NtRp2881
(dp2882
g62
(dp2883
g82
g83
ssg71
g2877
sg64
(lp2884
g1828
asbag57
(g78
g59
NtRp2885
(dp2886
g62
(dp2887
g89
g90
ssg71
g2877
sg64
(lp2888
S':'
asbag57
(g78
g59
NtRp2889
(dp2890
g62
(dp2891
sg71
g2877
sg64
(lp2892
g57
(g58
g59
NtRp2893
(dp2894
g62
(dp2895
g70
I4
ssg71
g2889
sg64
(lp2896
S"<Values at 0x9d363cc: {'verbose': False, 'ip': '127.0.0.1', 'shutdown_timeout': 5, 'taskbar': False, 'nocron': False, 'pid_filename': 'httpserver.pid', 'maxthreads': None, 'softcron': False, 'server_name': 'vishrut-Vostro-1015', 'bpython': False, 'nogui': False, 'port': 8000, 'extcron': False, 'debuglevel': 30, 'test': None, 'folder': '/home/vishrut/web2py', 'config': '', 'import_models': False, 'winservice': '', 'shell': None, 'run': '', 'log_filename': 'httpserver.log', 'args': [''], 'socket_timeout': 5, 'ssl_ca_certificate': None, 'scheduler': None, 'profiler_filename': None, 'ssl_private_key': '', 'password': '<ask>', 'request_queue_size': 5, 'ssl_certificate': '', 'cronjob': False, 'numthreads': None, 'quiet': False, 'interfaces': None, 'minthreads': None, 'timeout': 10, 'plain': False, 'nobanner': False}>"
p2897
asbasbasbag57
(g73
g59
NtRp2898
(dp2899
g62
(dp2900
sg71
g2808
sg64
(lp2901
g57
(g78
g59
NtRp2902
(dp2903
g62
(dp2904
g82
g83
ssg71
g2898
sg64
(lp2905
g1850
asbag57
(g78
g59
NtRp2906
(dp2907
g62
(dp2908
g89
g90
ssg71
g2898
sg64
(lp2909
S':'
asbag57
(g78
g59
NtRp2910
(dp2911
g62
(dp2912
sg71
g2898
sg64
(lp2913
g57
(g58
g59
NtRp2914
(dp2915
g62
(dp2916
g70
I4
ssg71
g2910
sg64
(lp2917
S'set([])'
p2918
asbasbasbag57
(g73
g59
NtRp2919
(dp2920
g62
(dp2921
sg71
g2808
sg64
(lp2922
g57
(g78
g59
NtRp2923
(dp2924
g62
(dp2925
g82
g83
ssg71
g2919
sg64
(lp2926
g1872
asbag57
(g78
g59
NtRp2927
(dp2928
g62
(dp2929
g89
g90
ssg71
g2919
sg64
(lp2930
S':'
asbag57
(g78
g59
NtRp2931
(dp2932
g62
(dp2933
sg71
g2919
sg64
(lp2934
g57
(g58
g59
NtRp2935
(dp2936
g62
(dp2937
g70
I4
ssg71
g2931
sg64
(lp2938
g100
asbasbasbag57
(g73
g59
NtRp2939
(dp2940
g62
(dp2941
sg71
g2808
sg64
(lp2942
g57
(g78
g59
NtRp2943
(dp2944
g62
(dp2945
g82
g83
ssg71
g2939
sg64
(lp2946
g1893
asbag57
(g78
g59
NtRp2947
(dp2948
g62
(dp2949
g89
g90
ssg71
g2939
sg64
(lp2950
S':'
asbag57
(g78
g59
NtRp2951
(dp2952
g62
(dp2953
sg71
g2939
sg64
(lp2954
g57
(g58
g59
NtRp2955
(dp2956
g62
(dp2957
g70
I4
ssg71
g2951
sg64
(lp2958
g1906
asbasbasbag57
(g73
g59
NtRp2959
(dp2960
g62
(dp2961
sg71
g2808
sg64
(lp2962
g57
(g78
g59
NtRp2963
(dp2964
g62
(dp2965
g82
g83
ssg71
g2959
sg64
(lp2966
g2113
asbag57
(g78
g59
NtRp2967
(dp2968
g62
(dp2969
g89
g90
ssg71
g2959
sg64
(lp2970
S':'
asbag57
(g78
g59
NtRp2971
(dp2972
g62
(dp2973
sg71
g2959
sg64
(lp2974
g57
(g58
g59
NtRp2975
(dp2976
g62
(dp2977
g70
I4
ssg71
g2971
sg64
(lp2978
g100
asbasbasbag57
(g73
g59
NtRp2979
(dp2980
g62
(dp2981
sg71
g2808
sg64
(lp2982
g57
(g78
g59
NtRp2983
(dp2984
g62
(dp2985
g82
g83
ssg71
g2979
sg64
(lp2986
g2134
asbag57
(g78
g59
NtRp2987
(dp2988
g62
(dp2989
g89
g90
ssg71
g2979
sg64
(lp2990
S':'
asbag57
(g78
g59
NtRp2991
(dp2992
g62
(dp2993
sg71
g2979
sg64
(lp2994
g57
(g58
g59
NtRp2995
(dp2996
g62
(dp2997
g70
I4
ssg71
g2991
sg64
(lp2998
g100
asbasbasbag57
(g73
g59
NtRp2999
(dp3000
g62
(dp3001
sg71
g2808
sg64
(lp3002
g57
(g78
g59
NtRp3003
(dp3004
g62
(dp3005
g82
g83
ssg71
g2999
sg64
(lp3006
g2372
asbag57
(g78
g59
NtRp3007
(dp3008
g62
(dp3009
g89
g90
ssg71
g2999
sg64
(lp3010
S':'
asbag57
(g78
g59
NtRp3011
(dp3012
g62
(dp3013
sg71
g2999
sg64
(lp3014
g57
(g58
g59
NtRp3015
(dp3016
g62
(dp3017
g70
I4
ssg71
g3011
sg64
(lp3018
g2385
asbasbasbag57
(g73
g59
NtRp3019
(dp3020
g62
(dp3021
sg71
g2808
sg64
(lp3022
g57
(g78
g59
NtRp3023
(dp3024
g62
(dp3025
g82
g83
ssg71
g3019
sg64
(lp3026
g2415
asbag57
(g78
g59
NtRp3027
(dp3028
g62
(dp3029
g89
g90
ssg71
g3019
sg64
(lp3030
S':'
asbag57
(g78
g59
NtRp3031
(dp3032
g62
(dp3033
sg71
g3019
sg64
(lp3034
g57
(g58
g59
NtRp3035
(dp3036
g62
(dp3037
g70
I4
ssg71
g3031
sg64
(lp3038
g57
(g66
g59
NtRp3039
(dp3040
g62
(dp3041
g70
I3
ssg71
Nsg64
(lp3042
g57
(g73
g59
NtRp3043
(dp3044
g62
(dp3045
sg71
g3039
sg64
(lp3046
g57
(g78
g59
NtRp3047
(dp3048
g62
(dp3049
sg71
g3043
sg64
(lp3050
g57
(g58
g59
NtRp3051
(dp3052
g62
(dp3053
g70
I3
ssg71
g3047
sg64
(lp3054
S'1'
asbasbasbag57
(g73
g59
NtRp3055
(dp3056
g62
(dp3057
sg71
g3039
sg64
(lp3058
g57
(g78
g59
NtRp3059
(dp3060
g62
(dp3061
sg71
g3055
sg64
(lp3062
g57
(g58
g59
NtRp3063
(dp3064
g62
(dp3065
g70
I3
ssg71
g3059
sg64
(lp3066
S'99'
p3067
asbasbasbag57
(g73
g59
NtRp3068
(dp3069
g62
(dp3070
sg71
g3039
sg64
(lp3071
g57
(g78
g59
NtRp3072
(dp3073
g62
(dp3074
sg71
g3068
sg64
(lp3075
g57
(g58
g59
NtRp3076
(dp3077
g62
(dp3078
g70
I3
ssg71
g3072
sg64
(lp3079
S'7'
asbasbasbag57
(g73
g59
NtRp3080
(dp3081
g62
(dp3082
sg71
g3039
sg64
(lp3083
g57
(g78
g59
NtRp3084
(dp3085
g62
(dp3086
sg71
g3080
sg64
(lp3087
g57
(g58
g59
NtRp3088
(dp3089
g62
(dp3090
g70
I3
ssg71
g3084
sg64
(lp3091
S'datetime.datetime(2012, 3, 4, 22, 12, 8)'
p3092
asbasbasbag57
(g73
g59
NtRp3093
(dp3094
g62
(dp3095
sg71
g3039
sg64
(lp3096
g57
(g78
g59
NtRp3097
(dp3098
g62
(dp3099
sg71
g3093
sg64
(lp3100
g57
(g58
g59
NtRp3101
(dp3102
g62
(dp3103
g70
I3
ssg71
g3097
sg64
(lp3104
g2494
asbasbasbasbasbasbasbasbasbasbasbag57
(g73
g59
NtRp3105
(dp3106
g62
(dp3107
sg71
g67
sg64
(lp3108
g57
(g78
g59
NtRp3109
(dp3110
g62
(dp3111
g82
g83
ssg71
g3105
sg64
(lp3112
S'is_https'
p3113
asbag57
(g78
g59
NtRp3114
(dp3115
g62
(dp3116
g89
g90
ssg71
g3105
sg64
(lp3117
S':'
asbag57
(g78
g59
NtRp3118
(dp3119
g62
(dp3120
sg71
g3105
sg64
(lp3121
g57
(g58
g59
NtRp3122
(dp3123
g62
(dp3124
g70
I5
ssg71
g3118
sg64
(lp3125
g100
asbasbasbag57
(g73
g59
NtRp3126
(dp3127
g62
(dp3128
sg71
g67
sg64
(lp3129
g57
(g78
g59
NtRp3130
(dp3131
g62
(dp3132
g82
g83
ssg71
g3126
sg64
(lp3133
S'is_local'
p3134
asbag57
(g78
g59
NtRp3135
(dp3136
g62
(dp3137
g89
g90
ssg71
g3126
sg64
(lp3138
S':'
asbag57
(g78
g59
NtRp3139
(dp3140
g62
(dp3141
sg71
g3126
sg64
(lp3142
g57
(g58
g59
NtRp3143
(dp3144
g62
(dp3145
g70
I5
ssg71
g3139
sg64
(lp3146
g2603
asbasbasbag57
(g73
g59
NtRp3147
(dp3148
g62
(dp3149
sg71
g67
sg64
(lp3150
g57
(g78
g59
NtRp3151
(dp3152
g62
(dp3153
g82
g83
ssg71
g3147
sg64
(lp3154
S'is_restful'
p3155
asbag57
(g78
g59
NtRp3156
(dp3157
g62
(dp3158
g89
g90
ssg71
g3147
sg64
(lp3159
S':'
asbag57
(g78
g59
NtRp3160
(dp3161
g62
(dp3162
sg71
g3147
sg64
(lp3163
g57
(g58
g59
NtRp3164
(dp3165
g62
(dp3166
g70
I5
ssg71
g3160
sg64
(lp3167
g100
asbasbasbag57
(g73
g59
NtRp3168
(dp3169
g62
(dp3170
sg71
g67
sg64
(lp3171
g57
(g78
g59
NtRp3172
(dp3173
g62
(dp3174
g82
g83
ssg71
g3168
sg64
(lp3175
S'now'
p3176
asbag57
(g78
g59
NtRp3177
(dp3178
g62
(dp3179
g89
g90
ssg71
g3168
sg64
(lp3180
S':'
asbag57
(g78
g59
NtRp3181
(dp3182
g62
(dp3183
sg71
g3168
sg64
(lp3184
g57
(g58
g59
NtRp3185
(dp3186
g62
(dp3187
g70
I5
ssg71
g3181
sg64
(lp3188
S'datetime.datetime(2012, 10, 15, 1, 39, 22, 208116)'
p3189
asbasbasbag57
(g73
g59
NtRp3190
(dp3191
g62
(dp3192
sg71
g67
sg64
(lp3193
g57
(g78
g59
NtRp3194
(dp3195
g62
(dp3196
g82
g83
ssg71
g3190
sg64
(lp3197
S'post_vars'
p3198
asbag57
(g78
g59
NtRp3199
(dp3200
g62
(dp3201
g89
g90
ssg71
g3190
sg64
(lp3202
S':'
asbag57
(g78
g59
NtRp3203
(dp3204
g62
(dp3205
sg71
g3190
sg64
(lp3206
g57
(g58
g59
NtRp3207
(dp3208
g62
(dp3209
g70
I5
ssg71
g3203
sg64
(lp3210
g57
(g66
g59
NtRp3211
(dp3212
g62
(dp3213
g70
I4
ssg71
Nsg64
(lp3214
sbasbasbasbag57
(g73
g59
NtRp3215
(dp3216
g62
(dp3217
sg71
g67
sg64
(lp3218
g57
(g78
g59
NtRp3219
(dp3220
g62
(dp3221
g82
g83
ssg71
g3215
sg64
(lp3222
S'url'
p3223
asbag57
(g78
g59
NtRp3224
(dp3225
g62
(dp3226
g89
g90
ssg71
g3215
sg64
(lp3227
S':'
asbag57
(g78
g59
NtRp3228
(dp3229
g62
(dp3230
sg71
g3215
sg64
(lp3231
g57
(g58
g59
NtRp3232
(dp3233
g62
(dp3234
g70
I5
ssg71
g3228
sg64
(lp3235
S'/astra1/default/show'
p3236
asbasbasbag57
(g73
g59
NtRp3237
(dp3238
g62
(dp3239
sg71
g67
sg64
(lp3240
g57
(g78
g59
NtRp3241
(dp3242
g62
(dp3243
g82
g83
ssg71
g3237
sg64
(lp3244
S'utcnow'
p3245
asbag57
(g78
g59
NtRp3246
(dp3247
g62
(dp3248
g89
g90
ssg71
g3237
sg64
(lp3249
S':'
asbag57
(g78
g59
NtRp3250
(dp3251
g62
(dp3252
sg71
g3237
sg64
(lp3253
g57
(g58
g59
NtRp3254
(dp3255
g62
(dp3256
g70
I5
ssg71
g3250
sg64
(lp3257
S'datetime.datetime(2012, 10, 14, 20, 39, 22, 208153)'
p3258
asbasbasbag57
(g73
g59
NtRp3259
(dp3260
g62
(dp3261
sg71
g67
sg64
(lp3262
g57
(g78
g59
NtRp3263
(dp3264
g62
(dp3265
g82
g83
ssg71
g3259
sg64
(lp3266
S'uuid'
p3267
asbag57
(g78
g59
NtRp3268
(dp3269
g62
(dp3270
g89
g90
ssg71
g3259
sg64
(lp3271
S':'
asbag57
(g78
g59
NtRp3272
(dp3273
g62
(dp3274
sg71
g3259
sg64
(lp3275
g57
(g58
g59
NtRp3276
(dp3277
g62
(dp3278
g70
I5
ssg71
g3272
sg64
(lp3279
S'astra1/127.0.0.1.2012-10-15.01-39-22.634bebc8-c230-4d0e-ac3e-409b463d2ccb'
p3280
asbasbasbag57
(g73
g59
NtRp3281
(dp3282
g62
(dp3283
sg71
g67
sg64
(lp3284
g57
(g78
g59
NtRp3285
(dp3286
g62
(dp3287
g82
g83
ssg71
g3281
sg64
(lp3288
S'vars'
p3289
asbag57
(g78
g59
NtRp3290
(dp3291
g62
(dp3292
g89
g90
ssg71
g3281
sg64
(lp3293
S':'
asbag57
(g78
g59
NtRp3294
(dp3295
g62
(dp3296
sg71
g3281
sg64
(lp3297
g57
(g58
g59
NtRp3298
(dp3299
g62
(dp3300
g70
I5
ssg71
g3294
sg64
(lp3301
g57
(g66
g59
NtRp3302
(dp3303
g62
(dp3304
g70
I4
ssg71
Nsg64
(lp3305
sbasbasbasbag57
(g73
g59
NtRp3306
(dp3307
g62
(dp3308
sg71
g67
sg64
(lp3309
g57
(g78
g59
NtRp3310
(dp3311
g62
(dp3312
g82
g83
ssg71
g3306
sg64
(lp3313
S'wsgi'
p3314
asbag57
(g78
g59
NtRp3315
(dp3316
g62
(dp3317
g89
g90
ssg71
g3306
sg64
(lp3318
S':'
asbag57
(g78
g59
NtRp3319
(dp3320
g62
(dp3321
sg71
g3306
sg64
(lp3322
g57
(g58
g59
NtRp3323
(dp3324
g62
(dp3325
g70
I5
ssg71
g3319
sg64
(lp3326
g57
(g66
g59
NtRp3327
(dp3328
g62
(dp3329
g70
I4
ssg71
Nsg64
(lp3330
g57
(g73
g59
NtRp3331
(dp3332
g62
(dp3333
sg71
g3327
sg64
(lp3334
g57
(g78
g59
NtRp3335
(dp3336
g62
(dp3337
g82
g83
ssg71
g3331
sg64
(lp3338
S'environ'
p3339
asbag57
(g78
g59
NtRp3340
(dp3341
g62
(dp3342
g89
g90
ssg71
g3331
sg64
(lp3343
S':'
asbag57
(g78
g59
NtRp3344
(dp3345
g62
(dp3346
sg71
g3331
sg64
(lp3347
g57
(g58
g59
NtRp3348
(dp3349
g62
(dp3350
g70
I4
ssg71
g3344
sg64
(lp3351
g57
(g66
g59
NtRp3352
(dp3353
g62
(dp3354
g70
I3
ssg71
Nsg64
(lp3355
g57
(g73
g59
NtRp3356
(dp3357
g62
(dp3358
sg71
g3352
sg64
(lp3359
g57
(g78
g59
NtRp3360
(dp3361
g62
(dp3362
g82
g83
ssg71
g3356
sg64
(lp3363
S'HTTP_ACCEPT'
p3364
asbag57
(g78
g59
NtRp3365
(dp3366
g62
(dp3367
g89
g90
ssg71
g3356
sg64
(lp3368
S':'
asbag57
(g78
g59
NtRp3369
(dp3370
g62
(dp3371
sg71
g3356
sg64
(lp3372
g57
(g58
g59
NtRp3373
(dp3374
g62
(dp3375
g70
I3
ssg71
g3369
sg64
(lp3376
g1928
asbasbasbag57
(g73
g59
NtRp3377
(dp3378
g62
(dp3379
sg71
g3352
sg64
(lp3380
g57
(g78
g59
NtRp3381
(dp3382
g62
(dp3383
g82
g83
ssg71
g3377
sg64
(lp3384
S'HTTP_ACCEPT_ENCODING'
p3385
asbag57
(g78
g59
NtRp3386
(dp3387
g62
(dp3388
g89
g90
ssg71
g3377
sg64
(lp3389
S':'
asbag57
(g78
g59
NtRp3390
(dp3391
g62
(dp3392
sg71
g3377
sg64
(lp3393
g57
(g58
g59
NtRp3394
(dp3395
g62
(dp3396
g70
I3
ssg71
g3390
sg64
(lp3397
g1950
asbasbasbag57
(g73
g59
NtRp3398
(dp3399
g62
(dp3400
sg71
g3352
sg64
(lp3401
g57
(g78
g59
NtRp3402
(dp3403
g62
(dp3404
g82
g83
ssg71
g3398
sg64
(lp3405
S'HTTP_ACCEPT_LANGUAGE'
p3406
asbag57
(g78
g59
NtRp3407
(dp3408
g62
(dp3409
g89
g90
ssg71
g3398
sg64
(lp3410
S':'
asbag57
(g78
g59
NtRp3411
(dp3412
g62
(dp3413
sg71
g3398
sg64
(lp3414
g57
(g58
g59
NtRp3415
(dp3416
g62
(dp3417
g70
I3
ssg71
g3411
sg64
(lp3418
g1972
asbasbasbag57
(g73
g59
NtRp3419
(dp3420
g62
(dp3421
sg71
g3352
sg64
(lp3422
g57
(g78
g59
NtRp3423
(dp3424
g62
(dp3425
g82
g83
ssg71
g3419
sg64
(lp3426
S'HTTP_CACHE_CONTROL'
p3427
asbag57
(g78
g59
NtRp3428
(dp3429
g62
(dp3430
g89
g90
ssg71
g3419
sg64
(lp3431
S':'
asbag57
(g78
g59
NtRp3432
(dp3433
g62
(dp3434
sg71
g3419
sg64
(lp3435
g57
(g58
g59
NtRp3436
(dp3437
g62
(dp3438
g70
I3
ssg71
g3432
sg64
(lp3439
g1994
asbasbasbag57
(g73
g59
NtRp3440
(dp3441
g62
(dp3442
sg71
g3352
sg64
(lp3443
g57
(g78
g59
NtRp3444
(dp3445
g62
(dp3446
g82
g83
ssg71
g3440
sg64
(lp3447
S'HTTP_CONNECTION'
p3448
asbag57
(g78
g59
NtRp3449
(dp3450
g62
(dp3451
g89
g90
ssg71
g3440
sg64
(lp3452
S':'
asbag57
(g78
g59
NtRp3453
(dp3454
g62
(dp3455
sg71
g3440
sg64
(lp3456
g57
(g58
g59
NtRp3457
(dp3458
g62
(dp3459
g70
I3
ssg71
g3453
sg64
(lp3460
g2016
asbasbasbag57
(g73
g59
NtRp3461
(dp3462
g62
(dp3463
sg71
g3352
sg64
(lp3464
g57
(g78
g59
NtRp3465
(dp3466
g62
(dp3467
g82
g83
ssg71
g3461
sg64
(lp3468
S'HTTP_COOKIE'
p3469
asbag57
(g78
g59
NtRp3470
(dp3471
g62
(dp3472
g89
g90
ssg71
g3461
sg64
(lp3473
S':'
asbag57
(g78
g59
NtRp3474
(dp3475
g62
(dp3476
sg71
g3461
sg64
(lp3477
g57
(g58
g59
NtRp3478
(dp3479
g62
(dp3480
g70
I3
ssg71
g3474
sg64
(lp3481
g2038
asbasbasbag57
(g73
g59
NtRp3482
(dp3483
g62
(dp3484
sg71
g3352
sg64
(lp3485
g57
(g78
g59
NtRp3486
(dp3487
g62
(dp3488
g82
g83
ssg71
g3482
sg64
(lp3489
S'HTTP_HOST'
p3490
asbag57
(g78
g59
NtRp3491
(dp3492
g62
(dp3493
g89
g90
ssg71
g3482
sg64
(lp3494
S':'
asbag57
(g78
g59
NtRp3495
(dp3496
g62
(dp3497
sg71
g3482
sg64
(lp3498
g57
(g58
g59
NtRp3499
(dp3500
g62
(dp3501
g70
I3
ssg71
g3495
sg64
(lp3502
g2060
asbasbasbag57
(g73
g59
NtRp3503
(dp3504
g62
(dp3505
sg71
g3352
sg64
(lp3506
g57
(g78
g59
NtRp3507
(dp3508
g62
(dp3509
g82
g83
ssg71
g3503
sg64
(lp3510
S'HTTP_REFERER'
p3511
asbag57
(g78
g59
NtRp3512
(dp3513
g62
(dp3514
g89
g90
ssg71
g3503
sg64
(lp3515
S':'
asbag57
(g78
g59
NtRp3516
(dp3517
g62
(dp3518
sg71
g3503
sg64
(lp3519
g57
(g58
g59
NtRp3520
(dp3521
g62
(dp3522
g70
I3
ssg71
g3516
sg64
(lp3523
g2082
asbasbasbag57
(g73
g59
NtRp3524
(dp3525
g62
(dp3526
sg71
g3352
sg64
(lp3527
g57
(g78
g59
NtRp3528
(dp3529
g62
(dp3530
g82
g83
ssg71
g3524
sg64
(lp3531
S'HTTP_USER_AGENT'
p3532
asbag57
(g78
g59
NtRp3533
(dp3534
g62
(dp3535
g89
g90
ssg71
g3524
sg64
(lp3536
S':'
asbag57
(g78
g59
NtRp3537
(dp3538
g62
(dp3539
sg71
g3524
sg64
(lp3540
g57
(g58
g59
NtRp3541
(dp3542
g62
(dp3543
g70
I3
ssg71
g3537
sg64
(lp3544
g2104
asbasbasbag57
(g73
g59
NtRp3545
(dp3546
g62
(dp3547
sg71
g3352
sg64
(lp3548
g57
(g78
g59
NtRp3549
(dp3550
g62
(dp3551
g82
g83
ssg71
g3545
sg64
(lp3552
S'PATH_INFO'
p3553
asbag57
(g78
g59
NtRp3554
(dp3555
g62
(dp3556
g89
g90
ssg71
g3545
sg64
(lp3557
S':'
asbag57
(g78
g59
NtRp3558
(dp3559
g62
(dp3560
sg71
g3545
sg64
(lp3561
g57
(g58
g59
NtRp3562
(dp3563
g62
(dp3564
g70
I3
ssg71
g3558
sg64
(lp3565
g2168
asbasbasbag57
(g73
g59
NtRp3566
(dp3567
g62
(dp3568
sg71
g3352
sg64
(lp3569
g57
(g78
g59
NtRp3570
(dp3571
g62
(dp3572
g82
g83
ssg71
g3566
sg64
(lp3573
S'QUERY_STRING'
p3574
asbag57
(g78
g59
NtRp3575
(dp3576
g62
(dp3577
g89
g90
ssg71
g3566
sg64
(lp3578
S':'
asbag57
(g78
g59
NtRp3579
(dp3580
g62
(dp3581
sg71
g3566
sg64
(lp3582
g57
(g58
g59
NtRp3583
(dp3584
g62
(dp3585
g70
I3
ssg71
g3579
sg64
(lp3586
S''
asbasbasbag57
(g73
g59
NtRp3587
(dp3588
g62
(dp3589
sg71
g3352
sg64
(lp3590
g57
(g78
g59
NtRp3591
(dp3592
g62
(dp3593
g82
g83
ssg71
g3587
sg64
(lp3594
S'REMOTE_ADDR'
p3595
asbag57
(g78
g59
NtRp3596
(dp3597
g62
(dp3598
g89
g90
ssg71
g3587
sg64
(lp3599
S':'
asbag57
(g78
g59
NtRp3600
(dp3601
g62
(dp3602
sg71
g3587
sg64
(lp3603
g57
(g58
g59
NtRp3604
(dp3605
g62
(dp3606
g70
I3
ssg71
g3600
sg64
(lp3607
g190
asbasbasbag57
(g73
g59
NtRp3608
(dp3609
g62
(dp3610
sg71
g3352
sg64
(lp3611
g57
(g78
g59
NtRp3612
(dp3613
g62
(dp3614
g82
g83
ssg71
g3608
sg64
(lp3615
S'REMOTE_PORT'
p3616
asbag57
(g78
g59
NtRp3617
(dp3618
g62
(dp3619
g89
g90
ssg71
g3608
sg64
(lp3620
S':'
asbag57
(g78
g59
NtRp3621
(dp3622
g62
(dp3623
sg71
g3608
sg64
(lp3624
g57
(g58
g59
NtRp3625
(dp3626
g62
(dp3627
g70
I3
ssg71
g3621
sg64
(lp3628
g2232
asbasbasbag57
(g73
g59
NtRp3629
(dp3630
g62
(dp3631
sg71
g3352
sg64
(lp3632
g57
(g78
g59
NtRp3633
(dp3634
g62
(dp3635
g82
g83
ssg71
g3629
sg64
(lp3636
S'REQUEST_METHOD'
p3637
asbag57
(g78
g59
NtRp3638
(dp3639
g62
(dp3640
g89
g90
ssg71
g3629
sg64
(lp3641
S':'
asbag57
(g78
g59
NtRp3642
(dp3643
g62
(dp3644
sg71
g3629
sg64
(lp3645
g57
(g58
g59
NtRp3646
(dp3647
g62
(dp3648
g70
I3
ssg71
g3642
sg64
(lp3649
g2254
asbasbasbag57
(g73
g59
NtRp3650
(dp3651
g62
(dp3652
sg71
g3352
sg64
(lp3653
g57
(g78
g59
NtRp3654
(dp3655
g62
(dp3656
g82
g83
ssg71
g3650
sg64
(lp3657
S'SCRIPT_NAME'
p3658
asbag57
(g78
g59
NtRp3659
(dp3660
g62
(dp3661
g89
g90
ssg71
g3650
sg64
(lp3662
S':'
asbag57
(g78
g59
NtRp3663
(dp3664
g62
(dp3665
sg71
g3650
sg64
(lp3666
g57
(g58
g59
NtRp3667
(dp3668
g62
(dp3669
g70
I3
ssg71
g3663
sg64
(lp3670
S''
asbasbasbag57
(g73
g59
NtRp3671
(dp3672
g62
(dp3673
sg71
g3352
sg64
(lp3674
g57
(g78
g59
NtRp3675
(dp3676
g62
(dp3677
g82
g83
ssg71
g3671
sg64
(lp3678
S'SERVER_NAME'
p3679
asbag57
(g78
g59
NtRp3680
(dp3681
g62
(dp3682
g89
g90
ssg71
g3671
sg64
(lp3683
S':'
asbag57
(g78
g59
NtRp3684
(dp3685
g62
(dp3686
sg71
g3671
sg64
(lp3687
g57
(g58
g59
NtRp3688
(dp3689
g62
(dp3690
g70
I3
ssg71
g3684
sg64
(lp3691
g2297
asbasbasbag57
(g73
g59
NtRp3692
(dp3693
g62
(dp3694
sg71
g3352
sg64
(lp3695
g57
(g78
g59
NtRp3696
(dp3697
g62
(dp3698
g82
g83
ssg71
g3692
sg64
(lp3699
S'SERVER_PORT'
p3700
asbag57
(g78
g59
NtRp3701
(dp3702
g62
(dp3703
g89
g90
ssg71
g3692
sg64
(lp3704
S':'
asbag57
(g78
g59
NtRp3705
(dp3706
g62
(dp3707
sg71
g3692
sg64
(lp3708
g57
(g58
g59
NtRp3709
(dp3710
g62
(dp3711
g70
I3
ssg71
g3705
sg64
(lp3712
g2319
asbasbasbag57
(g73
g59
NtRp3713
(dp3714
g62
(dp3715
sg71
g3352
sg64
(lp3716
g57
(g78
g59
NtRp3717
(dp3718
g62
(dp3719
g82
g83
ssg71
g3713
sg64
(lp3720
S'SERVER_PROTOCOL'
p3721
asbag57
(g78
g59
NtRp3722
(dp3723
g62
(dp3724
g89
g90
ssg71
g3713
sg64
(lp3725
S':'
asbag57
(g78
g59
NtRp3726
(dp3727
g62
(dp3728
sg71
g3713
sg64
(lp3729
g57
(g58
g59
NtRp3730
(dp3731
g62
(dp3732
g70
I3
ssg71
g3726
sg64
(lp3733
g2341
asbasbasbag57
(g73
g59
NtRp3734
(dp3735
g62
(dp3736
sg71
g3352
sg64
(lp3737
g57
(g78
g59
NtRp3738
(dp3739
g62
(dp3740
g82
g83
ssg71
g3734
sg64
(lp3741
S'SERVER_SOFTWARE'
p3742
asbag57
(g78
g59
NtRp3743
(dp3744
g62
(dp3745
g89
g90
ssg71
g3734
sg64
(lp3746
S':'
asbag57
(g78
g59
NtRp3747
(dp3748
g62
(dp3749
sg71
g3734
sg64
(lp3750
g57
(g58
g59
NtRp3751
(dp3752
g62
(dp3753
g70
I3
ssg71
g3747
sg64
(lp3754
g2363
asbasbasbag57
(g73
g59
NtRp3755
(dp3756
g62
(dp3757
sg71
g3352
sg64
(lp3758
g57
(g78
g59
NtRp3759
(dp3760
g62
(dp3761
g82
g83
ssg71
g3755
sg64
(lp3762
S'wsgi.errors'
p3763
asbag57
(g78
g59
NtRp3764
(dp3765
g62
(dp3766
g89
g90
ssg71
g3755
sg64
(lp3767
S':'
asbag57
(g78
g59
NtRp3768
(dp3769
g62
(dp3770
sg71
g3755
sg64
(lp3771
g57
(g58
g59
NtRp3772
(dp3773
g62
(dp3774
g70
I3
ssg71
g3768
sg64
(lp3775
S"<open file '<stderr>', mode 'w' at 0xb77bc0d0>"
p3776
asbasbasbag57
(g73
g59
NtRp3777
(dp3778
g62
(dp3779
sg71
g3352
sg64
(lp3780
g57
(g78
g59
NtRp3781
(dp3782
g62
(dp3783
g82
g83
ssg71
g3777
sg64
(lp3784
S'wsgi.file_wrapper'
p3785
asbag57
(g78
g59
NtRp3786
(dp3787
g62
(dp3788
g89
g90
ssg71
g3777
sg64
(lp3789
S':'
asbag57
(g78
g59
NtRp3790
(dp3791
g62
(dp3792
sg71
g3777
sg64
(lp3793
g57
(g58
g59
NtRp3794
(dp3795
g62
(dp3796
g70
I3
ssg71
g3790
sg64
(lp3797
S'<class wsgiref.util.FileWrapper at 0x9c55aac>'
p3798
asbasbasbag57
(g73
g59
NtRp3799
(dp3800
g62
(dp3801
sg71
g3352
sg64
(lp3802
g57
(g78
g59
NtRp3803
(dp3804
g62
(dp3805
g82
g83
ssg71
g3799
sg64
(lp3806
S'wsgi.input'
p3807
asbag57
(g78
g59
NtRp3808
(dp3809
g62
(dp3810
g89
g90
ssg71
g3799
sg64
(lp3811
S':'
asbag57
(g78
g59
NtRp3812
(dp3813
g62
(dp3814
sg71
g3799
sg64
(lp3815
g57
(g58
g59
NtRp3816
(dp3817
g62
(dp3818
g70
I3
ssg71
g3812
sg64
(lp3819
S'<cStringIO.StringO object at 0xa10a060>'
p3820
asbasbasbag57
(g73
g59
NtRp3821
(dp3822
g62
(dp3823
sg71
g3352
sg64
(lp3824
g57
(g78
g59
NtRp3825
(dp3826
g62
(dp3827
g82
g83
ssg71
g3821
sg64
(lp3828
S'wsgi.multiprocess'
p3829
asbag57
(g78
g59
NtRp3830
(dp3831
g62
(dp3832
g89
g90
ssg71
g3821
sg64
(lp3833
S':'
asbag57
(g78
g59
NtRp3834
(dp3835
g62
(dp3836
sg71
g3821
sg64
(lp3837
g57
(g58
g59
NtRp3838
(dp3839
g62
(dp3840
g70
I3
ssg71
g3834
sg64
(lp3841
g100
asbasbasbag57
(g73
g59
NtRp3842
(dp3843
g62
(dp3844
sg71
g3352
sg64
(lp3845
g57
(g78
g59
NtRp3846
(dp3847
g62
(dp3848
g82
g83
ssg71
g3842
sg64
(lp3849
S'wsgi.multithread'
p3850
asbag57
(g78
g59
NtRp3851
(dp3852
g62
(dp3853
g89
g90
ssg71
g3842
sg64
(lp3854
S':'
asbag57
(g78
g59
NtRp3855
(dp3856
g62
(dp3857
sg71
g3842
sg64
(lp3858
g57
(g58
g59
NtRp3859
(dp3860
g62
(dp3861
g70
I3
ssg71
g3855
sg64
(lp3862
g2603
asbasbasbag57
(g73
g59
NtRp3863
(dp3864
g62
(dp3865
sg71
g3352
sg64
(lp3866
g57
(g78
g59
NtRp3867
(dp3868
g62
(dp3869
g82
g83
ssg71
g3863
sg64
(lp3870
S'wsgi.run_once'
p3871
asbag57
(g78
g59
NtRp3872
(dp3873
g62
(dp3874
g89
g90
ssg71
g3863
sg64
(lp3875
S':'
asbag57
(g78
g59
NtRp3876
(dp3877
g62
(dp3878
sg71
g3863
sg64
(lp3879
g57
(g58
g59
NtRp3880
(dp3881
g62
(dp3882
g70
I3
ssg71
g3876
sg64
(lp3883
g100
asbasbasbag57
(g73
g59
NtRp3884
(dp3885
g62
(dp3886
sg71
g3352
sg64
(lp3887
g57
(g78
g59
NtRp3888
(dp3889
g62
(dp3890
g82
g83
ssg71
g3884
sg64
(lp3891
S'wsgi.url_scheme'
p3892
asbag57
(g78
g59
NtRp3893
(dp3894
g62
(dp3895
g89
g90
ssg71
g3884
sg64
(lp3896
S':'
asbag57
(g78
g59
NtRp3897
(dp3898
g62
(dp3899
sg71
g3884
sg64
(lp3900
g57
(g58
g59
NtRp3901
(dp3902
g62
(dp3903
g70
I3
ssg71
g3897
sg64
(lp3904
g2646
asbasbasbag57
(g73
g59
NtRp3905
(dp3906
g62
(dp3907
sg71
g3352
sg64
(lp3908
g57
(g78
g59
NtRp3909
(dp3910
g62
(dp3911
g82
g83
ssg71
g3905
sg64
(lp3912
S'wsgi.version'
p3913
asbag57
(g78
g59
NtRp3914
(dp3915
g62
(dp3916
g89
g90
ssg71
g3905
sg64
(lp3917
S':'
asbag57
(g78
g59
NtRp3918
(dp3919
g62
(dp3920
sg71
g3905
sg64
(lp3921
g57
(g58
g59
NtRp3922
(dp3923
g62
(dp3924
g70
I3
ssg71
g3918
sg64
(lp3925
S'1'
asbasbasbasbasbasbasbasbasbasbasbasbasbsS'frames'
p3926
(lp3927
(dp3928
S'file'
p3929
S'/home/vishrut/web2py/gluon/restricted.py'
p3930
sS'dump'
p3931
(dp3932
S'environment'
p3933
S"{'A': <class 'gluon.html.A'>, 'Auth': <class 'gluon.tools.Auth'>, 'B': <class 'gluon.html.B'>, 'BEAUTIFY': <class 'gluon.html.BEAUTIFY'>, 'BODY': <class 'gluon.html.BODY'>, 'BR': <class 'gluon.html.BR'>, 'BUTTON': <class 'gluon.html.BUTTON'>, 'CAT': <class 'gluon.html.CAT'>, 'CENTER': <class 'gluon.html.CENTER'>, 'CLEANUP': <class 'gluon.validators.CLEANUP'>, ...}"
p3934
sS'ccode'
p3935
S'<code object <module> at 0xa236020, file "/home/...ications/astra1/views/default/show.html", line 1>'
p3936
ssS'lnum'
p3937
I205
sS'lines'
p3938
(dp3939
I200
S'    try:'
p3940
sI201
S'        if type(code) == types.CodeType:'
p3941
sI202
S'            ccode = code'
p3942
sI203
S'        else:'
p3943
sI204
S'            ccode = compile2(code,layer)'
p3944
sI205
S'        exec ccode in environment'
p3945
sI206
S'    except HTTP:'
p3946
sI207
S'        raise'
p3947
sI208
S'    except RestrictedError:'
p3948
sI209
S'        # do not encapsulate (obfuscate) the original RestrictedError'
p3949
ssS'call'
p3950
S'(code=r"response.write(\'<!DOCTYPE html>\\n<!-- paulirish....ponse.write(\'\\n</body>\\n</html>\\n\', escape=False)", environment={\'A\': <class \'gluon.html.A\'>, \'Auth\': <class \'gluon.tools.Auth\'>, \'B\': <class \'gluon.html.B\'>, \'BEAUTIFY\': <class \'gluon.html.BEAUTIFY\'>, \'BODY\': <class \'gluon.html.BODY\'>, \'BR\': <class \'gluon.html.BR\'>, \'BUTTON\': <class \'gluon.html.BUTTON\'>, \'CAT\': <class \'gluon.html.CAT\'>, \'CENTER\': <class \'gluon.html.CENTER\'>, \'CLEANUP\': <class \'gluon.validators.CLEANUP\'>, ...}, layer=\'/home/vishrut/web2py/applications/astra1/views/default/show.html\')'
p3951
sS'func'
p3952
S'restricted'
p3953
sa(dp3954
g3929
S'/home/vishrut/web2py/applications/astra1/views/default/show.html'
p3955
sg3931
(dp3956
sg3937
I92
sg3938
(dp3957
I96
S"    response.write(URL('enter', args=row.rnum))"
p3958
sI97
S"    response.write('>', escape=False)"
p3959
sI98
S'    response.write(row.rnum)'
p3960
sI99
S"    response.write('</a></p>\\n', escape=False)"
p3961
sI100
S'    pass'
p3962
sI101
S'response.write(\'\\n\\n<button type="button" onclick="document.location=\\\'\', escape=False)'
p3963
sI102
S'response.write(URL("logout"))'
p3964
sI83
S'response.write(\' columns center">\\n          \', escape=False)'
p3965
sI84
S"response.write('\\n          ', escape=False)"
p3966
sI85
S"response.write('\\n<h1>This is the default/show.html template</h1>\\n', escape=False)"
p3967
sI86
S'xxx=db(db.kids.username==session.username).select().first().rno'
p3968
sI87
S"response.write('\\n', escape=False)"
p3969
sI88
S'if xxx==None:'
p3970
sI89
S'    response.write(\'\\n<img src="/astra1/static/hh.jpeg"> </img>\\n\', escape=False)'
p3971
sI90
S'    pass'
p3972
sI91
S'response.write(\'\\n<video width="320" height="240" controls="controls">  \\n        <source src="\', escape=False)'
p3973
sI92
S"response.write(URL('static', xxx+'.ogv'))"
p3974
sI93
S'response.write(\'" type="video/ogg">\\n</video>\\n\\n\', escape=False)'
p3975
sI94
S'for row in db(db.rooms.active==True).select(orderby=db.rooms.rnum):'
p3976
sI95
S"    response.write('\\n<p><a href=', escape=False)"
p3977
ssg3950
S'()'
p3978
sg3952
S'<module>'
p3979
sasS'pyver'
p3980
S'Python 2.7.2+: /usr/bin/python'
p3981
sS'session'
p3982
g57
(g58
g59
NtRp3983
(dp3984
g62
(dp3985
sg64
(lp3986
g57
(g66
g59
NtRp3987
(dp3988
g62
(dp3989
g70
I5
ssg71
Nsg64
(lp3990
g57
(g73
g59
NtRp3991
(dp3992
g62
(dp3993
sg71
g3987
sg64
(lp3994
g57
(g78
g59
NtRp3995
(dp3996
g62
(dp3997
g82
g83
ssg71
g3991
sg64
(lp3998
S'last_query'
p3999
asbag57
(g78
g59
NtRp4000
(dp4001
g62
(dp4002
g89
g90
ssg71
g3991
sg64
(lp4003
S':'
asbag57
(g78
g59
NtRp4004
(dp4005
g62
(dp4006
sg71
g3991
sg64
(lp4007
g57
(g58
g59
NtRp4008
(dp4009
g62
(dp4010
g70
I5
ssg71
g4004
sg64
(lp4011
S'db.kids.id>0'
p4012
asbasbasbag57
(g73
g59
NtRp4013
(dp4014
g62
(dp4015
sg71
g3987
sg64
(lp4016
g57
(g78
g59
NtRp4017
(dp4018
g62
(dp4019
g82
g83
ssg71
g4013
sg64
(lp4020
S'logged'
p4021
asbag57
(g78
g59
NtRp4022
(dp4023
g62
(dp4024
g89
g90
ssg71
g4013
sg64
(lp4025
S':'
asbag57
(g78
g59
NtRp4026
(dp4027
g62
(dp4028
sg71
g4013
sg64
(lp4029
g57
(g58
g59
NtRp4030
(dp4031
g62
(dp4032
g70
I5
ssg71
g4026
sg64
(lp4033
S'0'
asbasbasbag57
(g73
g59
NtRp4034
(dp4035
g62
(dp4036
sg71
g3987
sg64
(lp4037
g57
(g78
g59
NtRp4038
(dp4039
g62
(dp4040
g82
g83
ssg71
g4034
sg64
(lp4041
S'name'
p4042
asbag57
(g78
g59
NtRp4043
(dp4044
g62
(dp4045
g89
g90
ssg71
g4034
sg64
(lp4046
S':'
asbag57
(g78
g59
NtRp4047
(dp4048
g62
(dp4049
sg71
g4034
sg64
(lp4050
g57
(g58
g59
NtRp4051
(dp4052
g62
(dp4053
g70
I5
ssg71
g4047
sg64
(lp4054
S'Hist'
p4055
asbasbasbag57
(g73
g59
NtRp4056
(dp4057
g62
(dp4058
sg71
g3987
sg64
(lp4059
g57
(g78
g59
NtRp4060
(dp4061
g62
(dp4062
g82
g83
ssg71
g4056
sg64
(lp4063
S'username'
p4064
asbag57
(g78
g59
NtRp4065
(dp4066
g62
(dp4067
g89
g90
ssg71
g4056
sg64
(lp4068
S':'
asbag57
(g78
g59
NtRp4069
(dp4070
g62
(dp4071
sg71
g4056
sg64
(lp4072
g57
(g58
g59
NtRp4073
(dp4074
g62
(dp4075
g70
I5
ssg71
g4069
sg64
(lp4076
S'Tushant'
p4077
asbasbasbasbasbsS'etype'
p4078
S"<type 'exceptions.TypeError'>"
p4079
sS'date'
p4080
S'Mon Oct 15 01:39:22 2012'
p4081
sS'response'
p4082
g57
(g58
g59
NtRp4083
(dp4084
g62
(dp4085
sg64
(lp4086
g57
(g66
g59
NtRp4087
(dp4088
g62
(dp4089
g70
I5
ssg71
Nsg64
(lp4090
g57
(g73
g59
NtRp4091
(dp4092
g62
(dp4093
sg71
g4087
sg64
(lp4094
g57
(g78
g59
NtRp4095
(dp4096
g62
(dp4097
g82
g83
ssg71
g4091
sg64
(lp4098
g155
asbag57
(g78
g59
NtRp4099
(dp4100
g62
(dp4101
g89
g90
ssg71
g4091
sg64
(lp4102
S':'
asbag57
(g78
g59
NtRp4103
(dp4104
g62
(dp4105
sg71
g4091
sg64
(lp4106
g57
(g58
g59
NtRp4107
(dp4108
g62
(dp4109
g70
I5
ssg71
g4103
sg64
(lp4110
S'<cStringIO.StringO object at 0xa532620>'
p4111
asbasbasbag57
(g73
g59
NtRp4112
(dp4113
g62
(dp4114
sg71
g4087
sg64
(lp4115
g57
(g78
g59
NtRp4116
(dp4117
g62
(dp4118
g82
g83
ssg71
g4112
sg64
(lp4119
g221
asbag57
(g78
g59
NtRp4120
(dp4121
g62
(dp4122
g89
g90
ssg71
g4112
sg64
(lp4123
S':'
asbag57
(g78
g59
NtRp4124
(dp4125
g62
(dp4126
sg71
g4112
sg64
(lp4127
g57
(g58
g59
NtRp4128
(dp4129
g62
(dp4130
g70
I5
ssg71
g4124
sg64
(lp4131
g57
(g66
g59
NtRp4132
(dp4133
g62
(dp4134
g70
I4
ssg71
Nsg64
(lp4135
g57
(g73
g59
NtRp4136
(dp4137
g62
(dp4138
sg71
g4132
sg64
(lp4139
g57
(g78
g59
NtRp4140
(dp4141
g62
(dp4142
g82
g83
ssg71
g4136
sg64
(lp4143
S'session_id_astra1'
p4144
asbag57
(g78
g59
NtRp4145
(dp4146
g62
(dp4147
g89
g90
ssg71
g4136
sg64
(lp4148
S':'
asbag57
(g78
g59
NtRp4149
(dp4150
g62
(dp4151
sg71
g4136
sg64
(lp4152
g57
(g58
g59
NtRp4153
(dp4154
g62
(dp4155
g70
I4
ssg71
g4149
sg64
(lp4156
g57
(g66
g59
NtRp4157
(dp4158
g62
(dp4159
g70
I3
ssg71
Nsg64
(lp4160
g57
(g73
g59
NtRp4161
(dp4162
g62
(dp4163
sg71
g4157
sg64
(lp4164
g57
(g78
g59
NtRp4165
(dp4166
g62
(dp4167
g82
g83
ssg71
g4161
sg64
(lp4168
g271
asbag57
(g78
g59
NtRp4169
(dp4170
g62
(dp4171
g89
g90
ssg71
g4161
sg64
(lp4172
S':'
asbag57
(g78
g59
NtRp4173
(dp4174
g62
(dp4175
sg71
g4161
sg64
(lp4176
g57
(g58
g59
NtRp4177
(dp4178
g62
(dp4179
g70
I3
ssg71
g4173
sg64
(lp4180
S''
asbasbasbag57
(g73
g59
NtRp4181
(dp4182
g62
(dp4183
sg71
g4157
sg64
(lp4184
g57
(g78
g59
NtRp4185
(dp4186
g62
(dp4187
g82
g83
ssg71
g4181
sg64
(lp4188
g292
asbag57
(g78
g59
NtRp4189
(dp4190
g62
(dp4191
g89
g90
ssg71
g4181
sg64
(lp4192
S':'
asbag57
(g78
g59
NtRp4193
(dp4194
g62
(dp4195
sg71
g4181
sg64
(lp4196
g57
(g58
g59
NtRp4197
(dp4198
g62
(dp4199
g70
I3
ssg71
g4193
sg64
(lp4200
S''
asbasbasbag57
(g73
g59
NtRp4201
(dp4202
g62
(dp4203
sg71
g4157
sg64
(lp4204
g57
(g78
g59
NtRp4205
(dp4206
g62
(dp4207
g82
g83
ssg71
g4201
sg64
(lp4208
g313
asbag57
(g78
g59
NtRp4209
(dp4210
g62
(dp4211
g89
g90
ssg71
g4201
sg64
(lp4212
S':'
asbag57
(g78
g59
NtRp4213
(dp4214
g62
(dp4215
sg71
g4201
sg64
(lp4216
g57
(g58
g59
NtRp4217
(dp4218
g62
(dp4219
g70
I3
ssg71
g4213
sg64
(lp4220
S''
asbasbasbag57
(g73
g59
NtRp4221
(dp4222
g62
(dp4223
sg71
g4157
sg64
(lp4224
g57
(g78
g59
NtRp4225
(dp4226
g62
(dp4227
g82
g83
ssg71
g4221
sg64
(lp4228
g334
asbag57
(g78
g59
NtRp4229
(dp4230
g62
(dp4231
g89
g90
ssg71
g4221
sg64
(lp4232
S':'
asbag57
(g78
g59
NtRp4233
(dp4234
g62
(dp4235
sg71
g4221
sg64
(lp4236
g57
(g58
g59
NtRp4237
(dp4238
g62
(dp4239
g70
I3
ssg71
g4233
sg64
(lp4240
S''
asbasbasbag57
(g73
g59
NtRp4241
(dp4242
g62
(dp4243
sg71
g4157
sg64
(lp4244
g57
(g78
g59
NtRp4245
(dp4246
g62
(dp4247
g82
g83
ssg71
g4241
sg64
(lp4248
g355
asbag57
(g78
g59
NtRp4249
(dp4250
g62
(dp4251
g89
g90
ssg71
g4241
sg64
(lp4252
S':'
asbag57
(g78
g59
NtRp4253
(dp4254
g62
(dp4255
sg71
g4241
sg64
(lp4256
g57
(g58
g59
NtRp4257
(dp4258
g62
(dp4259
g70
I3
ssg71
g4253
sg64
(lp4260
S''
asbasbasbag57
(g73
g59
NtRp4261
(dp4262
g62
(dp4263
sg71
g4157
sg64
(lp4264
g57
(g78
g59
NtRp4265
(dp4266
g62
(dp4267
g82
g83
ssg71
g4261
sg64
(lp4268
g376
asbag57
(g78
g59
NtRp4269
(dp4270
g62
(dp4271
g89
g90
ssg71
g4261
sg64
(lp4272
S':'
asbag57
(g78
g59
NtRp4273
(dp4274
g62
(dp4275
sg71
g4261
sg64
(lp4276
g57
(g58
g59
NtRp4277
(dp4278
g62
(dp4279
g70
I3
ssg71
g4273
sg64
(lp4280
S'/'
asbasbasbag57
(g73
g59
NtRp4281
(dp4282
g62
(dp4283
sg71
g4157
sg64
(lp4284
g57
(g78
g59
NtRp4285
(dp4286
g62
(dp4287
g82
g83
ssg71
g4281
sg64
(lp4288
g397
asbag57
(g78
g59
NtRp4289
(dp4290
g62
(dp4291
g89
g90
ssg71
g4281
sg64
(lp4292
S':'
asbag57
(g78
g59
NtRp4293
(dp4294
g62
(dp4295
sg71
g4281
sg64
(lp4296
g57
(g58
g59
NtRp4297
(dp4298
g62
(dp4299
g70
I3
ssg71
g4293
sg64
(lp4300
S''
asbasbasbag57
(g73
g59
NtRp4301
(dp4302
g62
(dp4303
sg71
g4157
sg64
(lp4304
g57
(g78
g59
NtRp4305
(dp4306
g62
(dp4307
g82
g83
ssg71
g4301
sg64
(lp4308
g418
asbag57
(g78
g59
NtRp4309
(dp4310
g62
(dp4311
g89
g90
ssg71
g4301
sg64
(lp4312
S':'
asbag57
(g78
g59
NtRp4313
(dp4314
g62
(dp4315
sg71
g4301
sg64
(lp4316
g57
(g58
g59
NtRp4317
(dp4318
g62
(dp4319
g70
I3
ssg71
g4313
sg64
(lp4320
S''
asbasbasbasbasbasbasbasbasbasbasbag57
(g73
g59
NtRp4321
(dp4322
g62
(dp4323
sg71
g4087
sg64
(lp4324
g57
(g78
g59
NtRp4325
(dp4326
g62
(dp4327
g82
g83
ssg71
g4321
sg64
(lp4328
S'delimiters'
p4329
asbag57
(g78
g59
NtRp4330
(dp4331
g62
(dp4332
g89
g90
ssg71
g4321
sg64
(lp4333
S':'
asbag57
(g78
g59
NtRp4334
(dp4335
g62
(dp4336
sg71
g4321
sg64
(lp4337
g57
(g58
g59
NtRp4338
(dp4339
g62
(dp4340
g70
I5
ssg71
g4334
sg64
(lp4341
g57
(g66
g59
NtRp4342
(dp4343
g62
(dp4344
g70
I4
ssg71
Nsg64
(lp4345
g57
(g73
g59
NtRp4346
(dp4347
g62
(dp4348
sg71
g4342
sg64
(lp4349
g57
(g78
g59
NtRp4350
(dp4351
g62
(dp4352
sg71
g4346
sg64
(lp4353
g57
(g58
g59
NtRp4354
(dp4355
g62
(dp4356
g70
I4
ssg71
g4350
sg64
(lp4357
S'{{'
p4358
asbasbasbag57
(g73
g59
NtRp4359
(dp4360
g62
(dp4361
sg71
g4342
sg64
(lp4362
g57
(g78
g59
NtRp4363
(dp4364
g62
(dp4365
sg71
g4359
sg64
(lp4366
g57
(g58
g59
NtRp4367
(dp4368
g62
(dp4369
g70
I4
ssg71
g4363
sg64
(lp4370
S'}}'
p4371
asbasbasbasbasbasbasbag57
(g73
g59
NtRp4372
(dp4373
g62
(dp4374
sg71
g4087
sg64
(lp4375
g57
(g78
g59
NtRp4376
(dp4377
g62
(dp4378
g82
g83
ssg71
g4372
sg64
(lp4379
S'files'
p4380
asbag57
(g78
g59
NtRp4381
(dp4382
g62
(dp4383
g89
g90
ssg71
g4372
sg64
(lp4384
S':'
asbag57
(g78
g59
NtRp4385
(dp4386
g62
(dp4387
sg71
g4372
sg64
(lp4388
g57
(g58
g59
NtRp4389
(dp4390
g62
(dp4391
g70
I5
ssg71
g4385
sg64
(lp4392
g57
(g66
g59
NtRp4393
(dp4394
g62
(dp4395
g70
I4
ssg71
Nsg64
(lp4396
g57
(g73
g59
NtRp4397
(dp4398
g62
(dp4399
sg71
g4393
sg64
(lp4400
g57
(g78
g59
NtRp4401
(dp4402
g62
(dp4403
sg71
g4397
sg64
(lp4404
g57
(g58
g59
NtRp4405
(dp4406
g62
(dp4407
g70
I4
ssg71
g4401
sg64
(lp4408
S'/astra1/static/js/jquery.js'
p4409
asbasbasbag57
(g73
g59
NtRp4410
(dp4411
g62
(dp4412
sg71
g4393
sg64
(lp4413
g57
(g78
g59
NtRp4414
(dp4415
g62
(dp4416
sg71
g4410
sg64
(lp4417
g57
(g58
g59
NtRp4418
(dp4419
g62
(dp4420
g70
I4
ssg71
g4414
sg64
(lp4421
S'/astra1/static/css/calendar.css'
p4422
asbasbasbag57
(g73
g59
NtRp4423
(dp4424
g62
(dp4425
sg71
g4393
sg64
(lp4426
g57
(g78
g59
NtRp4427
(dp4428
g62
(dp4429
sg71
g4423
sg64
(lp4430
g57
(g58
g59
NtRp4431
(dp4432
g62
(dp4433
g70
I4
ssg71
g4427
sg64
(lp4434
S'/astra1/static/js/calendar.js'
p4435
asbasbasbag57
(g73
g59
NtRp4436
(dp4437
g62
(dp4438
sg71
g4393
sg64
(lp4439
g57
(g78
g59
NtRp4440
(dp4441
g62
(dp4442
sg71
g4436
sg64
(lp4443
g57
(g58
g59
NtRp4444
(dp4445
g62
(dp4446
g70
I4
ssg71
g4440
sg64
(lp4447
S'/astra1/static/js/web2py.js'
p4448
asbasbasbag57
(g73
g59
NtRp4449
(dp4450
g62
(dp4451
sg71
g4393
sg64
(lp4452
g57
(g78
g59
NtRp4453
(dp4454
g62
(dp4455
sg71
g4449
sg64
(lp4456
g57
(g58
g59
NtRp4457
(dp4458
g62
(dp4459
g70
I4
ssg71
g4453
sg64
(lp4460
S'/astra1/static/css/skeleton.css'
p4461
asbasbasbag57
(g73
g59
NtRp4462
(dp4463
g62
(dp4464
sg71
g4393
sg64
(lp4465
g57
(g78
g59
NtRp4466
(dp4467
g62
(dp4468
sg71
g4462
sg64
(lp4469
g57
(g58
g59
NtRp4470
(dp4471
g62
(dp4472
g70
I4
ssg71
g4466
sg64
(lp4473
S'/astra1/static/css/web2py.css'
p4474
asbasbasbag57
(g73
g59
NtRp4475
(dp4476
g62
(dp4477
sg71
g4393
sg64
(lp4478
g57
(g78
g59
NtRp4479
(dp4480
g62
(dp4481
sg71
g4475
sg64
(lp4482
g57
(g58
g59
NtRp4483
(dp4484
g62
(dp4485
g70
I4
ssg71
g4479
sg64
(lp4486
S'/astra1/static/css/superfish.css'
p4487
asbasbasbag57
(g73
g59
NtRp4488
(dp4489
g62
(dp4490
sg71
g4393
sg64
(lp4491
g57
(g78
g59
NtRp4492
(dp4493
g62
(dp4494
sg71
g4488
sg64
(lp4495
g57
(g58
g59
NtRp4496
(dp4497
g62
(dp4498
g70
I4
ssg71
g4492
sg64
(lp4499
S'/astra1/static/js/superfish.js'
p4500
asbasbasbasbasbasbasbag57
(g73
g59
NtRp4501
(dp4502
g62
(dp4503
sg71
g4087
sg64
(lp4504
g57
(g78
g59
NtRp4505
(dp4506
g62
(dp4507
g82
g83
ssg71
g4501
sg64
(lp4508
S'flash'
p4509
asbag57
(g78
g59
NtRp4510
(dp4511
g62
(dp4512
g89
g90
ssg71
g4501
sg64
(lp4513
S':'
asbag57
(g78
g59
NtRp4514
(dp4515
g62
(dp4516
sg71
g4501
sg64
(lp4517
g57
(g58
g59
NtRp4518
(dp4519
g62
(dp4520
g70
I5
ssg71
g4514
sg64
(lp4521
S'Welcome Tushant'
p4522
asbasbasbag57
(g73
g59
NtRp4523
(dp4524
g62
(dp4525
sg71
g4087
sg64
(lp4526
g57
(g78
g59
NtRp4527
(dp4528
g62
(dp4529
g82
g83
ssg71
g4523
sg64
(lp4530
S'generic_patterns'
p4531
asbag57
(g78
g59
NtRp4532
(dp4533
g62
(dp4534
g89
g90
ssg71
g4523
sg64
(lp4535
S':'
asbag57
(g78
g59
NtRp4536
(dp4537
g62
(dp4538
sg71
g4523
sg64
(lp4539
g57
(g58
g59
NtRp4540
(dp4541
g62
(dp4542
g70
I5
ssg71
g4536
sg64
(lp4543
g57
(g66
g59
NtRp4544
(dp4545
g62
(dp4546
g70
I4
ssg71
Nsg64
(lp4547
g57
(g73
g59
NtRp4548
(dp4549
g62
(dp4550
sg71
g4544
sg64
(lp4551
g57
(g78
g59
NtRp4552
(dp4553
g62
(dp4554
sg71
g4548
sg64
(lp4555
g57
(g58
g59
NtRp4556
(dp4557
g62
(dp4558
g70
I4
ssg71
g4552
sg64
(lp4559
S'*'
asbasbasbasbasbasbasbag57
(g73
g59
NtRp4560
(dp4561
g62
(dp4562
sg71
g4087
sg64
(lp4563
g57
(g78
g59
NtRp4564
(dp4565
g62
(dp4566
g82
g83
ssg71
g4560
sg64
(lp4567
S'headers'
p4568
asbag57
(g78
g59
NtRp4569
(dp4570
g62
(dp4571
g89
g90
ssg71
g4560
sg64
(lp4572
S':'
asbag57
(g78
g59
NtRp4573
(dp4574
g62
(dp4575
sg71
g4560
sg64
(lp4576
g57
(g58
g59
NtRp4577
(dp4578
g62
(dp4579
g70
I5
ssg71
g4573
sg64
(lp4580
g57
(g66
g59
NtRp4581
(dp4582
g62
(dp4583
g70
I4
ssg71
Nsg64
(lp4584
g57
(g73
g59
NtRp4585
(dp4586
g62
(dp4587
sg71
g4581
sg64
(lp4588
g57
(g78
g59
NtRp4589
(dp4590
g62
(dp4591
g82
g83
ssg71
g4585
sg64
(lp4592
S'Cache-Control'
p4593
asbag57
(g78
g59
NtRp4594
(dp4595
g62
(dp4596
g89
g90
ssg71
g4585
sg64
(lp4597
S':'
asbag57
(g78
g59
NtRp4598
(dp4599
g62
(dp4600
sg71
g4585
sg64
(lp4601
g57
(g58
g59
NtRp4602
(dp4603
g62
(dp4604
g70
I4
ssg71
g4598
sg64
(lp4605
S'no-store, no-cache, must-revalidate, post-check=0, pre-check=0'
p4606
asbasbasbag57
(g73
g59
NtRp4607
(dp4608
g62
(dp4609
sg71
g4581
sg64
(lp4610
g57
(g78
g59
NtRp4611
(dp4612
g62
(dp4613
g82
g83
ssg71
g4607
sg64
(lp4614
S'Content-Type'
p4615
asbag57
(g78
g59
NtRp4616
(dp4617
g62
(dp4618
g89
g90
ssg71
g4607
sg64
(lp4619
S':'
asbag57
(g78
g59
NtRp4620
(dp4621
g62
(dp4622
sg71
g4607
sg64
(lp4623
g57
(g58
g59
NtRp4624
(dp4625
g62
(dp4626
g70
I4
ssg71
g4620
sg64
(lp4627
S'text/html; charset=utf-8'
p4628
asbasbasbag57
(g73
g59
NtRp4629
(dp4630
g62
(dp4631
sg71
g4581
sg64
(lp4632
g57
(g78
g59
NtRp4633
(dp4634
g62
(dp4635
g82
g83
ssg71
g4629
sg64
(lp4636
S'Expires'
p4637
asbag57
(g78
g59
NtRp4638
(dp4639
g62
(dp4640
g89
g90
ssg71
g4629
sg64
(lp4641
S':'
asbag57
(g78
g59
NtRp4642
(dp4643
g62
(dp4644
sg71
g4629
sg64
(lp4645
g57
(g58
g59
NtRp4646
(dp4647
g62
(dp4648
g70
I4
ssg71
g4642
sg64
(lp4649
S'Sun, 14 Oct 2012 20:39:22 GMT'
p4650
asbasbasbag57
(g73
g59
NtRp4651
(dp4652
g62
(dp4653
sg71
g4581
sg64
(lp4654
g57
(g78
g59
NtRp4655
(dp4656
g62
(dp4657
g82
g83
ssg71
g4651
sg64
(lp4658
S'Pragma'
p4659
asbag57
(g78
g59
NtRp4660
(dp4661
g62
(dp4662
g89
g90
ssg71
g4651
sg64
(lp4663
S':'
asbag57
(g78
g59
NtRp4664
(dp4665
g62
(dp4666
sg71
g4651
sg64
(lp4667
g57
(g58
g59
NtRp4668
(dp4669
g62
(dp4670
g70
I4
ssg71
g4664
sg64
(lp4671
S'no-cache'
p4672
asbasbasbag57
(g73
g59
NtRp4673
(dp4674
g62
(dp4675
sg71
g4581
sg64
(lp4676
g57
(g78
g59
NtRp4677
(dp4678
g62
(dp4679
g82
g83
ssg71
g4673
sg64
(lp4680
S'X-Powered-By'
p4681
asbag57
(g78
g59
NtRp4682
(dp4683
g62
(dp4684
g89
g90
ssg71
g4673
sg64
(lp4685
S':'
asbag57
(g78
g59
NtRp4686
(dp4687
g62
(dp4688
sg71
g4673
sg64
(lp4689
g57
(g58
g59
NtRp4690
(dp4691
g62
(dp4692
g70
I4
ssg71
g4686
sg64
(lp4693
S'web2py'
p4694
asbasbasbasbasbasbasbag57
(g73
g59
NtRp4695
(dp4696
g62
(dp4697
sg71
g4087
sg64
(lp4698
g57
(g78
g59
NtRp4699
(dp4700
g62
(dp4701
g82
g83
ssg71
g4695
sg64
(lp4702
S'menu'
p4703
asbag57
(g78
g59
NtRp4704
(dp4705
g62
(dp4706
g89
g90
ssg71
g4695
sg64
(lp4707
S':'
asbag57
(g78
g59
NtRp4708
(dp4709
g62
(dp4710
sg71
g4695
sg64
(lp4711
g57
(g58
g59
NtRp4712
(dp4713
g62
(dp4714
g70
I5
ssg71
g4708
sg64
(lp4715
g57
(g66
g59
NtRp4716
(dp4717
g62
(dp4718
g70
I4
ssg71
Nsg64
(lp4719
g57
(g73
g59
NtRp4720
(dp4721
g62
(dp4722
sg71
g4716
sg64
(lp4723
g57
(g78
g59
NtRp4724
(dp4725
g62
(dp4726
sg71
g4720
sg64
(lp4727
g57
(g58
g59
NtRp4728
(dp4729
g62
(dp4730
g70
I4
ssg71
g4724
sg64
(lp4731
g57
(g66
g59
NtRp4732
(dp4733
g62
(dp4734
g70
I3
ssg71
Nsg64
(lp4735
g57
(g73
g59
NtRp4736
(dp4737
g62
(dp4738
sg71
g4732
sg64
(lp4739
g57
(g78
g59
NtRp4740
(dp4741
g62
(dp4742
sg71
g4736
sg64
(lp4743
g57
(g58
g59
NtRp4744
(dp4745
g62
(dp4746
g70
I3
ssg71
g4740
sg64
(lp4747
cgluon.languages
lazyT_unpickle
p4748
(S't\x04\x00\x00\x00Home'
tRp4749
asbasbasbag57
(g73
g59
NtRp4750
(dp4751
g62
(dp4752
sg71
g4732
sg64
(lp4753
g57
(g78
g59
NtRp4754
(dp4755
g62
(dp4756
sg71
g4750
sg64
(lp4757
g57
(g58
g59
NtRp4758
(dp4759
g62
(dp4760
g70
I3
ssg71
g4754
sg64
(lp4761
g100
asbasbasbag57
(g73
g59
NtRp4762
(dp4763
g62
(dp4764
sg71
g4732
sg64
(lp4765
g57
(g78
g59
NtRp4766
(dp4767
g62
(dp4768
sg71
g4762
sg64
(lp4769
g57
(g58
g59
NtRp4770
(dp4771
g62
(dp4772
g70
I3
ssg71
g4766
sg64
(lp4773
S'/astra1/default/index'
p4774
asbasbasbag57
(g73
g59
NtRp4775
(dp4776
g62
(dp4777
sg71
g4732
sg64
(lp4778
g57
(g78
g59
NtRp4779
(dp4780
g62
(dp4781
sg71
g4775
sg64
(lp4782
g57
(g58
g59
NtRp4783
(dp4784
g62
(dp4785
g70
I3
ssg71
g4779
sg64
(lp4786
g57
(g66
g59
NtRp4787
(dp4788
g62
(dp4789
g70
I2
ssg71
Nsg64
(lp4790
sbasbasbasbasbasbasbasbag57
(g73
g59
NtRp4791
(dp4792
g62
(dp4793
sg71
g4716
sg64
(lp4794
g57
(g78
g59
NtRp4795
(dp4796
g62
(dp4797
sg71
g4791
sg64
(lp4798
g57
(g58
g59
NtRp4799
(dp4800
g62
(dp4801
g70
I4
ssg71
g4795
sg64
(lp4802
g57
(g66
g59
NtRp4803
(dp4804
g62
(dp4805
g70
I3
ssg71
Nsg64
(lp4806
g57
(g73
g59
NtRp4807
(dp4808
g62
(dp4809
sg71
g4803
sg64
(lp4810
g57
(g78
g59
NtRp4811
(dp4812
g62
(dp4813
sg71
g4807
sg64
(lp4814
g57
(g58
g59
NtRp4815
(dp4816
g62
(dp4817
g70
I3
ssg71
g4811
sg64
(lp4818
g57
(cgluon.html
SPAN
p4819
g59
NtRp4820
(dp4821
g62
(dp4822
g82
S'color:yellow'
p4823
ssg71
g57
(cgluon.html
A
p4824
g59
NtRp4825
(dp4826
g62
(dp4827
S'_onclick'
p4828
S'javascript:void(0);return false;'
p4829
sS'_href'
p4830
S'#'
ssg71
g57
(cgluon.html
LI
p4831
g59
NtRp4832
(dp4833
g62
(dp4834
S'_class'
p4835
S'web2py-menu-expand'
p4836
ssg71
g57
(cgluon.html
UL
p4837
g59
NtRp4838
(dp4839
g62
(dp4840
S'mobile'
p4841
I00
sS'li_class'
p4842
g4836
sg4835
S'sf-menu'
p4843
sS'ul_class'
p4844
S'web2py-menu-vertical'
p4845
sS'li_active'
p4846
S'web2py-menu-active'
p4847
ssg71
Nsg64
(lp4848
g57
(g4831
g59
NtRp4849
(dp4850
g62
(dp4851
sg71
g4838
sg64
(lp4852
g57
(g4824
g59
NtRp4853
(dp4854
g62
(dp4855
g4830
g4774
ssg71
g4849
sg64
(lp4856
g4749
asbasbag4832
asbsg64
(lp4857
g4825
ag57
(g4837
g59
NtRp4858
(dp4859
g62
(dp4860
g4835
g4845
ssg71
g4832
sg64
(lp4861
g57
(g4831
g59
NtRp4862
(dp4863
g62
(dp4864
sg71
g4858
sg64
(lp4865
g57
(g4824
g59
NtRp4866
(dp4867
g62
(dp4868
g4830
S'/admin/default/site'
p4869
ssg71
g4862
sg64
(lp4870
g4748
(S's\x08\x00\x00\x00My Sites'
tRp4871
asbasbag57
(g4831
g59
NtRp4872
(dp4873
g62
(dp4874
g4835
g4836
ssg71
g4858
sg64
(lp4875
g57
(g4824
g59
NtRp4876
(dp4877
g62
(dp4878
g4830
S'/admin/default/design/astra1'
p4879
ssg71
g4872
sg64
(lp4880
g4748
(S's\x08\x00\x00\x00This App'
tRp4881
asbag57
(g4837
g59
NtRp4882
(dp4883
g62
(dp4884
g4835
g4845
ssg71
g4872
sg64
(lp4885
g57
(g4831
g59
NtRp4886
(dp4887
g62
(dp4888
sg71
g4882
sg64
(lp4889
g57
(g4824
g59
NtRp4890
(dp4891
g62
(dp4892
g4830
S'/admin/default/edit/astra1/controllers/default.py'
p4893
ssg71
g4886
sg64
(lp4894
g4748
(S't\n\x00\x00\x00Controller'
tRp4895
asbasbag57
(g4831
g59
NtRp4896
(dp4897
g62
(dp4898
sg71
g4882
sg64
(lp4899
g57
(g4824
g59
NtRp4900
(dp4901
g62
(dp4902
g4830
S'/admin/default/edit/astra1/views/default/show.html'
p4903
ssg71
g4896
sg64
(lp4904
g4748
(S't\x04\x00\x00\x00View'
tRp4905
asbasbag57
(g4831
g59
NtRp4906
(dp4907
g62
(dp4908
sg71
g4882
sg64
(lp4909
g57
(g4824
g59
NtRp4910
(dp4911
g62
(dp4912
g4830
S'/admin/default/edit/astra1/views/layout.html'
p4913
ssg71
g4906
sg64
(lp4914
g4748
(S't\x06\x00\x00\x00Layout'
tRp4915
asbasbag57
(g4831
g59
NtRp4916
(dp4917
g62
(dp4918
sg71
g4882
sg64
(lp4919
g57
(g4824
g59
NtRp4920
(dp4921
g62
(dp4922
g4830
S'/admin/default/edit/astra1/static/css/web2py.css'
p4923
ssg71
g4916
sg64
(lp4924
g4748
(S't\n\x00\x00\x00Stylesheet'
tRp4925
asbasbag57
(g4831
g59
NtRp4926
(dp4927
g62
(dp4928
sg71
g4882
sg64
(lp4929
g57
(g4824
g59
NtRp4930
(dp4931
g62
(dp4932
g4830
S'/admin/default/edit/astra1/models/db.py'
p4933
ssg71
g4926
sg64
(lp4934
g4748
(S's\x08\x00\x00\x00DB Model'
tRp4935
asbasbag57
(g4831
g59
NtRp4936
(dp4937
g62
(dp4938
sg71
g4882
sg64
(lp4939
g57
(g4824
g59
NtRp4940
(dp4941
g62
(dp4942
g4830
S'/admin/default/edit/astra1/models/menu.py'
p4943
ssg71
g4936
sg64
(lp4944
g4748
(S's\n\x00\x00\x00Menu Model'
tRp4945
asbasbag57
(g4831
g59
NtRp4946
(dp4947
g62
(dp4948
sg71
g4882
sg64
(lp4949
g57
(g4824
g59
NtRp4950
(dp4951
g62
(dp4952
g4830
S'/astra1/appadmin/index'
p4953
ssg71
g4946
sg64
(lp4954
g4748
(S't\x08\x00\x00\x00Database'
tRp4955
asbasbag57
(g4831
g59
NtRp4956
(dp4957
g62
(dp4958
sg71
g4882
sg64
(lp4959
g57
(g4824
g59
NtRp4960
(dp4961
g62
(dp4962
g4830
S'/admin/default/errors/astra1'
p4963
ssg71
g4956
sg64
(lp4964
g4748
(S't\x06\x00\x00\x00Errors'
tRp4965
asbasbag57
(g4831
g59
NtRp4966
(dp4967
g62
(dp4968
sg71
g4882
sg64
(lp4969
g57
(g4824
g59
NtRp4970
(dp4971
g62
(dp4972
g4830
S'/admin/default/about/astra1'
p4973
ssg71
g4966
sg64
(lp4974
g4748
(S't\x05\x00\x00\x00About'
tRp4975
asbasbasbasbag57
(g4831
g59
NtRp4976
(dp4977
g62
(dp4978
g4835
g4836
ssg71
g4858
sg64
(lp4979
g57
(g4824
g59
NtRp4980
(dp4981
g62
(dp4982
g4830
S'http://www.web2py.com'
p4983
ssg71
g4976
sg64
(lp4984
S'web2py.com'
p4985
asbag57
(g4837
g59
NtRp4986
(dp4987
g62
(dp4988
g4835
g4845
ssg71
g4976
sg64
(lp4989
g57
(g4831
g59
NtRp4990
(dp4991
g62
(dp4992
sg71
g4986
sg64
(lp4993
g57
(g4824
g59
NtRp4994
(dp4995
g62
(dp4996
g4830
S'http://www.web2py.com/examples/default/download'
p4997
ssg71
g4990
sg64
(lp4998
g4748
(S't\x08\x00\x00\x00Download'
tRp4999
asbasbag57
(g4831
g59
NtRp5000
(dp5001
g62
(dp5002
sg71
g4986
sg64
(lp5003
g57
(g4824
g59
NtRp5004
(dp5005
g62
(dp5006
g4830
S'http://www.web2py.com/examples/default/support'
p5007
ssg71
g5000
sg64
(lp5008
g4748
(S't\x07\x00\x00\x00Support'
tRp5009
asbasbag57
(g4831
g59
NtRp5010
(dp5011
g62
(dp5012
sg71
g4986
sg64
(lp5013
g57
(g4824
g59
NtRp5014
(dp5015
g62
(dp5016
g4830
S'http://web2py.com/demo_admin'
p5017
ssg71
g5010
sg64
(lp5018
g4748
(S't\x04\x00\x00\x00Demo'
tRp5019
asbasbag57
(g4831
g59
NtRp5020
(dp5021
g62
(dp5022
sg71
g4986
sg64
(lp5023
g57
(g4824
g59
NtRp5024
(dp5025
g62
(dp5026
g4830
S'http://web2py.com/examples/default/examples'
p5027
ssg71
g5020
sg64
(lp5028
g4748
(S's\x0e\x00\x00\x00Quick Examples'
tRp5029
asbasbag57
(g4831
g59
NtRp5030
(dp5031
g62
(dp5032
sg71
g4986
sg64
(lp5033
g57
(g4824
g59
NtRp5034
(dp5035
g62
(dp5036
g4830
S'http://web2py.com/AlterEgo'
p5037
ssg71
g5030
sg64
(lp5038
g4748
(S't\x03\x00\x00\x00FAQ'
tRp5039
asbasbag57
(g4831
g59
NtRp5040
(dp5041
g62
(dp5042
sg71
g4986
sg64
(lp5043
g57
(g4824
g59
NtRp5044
(dp5045
g62
(dp5046
g4830
S'http://www.web2py.com/examples/default/videos/'
p5047
ssg71
g5040
sg64
(lp5048
g4748
(S't\x06\x00\x00\x00Videos'
tRp5049
asbasbag57
(g4831
g59
NtRp5050
(dp5051
g62
(dp5052
sg71
g4986
sg64
(lp5053
g57
(g4824
g59
NtRp5054
(dp5055
g62
(dp5056
g4830
S'http://web2py.com/appliances'
p5057
ssg71
g5050
sg64
(lp5058
g4748
(S's\x11\x00\x00\x00Free Applications'
tRp5059
asbasbag57
(g4831
g59
NtRp5060
(dp5061
g62
(dp5062
sg71
g4986
sg64
(lp5063
g57
(g4824
g59
NtRp5064
(dp5065
g62
(dp5066
g4830
S'http://web2py.com/plugins'
p5067
ssg71
g5060
sg64
(lp5068
g4748
(S't\x07\x00\x00\x00Plugins'
tRp5069
asbasbag57
(g4831
g59
NtRp5070
(dp5071
g62
(dp5072
sg71
g4986
sg64
(lp5073
g57
(g4824
g59
NtRp5074
(dp5075
g62
(dp5076
g4830
S'http://web2py.com/layouts'
p5077
ssg71
g5070
sg64
(lp5078
g4748
(S't\x07\x00\x00\x00Layouts'
tRp5079
asbasbag57
(g4831
g59
NtRp5080
(dp5081
g62
(dp5082
sg71
g4986
sg64
(lp5083
g57
(g4824
g59
NtRp5084
(dp5085
g62
(dp5086
g4830
S'http://web2pyslices.com/'
p5087
ssg71
g5080
sg64
(lp5088
g4748
(S't\x07\x00\x00\x00Recipes'
tRp5089
asbasbag57
(g4831
g59
NtRp5090
(dp5091
g62
(dp5092
sg71
g4986
sg64
(lp5093
g57
(g4824
g59
NtRp5094
(dp5095
g62
(dp5096
g4830
S'http://web2py.com/semantic'
p5097
ssg71
g5090
sg64
(lp5098
g4748
(S't\x08\x00\x00\x00Semantic'
tRp5099
asbasbasbasbag57
(g4831
g59
NtRp5100
(dp5101
g62
(dp5102
g4835
g4836
ssg71
g4858
sg64
(lp5103
g57
(g4824
g59
NtRp5104
(dp5105
g62
(dp5106
g4830
S'http://www.web2py.com/book'
p5107
ssg71
g5100
sg64
(lp5108
g4748
(S't\r\x00\x00\x00Documentation'
tRp5109
asbag57
(g4837
g59
NtRp5110
(dp5111
g62
(dp5112
g4835
g4845
ssg71
g5100
sg64
(lp5113
g57
(g4831
g59
NtRp5114
(dp5115
g62
(dp5116
sg71
g5110
sg64
(lp5117
g57
(g4824
g59
NtRp5118
(dp5119
g62
(dp5120
g4830
S'http://www.web2py.com/book/default/chapter/00'
p5121
ssg71
g5114
sg64
(lp5122
g4748
(S't\x07\x00\x00\x00Preface'
tRp5123
asbasbag57
(g4831
g59
NtRp5124
(dp5125
g62
(dp5126
sg71
g5110
sg64
(lp5127
g57
(g4824
g59
NtRp5128
(dp5129
g62
(dp5130
g4830
S'http://www.web2py.com/book/default/chapter/01'
p5131
ssg71
g5124
sg64
(lp5132
g4748
(S't\x0c\x00\x00\x00Introduction'
tRp5133
asbasbag57
(g4831
g59
NtRp5134
(dp5135
g62
(dp5136
sg71
g5110
sg64
(lp5137
g57
(g4824
g59
NtRp5138
(dp5139
g62
(dp5140
g4830
S'http://www.web2py.com/book/default/chapter/02'
p5141
ssg71
g5134
sg64
(lp5142
g4748
(S't\x06\x00\x00\x00Python'
tRp5143
asbasbag57
(g4831
g59
NtRp5144
(dp5145
g62
(dp5146
sg71
g5110
sg64
(lp5147
g57
(g4824
g59
NtRp5148
(dp5149
g62
(dp5150
g4830
S'http://www.web2py.com/book/default/chapter/03'
p5151
ssg71
g5144
sg64
(lp5152
g4748
(S't\x08\x00\x00\x00Overview'
tRp5153
asbasbag57
(g4831
g59
NtRp5154
(dp5155
g62
(dp5156
sg71
g5110
sg64
(lp5157
g57
(g4824
g59
NtRp5158
(dp5159
g62
(dp5160
g4830
S'http://www.web2py.com/book/default/chapter/04'
p5161
ssg71
g5154
sg64
(lp5162
g4748
(S's\x08\x00\x00\x00The Core'
tRp5163
asbasbag57
(g4831
g59
NtRp5164
(dp5165
g62
(dp5166
sg71
g5110
sg64
(lp5167
g57
(g4824
g59
NtRp5168
(dp5169
g62
(dp5170
g4830
S'http://www.web2py.com/book/default/chapter/05'
p5171
ssg71
g5164
sg64
(lp5172
g4748
(S's\t\x00\x00\x00The Views'
tRp5173
asbasbag57
(g4831
g59
NtRp5174
(dp5175
g62
(dp5176
sg71
g5110
sg64
(lp5177
g57
(g4824
g59
NtRp5178
(dp5179
g62
(dp5180
g4830
S'http://www.web2py.com/book/default/chapter/06'
p5181
ssg71
g5174
sg64
(lp5182
g4748
(S't\x08\x00\x00\x00Database'
tRp5183
asbasbag57
(g4831
g59
NtRp5184
(dp5185
g62
(dp5186
sg71
g5110
sg64
(lp5187
g57
(g4824
g59
NtRp5188
(dp5189
g62
(dp5190
g4830
S'http://www.web2py.com/book/default/chapter/07'
p5191
ssg71
g5184
sg64
(lp5192
g4748
(S's\x14\x00\x00\x00Forms and Validators'
tRp5193
asbasbag57
(g4831
g59
NtRp5194
(dp5195
g62
(dp5196
sg71
g5110
sg64
(lp5197
g57
(g4824
g59
NtRp5198
(dp5199
g62
(dp5200
g4830
S'http://www.web2py.com/book/default/chapter/08'
p5201
ssg71
g5194
sg64
(lp5202
g4748
(S's\r\x00\x00\x00Email and SMS'
tRp5203
asbasbag57
(g4831
g59
NtRp5204
(dp5205
g62
(dp5206
sg71
g5110
sg64
(lp5207
g57
(g4824
g59
NtRp5208
(dp5209
g62
(dp5210
g4830
S'http://www.web2py.com/book/default/chapter/09'
p5211
ssg71
g5204
sg64
(lp5212
g4748
(S's\x0e\x00\x00\x00Access Control'
tRp5213
asbasbag57
(g4831
g59
NtRp5214
(dp5215
g62
(dp5216
sg71
g5110
sg64
(lp5217
g57
(g4824
g59
NtRp5218
(dp5219
g62
(dp5220
g4830
S'http://www.web2py.com/book/default/chapter/10'
p5221
ssg71
g5214
sg64
(lp5222
g4748
(S't\x08\x00\x00\x00Services'
tRp5223
asbasbag57
(g4831
g59
NtRp5224
(dp5225
g62
(dp5226
sg71
g5110
sg64
(lp5227
g57
(g4824
g59
NtRp5228
(dp5229
g62
(dp5230
g4830
S'http://www.web2py.com/book/default/chapter/11'
p5231
ssg71
g5224
sg64
(lp5232
g4748
(S's\x0c\x00\x00\x00Ajax Recipes'
tRp5233
asbasbag57
(g4831
g59
NtRp5234
(dp5235
g62
(dp5236
sg71
g5110
sg64
(lp5237
g57
(g4824
g59
NtRp5238
(dp5239
g62
(dp5240
g4830
S'http://www.web2py.com/book/default/chapter/12'
p5241
ssg71
g5234
sg64
(lp5242
g4748
(S's\x16\x00\x00\x00Components and Plugins'
tRp5243
asbasbag57
(g4831
g59
NtRp5244
(dp5245
g62
(dp5246
sg71
g5110
sg64
(lp5247
g57
(g4824
g59
NtRp5248
(dp5249
g62
(dp5250
g4830
S'http://www.web2py.com/book/default/chapter/13'
p5251
ssg71
g5244
sg64
(lp5252
g4748
(S's\x12\x00\x00\x00Deployment Recipes'
tRp5253
asbasbag57
(g4831
g59
NtRp5254
(dp5255
g62
(dp5256
sg71
g5110
sg64
(lp5257
g57
(g4824
g59
NtRp5258
(dp5259
g62
(dp5260
g4830
S'http://www.web2py.com/book/default/chapter/14'
p5261
ssg71
g5254
sg64
(lp5262
g4748
(S's\r\x00\x00\x00Other Recipes'
tRp5263
asbasbag57
(g4831
g59
NtRp5264
(dp5265
g62
(dp5266
sg71
g5110
sg64
(lp5267
g57
(g4824
g59
NtRp5268
(dp5269
g62
(dp5270
g4830
S'http://stores.lulu.com/web2py'
p5271
ssg71
g5264
sg64
(lp5272
g4748
(S's\r\x00\x00\x00Buy this book'
tRp5273
asbasbasbasbag57
(g4831
g59
NtRp5274
(dp5275
g62
(dp5276
g4835
g4836
ssg71
g4858
sg64
(lp5277
g57
(g4824
g59
NtRp5278
(dp5279
g62
(dp5280
g4828
g4829
sg4830
S'#'
ssg71
g5274
sg64
(lp5281
g4748
(S't\t\x00\x00\x00Community'
tRp5282
asbag57
(g4837
g59
NtRp5283
(dp5284
g62
(dp5285
g4835
g4845
ssg71
g5274
sg64
(lp5286
g57
(g4831
g59
NtRp5287
(dp5288
g62
(dp5289
sg71
g5283
sg64
(lp5290
g57
(g4824
g59
NtRp5291
(dp5292
g62
(dp5293
g4830
S'http://www.web2py.com/examples/default/usergroups'
p5294
ssg71
g5287
sg64
(lp5295
g4748
(S't\x06\x00\x00\x00Groups'
tRp5296
asbasbag57
(g4831
g59
NtRp5297
(dp5298
g62
(dp5299
sg71
g5283
sg64
(lp5300
g57
(g4824
g59
NtRp5301
(dp5302
g62
(dp5303
g4830
S'http://twitter.com/web2py'
p5304
ssg71
g5297
sg64
(lp5305
g4748
(S't\x07\x00\x00\x00Twitter'
tRp5306
asbasbag57
(g4831
g59
NtRp5307
(dp5308
g62
(dp5309
sg71
g5283
sg64
(lp5310
g57
(g4824
g59
NtRp5311
(dp5312
g62
(dp5313
g4830
S'http://webchat.freenode.net/?channels=web2py'
p5314
ssg71
g5307
sg64
(lp5315
g4748
(S's\t\x00\x00\x00Live Chat'
tRp5316
asbasbasbasbag57
(g4831
g59
NtRp5317
(dp5318
g62
(dp5319
g4835
g4836
ssg71
g4858
sg64
(lp5320
g57
(g4824
g59
NtRp5321
(dp5322
g62
(dp5323
g4828
g4829
sg4830
S'#'
ssg71
g5317
sg64
(lp5324
g4748
(S't\x07\x00\x00\x00Plugins'
tRp5325
asbag57
(g4837
g59
NtRp5326
(dp5327
g62
(dp5328
g4835
g4845
ssg71
g5317
sg64
(lp5329
g57
(g4831
g59
NtRp5330
(dp5331
g62
(dp5332
sg71
g5326
sg64
(lp5333
g57
(g4824
g59
NtRp5334
(dp5335
g62
(dp5336
g4830
S'http://web2py.com/examples/default/download'
p5337
ssg71
g5330
sg64
(lp5338
S'plugin_wiki'
p5339
asbasbag57
(g4831
g59
NtRp5340
(dp5341
g62
(dp5342
sg71
g5326
sg64
(lp5343
g57
(g4824
g59
NtRp5344
(dp5345
g62
(dp5346
g4830
g5067
ssg71
g5340
sg64
(lp5347
g4748
(S's\r\x00\x00\x00Other Plugins'
tRp5348
asbasbag57
(g4831
g59
NtRp5349
(dp5350
g62
(dp5351
sg71
g5326
sg64
(lp5352
g57
(g4824
g59
NtRp5353
(dp5354
g62
(dp5355
g4830
g5077
ssg71
g5349
sg64
(lp5356
g4748
(S's\x0e\x00\x00\x00Layout Plugins'
tRp5357
asbasbasbasbasbasbsg64
(lp5358
g4820
asbsg64
(lp5359
g4694
asbasbasbasbag57
(g73
g59
NtRp5360
(dp5361
g62
(dp5362
sg71
g4803
sg64
(lp5363
g57
(g78
g59
NtRp5364
(dp5365
g62
(dp5366
sg71
g5360
sg64
(lp5367
g57
(g58
g59
NtRp5368
(dp5369
g62
(dp5370
g70
I3
ssg71
g5364
sg64
(lp5371
g100
asbasbasbag57
(g73
g59
NtRp5372
(dp5373
g62
(dp5374
sg71
g4803
sg64
(lp5375
g57
(g78
g59
NtRp5376
(dp5377
g62
(dp5378
sg71
g5372
sg64
(lp5379
g57
(g58
g59
NtRp5380
(dp5381
g62
(dp5382
g70
I3
ssg71
g5376
sg64
(lp5383
S'None'
p5384
asbasbasbag57
(g73
g59
NtRp5385
(dp5386
g62
(dp5387
sg71
g4803
sg64
(lp5388
g57
(g78
g59
NtRp5389
(dp5390
g62
(dp5391
sg71
g5385
sg64
(lp5392
g57
(g58
g59
NtRp5393
(dp5394
g62
(dp5395
g70
I3
ssg71
g5389
sg64
(lp5396
g57
(g66
g59
NtRp5397
(dp5398
g62
(dp5399
g70
I2
ssg71
Nsg64
(lp5400
g57
(g73
g59
NtRp5401
(dp5402
g62
(dp5403
sg71
g5397
sg64
(lp5404
g57
(g78
g59
NtRp5405
(dp5406
g62
(dp5407
sg71
g5401
sg64
(lp5408
g57
(g58
g59
NtRp5409
(dp5410
g62
(dp5411
g70
I2
ssg71
g5405
sg64
(lp5412
g57
(g66
g59
NtRp5413
(dp5414
g62
(dp5415
g70
I1
ssg71
Nsg64
(lp5416
g57
(g73
g59
NtRp5417
(dp5418
g62
(dp5419
sg71
g5413
sg64
(lp5420
g57
(g78
g59
NtRp5421
(dp5422
g62
(dp5423
sg71
g5417
sg64
(lp5424
g57
(g58
g59
NtRp5425
(dp5426
g62
(dp5427
g70
I1
ssg71
g5421
sg64
(lp5428
g4871
asbasbasbag57
(g73
g59
NtRp5429
(dp5430
g62
(dp5431
sg71
g5413
sg64
(lp5432
g57
(g78
g59
NtRp5433
(dp5434
g62
(dp5435
sg71
g5429
sg64
(lp5436
g57
(g58
g59
NtRp5437
(dp5438
g62
(dp5439
g70
I1
ssg71
g5433
sg64
(lp5440
I00
asbasbasbag57
(g73
g59
NtRp5441
(dp5442
g62
(dp5443
sg71
g5413
sg64
(lp5444
g57
(g78
g59
NtRp5445
(dp5446
g62
(dp5447
sg71
g5441
sg64
(lp5448
g57
(g58
g59
NtRp5449
(dp5450
g62
(dp5451
g70
I1
ssg71
g5445
sg64
(lp5452
g4869
asbasbasbasbasbasbasbag57
(g73
g59
NtRp5453
(dp5454
g62
(dp5455
sg71
g5397
sg64
(lp5456
g57
(g78
g59
NtRp5457
(dp5458
g62
(dp5459
sg71
g5453
sg64
(lp5460
g57
(g58
g59
NtRp5461
(dp5462
g62
(dp5463
g70
I2
ssg71
g5457
sg64
(lp5464
g57
(g66
g59
NtRp5465
(dp5466
g62
(dp5467
g70
I1
ssg71
Nsg64
(lp5468
g57
(g73
g59
NtRp5469
(dp5470
g62
(dp5471
sg71
g5465
sg64
(lp5472
g57
(g78
g59
NtRp5473
(dp5474
g62
(dp5475
sg71
g5469
sg64
(lp5476
g57
(g58
g59
NtRp5477
(dp5478
g62
(dp5479
g70
I1
ssg71
g5473
sg64
(lp5480
g4881
asbasbasbag57
(g73
g59
NtRp5481
(dp5482
g62
(dp5483
sg71
g5465
sg64
(lp5484
g57
(g78
g59
NtRp5485
(dp5486
g62
(dp5487
sg71
g5481
sg64
(lp5488
g57
(g58
g59
NtRp5489
(dp5490
g62
(dp5491
g70
I1
ssg71
g5485
sg64
(lp5492
I00
asbasbasbag57
(g73
g59
NtRp5493
(dp5494
g62
(dp5495
sg71
g5465
sg64
(lp5496
g57
(g78
g59
NtRp5497
(dp5498
g62
(dp5499
sg71
g5493
sg64
(lp5500
g57
(g58
g59
NtRp5501
(dp5502
g62
(dp5503
g70
I1
ssg71
g5497
sg64
(lp5504
g4879
asbasbasbag57
(g73
g59
NtRp5505
(dp5506
g62
(dp5507
sg71
g5465
sg64
(lp5508
g57
(g78
g59
NtRp5509
(dp5510
g62
(dp5511
sg71
g5505
sg64
(lp5512
g57
(g58
g59
NtRp5513
(dp5514
g62
(dp5515
g70
I1
ssg71
g5509
sg64
(lp5516
(lp5517
(g4895
I00
g4893
tp5518
a(g4905
I00
g4903
tp5519
a(g4915
I00
g4913
tp5520
a(g4925
I00
g4923
tp5521
a(g4935
I00
g4933
tp5522
a(g4945
I00
g4943
tp5523
a(g4955
I00
g4953
tp5524
a(g4965
I00
g4963
tp5525
a(g4975
I00
g4973
tp5526
aasbasbasbasbasbasbasbag57
(g73
g59
NtRp5527
(dp5528
g62
(dp5529
sg71
g5397
sg64
(lp5530
g57
(g78
g59
NtRp5531
(dp5532
g62
(dp5533
sg71
g5527
sg64
(lp5534
g57
(g58
g59
NtRp5535
(dp5536
g62
(dp5537
g70
I2
ssg71
g5531
sg64
(lp5538
g57
(g66
g59
NtRp5539
(dp5540
g62
(dp5541
g70
I1
ssg71
Nsg64
(lp5542
g57
(g73
g59
NtRp5543
(dp5544
g62
(dp5545
sg71
g5539
sg64
(lp5546
g57
(g78
g59
NtRp5547
(dp5548
g62
(dp5549
sg71
g5543
sg64
(lp5550
g57
(g58
g59
NtRp5551
(dp5552
g62
(dp5553
g70
I1
ssg71
g5547
sg64
(lp5554
g4985
asbasbasbag57
(g73
g59
NtRp5555
(dp5556
g62
(dp5557
sg71
g5539
sg64
(lp5558
g57
(g78
g59
NtRp5559
(dp5560
g62
(dp5561
sg71
g5555
sg64
(lp5562
g57
(g58
g59
NtRp5563
(dp5564
g62
(dp5565
g70
I1
ssg71
g5559
sg64
(lp5566
I00
asbasbasbag57
(g73
g59
NtRp5567
(dp5568
g62
(dp5569
sg71
g5539
sg64
(lp5570
g57
(g78
g59
NtRp5571
(dp5572
g62
(dp5573
sg71
g5567
sg64
(lp5574
g57
(g58
g59
NtRp5575
(dp5576
g62
(dp5577
g70
I1
ssg71
g5571
sg64
(lp5578
g4983
asbasbasbag57
(g73
g59
NtRp5579
(dp5580
g62
(dp5581
sg71
g5539
sg64
(lp5582
g57
(g78
g59
NtRp5583
(dp5584
g62
(dp5585
sg71
g5579
sg64
(lp5586
g57
(g58
g59
NtRp5587
(dp5588
g62
(dp5589
g70
I1
ssg71
g5583
sg64
(lp5590
(lp5591
(g4999
I00
g4997
tp5592
a(g5009
I00
g5007
tp5593
a(g5019
I00
g5017
tp5594
a(g5029
I00
g5027
tp5595
a(g5039
I00
g5037
tp5596
a(g5049
I00
g5047
tp5597
a(g5059
I00
g5057
tp5598
a(g5069
I00
g5067
tp5599
a(g5079
I00
g5077
tp5600
a(g5089
I00
g5087
tp5601
a(g5099
I00
g5097
tp5602
aasbasbasbasbasbasbasbag57
(g73
g59
NtRp5603
(dp5604
g62
(dp5605
sg71
g5397
sg64
(lp5606
g57
(g78
g59
NtRp5607
(dp5608
g62
(dp5609
sg71
g5603
sg64
(lp5610
g57
(g58
g59
NtRp5611
(dp5612
g62
(dp5613
g70
I2
ssg71
g5607
sg64
(lp5614
g57
(g66
g59
NtRp5615
(dp5616
g62
(dp5617
g70
I1
ssg71
Nsg64
(lp5618
g57
(g73
g59
NtRp5619
(dp5620
g62
(dp5621
sg71
g5615
sg64
(lp5622
g57
(g78
g59
NtRp5623
(dp5624
g62
(dp5625
sg71
g5619
sg64
(lp5626
g57
(g58
g59
NtRp5627
(dp5628
g62
(dp5629
g70
I1
ssg71
g5623
sg64
(lp5630
g5109
asbasbasbag57
(g73
g59
NtRp5631
(dp5632
g62
(dp5633
sg71
g5615
sg64
(lp5634
g57
(g78
g59
NtRp5635
(dp5636
g62
(dp5637
sg71
g5631
sg64
(lp5638
g57
(g58
g59
NtRp5639
(dp5640
g62
(dp5641
g70
I1
ssg71
g5635
sg64
(lp5642
I00
asbasbasbag57
(g73
g59
NtRp5643
(dp5644
g62
(dp5645
sg71
g5615
sg64
(lp5646
g57
(g78
g59
NtRp5647
(dp5648
g62
(dp5649
sg71
g5643
sg64
(lp5650
g57
(g58
g59
NtRp5651
(dp5652
g62
(dp5653
g70
I1
ssg71
g5647
sg64
(lp5654
g5107
asbasbasbag57
(g73
g59
NtRp5655
(dp5656
g62
(dp5657
sg71
g5615
sg64
(lp5658
g57
(g78
g59
NtRp5659
(dp5660
g62
(dp5661
sg71
g5655
sg64
(lp5662
g57
(g58
g59
NtRp5663
(dp5664
g62
(dp5665
g70
I1
ssg71
g5659
sg64
(lp5666
(lp5667
(g5123
I00
g5121
tp5668
a(g5133
I00
g5131
tp5669
a(g5143
I00
g5141
tp5670
a(g5153
I00
g5151
tp5671
a(g5163
I00
g5161
tp5672
a(g5173
I00
g5171
tp5673
a(g5183
I00
g5181
tp5674
a(g5193
I00
g5191
tp5675
a(g5203
I00
g5201
tp5676
a(g5213
I00
g5211
tp5677
a(g5223
I00
g5221
tp5678
a(g5233
I00
g5231
tp5679
a(g5243
I00
g5241
tp5680
a(g5253
I00
g5251
tp5681
a(g5263
I00
g5261
tp5682
a(g5273
I00
g5271
tp5683
aasbasbasbasbasbasbasbag57
(g73
g59
NtRp5684
(dp5685
g62
(dp5686
sg71
g5397
sg64
(lp5687
g57
(g78
g59
NtRp5688
(dp5689
g62
(dp5690
sg71
g5684
sg64
(lp5691
g57
(g58
g59
NtRp5692
(dp5693
g62
(dp5694
g70
I2
ssg71
g5688
sg64
(lp5695
g57
(g66
g59
NtRp5696
(dp5697
g62
(dp5698
g70
I1
ssg71
Nsg64
(lp5699
g57
(g73
g59
NtRp5700
(dp5701
g62
(dp5702
sg71
g5696
sg64
(lp5703
g57
(g78
g59
NtRp5704
(dp5705
g62
(dp5706
sg71
g5700
sg64
(lp5707
g57
(g58
g59
NtRp5708
(dp5709
g62
(dp5710
g70
I1
ssg71
g5704
sg64
(lp5711
g5282
asbasbasbag57
(g73
g59
NtRp5712
(dp5713
g62
(dp5714
sg71
g5696
sg64
(lp5715
g57
(g78
g59
NtRp5716
(dp5717
g62
(dp5718
sg71
g5712
sg64
(lp5719
g57
(g58
g59
NtRp5720
(dp5721
g62
(dp5722
g70
I1
ssg71
g5716
sg64
(lp5723
I00
asbasbasbag57
(g73
g59
NtRp5724
(dp5725
g62
(dp5726
sg71
g5696
sg64
(lp5727
g57
(g78
g59
NtRp5728
(dp5729
g62
(dp5730
sg71
g5724
sg64
(lp5731
g57
(g58
g59
NtRp5732
(dp5733
g62
(dp5734
g70
I1
ssg71
g5728
sg64
(lp5735
Nasbasbasbag57
(g73
g59
NtRp5736
(dp5737
g62
(dp5738
sg71
g5696
sg64
(lp5739
g57
(g78
g59
NtRp5740
(dp5741
g62
(dp5742
sg71
g5736
sg64
(lp5743
g57
(g58
g59
NtRp5744
(dp5745
g62
(dp5746
g70
I1
ssg71
g5740
sg64
(lp5747
(lp5748
(g5296
I00
g5294
tp5749
a(g5306
I00
g5304
tp5750
a(g5316
I00
g5314
tp5751
aasbasbasbasbasbasbasbag57
(g73
g59
NtRp5752
(dp5753
g62
(dp5754
sg71
g5397
sg64
(lp5755
g57
(g78
g59
NtRp5756
(dp5757
g62
(dp5758
sg71
g5752
sg64
(lp5759
g57
(g58
g59
NtRp5760
(dp5761
g62
(dp5762
g70
I2
ssg71
g5756
sg64
(lp5763
g57
(g66
g59
NtRp5764
(dp5765
g62
(dp5766
g70
I1
ssg71
Nsg64
(lp5767
g57
(g73
g59
NtRp5768
(dp5769
g62
(dp5770
sg71
g5764
sg64
(lp5771
g57
(g78
g59
NtRp5772
(dp5773
g62
(dp5774
sg71
g5768
sg64
(lp5775
g57
(g58
g59
NtRp5776
(dp5777
g62
(dp5778
g70
I1
ssg71
g5772
sg64
(lp5779
g5325
asbasbasbag57
(g73
g59
NtRp5780
(dp5781
g62
(dp5782
sg71
g5764
sg64
(lp5783
g57
(g78
g59
NtRp5784
(dp5785
g62
(dp5786
sg71
g5780
sg64
(lp5787
g57
(g58
g59
NtRp5788
(dp5789
g62
(dp5790
g70
I1
ssg71
g5784
sg64
(lp5791
I00
asbasbasbag57
(g73
g59
NtRp5792
(dp5793
g62
(dp5794
sg71
g5764
sg64
(lp5795
g57
(g78
g59
NtRp5796
(dp5797
g62
(dp5798
sg71
g5792
sg64
(lp5799
g57
(g58
g59
NtRp5800
(dp5801
g62
(dp5802
g70
I1
ssg71
g5796
sg64
(lp5803
Nasbasbasbag57
(g73
g59
NtRp5804
(dp5805
g62
(dp5806
sg71
g5764
sg64
(lp5807
g57
(g78
g59
NtRp5808
(dp5809
g62
(dp5810
sg71
g5804
sg64
(lp5811
g57
(g58
g59
NtRp5812
(dp5813
g62
(dp5814
g70
I1
ssg71
g5808
sg64
(lp5815
(lp5816
(g5339
I00
g5337
tp5817
a(g5348
I00
g5067
tp5818
a(g5357
I00
g5077
tp5819
aasbasbasbasbasbasbasbasbasbasbasbasbasbasbasbasbasbasbasbag57
(g73
g59
NtRp5820
(dp5821
g62
(dp5822
sg71
g4087
sg64
(lp5823
g57
(g78
g59
NtRp5824
(dp5825
g62
(dp5826
g82
g83
ssg71
g5820
sg64
(lp5827
S'meta'
p5828
asbag57
(g78
g59
NtRp5829
(dp5830
g62
(dp5831
g89
g90
ssg71
g5820
sg64
(lp5832
S':'
asbag57
(g78
g59
NtRp5833
(dp5834
g62
(dp5835
sg71
g5820
sg64
(lp5836
g57
(g58
g59
NtRp5837
(dp5838
g62
(dp5839
g70
I5
ssg71
g5833
sg64
(lp5840
g57
(g66
g59
NtRp5841
(dp5842
g62
(dp5843
g70
I4
ssg71
Nsg64
(lp5844
g57
(g73
g59
NtRp5845
(dp5846
g62
(dp5847
sg71
g5841
sg64
(lp5848
g57
(g78
g59
NtRp5849
(dp5850
g62
(dp5851
g82
g83
ssg71
g5845
sg64
(lp5852
S'author'
p5853
asbag57
(g78
g59
NtRp5854
(dp5855
g62
(dp5856
g89
g90
ssg71
g5845
sg64
(lp5857
S':'
asbag57
(g78
g59
NtRp5858
(dp5859
g62
(dp5860
sg71
g5845
sg64
(lp5861
g57
(g58
g59
NtRp5862
(dp5863
g62
(dp5864
g70
I4
ssg71
g5858
sg64
(lp5865
S'Your Name <you@example.com>'
p5866
asbasbasbag57
(g73
g59
NtRp5867
(dp5868
g62
(dp5869
sg71
g5841
sg64
(lp5870
g57
(g78
g59
NtRp5871
(dp5872
g62
(dp5873
g82
g83
ssg71
g5867
sg64
(lp5874
S'copyright'
p5875
asbag57
(g78
g59
NtRp5876
(dp5877
g62
(dp5878
g89
g90
ssg71
g5867
sg64
(lp5879
S':'
asbag57
(g78
g59
NtRp5880
(dp5881
g62
(dp5882
sg71
g5867
sg64
(lp5883
g57
(g58
g59
NtRp5884
(dp5885
g62
(dp5886
g70
I4
ssg71
g5880
sg64
(lp5887
S'Copyright 2011'
p5888
asbasbasbag57
(g73
g59
NtRp5889
(dp5890
g62
(dp5891
sg71
g5841
sg64
(lp5892
g57
(g78
g59
NtRp5893
(dp5894
g62
(dp5895
g82
g83
ssg71
g5889
sg64
(lp5896
S'description'
p5897
asbag57
(g78
g59
NtRp5898
(dp5899
g62
(dp5900
g89
g90
ssg71
g5889
sg64
(lp5901
S':'
asbag57
(g78
g59
NtRp5902
(dp5903
g62
(dp5904
sg71
g5889
sg64
(lp5905
g57
(g58
g59
NtRp5906
(dp5907
g62
(dp5908
g70
I4
ssg71
g5902
sg64
(lp5909
S'a cool new app'
p5910
asbasbasbag57
(g73
g59
NtRp5911
(dp5912
g62
(dp5913
sg71
g5841
sg64
(lp5914
g57
(g78
g59
NtRp5915
(dp5916
g62
(dp5917
g82
g83
ssg71
g5911
sg64
(lp5918
S'generator'
p5919
asbag57
(g78
g59
NtRp5920
(dp5921
g62
(dp5922
g89
g90
ssg71
g5911
sg64
(lp5923
S':'
asbag57
(g78
g59
NtRp5924
(dp5925
g62
(dp5926
sg71
g5911
sg64
(lp5927
g57
(g58
g59
NtRp5928
(dp5929
g62
(dp5930
g70
I4
ssg71
g5924
sg64
(lp5931
S'Web2py Web Framework'
p5932
asbasbasbag57
(g73
g59
NtRp5933
(dp5934
g62
(dp5935
sg71
g5841
sg64
(lp5936
g57
(g78
g59
NtRp5937
(dp5938
g62
(dp5939
g82
g83
ssg71
g5933
sg64
(lp5940
S'keywords'
p5941
asbag57
(g78
g59
NtRp5942
(dp5943
g62
(dp5944
g89
g90
ssg71
g5933
sg64
(lp5945
S':'
asbag57
(g78
g59
NtRp5946
(dp5947
g62
(dp5948
sg71
g5933
sg64
(lp5949
g57
(g58
g59
NtRp5950
(dp5951
g62
(dp5952
g70
I4
ssg71
g5946
sg64
(lp5953
S'web2py, python, framework'
p5954
asbasbasbasbasbasbasbag57
(g73
g59
NtRp5955
(dp5956
g62
(dp5957
sg71
g4087
sg64
(lp5958
g57
(g78
g59
NtRp5959
(dp5960
g62
(dp5961
g82
g83
ssg71
g5955
sg64
(lp5962
S'postprocessing'
p5963
asbag57
(g78
g59
NtRp5964
(dp5965
g62
(dp5966
g89
g90
ssg71
g5955
sg64
(lp5967
S':'
asbag57
(g78
g59
NtRp5968
(dp5969
g62
(dp5970
sg71
g5955
sg64
(lp5971
g57
(g58
g59
NtRp5972
(dp5973
g62
(dp5974
g70
I5
ssg71
g5968
sg64
(lp5975
g57
(g66
g59
NtRp5976
(dp5977
g62
(dp5978
g70
I4
ssg71
Nsg64
(lp5979
sbasbasbasbag57
(g73
g59
NtRp5980
(dp5981
g62
(dp5982
sg71
g4087
sg64
(lp5983
g57
(g78
g59
NtRp5984
(dp5985
g62
(dp5986
g82
g83
ssg71
g5980
sg64
(lp5987
S'session_file'
p5988
asbag57
(g78
g59
NtRp5989
(dp5990
g62
(dp5991
g89
g90
ssg71
g5980
sg64
(lp5992
S':'
asbag57
(g78
g59
NtRp5993
(dp5994
g62
(dp5995
sg71
g5980
sg64
(lp5996
g57
(g58
g59
NtRp5997
(dp5998
g62
(dp5999
g70
I5
ssg71
g5993
sg64
(lp6000
S"<open file '/home/vishrut/web2py/applications/astra1/sessions/127.0.0.1-6c6943ea-9e10-4b64-9f35-8611eb020dd8', mode 'rb+' at 0xa3f91d8>"
p6001
asbasbasbag57
(g73
g59
NtRp6002
(dp6003
g62
(dp6004
sg71
g4087
sg64
(lp6005
g57
(g78
g59
NtRp6006
(dp6007
g62
(dp6008
g82
g83
ssg71
g6002
sg64
(lp6009
S'session_filename'
p6010
asbag57
(g78
g59
NtRp6011
(dp6012
g62
(dp6013
g89
g90
ssg71
g6002
sg64
(lp6014
S':'
asbag57
(g78
g59
NtRp6015
(dp6016
g62
(dp6017
sg71
g6002
sg64
(lp6018
g57
(g58
g59
NtRp6019
(dp6020
g62
(dp6021
g70
I5
ssg71
g6015
sg64
(lp6022
S'/home/vishrut/web2py/applications/astra1/sessions/127.0.0.1-6c6943ea-9e10-4b64-9f35-8611eb020dd8'
p6023
asbasbasbag57
(g73
g59
NtRp6024
(dp6025
g62
(dp6026
sg71
g4087
sg64
(lp6027
g57
(g78
g59
NtRp6028
(dp6029
g62
(dp6030
g82
g83
ssg71
g6024
sg64
(lp6031
S'session_id'
p6032
asbag57
(g78
g59
NtRp6033
(dp6034
g62
(dp6035
g89
g90
ssg71
g6024
sg64
(lp6036
S':'
asbag57
(g78
g59
NtRp6037
(dp6038
g62
(dp6039
sg71
g6024
sg64
(lp6040
g57
(g58
g59
NtRp6041
(dp6042
g62
(dp6043
g70
I5
ssg71
g6037
sg64
(lp6044
S'127.0.0.1-6c6943ea-9e10-4b64-9f35-8611eb020dd8'
p6045
asbasbasbag57
(g73
g59
NtRp6046
(dp6047
g62
(dp6048
sg71
g4087
sg64
(lp6049
g57
(g78
g59
NtRp6050
(dp6051
g62
(dp6052
g82
g83
ssg71
g6046
sg64
(lp6053
S'session_id_name'
p6054
asbag57
(g78
g59
NtRp6055
(dp6056
g62
(dp6057
g89
g90
ssg71
g6046
sg64
(lp6058
S':'
asbag57
(g78
g59
NtRp6059
(dp6060
g62
(dp6061
sg71
g6046
sg64
(lp6062
g57
(g58
g59
NtRp6063
(dp6064
g62
(dp6065
g70
I5
ssg71
g6059
sg64
(lp6066
g4144
asbasbasbag57
(g73
g59
NtRp6067
(dp6068
g62
(dp6069
sg71
g4087
sg64
(lp6070
g57
(g78
g59
NtRp6071
(dp6072
g62
(dp6073
g82
g83
ssg71
g6067
sg64
(lp6074
S'session_locked'
p6075
asbag57
(g78
g59
NtRp6076
(dp6077
g62
(dp6078
g89
g90
ssg71
g6067
sg64
(lp6079
S':'
asbag57
(g78
g59
NtRp6080
(dp6081
g62
(dp6082
sg71
g6067
sg64
(lp6083
g57
(g58
g59
NtRp6084
(dp6085
g62
(dp6086
g70
I5
ssg71
g6080
sg64
(lp6087
g2603
asbasbasbag57
(g73
g59
NtRp6088
(dp6089
g62
(dp6090
sg71
g4087
sg64
(lp6091
g57
(g78
g59
NtRp6092
(dp6093
g62
(dp6094
g82
g83
ssg71
g6088
sg64
(lp6095
S'session_new'
p6096
asbag57
(g78
g59
NtRp6097
(dp6098
g62
(dp6099
g89
g90
ssg71
g6088
sg64
(lp6100
S':'
asbag57
(g78
g59
NtRp6101
(dp6102
g62
(dp6103
sg71
g6088
sg64
(lp6104
g57
(g58
g59
NtRp6105
(dp6106
g62
(dp6107
g70
I5
ssg71
g6101
sg64
(lp6108
g100
asbasbasbag57
(g73
g59
NtRp6109
(dp6110
g62
(dp6111
sg71
g4087
sg64
(lp6112
g57
(g78
g59
NtRp6113
(dp6114
g62
(dp6115
g82
g83
ssg71
g6109
sg64
(lp6116
S'status'
p6117
asbag57
(g78
g59
NtRp6118
(dp6119
g62
(dp6120
g89
g90
ssg71
g6109
sg64
(lp6121
S':'
asbag57
(g78
g59
NtRp6122
(dp6123
g62
(dp6124
sg71
g6109
sg64
(lp6125
g57
(g58
g59
NtRp6126
(dp6127
g62
(dp6128
g70
I5
ssg71
g6122
sg64
(lp6129
S'200'
p6130
asbasbasbag57
(g73
g59
NtRp6131
(dp6132
g62
(dp6133
sg71
g4087
sg64
(lp6134
g57
(g78
g59
NtRp6135
(dp6136
g62
(dp6137
g82
g83
ssg71
g6131
sg64
(lp6138
S'subtitle'
p6139
asbag57
(g78
g59
NtRp6140
(dp6141
g62
(dp6142
g89
g90
ssg71
g6131
sg64
(lp6143
S':'
asbag57
(g78
g59
NtRp6144
(dp6145
g62
(dp6146
sg71
g6131
sg64
(lp6147
g57
(g58
g59
NtRp6148
(dp6149
g62
(dp6150
g70
I5
ssg71
g6144
sg64
(lp6151
g4748
(S's\r\x00\x00\x00customize me!'
tRp6152
asbasbasbag57
(g73
g59
NtRp6153
(dp6154
g62
(dp6155
sg71
g4087
sg64
(lp6156
g57
(g78
g59
NtRp6157
(dp6158
g62
(dp6159
g82
g83
ssg71
g6153
sg64
(lp6160
S'title'
p6161
asbag57
(g78
g59
NtRp6162
(dp6163
g62
(dp6164
g89
g90
ssg71
g6153
sg64
(lp6165
S':'
asbag57
(g78
g59
NtRp6166
(dp6167
g62
(dp6168
sg71
g6153
sg64
(lp6169
g57
(g58
g59
NtRp6170
(dp6171
g62
(dp6172
g70
I5
ssg71
g6166
sg64
(lp6173
S'Astra1'
p6174
asbasbasbag57
(g73
g59
NtRp6175
(dp6176
g62
(dp6177
sg71
g4087
sg64
(lp6178
g57
(g78
g59
NtRp6179
(dp6180
g62
(dp6181
g82
g83
ssg71
g6175
sg64
(lp6182
g3267
asbag57
(g78
g59
NtRp6183
(dp6184
g62
(dp6185
g89
g90
ssg71
g6175
sg64
(lp6186
S':'
asbag57
(g78
g59
NtRp6187
(dp6188
g62
(dp6189
sg71
g6175
sg64
(lp6190
g57
(g58
g59
NtRp6191
(dp6192
g62
(dp6193
g70
I5
ssg71
g6187
sg64
(lp6194
g3280
asbasbasbag57
(g73
g59
NtRp6195
(dp6196
g62
(dp6197
sg71
g4087
sg64
(lp6198
g57
(g78
g59
NtRp6199
(dp6200
g62
(dp6201
g82
g83
ssg71
g6195
sg64
(lp6202
S'view'
p6203
asbag57
(g78
g59
NtRp6204
(dp6205
g62
(dp6206
g89
g90
ssg71
g6195
sg64
(lp6207
S':'
asbag57
(g78
g59
NtRp6208
(dp6209
g62
(dp6210
sg71
g6195
sg64
(lp6211
g57
(g58
g59
NtRp6212
(dp6213
g62
(dp6214
g70
I5
ssg71
g6208
sg64
(lp6215
S'default/show.html'
p6216
asbasbasbasbasbsS'locals'
p6217
(dp6218
S'Service'
p6219
S"<class 'gluon.tools.Service'>"
p6220
sS'OBJECT'
p6221
S"<class 'gluon.html.OBJECT'>"
p6222
sS'SQLDB'
p6223
S"<class 'gluon.dal.DAL'>"
p6224
sg3982
S"<Storage {'username': 'Tushant', 'last_query': '...oms/1]': '82782c3f-c3b5-4b21-b29f-85f19d6226d7'}>"
p6225
sS'LINK'
p6226
S"<class 'gluon.html.LINK'>"
p6227
sS'BR'
p6228
S"<class 'gluon.html.BR'>"
p6229
sS'local_import'
p6230
S'<function <lambda>>'
p6231
sS'OPTGROUP'
p6232
S"<class 'gluon.html.OPTGROUP'>"
p6233
sS'__package__'
p6234
S'None'
p6235
sS'PRE'
p6236
S"<class 'gluon.html.PRE'>"
p6237
sS'IS_INT_IN_RANGE'
p6238
S"<class 'gluon.validators.IS_INT_IN_RANGE'>"
p6239
sS'left_sidebar_enabled'
p6240
g100
sS'IS_LOWER'
p6241
S"<class 'gluon.validators.IS_LOWER'>"
p6242
sS'IS_STRONG'
p6243
S"<class 'gluon.validators.IS_STRONG'>"
p6244
sS'cache'
p6245
S'<gluon.cache.Cache object>'
p6246
sS'IS_IN_DB'
p6247
S"<class 'gluon.validators.IS_IN_DB'>"
p6248
sS'TAG'
p6249
S'<gluon.html.__TAG__ object>'
p6250
sS'SQLField'
p6251
S"<class 'gluon.dal.Field'>"
p6252
sS'mail'
p6253
S'<gluon.tools.Mail object>'
p6254
sS'BODY'
p6255
S"<class 'gluon.html.BODY'>"
p6256
sS'IS_DATE_IN_RANGE'
p6257
S"<class 'gluon.validators.IS_DATE_IN_RANGE'>"
p6258
sS'TH'
p6259
S"<class 'gluon.html.TH'>"
p6260
sS'URL'
p6261
S'<function URL>'
p6262
sS'__file__'
p6263
S"'/home/vishrut/web2py/applications/astra1/views/default/show.html'"
p6264
sS'db'
p6265
S"<DAL {'auth_event': <Table {'origin': <gluon.dal...n_key': <gluon.dal.Field object at 0xab71dec>}>}>"
p6266
sS'auth'
p6267
S'<gluon.tools.Auth object>'
p6268
sS'P'
S"<class 'gluon.html.P'>"
p6269
sS'TFOOT'
p6270
S"<class 'gluon.html.TFOOT'>"
p6271
sS'XHTML'
p6272
S"<class 'gluon.html.XHTML'>"
p6273
sS'ON'
p6274
g2603
sS'OL'
p6275
S"<class 'gluon.html.OL'>"
p6276
sS'TEXTAREA'
p6277
S"<class 'gluon.html.TEXTAREA'>"
p6278
sS'MENU'
p6279
S"<class 'gluon.html.MENU'>"
p6280
sS'LOAD'
p6281
S'<function LOAD>'
p6282
sS'CODE'
p6283
S"<class 'gluon.html.CODE'>"
p6284
sS'HTTP'
p6285
S"<class 'gluon.http.HTTP'>"
p6286
sS'HR'
p6287
S"<class 'gluon.html.HR'>"
p6288
sS'IS_DATETIME'
p6289
S"<class 'gluon.validators.IS_DATETIME'>"
p6290
sS'HEAD'
p6291
S"<class 'gluon.html.HEAD'>"
p6292
sS'LABEL'
p6293
S"<class 'gluon.html.LABEL'>"
p6294
sS'CLEANUP'
p6295
S"<class 'gluon.validators.CLEANUP'>"
p6296
sS'plugins'
p6297
S'<gluon.tools.PluginManager object>'
p6298
sS'SELECT'
p6299
S"<class 'gluon.html.SELECT'>"
p6300
sS'use_janrain'
p6301
S'<function use_janrain>'
p6302
sS'CENTER'
p6303
S"<class 'gluon.html.CENTER'>"
p6304
sS'prettydate'
p6305
S'<function prettydate>'
p6306
sS'Crud'
p6307
S"<class 'gluon.tools.Crud'>"
p6308
sS'Auth'
p6309
S"<class 'gluon.tools.Auth'>"
p6310
sS'__builtins__'
p6311
S"{'ArithmeticError': <type 'exceptions.ArithmeticError'>, 'AssertionError': <type 'exceptions.AssertionError'>, 'AttributeError': <type 'exceptions.AttributeError'>, 'BaseException': <type 'exceptions.BaseException'>, 'BufferError': <type 'exceptions.BufferError'>, 'BytesWarning': <type 'exceptions.BytesWarning'>, 'DeprecationWarning': <type 'exceptions.DeprecationWarning'>, 'EOFError': <type 'exceptions.EOFError'>, 'Ellipsis': Ellipsis, 'EnvironmentError': <type 'exceptions.EnvironmentError'>, ...}"
p6312
sS'HTML'
p6313
S"<class 'gluon.html.HTML'>"
p6314
sS'SQLFORM'
p6315
S"<class 'gluon.sqlhtml.SQLFORM'>"
p6316
sS'EM'
p6317
S"<class 'gluon.html.EM'>"
p6318
sS'redirect'
p6319
S'<function redirect>'
p6320
sS'FIELDSET'
p6321
S"<class 'gluon.html.FIELDSET'>"
p6322
sS'IS_EQUAL_TO'
p6323
S"<class 'gluon.validators.IS_EQUAL_TO'>"
p6324
sS'embed64'
p6325
S'<function embed64>'
p6326
sS'IS_LIST_OF'
p6327
S"<class 'gluon.validators.IS_LIST_OF'>"
p6328
sS'__name__'
p6329
S"'__restricted__'"
p6330
sS'EMBED'
p6331
S"<class 'gluon.html.EMBED'>"
p6332
sS'_'
S'<function _>'
p6333
sS'FORM'
p6334
S"<class 'gluon.html.FORM'>"
p6335
sS'H2'
p6336
S"<class 'gluon.html.H2'>"
p6337
sS'H3'
p6338
S"<class 'gluon.html.H3'>"
p6339
sS'BUTTON'
p6340
S"<class 'gluon.html.BUTTON'>"
p6341
sS'H1'
p6342
S"<class 'gluon.html.H1'>"
p6343
sS'H6'
p6344
S"<class 'gluon.html.H6'>"
p6345
sS'H4'
p6346
S"<class 'gluon.html.H4'>"
p6347
sS'H5'
p6348
S"<class 'gluon.html.H5'>"
p6349
sS'UL'
p6350
S"<class 'gluon.html.UL'>"
p6351
sS'IS_UPPER'
p6352
S"<class 'gluon.validators.IS_UPPER'>"
p6353
sS'xmlescape'
p6354
S'<function xmlescape>'
p6355
sS'IS_TIME'
p6356
S"<class 'gluon.validators.IS_TIME'>"
p6357
sS'OPTION'
p6358
S"<class 'gluon.html.OPTION'>"
p6359
sS'TITLE'
p6360
S"<class 'gluon.html.TITLE'>"
p6361
sS'CRYPT'
p6362
S"<class 'gluon.validators.CRYPT'>"
p6363
sS'IS_EMPTY_OR'
p6364
S"<class 'gluon.validators.IS_EMPTY_OR'>"
p6365
sS'MARKMIN'
p6366
S"<class 'gluon.html.MARKMIN'>"
p6367
sS'INPUT'
p6368
S"<class 'gluon.html.INPUT'>"
p6369
sS'COL'
p6370
S"<class 'gluon.html.COL'>"
p6371
sS'service'
p6372
S'<gluon.tools.Service object>'
p6373
sS'SCRIPT'
p6374
S"<class 'gluon.html.SCRIPT'>"
p6375
sS'is_mobile'
p6376
g100
sS'TABLE'
p6377
S"<class 'gluon.html.TABLE'>"
p6378
sS'IS_IPV4'
p6379
S"<class 'gluon.validators.IS_IPV4'>"
p6380
sS'IS_LENGTH'
p6381
S"<class 'gluon.validators.IS_LENGTH'>"
p6382
sS'XML'
p6383
S"<class 'gluon.html.XML'>"
p6384
sS'B'
S"<class 'gluon.html.B'>"
p6385
sS'IMG'
p6386
S"<class 'gluon.html.IMG'>"
p6387
sS'SQLTABLE'
p6388
S"<class 'gluon.sqlhtml.SQLTABLE'>"
p6389
sS'IS_MATCH'
p6390
S"<class 'gluon.validators.IS_MATCH'>"
p6391
sS'xxx'
p6392
S'None'
p6393
sS'IS_ALPHANUMERIC'
p6394
S"<class 'gluon.validators.IS_ALPHANUMERIC'>"
p6395
sS'SPAN'
p6396
S"<class 'gluon.html.SPAN'>"
p6397
sS'IS_SLUG'
p6398
S"<class 'gluon.validators.IS_SLUG'>"
p6399
sS'BEAUTIFY'
p6400
S"<class 'gluon.html.BEAUTIFY'>"
p6401
sS'META'
p6402
S"<class 'gluon.html.META'>"
p6403
sS'IS_DATE'
p6404
S"<class 'gluon.validators.IS_DATE'>"
p6405
sS'IS_EMAIL'
p6406
S"<class 'gluon.validators.IS_EMAIL'>"
p6407
sS'IS_NOT_EMPTY'
p6408
S"<class 'gluon.validators.IS_NOT_EMPTY'>"
p6409
sS'IS_FLOAT_IN_RANGE'
p6410
S"<class 'gluon.validators.IS_FLOAT_IN_RANGE'>"
p6411
sS'TBODY'
p6412
S"<class 'gluon.html.TBODY'>"
p6413
sS'CAT'
p6414
S"<class 'gluon.html.CAT'>"
p6415
sS'Field'
p6416
S"<class 'gluon.dal.Field'>"
p6417
sS'middle_columns'
p6418
S"'sixteen'"
p6419
sS'DIV'
p6420
S"<class 'gluon.html.DIV'>"
p6421
sS'LEGEND'
p6422
S"<class 'gluon.html.LEGEND'>"
p6423
sS'COLGROUP'
p6424
S"<class 'gluon.html.COLGROUP'>"
p6425
sS'DAL'
p6426
S"<class 'gluon.dal.DAL'>"
p6427
sS'TT'
p6428
S"<class 'gluon.html.TT'>"
p6429
sS'TR'
p6430
S"<class 'gluon.html.TR'>"
p6431
sS'LI'
p6432
S"<class 'gluon.html.LI'>"
p6433
sS'right_sidebar_enabled'
p6434
g100
sS'IFRAME'
p6435
S"<class 'gluon.html.IFRAME'>"
p6436
sS'TD'
p6437
S"<class 'gluon.html.TD'>"
p6438
sS'PluginManager'
p6439
S"<class 'gluon.tools.PluginManager'>"
p6440
sS'IS_URL'
p6441
S"<class 'gluon.validators.IS_URL'>"
p6442
sS'A'
S"<class 'gluon.html.A'>"
p6443
sS'STYLE'
p6444
S"<class 'gluon.html.STYLE'>"
p6445
sS'IS_DATETIME_IN_RANGE'
p6446
S"<class 'gluon.validators.IS_DATETIME_IN_RANGE'>"
p6447
sS'IS_IMAGE'
p6448
S"<class 'gluon.validators.IS_IMAGE'>"
p6449
sS'I'
S"<class 'gluon.html.I'>"
p6450
sS'crud'
p6451
S'<gluon.tools.Crud object>'
p6452
sS'IS_NOT_IN_DB'
p6453
S"<class 'gluon.validators.IS_NOT_IN_DB'>"
p6454
sg4082
S"<Storage {'body': <cStringIO.StringO object at 0...bda> at 0xaa29534>, 'view': 'default/show.html'}>"
p6455
sS'THEAD'
p6456
S"<class 'gluon.html.THEAD'>"
p6457
sS'IS_NULL_OR'
p6458
S"<class 'gluon.validators.IS_EMPTY_OR'>"
p6459
sg56
S"<Storage {'body': <cStringIO.StringO object at 0..._vars': <Storage {}>, 'post_vars': <Storage {}>}>"
p6460
sS'IS_EXPR'
p6461
S"<class 'gluon.validators.IS_EXPR'>"
p6462
sS'T'
S'<gluon.languages.translator object>'
p6463
sS'IS_IN_SET'
p6464
S"<class 'gluon.validators.IS_IN_SET'>"
p6465
sS'IS_UPLOAD_FILENAME'
p6466
S"<class 'gluon.validators.IS_UPLOAD_FILENAME'>"
p6467
sS'IS_DECIMAL_IN_RANGE'
p6468
S"<class 'gluon.validators.IS_DECIMAL_IN_RANGE'>"
p6469
sssS'traceback'
p6470
S'Traceback (most recent call last):\n  File "/home/vishrut/web2py/gluon/restricted.py", line 205, in restricted\n    exec ccode in environment\n  File "/home/vishrut/web2py/applications/astra1/views/default/show.html", line 92, in <module>\nTypeError: unsupported operand type(s) for +: \'NoneType\' and \'str\'\n'
p6471
s.