(dp1
S'output'
p2
S"<class 'pysqlite2.dbapi2.OperationalError'> Cannot add a UNIQUE column"
p3
sS'layer'
p4
S'/home/vishrut/web2py/applications/astra1/models/db.py'
p5
sS'code'
p6
S"# -*- coding: utf-8 -*-\n\n#########################################################################\n## This scaffolding model makes your app work on Google App Engine too\n## File is released under public domain and you can use without limitations\n#########################################################################\n\n## if SSL/HTTPS is properly configured and you want all HTTP requests to\n## be redirected to HTTPS, uncomment the line below:\n# request.requires_https()\n\nif not request.env.web2py_runtime_gae:\n    ## if NOT running on Google App Engine use SQLite or other DB\n    db = DAL('sqlite://storage.sqlite')\nelse:\n    ## connect to Google BigTable (optional 'google:datastore://namespace')\n    db = DAL('google:datastore')\n    ## store sessions and tickets there\n    session.connect(request, response, db = db)\n    ## or store session in Memcache, Redis, etc.\n    ## from gluon.contrib.memdb import MEMDB\n    ## from google.appengine.api.memcache import Client\n    ## session.connect(request, response, db = MEMDB(Client()))\n\n## by default give a view/generic.extension to all actions from localhost\n## none otherwise. a pattern can be 'controller/function.extension'\nresponse.generic_patterns = ['*'] if request.is_local else []\n## (optional) optimize handling of static files\n# response.optimize_css = 'concat,minify,inline'\n# response.optimize_js = 'concat,minify,inline'\n\n#########################################################################\n## Here is sample code if you need for\n## - email capabilities\n## - authentication (registration, login, logout, ... )\n## - authorization (role based authorization)\n## - services (xml, csv, json, xmlrpc, jsonrpc, amf, rss)\n## - old style crud actions\n## (more options discussed in gluon/tools.py)\n#########################################################################\n\nfrom gluon.tools import Auth, Crud, Service, PluginManager, prettydate\nauth = Auth(db, hmac_key=Auth.get_or_create_key())\ncrud, service, plugins = Crud(db), Service(), PluginManager()\n\n## create all tables needed by auth if not custom tables\nauth.define_tables()\n\n## configure email\nmail=auth.settings.mailer\nmail.settings.server = 'logging' or 'smtp.gmail.com:587'\nmail.settings.sender = 'you@gmail.com'\nmail.settings.login = 'username:password'\n\n## configure auth policy\nauth.settings.registration_requires_verification = False\nauth.settings.registration_requires_approval = False\nauth.settings.reset_password_requires_verification = True\n\n## if you need to use OpenID, Facebook, MySpace, Twitter, Linkedin, etc.\n## register with janrain.com, write your domain:api_key in private/janrain.key\nfrom gluon.contrib.login_methods.rpx_account import use_janrain\nuse_janrain(auth,filename='private/janrain.key')\n\n#########################################################################\n## Define your tables below (or better in another model file) for example\n##\n## >>> db.define_table('mytable',Field('myfield','string'))\n##\n## Fields can be 'string','text','password','integer','double','boolean'\n##       'date','time','datetime','blob','upload', 'reference TABLENAME'\n## There is an implicit 'id integer autoincrement' field\n## Consult manual for more options, validators, etc.\n##\n## More API examples for controllers:\n##\n## >>> db.mytable.insert(myfield='value')\n## >>> rows=db(db.mytable.myfield=='value').select(db.mytable.ALL)\n## >>> for row in rows: print row.id, row.myfield\n#########################################################################\n\nfrom gluon.tools import Crud\ncrud = Crud(db)\nfrom gluon.tools import Auth\nauth = Auth(db, hmac_key=Auth.get_or_create_key())\n\nauth.define_tables()\nauth.add_group('role','description')\n\ndb.define_table('kids',\n                Field('username',unique=True),\n                Field('password'),\n                Field('rno','integer')\n                #format='%(username)s'\n                )\n                \ndb.define_table('rooms',\n                Field('rnum','integer',unique=True),\n                Field('vidurl'),\n                format='%(rnum)s')\n\ndb.kids.username.requires=IS_NOT_EMPTY()\ndb.rooms.rnum.requires=IS_NOT_EMPTY()\ndb.rooms.vidurl.requires=IS_NOT_EMPTY()\n#db.kids.rno.requires=IS_IN_DB(db, db.rooms.id, '%(username)s')\n"
p7
sS'snapshot'
p8
(dp9
S'exception'
p10
(dp11
S'__module__'
p12
S"'pysqlite2.dbapi2'"
p13
sS'__getslice__'
p14
S"<method-wrapper '__getslice__' of OperationalError object>"
p15
sS'__str__'
p16
S"<method-wrapper '__str__' of OperationalError object>"
p17
sS'__reduce__'
p18
S'<built-in method __reduce__ of OperationalError object>'
p19
sS'__dict__'
p20
S'{}'
p21
sS'__sizeof__'
p22
S'<built-in method __sizeof__ of OperationalError object>'
p23
sS'__weakref__'
p24
S'None'
p25
sS'__init__'
p26
S"<method-wrapper '__init__' of OperationalError object>"
p27
sS'__setattr__'
p28
S"<method-wrapper '__setattr__' of OperationalError object>"
p29
sS'__reduce_ex__'
p30
S'<built-in method __reduce_ex__ of OperationalError object>'
p31
sS'__new__'
p32
S'<built-in method __new__ of type object>'
p33
sS'__format__'
p34
S'<built-in method __format__ of OperationalError object>'
p35
sS'__class__'
p36
S"<class 'pysqlite2.dbapi2.OperationalError'>"
p37
sS'__doc__'
p38
S'None'
p39
sS'__getitem__'
p40
S"<method-wrapper '__getitem__' of OperationalError object>"
p41
sS'__setstate__'
p42
S'<built-in method __setstate__ of OperationalError object>'
p43
sS'__getattribute__'
p44
S"<method-wrapper '__getattribute__' of OperationalError object>"
p45
sS'args'
p46
S"('Cannot add a UNIQUE column',)"
p47
sS'__subclasshook__'
p48
S'<built-in method __subclasshook__ of type object>'
p49
sS'__unicode__'
p50
S'<built-in method __unicode__ of OperationalError object>'
p51
sS'__delattr__'
p52
S"<method-wrapper '__delattr__' of OperationalError object>"
p53
sS'__repr__'
p54
S"<method-wrapper '__repr__' of OperationalError object>"
p55
sS'__hash__'
p56
S"<method-wrapper '__hash__' of OperationalError object>"
p57
ssS'evalue'
p58
S'Cannot add a UNIQUE column'
p59
sS'request'
p60
ccopy_reg
_reconstructor
p61
(cgluon.html
BEAUTIFY
p62
c__builtin__
object
p63
NtRp64
(dp65
S'attributes'
p66
(dp67
sS'components'
p68
(lp69
g61
(cgluon.html
TABLE
p70
g63
NtRp71
(dp72
g66
(dp73
S'level'
p74
I5
ssS'parent'
p75
Nsg68
(lp76
g61
(cgluon.html
TR
p77
g63
NtRp78
(dp79
g66
(dp80
sg75
g71
sg68
(lp81
g61
(cgluon.html
TD
p82
g63
NtRp83
(dp84
g66
(dp85
S'_style'
p86
S'font-weight:bold;vertical-align:top'
p87
ssg75
g78
sg68
(lp88
S'ajax'
p89
asbag61
(g82
g63
NtRp90
(dp91
g66
(dp92
S'_valign'
p93
S'top'
p94
ssg75
g78
sg68
(lp95
S':'
asbag61
(g82
g63
NtRp96
(dp97
g66
(dp98
sg75
g78
sg68
(lp99
g61
(g62
g63
NtRp100
(dp101
g66
(dp102
g74
I5
ssg75
g96
sg68
(lp103
S'False'
p104
asbasbasbag61
(g77
g63
NtRp105
(dp106
g66
(dp107
sg75
g71
sg68
(lp108
g61
(g82
g63
NtRp109
(dp110
g66
(dp111
g86
g87
ssg75
g105
sg68
(lp112
S'application'
p113
asbag61
(g82
g63
NtRp114
(dp115
g66
(dp116
g93
g94
ssg75
g105
sg68
(lp117
S':'
asbag61
(g82
g63
NtRp118
(dp119
g66
(dp120
sg75
g105
sg68
(lp121
g61
(g62
g63
NtRp122
(dp123
g66
(dp124
g74
I5
ssg75
g118
sg68
(lp125
S'astra1'
p126
asbasbasbag61
(g77
g63
NtRp127
(dp128
g66
(dp129
sg75
g71
sg68
(lp130
g61
(g82
g63
NtRp131
(dp132
g66
(dp133
g86
g87
ssg75
g127
sg68
(lp134
g46
asbag61
(g82
g63
NtRp135
(dp136
g66
(dp137
g93
g94
ssg75
g127
sg68
(lp138
S':'
asbag61
(g82
g63
NtRp139
(dp140
g66
(dp141
sg75
g127
sg68
(lp142
g61
(g62
g63
NtRp143
(dp144
g66
(dp145
g74
I5
ssg75
g139
sg68
(lp146
g61
(g70
g63
NtRp147
(dp148
g66
(dp149
g74
I4
ssg75
Nsg68
(lp150
sbasbasbasbag61
(g77
g63
NtRp151
(dp152
g66
(dp153
sg75
g71
sg68
(lp154
g61
(g82
g63
NtRp155
(dp156
g66
(dp157
g86
g87
ssg75
g151
sg68
(lp158
S'body'
p159
asbag61
(g82
g63
NtRp160
(dp161
g66
(dp162
g93
g94
ssg75
g151
sg68
(lp163
S':'
asbag61
(g82
g63
NtRp164
(dp165
g66
(dp166
sg75
g151
sg68
(lp167
g61
(g62
g63
NtRp168
(dp169
g66
(dp170
g74
I5
ssg75
g164
sg68
(lp171
S'<cStringIO.StringO object at 0x9cca2a0>'
p172
asbasbasbag61
(g77
g63
NtRp173
(dp174
g66
(dp175
sg75
g71
sg68
(lp176
g61
(g82
g63
NtRp177
(dp178
g66
(dp179
g86
g87
ssg75
g173
sg68
(lp180
S'client'
p181
asbag61
(g82
g63
NtRp182
(dp183
g66
(dp184
g93
g94
ssg75
g173
sg68
(lp185
S':'
asbag61
(g82
g63
NtRp186
(dp187
g66
(dp188
sg75
g173
sg68
(lp189
g61
(g62
g63
NtRp190
(dp191
g66
(dp192
g74
I5
ssg75
g186
sg68
(lp193
S'127.0.0.1'
p194
asbasbasbag61
(g77
g63
NtRp195
(dp196
g66
(dp197
sg75
g71
sg68
(lp198
g61
(g82
g63
NtRp199
(dp200
g66
(dp201
g86
g87
ssg75
g195
sg68
(lp202
S'controller'
p203
asbag61
(g82
g63
NtRp204
(dp205
g66
(dp206
g93
g94
ssg75
g195
sg68
(lp207
S':'
asbag61
(g82
g63
NtRp208
(dp209
g66
(dp210
sg75
g195
sg68
(lp211
g61
(g62
g63
NtRp212
(dp213
g66
(dp214
g74
I5
ssg75
g208
sg68
(lp215
S'default'
p216
asbasbasbag61
(g77
g63
NtRp217
(dp218
g66
(dp219
sg75
g71
sg68
(lp220
g61
(g82
g63
NtRp221
(dp222
g66
(dp223
g86
g87
ssg75
g217
sg68
(lp224
S'cookies'
p225
asbag61
(g82
g63
NtRp226
(dp227
g66
(dp228
g93
g94
ssg75
g217
sg68
(lp229
S':'
asbag61
(g82
g63
NtRp230
(dp231
g66
(dp232
sg75
g217
sg68
(lp233
g61
(g62
g63
NtRp234
(dp235
g66
(dp236
g74
I5
ssg75
g230
sg68
(lp237
g61
(g70
g63
NtRp238
(dp239
g66
(dp240
g74
I4
ssg75
Nsg68
(lp241
g61
(g77
g63
NtRp242
(dp243
g66
(dp244
sg75
g238
sg68
(lp245
g61
(g82
g63
NtRp246
(dp247
g66
(dp248
g86
g87
ssg75
g242
sg68
(lp249
S'session_id_admin'
p250
asbag61
(g82
g63
NtRp251
(dp252
g66
(dp253
g93
g94
ssg75
g242
sg68
(lp254
S':'
asbag61
(g82
g63
NtRp255
(dp256
g66
(dp257
sg75
g242
sg68
(lp258
g61
(g62
g63
NtRp259
(dp260
g66
(dp261
g74
I4
ssg75
g255
sg68
(lp262
g61
(g70
g63
NtRp263
(dp264
g66
(dp265
g74
I3
ssg75
Nsg68
(lp266
g61
(g77
g63
NtRp267
(dp268
g66
(dp269
sg75
g263
sg68
(lp270
g61
(g82
g63
NtRp271
(dp272
g66
(dp273
g86
g87
ssg75
g267
sg68
(lp274
S'comment'
p275
asbag61
(g82
g63
NtRp276
(dp277
g66
(dp278
g93
g94
ssg75
g267
sg68
(lp279
S':'
asbag61
(g82
g63
NtRp280
(dp281
g66
(dp282
sg75
g267
sg68
(lp283
g61
(g62
g63
NtRp284
(dp285
g66
(dp286
g74
I3
ssg75
g280
sg68
(lp287
S''
asbasbasbag61
(g77
g63
NtRp288
(dp289
g66
(dp290
sg75
g263
sg68
(lp291
g61
(g82
g63
NtRp292
(dp293
g66
(dp294
g86
g87
ssg75
g288
sg68
(lp295
S'domain'
p296
asbag61
(g82
g63
NtRp297
(dp298
g66
(dp299
g93
g94
ssg75
g288
sg68
(lp300
S':'
asbag61
(g82
g63
NtRp301
(dp302
g66
(dp303
sg75
g288
sg68
(lp304
g61
(g62
g63
NtRp305
(dp306
g66
(dp307
g74
I3
ssg75
g301
sg68
(lp308
S''
asbasbasbag61
(g77
g63
NtRp309
(dp310
g66
(dp311
sg75
g263
sg68
(lp312
g61
(g82
g63
NtRp313
(dp314
g66
(dp315
g86
g87
ssg75
g309
sg68
(lp316
S'expires'
p317
asbag61
(g82
g63
NtRp318
(dp319
g66
(dp320
g93
g94
ssg75
g309
sg68
(lp321
S':'
asbag61
(g82
g63
NtRp322
(dp323
g66
(dp324
sg75
g309
sg68
(lp325
g61
(g62
g63
NtRp326
(dp327
g66
(dp328
g74
I3
ssg75
g322
sg68
(lp329
S''
asbasbasbag61
(g77
g63
NtRp330
(dp331
g66
(dp332
sg75
g263
sg68
(lp333
g61
(g82
g63
NtRp334
(dp335
g66
(dp336
g86
g87
ssg75
g330
sg68
(lp337
S'httponly'
p338
asbag61
(g82
g63
NtRp339
(dp340
g66
(dp341
g93
g94
ssg75
g330
sg68
(lp342
S':'
asbag61
(g82
g63
NtRp343
(dp344
g66
(dp345
sg75
g330
sg68
(lp346
g61
(g62
g63
NtRp347
(dp348
g66
(dp349
g74
I3
ssg75
g343
sg68
(lp350
S''
asbasbasbag61
(g77
g63
NtRp351
(dp352
g66
(dp353
sg75
g263
sg68
(lp354
g61
(g82
g63
NtRp355
(dp356
g66
(dp357
g86
g87
ssg75
g351
sg68
(lp358
S'max-age'
p359
asbag61
(g82
g63
NtRp360
(dp361
g66
(dp362
g93
g94
ssg75
g351
sg68
(lp363
S':'
asbag61
(g82
g63
NtRp364
(dp365
g66
(dp366
sg75
g351
sg68
(lp367
g61
(g62
g63
NtRp368
(dp369
g66
(dp370
g74
I3
ssg75
g364
sg68
(lp371
S''
asbasbasbag61
(g77
g63
NtRp372
(dp373
g66
(dp374
sg75
g263
sg68
(lp375
g61
(g82
g63
NtRp376
(dp377
g66
(dp378
g86
g87
ssg75
g372
sg68
(lp379
S'path'
p380
asbag61
(g82
g63
NtRp381
(dp382
g66
(dp383
g93
g94
ssg75
g372
sg68
(lp384
S':'
asbag61
(g82
g63
NtRp385
(dp386
g66
(dp387
sg75
g372
sg68
(lp388
g61
(g62
g63
NtRp389
(dp390
g66
(dp391
g74
I3
ssg75
g385
sg68
(lp392
S''
asbasbasbag61
(g77
g63
NtRp393
(dp394
g66
(dp395
sg75
g263
sg68
(lp396
g61
(g82
g63
NtRp397
(dp398
g66
(dp399
g86
g87
ssg75
g393
sg68
(lp400
S'secure'
p401
asbag61
(g82
g63
NtRp402
(dp403
g66
(dp404
g93
g94
ssg75
g393
sg68
(lp405
S':'
asbag61
(g82
g63
NtRp406
(dp407
g66
(dp408
sg75
g393
sg68
(lp409
g61
(g62
g63
NtRp410
(dp411
g66
(dp412
g74
I3
ssg75
g406
sg68
(lp413
S''
asbasbasbag61
(g77
g63
NtRp414
(dp415
g66
(dp416
sg75
g263
sg68
(lp417
g61
(g82
g63
NtRp418
(dp419
g66
(dp420
g86
g87
ssg75
g414
sg68
(lp421
S'version'
p422
asbag61
(g82
g63
NtRp423
(dp424
g66
(dp425
g93
g94
ssg75
g414
sg68
(lp426
S':'
asbag61
(g82
g63
NtRp427
(dp428
g66
(dp429
sg75
g414
sg68
(lp430
g61
(g62
g63
NtRp431
(dp432
g66
(dp433
g74
I3
ssg75
g427
sg68
(lp434
S''
asbasbasbasbasbasbasbag61
(g77
g63
NtRp435
(dp436
g66
(dp437
sg75
g238
sg68
(lp438
g61
(g82
g63
NtRp439
(dp440
g66
(dp441
g86
g87
ssg75
g435
sg68
(lp442
S'session_id_astra1'
p443
asbag61
(g82
g63
NtRp444
(dp445
g66
(dp446
g93
g94
ssg75
g435
sg68
(lp447
S':'
asbag61
(g82
g63
NtRp448
(dp449
g66
(dp450
sg75
g435
sg68
(lp451
g61
(g62
g63
NtRp452
(dp453
g66
(dp454
g74
I4
ssg75
g448
sg68
(lp455
g61
(g70
g63
NtRp456
(dp457
g66
(dp458
g74
I3
ssg75
Nsg68
(lp459
g61
(g77
g63
NtRp460
(dp461
g66
(dp462
sg75
g456
sg68
(lp463
g61
(g82
g63
NtRp464
(dp465
g66
(dp466
g86
g87
ssg75
g460
sg68
(lp467
g275
asbag61
(g82
g63
NtRp468
(dp469
g66
(dp470
g93
g94
ssg75
g460
sg68
(lp471
S':'
asbag61
(g82
g63
NtRp472
(dp473
g66
(dp474
sg75
g460
sg68
(lp475
g61
(g62
g63
NtRp476
(dp477
g66
(dp478
g74
I3
ssg75
g472
sg68
(lp479
S''
asbasbasbag61
(g77
g63
NtRp480
(dp481
g66
(dp482
sg75
g456
sg68
(lp483
g61
(g82
g63
NtRp484
(dp485
g66
(dp486
g86
g87
ssg75
g480
sg68
(lp487
g296
asbag61
(g82
g63
NtRp488
(dp489
g66
(dp490
g93
g94
ssg75
g480
sg68
(lp491
S':'
asbag61
(g82
g63
NtRp492
(dp493
g66
(dp494
sg75
g480
sg68
(lp495
g61
(g62
g63
NtRp496
(dp497
g66
(dp498
g74
I3
ssg75
g492
sg68
(lp499
S''
asbasbasbag61
(g77
g63
NtRp500
(dp501
g66
(dp502
sg75
g456
sg68
(lp503
g61
(g82
g63
NtRp504
(dp505
g66
(dp506
g86
g87
ssg75
g500
sg68
(lp507
g317
asbag61
(g82
g63
NtRp508
(dp509
g66
(dp510
g93
g94
ssg75
g500
sg68
(lp511
S':'
asbag61
(g82
g63
NtRp512
(dp513
g66
(dp514
sg75
g500
sg68
(lp515
g61
(g62
g63
NtRp516
(dp517
g66
(dp518
g74
I3
ssg75
g512
sg68
(lp519
S''
asbasbasbag61
(g77
g63
NtRp520
(dp521
g66
(dp522
sg75
g456
sg68
(lp523
g61
(g82
g63
NtRp524
(dp525
g66
(dp526
g86
g87
ssg75
g520
sg68
(lp527
g338
asbag61
(g82
g63
NtRp528
(dp529
g66
(dp530
g93
g94
ssg75
g520
sg68
(lp531
S':'
asbag61
(g82
g63
NtRp532
(dp533
g66
(dp534
sg75
g520
sg68
(lp535
g61
(g62
g63
NtRp536
(dp537
g66
(dp538
g74
I3
ssg75
g532
sg68
(lp539
S''
asbasbasbag61
(g77
g63
NtRp540
(dp541
g66
(dp542
sg75
g456
sg68
(lp543
g61
(g82
g63
NtRp544
(dp545
g66
(dp546
g86
g87
ssg75
g540
sg68
(lp547
g359
asbag61
(g82
g63
NtRp548
(dp549
g66
(dp550
g93
g94
ssg75
g540
sg68
(lp551
S':'
asbag61
(g82
g63
NtRp552
(dp553
g66
(dp554
sg75
g540
sg68
(lp555
g61
(g62
g63
NtRp556
(dp557
g66
(dp558
g74
I3
ssg75
g552
sg68
(lp559
S''
asbasbasbag61
(g77
g63
NtRp560
(dp561
g66
(dp562
sg75
g456
sg68
(lp563
g61
(g82
g63
NtRp564
(dp565
g66
(dp566
g86
g87
ssg75
g560
sg68
(lp567
g380
asbag61
(g82
g63
NtRp568
(dp569
g66
(dp570
g93
g94
ssg75
g560
sg68
(lp571
S':'
asbag61
(g82
g63
NtRp572
(dp573
g66
(dp574
sg75
g560
sg68
(lp575
g61
(g62
g63
NtRp576
(dp577
g66
(dp578
g74
I3
ssg75
g572
sg68
(lp579
S''
asbasbasbag61
(g77
g63
NtRp580
(dp581
g66
(dp582
sg75
g456
sg68
(lp583
g61
(g82
g63
NtRp584
(dp585
g66
(dp586
g86
g87
ssg75
g580
sg68
(lp587
g401
asbag61
(g82
g63
NtRp588
(dp589
g66
(dp590
g93
g94
ssg75
g580
sg68
(lp591
S':'
asbag61
(g82
g63
NtRp592
(dp593
g66
(dp594
sg75
g580
sg68
(lp595
g61
(g62
g63
NtRp596
(dp597
g66
(dp598
g74
I3
ssg75
g592
sg68
(lp599
S''
asbasbasbag61
(g77
g63
NtRp600
(dp601
g66
(dp602
sg75
g456
sg68
(lp603
g61
(g82
g63
NtRp604
(dp605
g66
(dp606
g86
g87
ssg75
g600
sg68
(lp607
g422
asbag61
(g82
g63
NtRp608
(dp609
g66
(dp610
g93
g94
ssg75
g600
sg68
(lp611
S':'
asbag61
(g82
g63
NtRp612
(dp613
g66
(dp614
sg75
g600
sg68
(lp615
g61
(g62
g63
NtRp616
(dp617
g66
(dp618
g74
I3
ssg75
g612
sg68
(lp619
S''
asbasbasbasbasbasbasbag61
(g77
g63
NtRp620
(dp621
g66
(dp622
sg75
g238
sg68
(lp623
g61
(g82
g63
NtRp624
(dp625
g66
(dp626
g86
g87
ssg75
g620
sg68
(lp627
S'session_id_music'
p628
asbag61
(g82
g63
NtRp629
(dp630
g66
(dp631
g93
g94
ssg75
g620
sg68
(lp632
S':'
asbag61
(g82
g63
NtRp633
(dp634
g66
(dp635
sg75
g620
sg68
(lp636
g61
(g62
g63
NtRp637
(dp638
g66
(dp639
g74
I4
ssg75
g633
sg68
(lp640
g61
(g70
g63
NtRp641
(dp642
g66
(dp643
g74
I3
ssg75
Nsg68
(lp644
g61
(g77
g63
NtRp645
(dp646
g66
(dp647
sg75
g641
sg68
(lp648
g61
(g82
g63
NtRp649
(dp650
g66
(dp651
g86
g87
ssg75
g645
sg68
(lp652
g275
asbag61
(g82
g63
NtRp653
(dp654
g66
(dp655
g93
g94
ssg75
g645
sg68
(lp656
S':'
asbag61
(g82
g63
NtRp657
(dp658
g66
(dp659
sg75
g645
sg68
(lp660
g61
(g62
g63
NtRp661
(dp662
g66
(dp663
g74
I3
ssg75
g657
sg68
(lp664
S''
asbasbasbag61
(g77
g63
NtRp665
(dp666
g66
(dp667
sg75
g641
sg68
(lp668
g61
(g82
g63
NtRp669
(dp670
g66
(dp671
g86
g87
ssg75
g665
sg68
(lp672
g296
asbag61
(g82
g63
NtRp673
(dp674
g66
(dp675
g93
g94
ssg75
g665
sg68
(lp676
S':'
asbag61
(g82
g63
NtRp677
(dp678
g66
(dp679
sg75
g665
sg68
(lp680
g61
(g62
g63
NtRp681
(dp682
g66
(dp683
g74
I3
ssg75
g677
sg68
(lp684
S''
asbasbasbag61
(g77
g63
NtRp685
(dp686
g66
(dp687
sg75
g641
sg68
(lp688
g61
(g82
g63
NtRp689
(dp690
g66
(dp691
g86
g87
ssg75
g685
sg68
(lp692
g317
asbag61
(g82
g63
NtRp693
(dp694
g66
(dp695
g93
g94
ssg75
g685
sg68
(lp696
S':'
asbag61
(g82
g63
NtRp697
(dp698
g66
(dp699
sg75
g685
sg68
(lp700
g61
(g62
g63
NtRp701
(dp702
g66
(dp703
g74
I3
ssg75
g697
sg68
(lp704
S''
asbasbasbag61
(g77
g63
NtRp705
(dp706
g66
(dp707
sg75
g641
sg68
(lp708
g61
(g82
g63
NtRp709
(dp710
g66
(dp711
g86
g87
ssg75
g705
sg68
(lp712
g338
asbag61
(g82
g63
NtRp713
(dp714
g66
(dp715
g93
g94
ssg75
g705
sg68
(lp716
S':'
asbag61
(g82
g63
NtRp717
(dp718
g66
(dp719
sg75
g705
sg68
(lp720
g61
(g62
g63
NtRp721
(dp722
g66
(dp723
g74
I3
ssg75
g717
sg68
(lp724
S''
asbasbasbag61
(g77
g63
NtRp725
(dp726
g66
(dp727
sg75
g641
sg68
(lp728
g61
(g82
g63
NtRp729
(dp730
g66
(dp731
g86
g87
ssg75
g725
sg68
(lp732
g359
asbag61
(g82
g63
NtRp733
(dp734
g66
(dp735
g93
g94
ssg75
g725
sg68
(lp736
S':'
asbag61
(g82
g63
NtRp737
(dp738
g66
(dp739
sg75
g725
sg68
(lp740
g61
(g62
g63
NtRp741
(dp742
g66
(dp743
g74
I3
ssg75
g737
sg68
(lp744
S''
asbasbasbag61
(g77
g63
NtRp745
(dp746
g66
(dp747
sg75
g641
sg68
(lp748
g61
(g82
g63
NtRp749
(dp750
g66
(dp751
g86
g87
ssg75
g745
sg68
(lp752
g380
asbag61
(g82
g63
NtRp753
(dp754
g66
(dp755
g93
g94
ssg75
g745
sg68
(lp756
S':'
asbag61
(g82
g63
NtRp757
(dp758
g66
(dp759
sg75
g745
sg68
(lp760
g61
(g62
g63
NtRp761
(dp762
g66
(dp763
g74
I3
ssg75
g757
sg68
(lp764
S''
asbasbasbag61
(g77
g63
NtRp765
(dp766
g66
(dp767
sg75
g641
sg68
(lp768
g61
(g82
g63
NtRp769
(dp770
g66
(dp771
g86
g87
ssg75
g765
sg68
(lp772
g401
asbag61
(g82
g63
NtRp773
(dp774
g66
(dp775
g93
g94
ssg75
g765
sg68
(lp776
S':'
asbag61
(g82
g63
NtRp777
(dp778
g66
(dp779
sg75
g765
sg68
(lp780
g61
(g62
g63
NtRp781
(dp782
g66
(dp783
g74
I3
ssg75
g777
sg68
(lp784
S''
asbasbasbag61
(g77
g63
NtRp785
(dp786
g66
(dp787
sg75
g641
sg68
(lp788
g61
(g82
g63
NtRp789
(dp790
g66
(dp791
g86
g87
ssg75
g785
sg68
(lp792
g422
asbag61
(g82
g63
NtRp793
(dp794
g66
(dp795
g93
g94
ssg75
g785
sg68
(lp796
S':'
asbag61
(g82
g63
NtRp797
(dp798
g66
(dp799
sg75
g785
sg68
(lp800
g61
(g62
g63
NtRp801
(dp802
g66
(dp803
g74
I3
ssg75
g797
sg68
(lp804
S''
asbasbasbasbasbasbasbag61
(g77
g63
NtRp805
(dp806
g66
(dp807
sg75
g238
sg68
(lp808
g61
(g82
g63
NtRp809
(dp810
g66
(dp811
g86
g87
ssg75
g805
sg68
(lp812
S'session_id_photouploader'
p813
asbag61
(g82
g63
NtRp814
(dp815
g66
(dp816
g93
g94
ssg75
g805
sg68
(lp817
S':'
asbag61
(g82
g63
NtRp818
(dp819
g66
(dp820
sg75
g805
sg68
(lp821
g61
(g62
g63
NtRp822
(dp823
g66
(dp824
g74
I4
ssg75
g818
sg68
(lp825
g61
(g70
g63
NtRp826
(dp827
g66
(dp828
g74
I3
ssg75
Nsg68
(lp829
g61
(g77
g63
NtRp830
(dp831
g66
(dp832
sg75
g826
sg68
(lp833
g61
(g82
g63
NtRp834
(dp835
g66
(dp836
g86
g87
ssg75
g830
sg68
(lp837
g275
asbag61
(g82
g63
NtRp838
(dp839
g66
(dp840
g93
g94
ssg75
g830
sg68
(lp841
S':'
asbag61
(g82
g63
NtRp842
(dp843
g66
(dp844
sg75
g830
sg68
(lp845
g61
(g62
g63
NtRp846
(dp847
g66
(dp848
g74
I3
ssg75
g842
sg68
(lp849
S''
asbasbasbag61
(g77
g63
NtRp850
(dp851
g66
(dp852
sg75
g826
sg68
(lp853
g61
(g82
g63
NtRp854
(dp855
g66
(dp856
g86
g87
ssg75
g850
sg68
(lp857
g296
asbag61
(g82
g63
NtRp858
(dp859
g66
(dp860
g93
g94
ssg75
g850
sg68
(lp861
S':'
asbag61
(g82
g63
NtRp862
(dp863
g66
(dp864
sg75
g850
sg68
(lp865
g61
(g62
g63
NtRp866
(dp867
g66
(dp868
g74
I3
ssg75
g862
sg68
(lp869
S''
asbasbasbag61
(g77
g63
NtRp870
(dp871
g66
(dp872
sg75
g826
sg68
(lp873
g61
(g82
g63
NtRp874
(dp875
g66
(dp876
g86
g87
ssg75
g870
sg68
(lp877
g317
asbag61
(g82
g63
NtRp878
(dp879
g66
(dp880
g93
g94
ssg75
g870
sg68
(lp881
S':'
asbag61
(g82
g63
NtRp882
(dp883
g66
(dp884
sg75
g870
sg68
(lp885
g61
(g62
g63
NtRp886
(dp887
g66
(dp888
g74
I3
ssg75
g882
sg68
(lp889
S''
asbasbasbag61
(g77
g63
NtRp890
(dp891
g66
(dp892
sg75
g826
sg68
(lp893
g61
(g82
g63
NtRp894
(dp895
g66
(dp896
g86
g87
ssg75
g890
sg68
(lp897
g338
asbag61
(g82
g63
NtRp898
(dp899
g66
(dp900
g93
g94
ssg75
g890
sg68
(lp901
S':'
asbag61
(g82
g63
NtRp902
(dp903
g66
(dp904
sg75
g890
sg68
(lp905
g61
(g62
g63
NtRp906
(dp907
g66
(dp908
g74
I3
ssg75
g902
sg68
(lp909
S''
asbasbasbag61
(g77
g63
NtRp910
(dp911
g66
(dp912
sg75
g826
sg68
(lp913
g61
(g82
g63
NtRp914
(dp915
g66
(dp916
g86
g87
ssg75
g910
sg68
(lp917
g359
asbag61
(g82
g63
NtRp918
(dp919
g66
(dp920
g93
g94
ssg75
g910
sg68
(lp921
S':'
asbag61
(g82
g63
NtRp922
(dp923
g66
(dp924
sg75
g910
sg68
(lp925
g61
(g62
g63
NtRp926
(dp927
g66
(dp928
g74
I3
ssg75
g922
sg68
(lp929
S''
asbasbasbag61
(g77
g63
NtRp930
(dp931
g66
(dp932
sg75
g826
sg68
(lp933
g61
(g82
g63
NtRp934
(dp935
g66
(dp936
g86
g87
ssg75
g930
sg68
(lp937
g380
asbag61
(g82
g63
NtRp938
(dp939
g66
(dp940
g93
g94
ssg75
g930
sg68
(lp941
S':'
asbag61
(g82
g63
NtRp942
(dp943
g66
(dp944
sg75
g930
sg68
(lp945
g61
(g62
g63
NtRp946
(dp947
g66
(dp948
g74
I3
ssg75
g942
sg68
(lp949
S''
asbasbasbag61
(g77
g63
NtRp950
(dp951
g66
(dp952
sg75
g826
sg68
(lp953
g61
(g82
g63
NtRp954
(dp955
g66
(dp956
g86
g87
ssg75
g950
sg68
(lp957
g401
asbag61
(g82
g63
NtRp958
(dp959
g66
(dp960
g93
g94
ssg75
g950
sg68
(lp961
S':'
asbag61
(g82
g63
NtRp962
(dp963
g66
(dp964
sg75
g950
sg68
(lp965
g61
(g62
g63
NtRp966
(dp967
g66
(dp968
g74
I3
ssg75
g962
sg68
(lp969
S''
asbasbasbag61
(g77
g63
NtRp970
(dp971
g66
(dp972
sg75
g826
sg68
(lp973
g61
(g82
g63
NtRp974
(dp975
g66
(dp976
g86
g87
ssg75
g970
sg68
(lp977
g422
asbag61
(g82
g63
NtRp978
(dp979
g66
(dp980
g93
g94
ssg75
g970
sg68
(lp981
S':'
asbag61
(g82
g63
NtRp982
(dp983
g66
(dp984
sg75
g970
sg68
(lp985
g61
(g62
g63
NtRp986
(dp987
g66
(dp988
g74
I3
ssg75
g982
sg68
(lp989
S''
asbasbasbasbasbasbasbag61
(g77
g63
NtRp990
(dp991
g66
(dp992
sg75
g238
sg68
(lp993
g61
(g82
g63
NtRp994
(dp995
g66
(dp996
g86
g87
ssg75
g990
sg68
(lp997
S'session_id_sudoku'
p998
asbag61
(g82
g63
NtRp999
(dp1000
g66
(dp1001
g93
g94
ssg75
g990
sg68
(lp1002
S':'
asbag61
(g82
g63
NtRp1003
(dp1004
g66
(dp1005
sg75
g990
sg68
(lp1006
g61
(g62
g63
NtRp1007
(dp1008
g66
(dp1009
g74
I4
ssg75
g1003
sg68
(lp1010
g61
(g70
g63
NtRp1011
(dp1012
g66
(dp1013
g74
I3
ssg75
Nsg68
(lp1014
g61
(g77
g63
NtRp1015
(dp1016
g66
(dp1017
sg75
g1011
sg68
(lp1018
g61
(g82
g63
NtRp1019
(dp1020
g66
(dp1021
g86
g87
ssg75
g1015
sg68
(lp1022
g275
asbag61
(g82
g63
NtRp1023
(dp1024
g66
(dp1025
g93
g94
ssg75
g1015
sg68
(lp1026
S':'
asbag61
(g82
g63
NtRp1027
(dp1028
g66
(dp1029
sg75
g1015
sg68
(lp1030
g61
(g62
g63
NtRp1031
(dp1032
g66
(dp1033
g74
I3
ssg75
g1027
sg68
(lp1034
S''
asbasbasbag61
(g77
g63
NtRp1035
(dp1036
g66
(dp1037
sg75
g1011
sg68
(lp1038
g61
(g82
g63
NtRp1039
(dp1040
g66
(dp1041
g86
g87
ssg75
g1035
sg68
(lp1042
g296
asbag61
(g82
g63
NtRp1043
(dp1044
g66
(dp1045
g93
g94
ssg75
g1035
sg68
(lp1046
S':'
asbag61
(g82
g63
NtRp1047
(dp1048
g66
(dp1049
sg75
g1035
sg68
(lp1050
g61
(g62
g63
NtRp1051
(dp1052
g66
(dp1053
g74
I3
ssg75
g1047
sg68
(lp1054
S''
asbasbasbag61
(g77
g63
NtRp1055
(dp1056
g66
(dp1057
sg75
g1011
sg68
(lp1058
g61
(g82
g63
NtRp1059
(dp1060
g66
(dp1061
g86
g87
ssg75
g1055
sg68
(lp1062
g317
asbag61
(g82
g63
NtRp1063
(dp1064
g66
(dp1065
g93
g94
ssg75
g1055
sg68
(lp1066
S':'
asbag61
(g82
g63
NtRp1067
(dp1068
g66
(dp1069
sg75
g1055
sg68
(lp1070
g61
(g62
g63
NtRp1071
(dp1072
g66
(dp1073
g74
I3
ssg75
g1067
sg68
(lp1074
S''
asbasbasbag61
(g77
g63
NtRp1075
(dp1076
g66
(dp1077
sg75
g1011
sg68
(lp1078
g61
(g82
g63
NtRp1079
(dp1080
g66
(dp1081
g86
g87
ssg75
g1075
sg68
(lp1082
g338
asbag61
(g82
g63
NtRp1083
(dp1084
g66
(dp1085
g93
g94
ssg75
g1075
sg68
(lp1086
S':'
asbag61
(g82
g63
NtRp1087
(dp1088
g66
(dp1089
sg75
g1075
sg68
(lp1090
g61
(g62
g63
NtRp1091
(dp1092
g66
(dp1093
g74
I3
ssg75
g1087
sg68
(lp1094
S''
asbasbasbag61
(g77
g63
NtRp1095
(dp1096
g66
(dp1097
sg75
g1011
sg68
(lp1098
g61
(g82
g63
NtRp1099
(dp1100
g66
(dp1101
g86
g87
ssg75
g1095
sg68
(lp1102
g359
asbag61
(g82
g63
NtRp1103
(dp1104
g66
(dp1105
g93
g94
ssg75
g1095
sg68
(lp1106
S':'
asbag61
(g82
g63
NtRp1107
(dp1108
g66
(dp1109
sg75
g1095
sg68
(lp1110
g61
(g62
g63
NtRp1111
(dp1112
g66
(dp1113
g74
I3
ssg75
g1107
sg68
(lp1114
S''
asbasbasbag61
(g77
g63
NtRp1115
(dp1116
g66
(dp1117
sg75
g1011
sg68
(lp1118
g61
(g82
g63
NtRp1119
(dp1120
g66
(dp1121
g86
g87
ssg75
g1115
sg68
(lp1122
g380
asbag61
(g82
g63
NtRp1123
(dp1124
g66
(dp1125
g93
g94
ssg75
g1115
sg68
(lp1126
S':'
asbag61
(g82
g63
NtRp1127
(dp1128
g66
(dp1129
sg75
g1115
sg68
(lp1130
g61
(g62
g63
NtRp1131
(dp1132
g66
(dp1133
g74
I3
ssg75
g1127
sg68
(lp1134
S''
asbasbasbag61
(g77
g63
NtRp1135
(dp1136
g66
(dp1137
sg75
g1011
sg68
(lp1138
g61
(g82
g63
NtRp1139
(dp1140
g66
(dp1141
g86
g87
ssg75
g1135
sg68
(lp1142
g401
asbag61
(g82
g63
NtRp1143
(dp1144
g66
(dp1145
g93
g94
ssg75
g1135
sg68
(lp1146
S':'
asbag61
(g82
g63
NtRp1147
(dp1148
g66
(dp1149
sg75
g1135
sg68
(lp1150
g61
(g62
g63
NtRp1151
(dp1152
g66
(dp1153
g74
I3
ssg75
g1147
sg68
(lp1154
S''
asbasbasbag61
(g77
g63
NtRp1155
(dp1156
g66
(dp1157
sg75
g1011
sg68
(lp1158
g61
(g82
g63
NtRp1159
(dp1160
g66
(dp1161
g86
g87
ssg75
g1155
sg68
(lp1162
g422
asbag61
(g82
g63
NtRp1163
(dp1164
g66
(dp1165
g93
g94
ssg75
g1155
sg68
(lp1166
S':'
asbag61
(g82
g63
NtRp1167
(dp1168
g66
(dp1169
sg75
g1155
sg68
(lp1170
g61
(g62
g63
NtRp1171
(dp1172
g66
(dp1173
g74
I3
ssg75
g1167
sg68
(lp1174
S''
asbasbasbasbasbasbasbag61
(g77
g63
NtRp1175
(dp1176
g66
(dp1177
sg75
g238
sg68
(lp1178
g61
(g82
g63
NtRp1179
(dp1180
g66
(dp1181
g86
g87
ssg75
g1175
sg68
(lp1182
S'session_id_welcome'
p1183
asbag61
(g82
g63
NtRp1184
(dp1185
g66
(dp1186
g93
g94
ssg75
g1175
sg68
(lp1187
S':'
asbag61
(g82
g63
NtRp1188
(dp1189
g66
(dp1190
sg75
g1175
sg68
(lp1191
g61
(g62
g63
NtRp1192
(dp1193
g66
(dp1194
g74
I4
ssg75
g1188
sg68
(lp1195
g61
(g70
g63
NtRp1196
(dp1197
g66
(dp1198
g74
I3
ssg75
Nsg68
(lp1199
g61
(g77
g63
NtRp1200
(dp1201
g66
(dp1202
sg75
g1196
sg68
(lp1203
g61
(g82
g63
NtRp1204
(dp1205
g66
(dp1206
g86
g87
ssg75
g1200
sg68
(lp1207
g275
asbag61
(g82
g63
NtRp1208
(dp1209
g66
(dp1210
g93
g94
ssg75
g1200
sg68
(lp1211
S':'
asbag61
(g82
g63
NtRp1212
(dp1213
g66
(dp1214
sg75
g1200
sg68
(lp1215
g61
(g62
g63
NtRp1216
(dp1217
g66
(dp1218
g74
I3
ssg75
g1212
sg68
(lp1219
S''
asbasbasbag61
(g77
g63
NtRp1220
(dp1221
g66
(dp1222
sg75
g1196
sg68
(lp1223
g61
(g82
g63
NtRp1224
(dp1225
g66
(dp1226
g86
g87
ssg75
g1220
sg68
(lp1227
g296
asbag61
(g82
g63
NtRp1228
(dp1229
g66
(dp1230
g93
g94
ssg75
g1220
sg68
(lp1231
S':'
asbag61
(g82
g63
NtRp1232
(dp1233
g66
(dp1234
sg75
g1220
sg68
(lp1235
g61
(g62
g63
NtRp1236
(dp1237
g66
(dp1238
g74
I3
ssg75
g1232
sg68
(lp1239
S''
asbasbasbag61
(g77
g63
NtRp1240
(dp1241
g66
(dp1242
sg75
g1196
sg68
(lp1243
g61
(g82
g63
NtRp1244
(dp1245
g66
(dp1246
g86
g87
ssg75
g1240
sg68
(lp1247
g317
asbag61
(g82
g63
NtRp1248
(dp1249
g66
(dp1250
g93
g94
ssg75
g1240
sg68
(lp1251
S':'
asbag61
(g82
g63
NtRp1252
(dp1253
g66
(dp1254
sg75
g1240
sg68
(lp1255
g61
(g62
g63
NtRp1256
(dp1257
g66
(dp1258
g74
I3
ssg75
g1252
sg68
(lp1259
S''
asbasbasbag61
(g77
g63
NtRp1260
(dp1261
g66
(dp1262
sg75
g1196
sg68
(lp1263
g61
(g82
g63
NtRp1264
(dp1265
g66
(dp1266
g86
g87
ssg75
g1260
sg68
(lp1267
g338
asbag61
(g82
g63
NtRp1268
(dp1269
g66
(dp1270
g93
g94
ssg75
g1260
sg68
(lp1271
S':'
asbag61
(g82
g63
NtRp1272
(dp1273
g66
(dp1274
sg75
g1260
sg68
(lp1275
g61
(g62
g63
NtRp1276
(dp1277
g66
(dp1278
g74
I3
ssg75
g1272
sg68
(lp1279
S''
asbasbasbag61
(g77
g63
NtRp1280
(dp1281
g66
(dp1282
sg75
g1196
sg68
(lp1283
g61
(g82
g63
NtRp1284
(dp1285
g66
(dp1286
g86
g87
ssg75
g1280
sg68
(lp1287
g359
asbag61
(g82
g63
NtRp1288
(dp1289
g66
(dp1290
g93
g94
ssg75
g1280
sg68
(lp1291
S':'
asbag61
(g82
g63
NtRp1292
(dp1293
g66
(dp1294
sg75
g1280
sg68
(lp1295
g61
(g62
g63
NtRp1296
(dp1297
g66
(dp1298
g74
I3
ssg75
g1292
sg68
(lp1299
S''
asbasbasbag61
(g77
g63
NtRp1300
(dp1301
g66
(dp1302
sg75
g1196
sg68
(lp1303
g61
(g82
g63
NtRp1304
(dp1305
g66
(dp1306
g86
g87
ssg75
g1300
sg68
(lp1307
g380
asbag61
(g82
g63
NtRp1308
(dp1309
g66
(dp1310
g93
g94
ssg75
g1300
sg68
(lp1311
S':'
asbag61
(g82
g63
NtRp1312
(dp1313
g66
(dp1314
sg75
g1300
sg68
(lp1315
g61
(g62
g63
NtRp1316
(dp1317
g66
(dp1318
g74
I3
ssg75
g1312
sg68
(lp1319
S''
asbasbasbag61
(g77
g63
NtRp1320
(dp1321
g66
(dp1322
sg75
g1196
sg68
(lp1323
g61
(g82
g63
NtRp1324
(dp1325
g66
(dp1326
g86
g87
ssg75
g1320
sg68
(lp1327
g401
asbag61
(g82
g63
NtRp1328
(dp1329
g66
(dp1330
g93
g94
ssg75
g1320
sg68
(lp1331
S':'
asbag61
(g82
g63
NtRp1332
(dp1333
g66
(dp1334
sg75
g1320
sg68
(lp1335
g61
(g62
g63
NtRp1336
(dp1337
g66
(dp1338
g74
I3
ssg75
g1332
sg68
(lp1339
S''
asbasbasbag61
(g77
g63
NtRp1340
(dp1341
g66
(dp1342
sg75
g1196
sg68
(lp1343
g61
(g82
g63
NtRp1344
(dp1345
g66
(dp1346
g86
g87
ssg75
g1340
sg68
(lp1347
g422
asbag61
(g82
g63
NtRp1348
(dp1349
g66
(dp1350
g93
g94
ssg75
g1340
sg68
(lp1351
S':'
asbag61
(g82
g63
NtRp1352
(dp1353
g66
(dp1354
sg75
g1340
sg68
(lp1355
g61
(g62
g63
NtRp1356
(dp1357
g66
(dp1358
g74
I3
ssg75
g1352
sg68
(lp1359
S''
asbasbasbasbasbasbasbasbasbasbasbag61
(g77
g63
NtRp1360
(dp1361
g66
(dp1362
sg75
g71
sg68
(lp1363
g61
(g82
g63
NtRp1364
(dp1365
g66
(dp1366
g86
g87
ssg75
g1360
sg68
(lp1367
S'env'
p1368
asbag61
(g82
g63
NtRp1369
(dp1370
g66
(dp1371
g93
g94
ssg75
g1360
sg68
(lp1372
S':'
asbag61
(g82
g63
NtRp1373
(dp1374
g66
(dp1375
sg75
g1360
sg68
(lp1376
g61
(g62
g63
NtRp1377
(dp1378
g66
(dp1379
g74
I5
ssg75
g1373
sg68
(lp1380
g61
(g70
g63
NtRp1381
(dp1382
g66
(dp1383
g74
I4
ssg75
Nsg68
(lp1384
g61
(g77
g63
NtRp1385
(dp1386
g66
(dp1387
sg75
g1381
sg68
(lp1388
g61
(g82
g63
NtRp1389
(dp1390
g66
(dp1391
g86
g87
ssg75
g1385
sg68
(lp1392
S'app_folders'
p1393
asbag61
(g82
g63
NtRp1394
(dp1395
g66
(dp1396
g93
g94
ssg75
g1385
sg68
(lp1397
S':'
asbag61
(g82
g63
NtRp1398
(dp1399
g66
(dp1400
sg75
g1385
sg68
(lp1401
g61
(g62
g63
NtRp1402
(dp1403
g66
(dp1404
g74
I4
ssg75
g1398
sg68
(lp1405
S"set(['/home/vishrut/web2py/applications/astra1/', '/home/vishrut/web2py/applications/admin/', '/home/vishrut/web2py/applications/welcome/'])"
p1406
asbasbasbag61
(g77
g63
NtRp1407
(dp1408
g66
(dp1409
sg75
g1381
sg68
(lp1410
g61
(g82
g63
NtRp1411
(dp1412
g66
(dp1413
g86
g87
ssg75
g1407
sg68
(lp1414
S'applications_parent'
p1415
asbag61
(g82
g63
NtRp1416
(dp1417
g66
(dp1418
g93
g94
ssg75
g1407
sg68
(lp1419
S':'
asbag61
(g82
g63
NtRp1420
(dp1421
g66
(dp1422
sg75
g1407
sg68
(lp1423
g61
(g62
g63
NtRp1424
(dp1425
g66
(dp1426
g74
I4
ssg75
g1420
sg68
(lp1427
S'/home/vishrut/web2py'
p1428
asbasbasbag61
(g77
g63
NtRp1429
(dp1430
g66
(dp1431
sg75
g1381
sg68
(lp1432
g61
(g82
g63
NtRp1433
(dp1434
g66
(dp1435
g86
g87
ssg75
g1429
sg68
(lp1436
S'cmd_args'
p1437
asbag61
(g82
g63
NtRp1438
(dp1439
g66
(dp1440
g93
g94
ssg75
g1429
sg68
(lp1441
S':'
asbag61
(g82
g63
NtRp1442
(dp1443
g66
(dp1444
sg75
g1429
sg68
(lp1445
g61
(g62
g63
NtRp1446
(dp1447
g66
(dp1448
g74
I4
ssg75
g1442
sg68
(lp1449
g61
(g70
g63
NtRp1450
(dp1451
g66
(dp1452
g74
I3
ssg75
Nsg68
(lp1453
sbasbasbasbag61
(g77
g63
NtRp1454
(dp1455
g66
(dp1456
sg75
g1381
sg68
(lp1457
g61
(g82
g63
NtRp1458
(dp1459
g66
(dp1460
g86
g87
ssg75
g1454
sg68
(lp1461
S'cmd_options'
p1462
asbag61
(g82
g63
NtRp1463
(dp1464
g66
(dp1465
g93
g94
ssg75
g1454
sg68
(lp1466
S':'
asbag61
(g82
g63
NtRp1467
(dp1468
g66
(dp1469
sg75
g1454
sg68
(lp1470
g61
(g62
g63
NtRp1471
(dp1472
g66
(dp1473
g74
I4
ssg75
g1467
sg68
(lp1474
S"<Values at 0x96e13cc: {'verbose': False, 'ip': '127.0.0.1', 'shutdown_timeout': 5, 'taskbar': False, 'nocron': False, 'pid_filename': 'httpserver.pid', 'maxthreads': None, 'softcron': False, 'server_name': 'vishrut-Vostro-1015', 'bpython': False, 'nogui': False, 'port': 8000, 'extcron': False, 'debuglevel': 30, 'test': None, 'folder': '/home/vishrut/web2py', 'config': '', 'import_models': False, 'winservice': '', 'shell': None, 'run': '', 'log_filename': 'httpserver.log', 'args': [''], 'socket_timeout': 5, 'ssl_ca_certificate': None, 'scheduler': None, 'profiler_filename': None, 'ssl_private_key': '', 'password': '<ask>', 'request_queue_size': 5, 'ssl_certificate': '', 'cronjob': False, 'numthreads': None, 'quiet': False, 'interfaces': None, 'minthreads': None, 'timeout': 10, 'plain': False, 'nobanner': False}>"
p1475
asbasbasbag61
(g77
g63
NtRp1476
(dp1477
g66
(dp1478
sg75
g1381
sg68
(lp1479
g61
(g82
g63
NtRp1480
(dp1481
g66
(dp1482
g86
g87
ssg75
g1476
sg68
(lp1483
S'db_sessions'
p1484
asbag61
(g82
g63
NtRp1485
(dp1486
g66
(dp1487
g93
g94
ssg75
g1476
sg68
(lp1488
S':'
asbag61
(g82
g63
NtRp1489
(dp1490
g66
(dp1491
sg75
g1476
sg68
(lp1492
g61
(g62
g63
NtRp1493
(dp1494
g66
(dp1495
g74
I4
ssg75
g1489
sg68
(lp1496
S'set([])'
p1497
asbasbasbag61
(g77
g63
NtRp1498
(dp1499
g66
(dp1500
sg75
g1381
sg68
(lp1501
g61
(g82
g63
NtRp1502
(dp1503
g66
(dp1504
g86
g87
ssg75
g1498
sg68
(lp1505
S'debugging'
p1506
asbag61
(g82
g63
NtRp1507
(dp1508
g66
(dp1509
g93
g94
ssg75
g1498
sg68
(lp1510
S':'
asbag61
(g82
g63
NtRp1511
(dp1512
g66
(dp1513
sg75
g1498
sg68
(lp1514
g61
(g62
g63
NtRp1515
(dp1516
g66
(dp1517
g74
I4
ssg75
g1511
sg68
(lp1518
g104
asbasbasbag61
(g77
g63
NtRp1519
(dp1520
g66
(dp1521
sg75
g1381
sg68
(lp1522
g61
(g82
g63
NtRp1523
(dp1524
g66
(dp1525
g86
g87
ssg75
g1519
sg68
(lp1526
S'gluon_parent'
p1527
asbag61
(g82
g63
NtRp1528
(dp1529
g66
(dp1530
g93
g94
ssg75
g1519
sg68
(lp1531
S':'
asbag61
(g82
g63
NtRp1532
(dp1533
g66
(dp1534
sg75
g1519
sg68
(lp1535
g61
(g62
g63
NtRp1536
(dp1537
g66
(dp1538
g74
I4
ssg75
g1532
sg68
(lp1539
S'/home/vishrut/web2py'
p1540
asbasbasbag61
(g77
g63
NtRp1541
(dp1542
g66
(dp1543
sg75
g1381
sg68
(lp1544
g61
(g82
g63
NtRp1545
(dp1546
g66
(dp1547
g86
g87
ssg75
g1541
sg68
(lp1548
S'http_accept'
p1549
asbag61
(g82
g63
NtRp1550
(dp1551
g66
(dp1552
g93
g94
ssg75
g1541
sg68
(lp1553
S':'
asbag61
(g82
g63
NtRp1554
(dp1555
g66
(dp1556
sg75
g1541
sg68
(lp1557
g61
(g62
g63
NtRp1558
(dp1559
g66
(dp1560
g74
I4
ssg75
g1554
sg68
(lp1561
S'text/html,application/xhtml+xml,application/xml;q=0.9,*/*;q=0.8'
p1562
asbasbasbag61
(g77
g63
NtRp1563
(dp1564
g66
(dp1565
sg75
g1381
sg68
(lp1566
g61
(g82
g63
NtRp1567
(dp1568
g66
(dp1569
g86
g87
ssg75
g1563
sg68
(lp1570
S'http_accept_encoding'
p1571
asbag61
(g82
g63
NtRp1572
(dp1573
g66
(dp1574
g93
g94
ssg75
g1563
sg68
(lp1575
S':'
asbag61
(g82
g63
NtRp1576
(dp1577
g66
(dp1578
sg75
g1563
sg68
(lp1579
g61
(g62
g63
NtRp1580
(dp1581
g66
(dp1582
g74
I4
ssg75
g1576
sg68
(lp1583
S'gzip, deflate'
p1584
asbasbasbag61
(g77
g63
NtRp1585
(dp1586
g66
(dp1587
sg75
g1381
sg68
(lp1588
g61
(g82
g63
NtRp1589
(dp1590
g66
(dp1591
g86
g87
ssg75
g1585
sg68
(lp1592
S'http_accept_language'
p1593
asbag61
(g82
g63
NtRp1594
(dp1595
g66
(dp1596
g93
g94
ssg75
g1585
sg68
(lp1597
S':'
asbag61
(g82
g63
NtRp1598
(dp1599
g66
(dp1600
sg75
g1585
sg68
(lp1601
g61
(g62
g63
NtRp1602
(dp1603
g66
(dp1604
g74
I4
ssg75
g1598
sg68
(lp1605
S'en-US,en;q=0.5'
p1606
asbasbasbag61
(g77
g63
NtRp1607
(dp1608
g66
(dp1609
sg75
g1381
sg68
(lp1610
g61
(g82
g63
NtRp1611
(dp1612
g66
(dp1613
g86
g87
ssg75
g1607
sg68
(lp1614
S'http_connection'
p1615
asbag61
(g82
g63
NtRp1616
(dp1617
g66
(dp1618
g93
g94
ssg75
g1607
sg68
(lp1619
S':'
asbag61
(g82
g63
NtRp1620
(dp1621
g66
(dp1622
sg75
g1607
sg68
(lp1623
g61
(g62
g63
NtRp1624
(dp1625
g66
(dp1626
g74
I4
ssg75
g1620
sg68
(lp1627
S'keep-alive'
p1628
asbasbasbag61
(g77
g63
NtRp1629
(dp1630
g66
(dp1631
sg75
g1381
sg68
(lp1632
g61
(g82
g63
NtRp1633
(dp1634
g66
(dp1635
g86
g87
ssg75
g1629
sg68
(lp1636
S'http_cookie'
p1637
asbag61
(g82
g63
NtRp1638
(dp1639
g66
(dp1640
g93
g94
ssg75
g1629
sg68
(lp1641
S':'
asbag61
(g82
g63
NtRp1642
(dp1643
g66
(dp1644
sg75
g1629
sg68
(lp1645
g61
(g62
g63
NtRp1646
(dp1647
g66
(dp1648
g74
I4
ssg75
g1642
sg68
(lp1649
S'session_id_photouploader=127.0.0.1-83bacd5e-b575-49a8-9b6e-fdc698e775f9; session_id_astra1=127.0.0.1-3ea7f370-71b8-4b79-b80d-e5c8cc6c433d; session_id_sudoku=127.0.0.1-a38f9f54-52d0-4767-a55e-9a1db318fe95; session_id_music=127.0.0.1-f3e53f29-daab-4348-8032-cb7d46365de6; session_id_welcome=127.0.0.1-8b5a0431-5a7b-4e60-96f5-954fc3c9d7b7; session_id_admin=127.0.0.1-6c67b90d-3883-4b37-ba21-eef2525d3981'
p1650
asbasbasbag61
(g77
g63
NtRp1651
(dp1652
g66
(dp1653
sg75
g1381
sg68
(lp1654
g61
(g82
g63
NtRp1655
(dp1656
g66
(dp1657
g86
g87
ssg75
g1651
sg68
(lp1658
S'http_host'
p1659
asbag61
(g82
g63
NtRp1660
(dp1661
g66
(dp1662
g93
g94
ssg75
g1651
sg68
(lp1663
S':'
asbag61
(g82
g63
NtRp1664
(dp1665
g66
(dp1666
sg75
g1651
sg68
(lp1667
g61
(g62
g63
NtRp1668
(dp1669
g66
(dp1670
g74
I4
ssg75
g1664
sg68
(lp1671
S'127.0.0.1:8000'
p1672
asbasbasbag61
(g77
g63
NtRp1673
(dp1674
g66
(dp1675
sg75
g1381
sg68
(lp1676
g61
(g82
g63
NtRp1677
(dp1678
g66
(dp1679
g86
g87
ssg75
g1673
sg68
(lp1680
S'http_referer'
p1681
asbag61
(g82
g63
NtRp1682
(dp1683
g66
(dp1684
g93
g94
ssg75
g1673
sg68
(lp1685
S':'
asbag61
(g82
g63
NtRp1686
(dp1687
g66
(dp1688
sg75
g1673
sg68
(lp1689
g61
(g62
g63
NtRp1690
(dp1691
g66
(dp1692
g74
I4
ssg75
g1686
sg68
(lp1693
S'http://127.0.0.1:8000/admin/default/site'
p1694
asbasbasbag61
(g77
g63
NtRp1695
(dp1696
g66
(dp1697
sg75
g1381
sg68
(lp1698
g61
(g82
g63
NtRp1699
(dp1700
g66
(dp1701
g86
g87
ssg75
g1695
sg68
(lp1702
S'http_user_agent'
p1703
asbag61
(g82
g63
NtRp1704
(dp1705
g66
(dp1706
g93
g94
ssg75
g1695
sg68
(lp1707
S':'
asbag61
(g82
g63
NtRp1708
(dp1709
g66
(dp1710
sg75
g1695
sg68
(lp1711
g61
(g62
g63
NtRp1712
(dp1713
g66
(dp1714
g74
I4
ssg75
g1708
sg68
(lp1715
S'Mozilla/5.0 (X11; Ubuntu; Linux i686; rv:16.0) Gecko/20100101 Firefox/16.0'
p1716
asbasbasbag61
(g77
g63
NtRp1717
(dp1718
g66
(dp1719
sg75
g1381
sg68
(lp1720
g61
(g82
g63
NtRp1721
(dp1722
g66
(dp1723
g86
g87
ssg75
g1717
sg68
(lp1724
S'is_jython'
p1725
asbag61
(g82
g63
NtRp1726
(dp1727
g66
(dp1728
g93
g94
ssg75
g1717
sg68
(lp1729
S':'
asbag61
(g82
g63
NtRp1730
(dp1731
g66
(dp1732
sg75
g1717
sg68
(lp1733
g61
(g62
g63
NtRp1734
(dp1735
g66
(dp1736
g74
I4
ssg75
g1730
sg68
(lp1737
g104
asbasbasbag61
(g77
g63
NtRp1738
(dp1739
g66
(dp1740
sg75
g1381
sg68
(lp1741
g61
(g82
g63
NtRp1742
(dp1743
g66
(dp1744
g86
g87
ssg75
g1738
sg68
(lp1745
S'is_pypy'
p1746
asbag61
(g82
g63
NtRp1747
(dp1748
g66
(dp1749
g93
g94
ssg75
g1738
sg68
(lp1750
S':'
asbag61
(g82
g63
NtRp1751
(dp1752
g66
(dp1753
sg75
g1738
sg68
(lp1754
g61
(g62
g63
NtRp1755
(dp1756
g66
(dp1757
g74
I4
ssg75
g1751
sg68
(lp1758
g104
asbasbasbag61
(g77
g63
NtRp1759
(dp1760
g66
(dp1761
sg75
g1381
sg68
(lp1762
g61
(g82
g63
NtRp1763
(dp1764
g66
(dp1765
g86
g87
ssg75
g1759
sg68
(lp1766
S'path_info'
p1767
asbag61
(g82
g63
NtRp1768
(dp1769
g66
(dp1770
g93
g94
ssg75
g1759
sg68
(lp1771
S':'
asbag61
(g82
g63
NtRp1772
(dp1773
g66
(dp1774
sg75
g1759
sg68
(lp1775
g61
(g62
g63
NtRp1776
(dp1777
g66
(dp1778
g74
I4
ssg75
g1772
sg68
(lp1779
S'/astra1/default/index'
p1780
asbasbasbag61
(g77
g63
NtRp1781
(dp1782
g66
(dp1783
sg75
g1381
sg68
(lp1784
g61
(g82
g63
NtRp1785
(dp1786
g66
(dp1787
g86
g87
ssg75
g1781
sg68
(lp1788
S'query_string'
p1789
asbag61
(g82
g63
NtRp1790
(dp1791
g66
(dp1792
g93
g94
ssg75
g1781
sg68
(lp1793
S':'
asbag61
(g82
g63
NtRp1794
(dp1795
g66
(dp1796
sg75
g1781
sg68
(lp1797
g61
(g62
g63
NtRp1798
(dp1799
g66
(dp1800
g74
I4
ssg75
g1794
sg68
(lp1801
S''
asbasbasbag61
(g77
g63
NtRp1802
(dp1803
g66
(dp1804
sg75
g1381
sg68
(lp1805
g61
(g82
g63
NtRp1806
(dp1807
g66
(dp1808
g86
g87
ssg75
g1802
sg68
(lp1809
S'remote_addr'
p1810
asbag61
(g82
g63
NtRp1811
(dp1812
g66
(dp1813
g93
g94
ssg75
g1802
sg68
(lp1814
S':'
asbag61
(g82
g63
NtRp1815
(dp1816
g66
(dp1817
sg75
g1802
sg68
(lp1818
g61
(g62
g63
NtRp1819
(dp1820
g66
(dp1821
g74
I4
ssg75
g1815
sg68
(lp1822
g194
asbasbasbag61
(g77
g63
NtRp1823
(dp1824
g66
(dp1825
sg75
g1381
sg68
(lp1826
g61
(g82
g63
NtRp1827
(dp1828
g66
(dp1829
g86
g87
ssg75
g1823
sg68
(lp1830
S'remote_port'
p1831
asbag61
(g82
g63
NtRp1832
(dp1833
g66
(dp1834
g93
g94
ssg75
g1823
sg68
(lp1835
S':'
asbag61
(g82
g63
NtRp1836
(dp1837
g66
(dp1838
sg75
g1823
sg68
(lp1839
g61
(g62
g63
NtRp1840
(dp1841
g66
(dp1842
g74
I4
ssg75
g1836
sg68
(lp1843
S'37299'
p1844
asbasbasbag61
(g77
g63
NtRp1845
(dp1846
g66
(dp1847
sg75
g1381
sg68
(lp1848
g61
(g82
g63
NtRp1849
(dp1850
g66
(dp1851
g86
g87
ssg75
g1845
sg68
(lp1852
S'request_method'
p1853
asbag61
(g82
g63
NtRp1854
(dp1855
g66
(dp1856
g93
g94
ssg75
g1845
sg68
(lp1857
S':'
asbag61
(g82
g63
NtRp1858
(dp1859
g66
(dp1860
sg75
g1845
sg68
(lp1861
g61
(g62
g63
NtRp1862
(dp1863
g66
(dp1864
g74
I4
ssg75
g1858
sg68
(lp1865
S'GET'
p1866
asbasbasbag61
(g77
g63
NtRp1867
(dp1868
g66
(dp1869
sg75
g1381
sg68
(lp1870
g61
(g82
g63
NtRp1871
(dp1872
g66
(dp1873
g86
g87
ssg75
g1867
sg68
(lp1874
S'script_name'
p1875
asbag61
(g82
g63
NtRp1876
(dp1877
g66
(dp1878
g93
g94
ssg75
g1867
sg68
(lp1879
S':'
asbag61
(g82
g63
NtRp1880
(dp1881
g66
(dp1882
sg75
g1867
sg68
(lp1883
g61
(g62
g63
NtRp1884
(dp1885
g66
(dp1886
g74
I4
ssg75
g1880
sg68
(lp1887
S''
asbasbasbag61
(g77
g63
NtRp1888
(dp1889
g66
(dp1890
sg75
g1381
sg68
(lp1891
g61
(g82
g63
NtRp1892
(dp1893
g66
(dp1894
g86
g87
ssg75
g1888
sg68
(lp1895
S'server_name'
p1896
asbag61
(g82
g63
NtRp1897
(dp1898
g66
(dp1899
g93
g94
ssg75
g1888
sg68
(lp1900
S':'
asbag61
(g82
g63
NtRp1901
(dp1902
g66
(dp1903
sg75
g1888
sg68
(lp1904
g61
(g62
g63
NtRp1905
(dp1906
g66
(dp1907
g74
I4
ssg75
g1901
sg68
(lp1908
S'vishrut-Vostro-1015'
p1909
asbasbasbag61
(g77
g63
NtRp1910
(dp1911
g66
(dp1912
sg75
g1381
sg68
(lp1913
g61
(g82
g63
NtRp1914
(dp1915
g66
(dp1916
g86
g87
ssg75
g1910
sg68
(lp1917
S'server_port'
p1918
asbag61
(g82
g63
NtRp1919
(dp1920
g66
(dp1921
g93
g94
ssg75
g1910
sg68
(lp1922
S':'
asbag61
(g82
g63
NtRp1923
(dp1924
g66
(dp1925
sg75
g1910
sg68
(lp1926
g61
(g62
g63
NtRp1927
(dp1928
g66
(dp1929
g74
I4
ssg75
g1923
sg68
(lp1930
S'8000'
p1931
asbasbasbag61
(g77
g63
NtRp1932
(dp1933
g66
(dp1934
sg75
g1381
sg68
(lp1935
g61
(g82
g63
NtRp1936
(dp1937
g66
(dp1938
g86
g87
ssg75
g1932
sg68
(lp1939
S'server_protocol'
p1940
asbag61
(g82
g63
NtRp1941
(dp1942
g66
(dp1943
g93
g94
ssg75
g1932
sg68
(lp1944
S':'
asbag61
(g82
g63
NtRp1945
(dp1946
g66
(dp1947
sg75
g1932
sg68
(lp1948
g61
(g62
g63
NtRp1949
(dp1950
g66
(dp1951
g74
I4
ssg75
g1945
sg68
(lp1952
S'HTTP/1.1'
p1953
asbasbasbag61
(g77
g63
NtRp1954
(dp1955
g66
(dp1956
sg75
g1381
sg68
(lp1957
g61
(g82
g63
NtRp1958
(dp1959
g66
(dp1960
g86
g87
ssg75
g1954
sg68
(lp1961
S'server_software'
p1962
asbag61
(g82
g63
NtRp1963
(dp1964
g66
(dp1965
g93
g94
ssg75
g1954
sg68
(lp1966
S':'
asbag61
(g82
g63
NtRp1967
(dp1968
g66
(dp1969
sg75
g1954
sg68
(lp1970
g61
(g62
g63
NtRp1971
(dp1972
g66
(dp1973
g74
I4
ssg75
g1967
sg68
(lp1974
S'Rocket 1.2.4'
p1975
asbasbasbag61
(g77
g63
NtRp1976
(dp1977
g66
(dp1978
sg75
g1381
sg68
(lp1979
g61
(g82
g63
NtRp1980
(dp1981
g66
(dp1982
g86
g87
ssg75
g1976
sg68
(lp1983
S'web2py_crontype'
p1984
asbag61
(g82
g63
NtRp1985
(dp1986
g66
(dp1987
g93
g94
ssg75
g1976
sg68
(lp1988
S':'
asbag61
(g82
g63
NtRp1989
(dp1990
g66
(dp1991
sg75
g1976
sg68
(lp1992
g61
(g62
g63
NtRp1993
(dp1994
g66
(dp1995
g74
I4
ssg75
g1989
sg68
(lp1996
S'hard'
p1997
asbasbasbag61
(g77
g63
NtRp1998
(dp1999
g66
(dp2000
sg75
g1381
sg68
(lp2001
g61
(g82
g63
NtRp2002
(dp2003
g66
(dp2004
g86
g87
ssg75
g1998
sg68
(lp2005
S'web2py_path'
p2006
asbag61
(g82
g63
NtRp2007
(dp2008
g66
(dp2009
g93
g94
ssg75
g1998
sg68
(lp2010
S':'
asbag61
(g82
g63
NtRp2011
(dp2012
g66
(dp2013
sg75
g1998
sg68
(lp2014
g61
(g62
g63
NtRp2015
(dp2016
g66
(dp2017
g74
I4
ssg75
g2011
sg68
(lp2018
g1428
asbasbasbag61
(g77
g63
NtRp2019
(dp2020
g66
(dp2021
sg75
g1381
sg68
(lp2022
g61
(g82
g63
NtRp2023
(dp2024
g66
(dp2025
g86
g87
ssg75
g2019
sg68
(lp2026
S'web2py_version'
p2027
asbag61
(g82
g63
NtRp2028
(dp2029
g66
(dp2030
g93
g94
ssg75
g2019
sg68
(lp2031
S':'
asbag61
(g82
g63
NtRp2032
(dp2033
g66
(dp2034
sg75
g2019
sg68
(lp2035
g61
(g62
g63
NtRp2036
(dp2037
g66
(dp2038
g74
I4
ssg75
g2032
sg68
(lp2039
g61
(g70
g63
NtRp2040
(dp2041
g66
(dp2042
g74
I3
ssg75
Nsg68
(lp2043
g61
(g77
g63
NtRp2044
(dp2045
g66
(dp2046
sg75
g2040
sg68
(lp2047
g61
(g82
g63
NtRp2048
(dp2049
g66
(dp2050
sg75
g2044
sg68
(lp2051
g61
(g62
g63
NtRp2052
(dp2053
g66
(dp2054
g74
I3
ssg75
g2048
sg68
(lp2055
S'1'
asbasbasbag61
(g77
g63
NtRp2056
(dp2057
g66
(dp2058
sg75
g2040
sg68
(lp2059
g61
(g82
g63
NtRp2060
(dp2061
g66
(dp2062
sg75
g2056
sg68
(lp2063
g61
(g62
g63
NtRp2064
(dp2065
g66
(dp2066
g74
I3
ssg75
g2060
sg68
(lp2067
S'99'
p2068
asbasbasbag61
(g77
g63
NtRp2069
(dp2070
g66
(dp2071
sg75
g2040
sg68
(lp2072
g61
(g82
g63
NtRp2073
(dp2074
g66
(dp2075
sg75
g2069
sg68
(lp2076
g61
(g62
g63
NtRp2077
(dp2078
g66
(dp2079
g74
I3
ssg75
g2073
sg68
(lp2080
S'7'
asbasbasbag61
(g77
g63
NtRp2081
(dp2082
g66
(dp2083
sg75
g2040
sg68
(lp2084
g61
(g82
g63
NtRp2085
(dp2086
g66
(dp2087
sg75
g2081
sg68
(lp2088
g61
(g62
g63
NtRp2089
(dp2090
g66
(dp2091
g74
I3
ssg75
g2085
sg68
(lp2092
S'datetime.datetime(2012, 3, 4, 22, 12, 8)'
p2093
asbasbasbag61
(g77
g63
NtRp2094
(dp2095
g66
(dp2096
sg75
g2040
sg68
(lp2097
g61
(g82
g63
NtRp2098
(dp2099
g66
(dp2100
sg75
g2094
sg68
(lp2101
g61
(g62
g63
NtRp2102
(dp2103
g66
(dp2104
g74
I3
ssg75
g2098
sg68
(lp2105
S'stable'
p2106
asbasbasbasbasbasbasbag61
(g77
g63
NtRp2107
(dp2108
g66
(dp2109
sg75
g1381
sg68
(lp2110
g61
(g82
g63
NtRp2111
(dp2112
g66
(dp2113
g86
g87
ssg75
g2107
sg68
(lp2114
S'wsgi_errors'
p2115
asbag61
(g82
g63
NtRp2116
(dp2117
g66
(dp2118
g93
g94
ssg75
g2107
sg68
(lp2119
S':'
asbag61
(g82
g63
NtRp2120
(dp2121
g66
(dp2122
sg75
g2107
sg68
(lp2123
g61
(g62
g63
NtRp2124
(dp2125
g66
(dp2126
g74
I4
ssg75
g2120
sg68
(lp2127
S"<open file '<stderr>', mode 'w' at 0xb777c0d0>"
p2128
asbasbasbag61
(g77
g63
NtRp2129
(dp2130
g66
(dp2131
sg75
g1381
sg68
(lp2132
g61
(g82
g63
NtRp2133
(dp2134
g66
(dp2135
g86
g87
ssg75
g2129
sg68
(lp2136
S'wsgi_file_wrapper'
p2137
asbag61
(g82
g63
NtRp2138
(dp2139
g66
(dp2140
g93
g94
ssg75
g2129
sg68
(lp2141
S':'
asbag61
(g82
g63
NtRp2142
(dp2143
g66
(dp2144
sg75
g2129
sg68
(lp2145
g61
(g62
g63
NtRp2146
(dp2147
g66
(dp2148
g74
I4
ssg75
g2142
sg68
(lp2149
S'<class wsgiref.util.FileWrapper at 0x9600aac>'
p2150
asbasbasbag61
(g77
g63
NtRp2151
(dp2152
g66
(dp2153
sg75
g1381
sg68
(lp2154
g61
(g82
g63
NtRp2155
(dp2156
g66
(dp2157
g86
g87
ssg75
g2151
sg68
(lp2158
S'wsgi_input'
p2159
asbag61
(g82
g63
NtRp2160
(dp2161
g66
(dp2162
g93
g94
ssg75
g2151
sg68
(lp2163
S':'
asbag61
(g82
g63
NtRp2164
(dp2165
g66
(dp2166
sg75
g2151
sg68
(lp2167
g61
(g62
g63
NtRp2168
(dp2169
g66
(dp2170
g74
I4
ssg75
g2164
sg68
(lp2171
S'<socket._fileobject object at 0x9a6c76c>'
p2172
asbasbasbag61
(g77
g63
NtRp2173
(dp2174
g66
(dp2175
sg75
g1381
sg68
(lp2176
g61
(g82
g63
NtRp2177
(dp2178
g66
(dp2179
g86
g87
ssg75
g2173
sg68
(lp2180
S'wsgi_multiprocess'
p2181
asbag61
(g82
g63
NtRp2182
(dp2183
g66
(dp2184
g93
g94
ssg75
g2173
sg68
(lp2185
S':'
asbag61
(g82
g63
NtRp2186
(dp2187
g66
(dp2188
sg75
g2173
sg68
(lp2189
g61
(g62
g63
NtRp2190
(dp2191
g66
(dp2192
g74
I4
ssg75
g2186
sg68
(lp2193
g104
asbasbasbag61
(g77
g63
NtRp2194
(dp2195
g66
(dp2196
sg75
g1381
sg68
(lp2197
g61
(g82
g63
NtRp2198
(dp2199
g66
(dp2200
g86
g87
ssg75
g2194
sg68
(lp2201
S'wsgi_multithread'
p2202
asbag61
(g82
g63
NtRp2203
(dp2204
g66
(dp2205
g93
g94
ssg75
g2194
sg68
(lp2206
S':'
asbag61
(g82
g63
NtRp2207
(dp2208
g66
(dp2209
sg75
g2194
sg68
(lp2210
g61
(g62
g63
NtRp2211
(dp2212
g66
(dp2213
g74
I4
ssg75
g2207
sg68
(lp2214
S'True'
p2215
asbasbasbag61
(g77
g63
NtRp2216
(dp2217
g66
(dp2218
sg75
g1381
sg68
(lp2219
g61
(g82
g63
NtRp2220
(dp2221
g66
(dp2222
g86
g87
ssg75
g2216
sg68
(lp2223
S'wsgi_run_once'
p2224
asbag61
(g82
g63
NtRp2225
(dp2226
g66
(dp2227
g93
g94
ssg75
g2216
sg68
(lp2228
S':'
asbag61
(g82
g63
NtRp2229
(dp2230
g66
(dp2231
sg75
g2216
sg68
(lp2232
g61
(g62
g63
NtRp2233
(dp2234
g66
(dp2235
g74
I4
ssg75
g2229
sg68
(lp2236
g104
asbasbasbag61
(g77
g63
NtRp2237
(dp2238
g66
(dp2239
sg75
g1381
sg68
(lp2240
g61
(g82
g63
NtRp2241
(dp2242
g66
(dp2243
g86
g87
ssg75
g2237
sg68
(lp2244
S'wsgi_url_scheme'
p2245
asbag61
(g82
g63
NtRp2246
(dp2247
g66
(dp2248
g93
g94
ssg75
g2237
sg68
(lp2249
S':'
asbag61
(g82
g63
NtRp2250
(dp2251
g66
(dp2252
sg75
g2237
sg68
(lp2253
g61
(g62
g63
NtRp2254
(dp2255
g66
(dp2256
g74
I4
ssg75
g2250
sg68
(lp2257
S'http'
p2258
asbasbasbag61
(g77
g63
NtRp2259
(dp2260
g66
(dp2261
sg75
g1381
sg68
(lp2262
g61
(g82
g63
NtRp2263
(dp2264
g66
(dp2265
g86
g87
ssg75
g2259
sg68
(lp2266
S'wsgi_version'
p2267
asbag61
(g82
g63
NtRp2268
(dp2269
g66
(dp2270
g93
g94
ssg75
g2259
sg68
(lp2271
S':'
asbag61
(g82
g63
NtRp2272
(dp2273
g66
(dp2274
sg75
g2259
sg68
(lp2275
g61
(g62
g63
NtRp2276
(dp2277
g66
(dp2278
g74
I4
ssg75
g2272
sg68
(lp2279
g61
(g70
g63
NtRp2280
(dp2281
g66
(dp2282
g74
I3
ssg75
Nsg68
(lp2283
g61
(g77
g63
NtRp2284
(dp2285
g66
(dp2286
sg75
g2280
sg68
(lp2287
g61
(g82
g63
NtRp2288
(dp2289
g66
(dp2290
sg75
g2284
sg68
(lp2291
g61
(g62
g63
NtRp2292
(dp2293
g66
(dp2294
g74
I3
ssg75
g2288
sg68
(lp2295
S'1'
asbasbasbag61
(g77
g63
NtRp2296
(dp2297
g66
(dp2298
sg75
g2280
sg68
(lp2299
g61
(g82
g63
NtRp2300
(dp2301
g66
(dp2302
sg75
g2296
sg68
(lp2303
g61
(g62
g63
NtRp2304
(dp2305
g66
(dp2306
g74
I3
ssg75
g2300
sg68
(lp2307
S'0'
asbasbasbasbasbasbasbasbasbasbasbag61
(g77
g63
NtRp2308
(dp2309
g66
(dp2310
sg75
g71
sg68
(lp2311
g61
(g82
g63
NtRp2312
(dp2313
g66
(dp2314
g86
g87
ssg75
g2308
sg68
(lp2315
S'extension'
p2316
asbag61
(g82
g63
NtRp2317
(dp2318
g66
(dp2319
g93
g94
ssg75
g2308
sg68
(lp2320
S':'
asbag61
(g82
g63
NtRp2321
(dp2322
g66
(dp2323
sg75
g2308
sg68
(lp2324
g61
(g62
g63
NtRp2325
(dp2326
g66
(dp2327
g74
I5
ssg75
g2321
sg68
(lp2328
S'html'
p2329
asbasbasbag61
(g77
g63
NtRp2330
(dp2331
g66
(dp2332
sg75
g71
sg68
(lp2333
g61
(g82
g63
NtRp2334
(dp2335
g66
(dp2336
g86
g87
ssg75
g2330
sg68
(lp2337
S'folder'
p2338
asbag61
(g82
g63
NtRp2339
(dp2340
g66
(dp2341
g93
g94
ssg75
g2330
sg68
(lp2342
S':'
asbag61
(g82
g63
NtRp2343
(dp2344
g66
(dp2345
sg75
g2330
sg68
(lp2346
g61
(g62
g63
NtRp2347
(dp2348
g66
(dp2349
g74
I5
ssg75
g2343
sg68
(lp2350
S'/home/vishrut/web2py/applications/astra1/'
p2351
asbasbasbag61
(g77
g63
NtRp2352
(dp2353
g66
(dp2354
sg75
g71
sg68
(lp2355
g61
(g82
g63
NtRp2356
(dp2357
g66
(dp2358
g86
g87
ssg75
g2352
sg68
(lp2359
S'function'
p2360
asbag61
(g82
g63
NtRp2361
(dp2362
g66
(dp2363
g93
g94
ssg75
g2352
sg68
(lp2364
S':'
asbag61
(g82
g63
NtRp2365
(dp2366
g66
(dp2367
sg75
g2352
sg68
(lp2368
g61
(g62
g63
NtRp2369
(dp2370
g66
(dp2371
g74
I5
ssg75
g2365
sg68
(lp2372
S'index'
p2373
asbasbasbag61
(g77
g63
NtRp2374
(dp2375
g66
(dp2376
sg75
g71
sg68
(lp2377
g61
(g82
g63
NtRp2378
(dp2379
g66
(dp2380
g86
g87
ssg75
g2374
sg68
(lp2381
S'get_vars'
p2382
asbag61
(g82
g63
NtRp2383
(dp2384
g66
(dp2385
g93
g94
ssg75
g2374
sg68
(lp2386
S':'
asbag61
(g82
g63
NtRp2387
(dp2388
g66
(dp2389
sg75
g2374
sg68
(lp2390
g61
(g62
g63
NtRp2391
(dp2392
g66
(dp2393
g74
I5
ssg75
g2387
sg68
(lp2394
g61
(g70
g63
NtRp2395
(dp2396
g66
(dp2397
g74
I4
ssg75
Nsg68
(lp2398
sbasbasbasbag61
(g77
g63
NtRp2399
(dp2400
g66
(dp2401
sg75
g71
sg68
(lp2402
g61
(g82
g63
NtRp2403
(dp2404
g66
(dp2405
g86
g87
ssg75
g2399
sg68
(lp2406
S'global_settings'
p2407
asbag61
(g82
g63
NtRp2408
(dp2409
g66
(dp2410
g93
g94
ssg75
g2399
sg68
(lp2411
S':'
asbag61
(g82
g63
NtRp2412
(dp2413
g66
(dp2414
sg75
g2399
sg68
(lp2415
g61
(g62
g63
NtRp2416
(dp2417
g66
(dp2418
g74
I5
ssg75
g2412
sg68
(lp2419
g61
(g70
g63
NtRp2420
(dp2421
g66
(dp2422
g74
I4
ssg75
Nsg68
(lp2423
g61
(g77
g63
NtRp2424
(dp2425
g66
(dp2426
sg75
g2420
sg68
(lp2427
g61
(g82
g63
NtRp2428
(dp2429
g66
(dp2430
g86
g87
ssg75
g2424
sg68
(lp2431
g1393
asbag61
(g82
g63
NtRp2432
(dp2433
g66
(dp2434
g93
g94
ssg75
g2424
sg68
(lp2435
S':'
asbag61
(g82
g63
NtRp2436
(dp2437
g66
(dp2438
sg75
g2424
sg68
(lp2439
g61
(g62
g63
NtRp2440
(dp2441
g66
(dp2442
g74
I4
ssg75
g2436
sg68
(lp2443
S"set(['/home/vishrut/web2py/applications/astra1/', '/home/vishrut/web2py/applications/admin/', '/home/vishrut/web2py/applications/welcome/'])"
p2444
asbasbasbag61
(g77
g63
NtRp2445
(dp2446
g66
(dp2447
sg75
g2420
sg68
(lp2448
g61
(g82
g63
NtRp2449
(dp2450
g66
(dp2451
g86
g87
ssg75
g2445
sg68
(lp2452
g1415
asbag61
(g82
g63
NtRp2453
(dp2454
g66
(dp2455
g93
g94
ssg75
g2445
sg68
(lp2456
S':'
asbag61
(g82
g63
NtRp2457
(dp2458
g66
(dp2459
sg75
g2445
sg68
(lp2460
g61
(g62
g63
NtRp2461
(dp2462
g66
(dp2463
g74
I4
ssg75
g2457
sg68
(lp2464
g1428
asbasbasbag61
(g77
g63
NtRp2465
(dp2466
g66
(dp2467
sg75
g2420
sg68
(lp2468
g61
(g82
g63
NtRp2469
(dp2470
g66
(dp2471
g86
g87
ssg75
g2465
sg68
(lp2472
g1437
asbag61
(g82
g63
NtRp2473
(dp2474
g66
(dp2475
g93
g94
ssg75
g2465
sg68
(lp2476
S':'
asbag61
(g82
g63
NtRp2477
(dp2478
g66
(dp2479
sg75
g2465
sg68
(lp2480
g61
(g62
g63
NtRp2481
(dp2482
g66
(dp2483
g74
I4
ssg75
g2477
sg68
(lp2484
g61
(g70
g63
NtRp2485
(dp2486
g66
(dp2487
g74
I3
ssg75
Nsg68
(lp2488
sbasbasbasbag61
(g77
g63
NtRp2489
(dp2490
g66
(dp2491
sg75
g2420
sg68
(lp2492
g61
(g82
g63
NtRp2493
(dp2494
g66
(dp2495
g86
g87
ssg75
g2489
sg68
(lp2496
g1462
asbag61
(g82
g63
NtRp2497
(dp2498
g66
(dp2499
g93
g94
ssg75
g2489
sg68
(lp2500
S':'
asbag61
(g82
g63
NtRp2501
(dp2502
g66
(dp2503
sg75
g2489
sg68
(lp2504
g61
(g62
g63
NtRp2505
(dp2506
g66
(dp2507
g74
I4
ssg75
g2501
sg68
(lp2508
S"<Values at 0x96e13cc: {'verbose': False, 'ip': '127.0.0.1', 'shutdown_timeout': 5, 'taskbar': False, 'nocron': False, 'pid_filename': 'httpserver.pid', 'maxthreads': None, 'softcron': False, 'server_name': 'vishrut-Vostro-1015', 'bpython': False, 'nogui': False, 'port': 8000, 'extcron': False, 'debuglevel': 30, 'test': None, 'folder': '/home/vishrut/web2py', 'config': '', 'import_models': False, 'winservice': '', 'shell': None, 'run': '', 'log_filename': 'httpserver.log', 'args': [''], 'socket_timeout': 5, 'ssl_ca_certificate': None, 'scheduler': None, 'profiler_filename': None, 'ssl_private_key': '', 'password': '<ask>', 'request_queue_size': 5, 'ssl_certificate': '', 'cronjob': False, 'numthreads': None, 'quiet': False, 'interfaces': None, 'minthreads': None, 'timeout': 10, 'plain': False, 'nobanner': False}>"
p2509
asbasbasbag61
(g77
g63
NtRp2510
(dp2511
g66
(dp2512
sg75
g2420
sg68
(lp2513
g61
(g82
g63
NtRp2514
(dp2515
g66
(dp2516
g86
g87
ssg75
g2510
sg68
(lp2517
g1484
asbag61
(g82
g63
NtRp2518
(dp2519
g66
(dp2520
g93
g94
ssg75
g2510
sg68
(lp2521
S':'
asbag61
(g82
g63
NtRp2522
(dp2523
g66
(dp2524
sg75
g2510
sg68
(lp2525
g61
(g62
g63
NtRp2526
(dp2527
g66
(dp2528
g74
I4
ssg75
g2522
sg68
(lp2529
S'set([])'
p2530
asbasbasbag61
(g77
g63
NtRp2531
(dp2532
g66
(dp2533
sg75
g2420
sg68
(lp2534
g61
(g82
g63
NtRp2535
(dp2536
g66
(dp2537
g86
g87
ssg75
g2531
sg68
(lp2538
g1506
asbag61
(g82
g63
NtRp2539
(dp2540
g66
(dp2541
g93
g94
ssg75
g2531
sg68
(lp2542
S':'
asbag61
(g82
g63
NtRp2543
(dp2544
g66
(dp2545
sg75
g2531
sg68
(lp2546
g61
(g62
g63
NtRp2547
(dp2548
g66
(dp2549
g74
I4
ssg75
g2543
sg68
(lp2550
g104
asbasbasbag61
(g77
g63
NtRp2551
(dp2552
g66
(dp2553
sg75
g2420
sg68
(lp2554
g61
(g82
g63
NtRp2555
(dp2556
g66
(dp2557
g86
g87
ssg75
g2551
sg68
(lp2558
g1527
asbag61
(g82
g63
NtRp2559
(dp2560
g66
(dp2561
g93
g94
ssg75
g2551
sg68
(lp2562
S':'
asbag61
(g82
g63
NtRp2563
(dp2564
g66
(dp2565
sg75
g2551
sg68
(lp2566
g61
(g62
g63
NtRp2567
(dp2568
g66
(dp2569
g74
I4
ssg75
g2563
sg68
(lp2570
g1540
asbasbasbag61
(g77
g63
NtRp2571
(dp2572
g66
(dp2573
sg75
g2420
sg68
(lp2574
g61
(g82
g63
NtRp2575
(dp2576
g66
(dp2577
g86
g87
ssg75
g2571
sg68
(lp2578
g1725
asbag61
(g82
g63
NtRp2579
(dp2580
g66
(dp2581
g93
g94
ssg75
g2571
sg68
(lp2582
S':'
asbag61
(g82
g63
NtRp2583
(dp2584
g66
(dp2585
sg75
g2571
sg68
(lp2586
g61
(g62
g63
NtRp2587
(dp2588
g66
(dp2589
g74
I4
ssg75
g2583
sg68
(lp2590
g104
asbasbasbag61
(g77
g63
NtRp2591
(dp2592
g66
(dp2593
sg75
g2420
sg68
(lp2594
g61
(g82
g63
NtRp2595
(dp2596
g66
(dp2597
g86
g87
ssg75
g2591
sg68
(lp2598
g1746
asbag61
(g82
g63
NtRp2599
(dp2600
g66
(dp2601
g93
g94
ssg75
g2591
sg68
(lp2602
S':'
asbag61
(g82
g63
NtRp2603
(dp2604
g66
(dp2605
sg75
g2591
sg68
(lp2606
g61
(g62
g63
NtRp2607
(dp2608
g66
(dp2609
g74
I4
ssg75
g2603
sg68
(lp2610
g104
asbasbasbag61
(g77
g63
NtRp2611
(dp2612
g66
(dp2613
sg75
g2420
sg68
(lp2614
g61
(g82
g63
NtRp2615
(dp2616
g66
(dp2617
g86
g87
ssg75
g2611
sg68
(lp2618
g1984
asbag61
(g82
g63
NtRp2619
(dp2620
g66
(dp2621
g93
g94
ssg75
g2611
sg68
(lp2622
S':'
asbag61
(g82
g63
NtRp2623
(dp2624
g66
(dp2625
sg75
g2611
sg68
(lp2626
g61
(g62
g63
NtRp2627
(dp2628
g66
(dp2629
g74
I4
ssg75
g2623
sg68
(lp2630
g1997
asbasbasbag61
(g77
g63
NtRp2631
(dp2632
g66
(dp2633
sg75
g2420
sg68
(lp2634
g61
(g82
g63
NtRp2635
(dp2636
g66
(dp2637
g86
g87
ssg75
g2631
sg68
(lp2638
g2027
asbag61
(g82
g63
NtRp2639
(dp2640
g66
(dp2641
g93
g94
ssg75
g2631
sg68
(lp2642
S':'
asbag61
(g82
g63
NtRp2643
(dp2644
g66
(dp2645
sg75
g2631
sg68
(lp2646
g61
(g62
g63
NtRp2647
(dp2648
g66
(dp2649
g74
I4
ssg75
g2643
sg68
(lp2650
g61
(g70
g63
NtRp2651
(dp2652
g66
(dp2653
g74
I3
ssg75
Nsg68
(lp2654
g61
(g77
g63
NtRp2655
(dp2656
g66
(dp2657
sg75
g2651
sg68
(lp2658
g61
(g82
g63
NtRp2659
(dp2660
g66
(dp2661
sg75
g2655
sg68
(lp2662
g61
(g62
g63
NtRp2663
(dp2664
g66
(dp2665
g74
I3
ssg75
g2659
sg68
(lp2666
S'1'
asbasbasbag61
(g77
g63
NtRp2667
(dp2668
g66
(dp2669
sg75
g2651
sg68
(lp2670
g61
(g82
g63
NtRp2671
(dp2672
g66
(dp2673
sg75
g2667
sg68
(lp2674
g61
(g62
g63
NtRp2675
(dp2676
g66
(dp2677
g74
I3
ssg75
g2671
sg68
(lp2678
S'99'
p2679
asbasbasbag61
(g77
g63
NtRp2680
(dp2681
g66
(dp2682
sg75
g2651
sg68
(lp2683
g61
(g82
g63
NtRp2684
(dp2685
g66
(dp2686
sg75
g2680
sg68
(lp2687
g61
(g62
g63
NtRp2688
(dp2689
g66
(dp2690
g74
I3
ssg75
g2684
sg68
(lp2691
S'7'
asbasbasbag61
(g77
g63
NtRp2692
(dp2693
g66
(dp2694
sg75
g2651
sg68
(lp2695
g61
(g82
g63
NtRp2696
(dp2697
g66
(dp2698
sg75
g2692
sg68
(lp2699
g61
(g62
g63
NtRp2700
(dp2701
g66
(dp2702
g74
I3
ssg75
g2696
sg68
(lp2703
S'datetime.datetime(2012, 3, 4, 22, 12, 8)'
p2704
asbasbasbag61
(g77
g63
NtRp2705
(dp2706
g66
(dp2707
sg75
g2651
sg68
(lp2708
g61
(g82
g63
NtRp2709
(dp2710
g66
(dp2711
sg75
g2705
sg68
(lp2712
g61
(g62
g63
NtRp2713
(dp2714
g66
(dp2715
g74
I3
ssg75
g2709
sg68
(lp2716
g2106
asbasbasbasbasbasbasbasbasbasbasbag61
(g77
g63
NtRp2717
(dp2718
g66
(dp2719
sg75
g71
sg68
(lp2720
g61
(g82
g63
NtRp2721
(dp2722
g66
(dp2723
g86
g87
ssg75
g2717
sg68
(lp2724
S'is_https'
p2725
asbag61
(g82
g63
NtRp2726
(dp2727
g66
(dp2728
g93
g94
ssg75
g2717
sg68
(lp2729
S':'
asbag61
(g82
g63
NtRp2730
(dp2731
g66
(dp2732
sg75
g2717
sg68
(lp2733
g61
(g62
g63
NtRp2734
(dp2735
g66
(dp2736
g74
I5
ssg75
g2730
sg68
(lp2737
g104
asbasbasbag61
(g77
g63
NtRp2738
(dp2739
g66
(dp2740
sg75
g71
sg68
(lp2741
g61
(g82
g63
NtRp2742
(dp2743
g66
(dp2744
g86
g87
ssg75
g2738
sg68
(lp2745
S'is_local'
p2746
asbag61
(g82
g63
NtRp2747
(dp2748
g66
(dp2749
g93
g94
ssg75
g2738
sg68
(lp2750
S':'
asbag61
(g82
g63
NtRp2751
(dp2752
g66
(dp2753
sg75
g2738
sg68
(lp2754
g61
(g62
g63
NtRp2755
(dp2756
g66
(dp2757
g74
I5
ssg75
g2751
sg68
(lp2758
g2215
asbasbasbag61
(g77
g63
NtRp2759
(dp2760
g66
(dp2761
sg75
g71
sg68
(lp2762
g61
(g82
g63
NtRp2763
(dp2764
g66
(dp2765
g86
g87
ssg75
g2759
sg68
(lp2766
S'is_restful'
p2767
asbag61
(g82
g63
NtRp2768
(dp2769
g66
(dp2770
g93
g94
ssg75
g2759
sg68
(lp2771
S':'
asbag61
(g82
g63
NtRp2772
(dp2773
g66
(dp2774
sg75
g2759
sg68
(lp2775
g61
(g62
g63
NtRp2776
(dp2777
g66
(dp2778
g74
I5
ssg75
g2772
sg68
(lp2779
g104
asbasbasbag61
(g77
g63
NtRp2780
(dp2781
g66
(dp2782
sg75
g71
sg68
(lp2783
g61
(g82
g63
NtRp2784
(dp2785
g66
(dp2786
g86
g87
ssg75
g2780
sg68
(lp2787
S'now'
p2788
asbag61
(g82
g63
NtRp2789
(dp2790
g66
(dp2791
g93
g94
ssg75
g2780
sg68
(lp2792
S':'
asbag61
(g82
g63
NtRp2793
(dp2794
g66
(dp2795
sg75
g2780
sg68
(lp2796
g61
(g62
g63
NtRp2797
(dp2798
g66
(dp2799
g74
I5
ssg75
g2793
sg68
(lp2800
S'datetime.datetime(2012, 10, 14, 15, 22, 51, 274759)'
p2801
asbasbasbag61
(g77
g63
NtRp2802
(dp2803
g66
(dp2804
sg75
g71
sg68
(lp2805
g61
(g82
g63
NtRp2806
(dp2807
g66
(dp2808
g86
g87
ssg75
g2802
sg68
(lp2809
S'post_vars'
p2810
asbag61
(g82
g63
NtRp2811
(dp2812
g66
(dp2813
g93
g94
ssg75
g2802
sg68
(lp2814
S':'
asbag61
(g82
g63
NtRp2815
(dp2816
g66
(dp2817
sg75
g2802
sg68
(lp2818
g61
(g62
g63
NtRp2819
(dp2820
g66
(dp2821
g74
I5
ssg75
g2815
sg68
(lp2822
g61
(g70
g63
NtRp2823
(dp2824
g66
(dp2825
g74
I4
ssg75
Nsg68
(lp2826
sbasbasbasbag61
(g77
g63
NtRp2827
(dp2828
g66
(dp2829
sg75
g71
sg68
(lp2830
g61
(g82
g63
NtRp2831
(dp2832
g66
(dp2833
g86
g87
ssg75
g2827
sg68
(lp2834
S'url'
p2835
asbag61
(g82
g63
NtRp2836
(dp2837
g66
(dp2838
g93
g94
ssg75
g2827
sg68
(lp2839
S':'
asbag61
(g82
g63
NtRp2840
(dp2841
g66
(dp2842
sg75
g2827
sg68
(lp2843
g61
(g62
g63
NtRp2844
(dp2845
g66
(dp2846
g74
I5
ssg75
g2840
sg68
(lp2847
S'/astra1/default/index'
p2848
asbasbasbag61
(g77
g63
NtRp2849
(dp2850
g66
(dp2851
sg75
g71
sg68
(lp2852
g61
(g82
g63
NtRp2853
(dp2854
g66
(dp2855
g86
g87
ssg75
g2849
sg68
(lp2856
S'utcnow'
p2857
asbag61
(g82
g63
NtRp2858
(dp2859
g66
(dp2860
g93
g94
ssg75
g2849
sg68
(lp2861
S':'
asbag61
(g82
g63
NtRp2862
(dp2863
g66
(dp2864
sg75
g2849
sg68
(lp2865
g61
(g62
g63
NtRp2866
(dp2867
g66
(dp2868
g74
I5
ssg75
g2862
sg68
(lp2869
S'datetime.datetime(2012, 10, 14, 10, 22, 51, 274791)'
p2870
asbasbasbag61
(g77
g63
NtRp2871
(dp2872
g66
(dp2873
sg75
g71
sg68
(lp2874
g61
(g82
g63
NtRp2875
(dp2876
g66
(dp2877
g86
g87
ssg75
g2871
sg68
(lp2878
S'uuid'
p2879
asbag61
(g82
g63
NtRp2880
(dp2881
g66
(dp2882
g93
g94
ssg75
g2871
sg68
(lp2883
S':'
asbag61
(g82
g63
NtRp2884
(dp2885
g66
(dp2886
sg75
g2871
sg68
(lp2887
g61
(g62
g63
NtRp2888
(dp2889
g66
(dp2890
g74
I5
ssg75
g2884
sg68
(lp2891
S'astra1/127.0.0.1.2012-10-14.15-22-51.21b49847-613d-4208-bbbf-9893be1c459f'
p2892
asbasbasbag61
(g77
g63
NtRp2893
(dp2894
g66
(dp2895
sg75
g71
sg68
(lp2896
g61
(g82
g63
NtRp2897
(dp2898
g66
(dp2899
g86
g87
ssg75
g2893
sg68
(lp2900
S'vars'
p2901
asbag61
(g82
g63
NtRp2902
(dp2903
g66
(dp2904
g93
g94
ssg75
g2893
sg68
(lp2905
S':'
asbag61
(g82
g63
NtRp2906
(dp2907
g66
(dp2908
sg75
g2893
sg68
(lp2909
g61
(g62
g63
NtRp2910
(dp2911
g66
(dp2912
g74
I5
ssg75
g2906
sg68
(lp2913
g61
(g70
g63
NtRp2914
(dp2915
g66
(dp2916
g74
I4
ssg75
Nsg68
(lp2917
sbasbasbasbag61
(g77
g63
NtRp2918
(dp2919
g66
(dp2920
sg75
g71
sg68
(lp2921
g61
(g82
g63
NtRp2922
(dp2923
g66
(dp2924
g86
g87
ssg75
g2918
sg68
(lp2925
S'wsgi'
p2926
asbag61
(g82
g63
NtRp2927
(dp2928
g66
(dp2929
g93
g94
ssg75
g2918
sg68
(lp2930
S':'
asbag61
(g82
g63
NtRp2931
(dp2932
g66
(dp2933
sg75
g2918
sg68
(lp2934
g61
(g62
g63
NtRp2935
(dp2936
g66
(dp2937
g74
I5
ssg75
g2931
sg68
(lp2938
g61
(g70
g63
NtRp2939
(dp2940
g66
(dp2941
g74
I4
ssg75
Nsg68
(lp2942
g61
(g77
g63
NtRp2943
(dp2944
g66
(dp2945
sg75
g2939
sg68
(lp2946
g61
(g82
g63
NtRp2947
(dp2948
g66
(dp2949
g86
g87
ssg75
g2943
sg68
(lp2950
S'environ'
p2951
asbag61
(g82
g63
NtRp2952
(dp2953
g66
(dp2954
g93
g94
ssg75
g2943
sg68
(lp2955
S':'
asbag61
(g82
g63
NtRp2956
(dp2957
g66
(dp2958
sg75
g2943
sg68
(lp2959
g61
(g62
g63
NtRp2960
(dp2961
g66
(dp2962
g74
I4
ssg75
g2956
sg68
(lp2963
g61
(g70
g63
NtRp2964
(dp2965
g66
(dp2966
g74
I3
ssg75
Nsg68
(lp2967
g61
(g77
g63
NtRp2968
(dp2969
g66
(dp2970
sg75
g2964
sg68
(lp2971
g61
(g82
g63
NtRp2972
(dp2973
g66
(dp2974
g86
g87
ssg75
g2968
sg68
(lp2975
S'HTTP_ACCEPT'
p2976
asbag61
(g82
g63
NtRp2977
(dp2978
g66
(dp2979
g93
g94
ssg75
g2968
sg68
(lp2980
S':'
asbag61
(g82
g63
NtRp2981
(dp2982
g66
(dp2983
sg75
g2968
sg68
(lp2984
g61
(g62
g63
NtRp2985
(dp2986
g66
(dp2987
g74
I3
ssg75
g2981
sg68
(lp2988
g1562
asbasbasbag61
(g77
g63
NtRp2989
(dp2990
g66
(dp2991
sg75
g2964
sg68
(lp2992
g61
(g82
g63
NtRp2993
(dp2994
g66
(dp2995
g86
g87
ssg75
g2989
sg68
(lp2996
S'HTTP_ACCEPT_ENCODING'
p2997
asbag61
(g82
g63
NtRp2998
(dp2999
g66
(dp3000
g93
g94
ssg75
g2989
sg68
(lp3001
S':'
asbag61
(g82
g63
NtRp3002
(dp3003
g66
(dp3004
sg75
g2989
sg68
(lp3005
g61
(g62
g63
NtRp3006
(dp3007
g66
(dp3008
g74
I3
ssg75
g3002
sg68
(lp3009
g1584
asbasbasbag61
(g77
g63
NtRp3010
(dp3011
g66
(dp3012
sg75
g2964
sg68
(lp3013
g61
(g82
g63
NtRp3014
(dp3015
g66
(dp3016
g86
g87
ssg75
g3010
sg68
(lp3017
S'HTTP_ACCEPT_LANGUAGE'
p3018
asbag61
(g82
g63
NtRp3019
(dp3020
g66
(dp3021
g93
g94
ssg75
g3010
sg68
(lp3022
S':'
asbag61
(g82
g63
NtRp3023
(dp3024
g66
(dp3025
sg75
g3010
sg68
(lp3026
g61
(g62
g63
NtRp3027
(dp3028
g66
(dp3029
g74
I3
ssg75
g3023
sg68
(lp3030
g1606
asbasbasbag61
(g77
g63
NtRp3031
(dp3032
g66
(dp3033
sg75
g2964
sg68
(lp3034
g61
(g82
g63
NtRp3035
(dp3036
g66
(dp3037
g86
g87
ssg75
g3031
sg68
(lp3038
S'HTTP_CONNECTION'
p3039
asbag61
(g82
g63
NtRp3040
(dp3041
g66
(dp3042
g93
g94
ssg75
g3031
sg68
(lp3043
S':'
asbag61
(g82
g63
NtRp3044
(dp3045
g66
(dp3046
sg75
g3031
sg68
(lp3047
g61
(g62
g63
NtRp3048
(dp3049
g66
(dp3050
g74
I3
ssg75
g3044
sg68
(lp3051
g1628
asbasbasbag61
(g77
g63
NtRp3052
(dp3053
g66
(dp3054
sg75
g2964
sg68
(lp3055
g61
(g82
g63
NtRp3056
(dp3057
g66
(dp3058
g86
g87
ssg75
g3052
sg68
(lp3059
S'HTTP_COOKIE'
p3060
asbag61
(g82
g63
NtRp3061
(dp3062
g66
(dp3063
g93
g94
ssg75
g3052
sg68
(lp3064
S':'
asbag61
(g82
g63
NtRp3065
(dp3066
g66
(dp3067
sg75
g3052
sg68
(lp3068
g61
(g62
g63
NtRp3069
(dp3070
g66
(dp3071
g74
I3
ssg75
g3065
sg68
(lp3072
g1650
asbasbasbag61
(g77
g63
NtRp3073
(dp3074
g66
(dp3075
sg75
g2964
sg68
(lp3076
g61
(g82
g63
NtRp3077
(dp3078
g66
(dp3079
g86
g87
ssg75
g3073
sg68
(lp3080
S'HTTP_HOST'
p3081
asbag61
(g82
g63
NtRp3082
(dp3083
g66
(dp3084
g93
g94
ssg75
g3073
sg68
(lp3085
S':'
asbag61
(g82
g63
NtRp3086
(dp3087
g66
(dp3088
sg75
g3073
sg68
(lp3089
g61
(g62
g63
NtRp3090
(dp3091
g66
(dp3092
g74
I3
ssg75
g3086
sg68
(lp3093
g1672
asbasbasbag61
(g77
g63
NtRp3094
(dp3095
g66
(dp3096
sg75
g2964
sg68
(lp3097
g61
(g82
g63
NtRp3098
(dp3099
g66
(dp3100
g86
g87
ssg75
g3094
sg68
(lp3101
S'HTTP_REFERER'
p3102
asbag61
(g82
g63
NtRp3103
(dp3104
g66
(dp3105
g93
g94
ssg75
g3094
sg68
(lp3106
S':'
asbag61
(g82
g63
NtRp3107
(dp3108
g66
(dp3109
sg75
g3094
sg68
(lp3110
g61
(g62
g63
NtRp3111
(dp3112
g66
(dp3113
g74
I3
ssg75
g3107
sg68
(lp3114
g1694
asbasbasbag61
(g77
g63
NtRp3115
(dp3116
g66
(dp3117
sg75
g2964
sg68
(lp3118
g61
(g82
g63
NtRp3119
(dp3120
g66
(dp3121
g86
g87
ssg75
g3115
sg68
(lp3122
S'HTTP_USER_AGENT'
p3123
asbag61
(g82
g63
NtRp3124
(dp3125
g66
(dp3126
g93
g94
ssg75
g3115
sg68
(lp3127
S':'
asbag61
(g82
g63
NtRp3128
(dp3129
g66
(dp3130
sg75
g3115
sg68
(lp3131
g61
(g62
g63
NtRp3132
(dp3133
g66
(dp3134
g74
I3
ssg75
g3128
sg68
(lp3135
g1716
asbasbasbag61
(g77
g63
NtRp3136
(dp3137
g66
(dp3138
sg75
g2964
sg68
(lp3139
g61
(g82
g63
NtRp3140
(dp3141
g66
(dp3142
g86
g87
ssg75
g3136
sg68
(lp3143
S'PATH_INFO'
p3144
asbag61
(g82
g63
NtRp3145
(dp3146
g66
(dp3147
g93
g94
ssg75
g3136
sg68
(lp3148
S':'
asbag61
(g82
g63
NtRp3149
(dp3150
g66
(dp3151
sg75
g3136
sg68
(lp3152
g61
(g62
g63
NtRp3153
(dp3154
g66
(dp3155
g74
I3
ssg75
g3149
sg68
(lp3156
g1780
asbasbasbag61
(g77
g63
NtRp3157
(dp3158
g66
(dp3159
sg75
g2964
sg68
(lp3160
g61
(g82
g63
NtRp3161
(dp3162
g66
(dp3163
g86
g87
ssg75
g3157
sg68
(lp3164
S'QUERY_STRING'
p3165
asbag61
(g82
g63
NtRp3166
(dp3167
g66
(dp3168
g93
g94
ssg75
g3157
sg68
(lp3169
S':'
asbag61
(g82
g63
NtRp3170
(dp3171
g66
(dp3172
sg75
g3157
sg68
(lp3173
g61
(g62
g63
NtRp3174
(dp3175
g66
(dp3176
g74
I3
ssg75
g3170
sg68
(lp3177
S''
asbasbasbag61
(g77
g63
NtRp3178
(dp3179
g66
(dp3180
sg75
g2964
sg68
(lp3181
g61
(g82
g63
NtRp3182
(dp3183
g66
(dp3184
g86
g87
ssg75
g3178
sg68
(lp3185
S'REMOTE_ADDR'
p3186
asbag61
(g82
g63
NtRp3187
(dp3188
g66
(dp3189
g93
g94
ssg75
g3178
sg68
(lp3190
S':'
asbag61
(g82
g63
NtRp3191
(dp3192
g66
(dp3193
sg75
g3178
sg68
(lp3194
g61
(g62
g63
NtRp3195
(dp3196
g66
(dp3197
g74
I3
ssg75
g3191
sg68
(lp3198
g194
asbasbasbag61
(g77
g63
NtRp3199
(dp3200
g66
(dp3201
sg75
g2964
sg68
(lp3202
g61
(g82
g63
NtRp3203
(dp3204
g66
(dp3205
g86
g87
ssg75
g3199
sg68
(lp3206
S'REMOTE_PORT'
p3207
asbag61
(g82
g63
NtRp3208
(dp3209
g66
(dp3210
g93
g94
ssg75
g3199
sg68
(lp3211
S':'
asbag61
(g82
g63
NtRp3212
(dp3213
g66
(dp3214
sg75
g3199
sg68
(lp3215
g61
(g62
g63
NtRp3216
(dp3217
g66
(dp3218
g74
I3
ssg75
g3212
sg68
(lp3219
g1844
asbasbasbag61
(g77
g63
NtRp3220
(dp3221
g66
(dp3222
sg75
g2964
sg68
(lp3223
g61
(g82
g63
NtRp3224
(dp3225
g66
(dp3226
g86
g87
ssg75
g3220
sg68
(lp3227
S'REQUEST_METHOD'
p3228
asbag61
(g82
g63
NtRp3229
(dp3230
g66
(dp3231
g93
g94
ssg75
g3220
sg68
(lp3232
S':'
asbag61
(g82
g63
NtRp3233
(dp3234
g66
(dp3235
sg75
g3220
sg68
(lp3236
g61
(g62
g63
NtRp3237
(dp3238
g66
(dp3239
g74
I3
ssg75
g3233
sg68
(lp3240
g1866
asbasbasbag61
(g77
g63
NtRp3241
(dp3242
g66
(dp3243
sg75
g2964
sg68
(lp3244
g61
(g82
g63
NtRp3245
(dp3246
g66
(dp3247
g86
g87
ssg75
g3241
sg68
(lp3248
S'SCRIPT_NAME'
p3249
asbag61
(g82
g63
NtRp3250
(dp3251
g66
(dp3252
g93
g94
ssg75
g3241
sg68
(lp3253
S':'
asbag61
(g82
g63
NtRp3254
(dp3255
g66
(dp3256
sg75
g3241
sg68
(lp3257
g61
(g62
g63
NtRp3258
(dp3259
g66
(dp3260
g74
I3
ssg75
g3254
sg68
(lp3261
S''
asbasbasbag61
(g77
g63
NtRp3262
(dp3263
g66
(dp3264
sg75
g2964
sg68
(lp3265
g61
(g82
g63
NtRp3266
(dp3267
g66
(dp3268
g86
g87
ssg75
g3262
sg68
(lp3269
S'SERVER_NAME'
p3270
asbag61
(g82
g63
NtRp3271
(dp3272
g66
(dp3273
g93
g94
ssg75
g3262
sg68
(lp3274
S':'
asbag61
(g82
g63
NtRp3275
(dp3276
g66
(dp3277
sg75
g3262
sg68
(lp3278
g61
(g62
g63
NtRp3279
(dp3280
g66
(dp3281
g74
I3
ssg75
g3275
sg68
(lp3282
g1909
asbasbasbag61
(g77
g63
NtRp3283
(dp3284
g66
(dp3285
sg75
g2964
sg68
(lp3286
g61
(g82
g63
NtRp3287
(dp3288
g66
(dp3289
g86
g87
ssg75
g3283
sg68
(lp3290
S'SERVER_PORT'
p3291
asbag61
(g82
g63
NtRp3292
(dp3293
g66
(dp3294
g93
g94
ssg75
g3283
sg68
(lp3295
S':'
asbag61
(g82
g63
NtRp3296
(dp3297
g66
(dp3298
sg75
g3283
sg68
(lp3299
g61
(g62
g63
NtRp3300
(dp3301
g66
(dp3302
g74
I3
ssg75
g3296
sg68
(lp3303
g1931
asbasbasbag61
(g77
g63
NtRp3304
(dp3305
g66
(dp3306
sg75
g2964
sg68
(lp3307
g61
(g82
g63
NtRp3308
(dp3309
g66
(dp3310
g86
g87
ssg75
g3304
sg68
(lp3311
S'SERVER_PROTOCOL'
p3312
asbag61
(g82
g63
NtRp3313
(dp3314
g66
(dp3315
g93
g94
ssg75
g3304
sg68
(lp3316
S':'
asbag61
(g82
g63
NtRp3317
(dp3318
g66
(dp3319
sg75
g3304
sg68
(lp3320
g61
(g62
g63
NtRp3321
(dp3322
g66
(dp3323
g74
I3
ssg75
g3317
sg68
(lp3324
g1953
asbasbasbag61
(g77
g63
NtRp3325
(dp3326
g66
(dp3327
sg75
g2964
sg68
(lp3328
g61
(g82
g63
NtRp3329
(dp3330
g66
(dp3331
g86
g87
ssg75
g3325
sg68
(lp3332
S'SERVER_SOFTWARE'
p3333
asbag61
(g82
g63
NtRp3334
(dp3335
g66
(dp3336
g93
g94
ssg75
g3325
sg68
(lp3337
S':'
asbag61
(g82
g63
NtRp3338
(dp3339
g66
(dp3340
sg75
g3325
sg68
(lp3341
g61
(g62
g63
NtRp3342
(dp3343
g66
(dp3344
g74
I3
ssg75
g3338
sg68
(lp3345
g1975
asbasbasbag61
(g77
g63
NtRp3346
(dp3347
g66
(dp3348
sg75
g2964
sg68
(lp3349
g61
(g82
g63
NtRp3350
(dp3351
g66
(dp3352
g86
g87
ssg75
g3346
sg68
(lp3353
S'wsgi.errors'
p3354
asbag61
(g82
g63
NtRp3355
(dp3356
g66
(dp3357
g93
g94
ssg75
g3346
sg68
(lp3358
S':'
asbag61
(g82
g63
NtRp3359
(dp3360
g66
(dp3361
sg75
g3346
sg68
(lp3362
g61
(g62
g63
NtRp3363
(dp3364
g66
(dp3365
g74
I3
ssg75
g3359
sg68
(lp3366
S"<open file '<stderr>', mode 'w' at 0xb777c0d0>"
p3367
asbasbasbag61
(g77
g63
NtRp3368
(dp3369
g66
(dp3370
sg75
g2964
sg68
(lp3371
g61
(g82
g63
NtRp3372
(dp3373
g66
(dp3374
g86
g87
ssg75
g3368
sg68
(lp3375
S'wsgi.file_wrapper'
p3376
asbag61
(g82
g63
NtRp3377
(dp3378
g66
(dp3379
g93
g94
ssg75
g3368
sg68
(lp3380
S':'
asbag61
(g82
g63
NtRp3381
(dp3382
g66
(dp3383
sg75
g3368
sg68
(lp3384
g61
(g62
g63
NtRp3385
(dp3386
g66
(dp3387
g74
I3
ssg75
g3381
sg68
(lp3388
S'<class wsgiref.util.FileWrapper at 0x9600aac>'
p3389
asbasbasbag61
(g77
g63
NtRp3390
(dp3391
g66
(dp3392
sg75
g2964
sg68
(lp3393
g61
(g82
g63
NtRp3394
(dp3395
g66
(dp3396
g86
g87
ssg75
g3390
sg68
(lp3397
S'wsgi.input'
p3398
asbag61
(g82
g63
NtRp3399
(dp3400
g66
(dp3401
g93
g94
ssg75
g3390
sg68
(lp3402
S':'
asbag61
(g82
g63
NtRp3403
(dp3404
g66
(dp3405
sg75
g3390
sg68
(lp3406
g61
(g62
g63
NtRp3407
(dp3408
g66
(dp3409
g74
I3
ssg75
g3403
sg68
(lp3410
S'<cStringIO.StringO object at 0x9cca2a0>'
p3411
asbasbasbag61
(g77
g63
NtRp3412
(dp3413
g66
(dp3414
sg75
g2964
sg68
(lp3415
g61
(g82
g63
NtRp3416
(dp3417
g66
(dp3418
g86
g87
ssg75
g3412
sg68
(lp3419
S'wsgi.multiprocess'
p3420
asbag61
(g82
g63
NtRp3421
(dp3422
g66
(dp3423
g93
g94
ssg75
g3412
sg68
(lp3424
S':'
asbag61
(g82
g63
NtRp3425
(dp3426
g66
(dp3427
sg75
g3412
sg68
(lp3428
g61
(g62
g63
NtRp3429
(dp3430
g66
(dp3431
g74
I3
ssg75
g3425
sg68
(lp3432
g104
asbasbasbag61
(g77
g63
NtRp3433
(dp3434
g66
(dp3435
sg75
g2964
sg68
(lp3436
g61
(g82
g63
NtRp3437
(dp3438
g66
(dp3439
g86
g87
ssg75
g3433
sg68
(lp3440
S'wsgi.multithread'
p3441
asbag61
(g82
g63
NtRp3442
(dp3443
g66
(dp3444
g93
g94
ssg75
g3433
sg68
(lp3445
S':'
asbag61
(g82
g63
NtRp3446
(dp3447
g66
(dp3448
sg75
g3433
sg68
(lp3449
g61
(g62
g63
NtRp3450
(dp3451
g66
(dp3452
g74
I3
ssg75
g3446
sg68
(lp3453
g2215
asbasbasbag61
(g77
g63
NtRp3454
(dp3455
g66
(dp3456
sg75
g2964
sg68
(lp3457
g61
(g82
g63
NtRp3458
(dp3459
g66
(dp3460
g86
g87
ssg75
g3454
sg68
(lp3461
S'wsgi.run_once'
p3462
asbag61
(g82
g63
NtRp3463
(dp3464
g66
(dp3465
g93
g94
ssg75
g3454
sg68
(lp3466
S':'
asbag61
(g82
g63
NtRp3467
(dp3468
g66
(dp3469
sg75
g3454
sg68
(lp3470
g61
(g62
g63
NtRp3471
(dp3472
g66
(dp3473
g74
I3
ssg75
g3467
sg68
(lp3474
g104
asbasbasbag61
(g77
g63
NtRp3475
(dp3476
g66
(dp3477
sg75
g2964
sg68
(lp3478
g61
(g82
g63
NtRp3479
(dp3480
g66
(dp3481
g86
g87
ssg75
g3475
sg68
(lp3482
S'wsgi.url_scheme'
p3483
asbag61
(g82
g63
NtRp3484
(dp3485
g66
(dp3486
g93
g94
ssg75
g3475
sg68
(lp3487
S':'
asbag61
(g82
g63
NtRp3488
(dp3489
g66
(dp3490
sg75
g3475
sg68
(lp3491
g61
(g62
g63
NtRp3492
(dp3493
g66
(dp3494
g74
I3
ssg75
g3488
sg68
(lp3495
g2258
asbasbasbag61
(g77
g63
NtRp3496
(dp3497
g66
(dp3498
sg75
g2964
sg68
(lp3499
g61
(g82
g63
NtRp3500
(dp3501
g66
(dp3502
g86
g87
ssg75
g3496
sg68
(lp3503
S'wsgi.version'
p3504
asbag61
(g82
g63
NtRp3505
(dp3506
g66
(dp3507
g93
g94
ssg75
g3496
sg68
(lp3508
S':'
asbag61
(g82
g63
NtRp3509
(dp3510
g66
(dp3511
sg75
g3496
sg68
(lp3512
g61
(g62
g63
NtRp3513
(dp3514
g66
(dp3515
g74
I3
ssg75
g3509
sg68
(lp3516
S'1'
asbasbasbasbasbasbasbasbasbasbasbasbasbsS'frames'
p3517
(lp3518
(dp3519
S'file'
p3520
S'/home/vishrut/web2py/gluon/restricted.py'
p3521
sS'dump'
p3522
(dp3523
S'environment'
p3524
S"{'A': <class 'gluon.html.A'>, 'Auth': <class 'gluon.tools.Auth'>, 'B': <class 'gluon.html.B'>, 'BEAUTIFY': <class 'gluon.html.BEAUTIFY'>, 'BODY': <class 'gluon.html.BODY'>, 'BR': <class 'gluon.html.BR'>, 'BUTTON': <class 'gluon.html.BUTTON'>, 'CAT': <class 'gluon.html.CAT'>, 'CENTER': <class 'gluon.html.CENTER'>, 'CLEANUP': <class 'gluon.validators.CLEANUP'>, ...}"
p3525
sS'ccode'
p3526
S'<code object <module> at 0x9cd2530, file "/home/...eb2py/applications/astra1/models/db.py", line 12>'
p3527
ssS'lnum'
p3528
I205
sS'lines'
p3529
(dp3530
I200
S'    try:'
p3531
sI201
S'        if type(code) == types.CodeType:'
p3532
sI202
S'            ccode = code'
p3533
sI203
S'        else:'
p3534
sI204
S'            ccode = compile2(code,layer)'
p3535
sI205
S'        exec ccode in environment'
p3536
sI206
S'    except HTTP:'
p3537
sI207
S'        raise'
p3538
sI208
S'    except RestrictedError:'
p3539
sI209
S'        # do not encapsulate (obfuscate) the original RestrictedError'
p3540
ssS'call'
p3541
S'(code="# -*- coding: utf-8 -*-\\n\\n#######################...quires=IS_IN_DB(db, db.rooms.id, \'%(username)s\')\\n", environment={\'A\': <class \'gluon.html.A\'>, \'Auth\': <class \'gluon.tools.Auth\'>, \'B\': <class \'gluon.html.B\'>, \'BEAUTIFY\': <class \'gluon.html.BEAUTIFY\'>, \'BODY\': <class \'gluon.html.BODY\'>, \'BR\': <class \'gluon.html.BR\'>, \'BUTTON\': <class \'gluon.html.BUTTON\'>, \'CAT\': <class \'gluon.html.CAT\'>, \'CENTER\': <class \'gluon.html.CENTER\'>, \'CLEANUP\': <class \'gluon.validators.CLEANUP\'>, ...}, layer=\'/home/vishrut/web2py/applications/astra1/models/db.py\')'
p3542
sS'func'
p3543
S'restricted'
p3544
sa(dp3545
g3520
S'/home/vishrut/web2py/applications/astra1/models/db.py'
p3546
sg3522
(dp3547
S'Field'
p3548
S"<class 'gluon.dal.Field'>"
p3549
ssg3528
I93
sg3529
(dp3550
I96
S''
sI97
S"db.define_table('rooms',"
p3551
sI88
S"auth.add_group('role','description')"
p3552
sI89
S''
sI90
S"db.define_table('kids',"
p3553
sI91
S"                Field('username',unique=True),"
p3554
sI92
S"                Field('password'),"
p3555
sI93
S"                Field('rno','integer')"
p3556
sI94
S"                #format='%(username)s'"
p3557
sI95
S'                )'
p3558
ssg3541
S'()'
p3559
sg3543
S'<module>'
p3560
sa(dp3561
g3520
S'/home/vishrut/web2py/gluon/dal.py'
p3562
sg3522
(dp3563
S'polymodel'
p3564
S'None'
p3565
ssg3528
I6320
sg3529
(dp3566
I6315
S"        if migrate or self._adapter.dbengine=='google:datastore':"
p3567
sI6316
S'            try:'
p3568
sI6317
S'                sql_locker.acquire()'
p3569
sI6318
S'                self._adapter.create_table(t,migrate=migrate,'
p3570
sI6319
S'                                           fake_migrate=fake_migrate,'
p3571
sI6320
S'                                           polymodel=polymodel)'
p3572
sI6321
S'            finally:'
p3573
sI6322
S'                sql_locker.release()'
p3574
sI6323
S'        else:'
p3575
sI6324
S'            t._dbt = None'
p3576
ssg3541
S"(self=<DAL {'auth_event': <Table {'origin': <gluon.dal...n_key': <gluon.dal.Field object at 0x9a8a16c>}>}>, tablename='kids', *fields=(<gluon.dal.Field object>, <gluon.dal.Field object>, <gluon.dal.Field object>), **args={})"
p3577
sg3543
S'define_table'
p3578
sa(dp3579
g3520
S'/home/vishrut/web2py/gluon/dal.py'
p3580
sg3522
(dp3581
S'fake_migrate'
p3582
g104
ssg3528
I742
sg3529
(dp3583
I737
S'            self.file_close(tfile)'
p3584
sI738
S'            if sql_fields != sql_fields_old:'
p3585
sI739
S'                self.migrate_table(table,'
p3586
sI740
S'                                   sql_fields, sql_fields_old,'
p3587
sI741
S'                                   sql_fields_aux, logfile,'
p3588
sI742
S'                                   fake_migrate=fake_migrate)'
p3589
sI743
S'        self.file_close(logfile)'
p3590
sI744
S'        return query'
p3591
sI745
S''
sI746
S'    def migrate_table('
p3592
ssg3541
S"(self=<gluon.dal.SQLiteAdapter object>, table=<Table {'username': <gluon.dal.Field object at 0...c>, 'id': <gluon.dal.Field object at 0x9cc2f6c>}>, migrate=True, fake_migrate=False, polymodel=None)"
p3593
sg3543
S'create_table'
p3594
sa(dp3595
g3520
S'/home/vishrut/web2py/gluon/dal.py'
p3596
sg3522
(dp3597
S'self'
p3598
S'<gluon.dal.SQLiteAdapter object>'
p3599
sS'self.execute'
p3600
S'<bound method SQLiteAdapter.execute of <gluon.dal.SQLiteAdapter object>>'
p3601
sS'sub_query'
p3602
S"'ALTER TABLE kids ADD username CHAR(512) UNIQUE;'"
p3603
ssg3528
I830
sg3529
(dp3604
I832
S'                        # in one transaction so we must commit partial transactions and'
p3605
sI833
S'                        # update table._dbt after alter table.'
p3606
sI834
S'                        if table._db._adapter.commit_on_alter_table:'
p3607
sI825
S'                              % datetime.datetime.today().isoformat())'
p3608
sI826
S"                table._db['_lastsql'] = '\\n'.join(query)"
p3609
sI827
S'                for sub_query in query:'
p3610
sI828
S"                    logfile.write(sub_query + '\\n')"
p3611
sI829
S'                    if not fake_migrate:'
p3612
sI830
S'                        self.execute(sub_query)'
p3613
sI831
S'                        # Caveat: mysql, oracle and firebird do not allow multiple alter table'
p3614
ssg3541
S"(self=<gluon.dal.SQLiteAdapter object>, table=<Table {'username': <gluon.dal.Field object at 0...c>, 'id': <gluon.dal.Field object at 0x9cc2f6c>}>, sql_fields={'id': {'sortable': 1, 'sql': 'INTEGER PRIMARY KEY AUTOINCREMENT', 'type': 'id'}, 'password': {'sortable': 3, 'sql': 'CHAR(512)', 'type': 'string'}, 'rno': {'sortable': 4, 'sql': 'INTEGER', 'type': 'integer'}, 'username': {'sortable': 2, 'sql': 'CHAR(512) UNIQUE', 'type': 'string'}}, sql_fields_old={'id': {'sortable': 1, 'sql': 'INTEGER PRIMARY KEY AUTOINCREMENT', 'type': 'id'}, 'user': {'sortable': 2, 'sql': 'CHAR(512) UNIQUE', 'type': 'string'}}, sql_fields_aux={'id': {'sql': 'INTEGER PRIMARY KEY AUTOINCREMENT'}, 'password': {'sql': 'CHAR(512)'}, 'rno': {'sql': 'INTEGER'}, 'username': {'sql': 'CHAR(512) UNIQUE'}}, logfile=<gluon.portalocker.LockedFile object>, fake_migrate=False)"
p3615
sg3543
S'migrate_table'
p3616
sa(dp3617
g3520
S'/home/vishrut/web2py/gluon/dal.py'
p3618
sg3522
(dp3619
S'a'
S"('ALTER TABLE kids ADD username CHAR(512) UNIQUE;',)"
p3620
sS'self'
p3621
S'<gluon.dal.SQLiteAdapter object>'
p3622
sS'b'
g21
sS'self.log_execute'
p3623
S'<bound method SQLiteAdapter.log_execute of <gluon.dal.SQLiteAdapter object>>'
p3624
ssg3528
I1392
sg3529
(dp3625
I1387
S'        self.db._timings.append((a[0],time.time()-t0))'
p3626
sI1388
S'        del self.db._timings[:-TIMINGSSIZE]'
p3627
sI1389
S'        return ret'
p3628
sI1390
S''
sI1391
S'    def execute(self, *a, **b):'
p3629
sI1392
S'        return self.log_execute(*a, **b)'
p3630
sI1393
S''
sI1394
S'    def represent(self, obj, fieldtype):'
p3631
sI1395
S'        if isinstance(obj, CALLABLETYPES):'
p3632
sI1396
S'            obj = obj()'
p3633
ssg3541
S"(self=<gluon.dal.SQLiteAdapter object>, *a=('ALTER TABLE kids ADD username CHAR(512) UNIQUE;',), **b={})"
p3634
sg3543
S'execute'
p3635
sa(dp3636
g3520
S'/home/vishrut/web2py/gluon/dal.py'
p3637
sg3522
(dp3638
S'a'
S"('ALTER TABLE kids ADD username CHAR(512) UNIQUE;',)"
p3639
sS'b'
g21
sS'self'
p3640
S'<gluon.dal.SQLiteAdapter object>'
p3641
sS'ret'
p3642
S'undefined'
p3643
sS'self.cursor'
p3644
S'<pysqlite2.dbapi2.Cursor object>'
p3645
sS'self.cursor.execute'
p3646
S'<built-in method execute of pysqlite2.dbapi2.Cursor object>'
p3647
ssg3528
I1386
sg3529
(dp3648
I1381
S'        self.execute(query)'
p3649
sI1382
S''
sI1383
S'    def log_execute(self, *a, **b):'
p3650
sI1384
S'        self.db._lastsql = a[0]'
p3651
sI1385
S'        t0 = time.time()'
p3652
sI1386
S'        ret = self.cursor.execute(*a, **b)'
p3653
sI1387
S'        self.db._timings.append((a[0],time.time()-t0))'
p3654
sI1388
S'        del self.db._timings[:-TIMINGSSIZE]'
p3655
sI1389
S'        return ret'
p3656
sI1390
S''
ssg3541
S"(self=<gluon.dal.SQLiteAdapter object>, *a=('ALTER TABLE kids ADD username CHAR(512) UNIQUE;',), **b={})"
p3657
sg3543
S'log_execute'
p3658
sasS'pyver'
p3659
S'Python 2.7.2+: /usr/bin/python'
p3660
sS'session'
p3661
g61
(g62
g63
NtRp3662
(dp3663
g66
(dp3664
sg68
(lp3665
g61
(g70
g63
NtRp3666
(dp3667
g66
(dp3668
g74
I5
ssg75
Nsg68
(lp3669
g61
(g77
g63
NtRp3670
(dp3671
g66
(dp3672
sg75
g3666
sg68
(lp3673
g61
(g82
g63
NtRp3674
(dp3675
g66
(dp3676
g86
g87
ssg75
g3670
sg68
(lp3677
S'last_query'
p3678
asbag61
(g82
g63
NtRp3679
(dp3680
g66
(dp3681
g93
g94
ssg75
g3670
sg68
(lp3682
S':'
asbag61
(g82
g63
NtRp3683
(dp3684
g66
(dp3685
sg75
g3670
sg68
(lp3686
g61
(g62
g63
NtRp3687
(dp3688
g66
(dp3689
g74
I5
ssg75
g3683
sg68
(lp3690
S'db.kids.id>0'
p3691
asbasbasbasbasbsS'etype'
p3692
S"<class 'pysqlite2.dbapi2.OperationalError'>"
p3693
sS'date'
p3694
S'Sun Oct 14 15:22:51 2012'
p3695
sS'response'
p3696
g61
(g62
g63
NtRp3697
(dp3698
g66
(dp3699
sg68
(lp3700
g61
(g70
g63
NtRp3701
(dp3702
g66
(dp3703
g74
I5
ssg75
Nsg68
(lp3704
g61
(g77
g63
NtRp3705
(dp3706
g66
(dp3707
sg75
g3701
sg68
(lp3708
g61
(g82
g63
NtRp3709
(dp3710
g66
(dp3711
g86
g87
ssg75
g3705
sg68
(lp3712
g159
asbag61
(g82
g63
NtRp3713
(dp3714
g66
(dp3715
g93
g94
ssg75
g3705
sg68
(lp3716
S':'
asbag61
(g82
g63
NtRp3717
(dp3718
g66
(dp3719
sg75
g3705
sg68
(lp3720
g61
(g62
g63
NtRp3721
(dp3722
g66
(dp3723
g74
I5
ssg75
g3717
sg68
(lp3724
S'<cStringIO.StringO object at 0x9a75700>'
p3725
asbasbasbag61
(g77
g63
NtRp3726
(dp3727
g66
(dp3728
sg75
g3701
sg68
(lp3729
g61
(g82
g63
NtRp3730
(dp3731
g66
(dp3732
g86
g87
ssg75
g3726
sg68
(lp3733
g225
asbag61
(g82
g63
NtRp3734
(dp3735
g66
(dp3736
g93
g94
ssg75
g3726
sg68
(lp3737
S':'
asbag61
(g82
g63
NtRp3738
(dp3739
g66
(dp3740
sg75
g3726
sg68
(lp3741
g61
(g62
g63
NtRp3742
(dp3743
g66
(dp3744
g74
I5
ssg75
g3738
sg68
(lp3745
g61
(g70
g63
NtRp3746
(dp3747
g66
(dp3748
g74
I4
ssg75
Nsg68
(lp3749
g61
(g77
g63
NtRp3750
(dp3751
g66
(dp3752
sg75
g3746
sg68
(lp3753
g61
(g82
g63
NtRp3754
(dp3755
g66
(dp3756
g86
g87
ssg75
g3750
sg68
(lp3757
S'session_id_astra1'
p3758
asbag61
(g82
g63
NtRp3759
(dp3760
g66
(dp3761
g93
g94
ssg75
g3750
sg68
(lp3762
S':'
asbag61
(g82
g63
NtRp3763
(dp3764
g66
(dp3765
sg75
g3750
sg68
(lp3766
g61
(g62
g63
NtRp3767
(dp3768
g66
(dp3769
g74
I4
ssg75
g3763
sg68
(lp3770
g61
(g70
g63
NtRp3771
(dp3772
g66
(dp3773
g74
I3
ssg75
Nsg68
(lp3774
g61
(g77
g63
NtRp3775
(dp3776
g66
(dp3777
sg75
g3771
sg68
(lp3778
g61
(g82
g63
NtRp3779
(dp3780
g66
(dp3781
g86
g87
ssg75
g3775
sg68
(lp3782
g275
asbag61
(g82
g63
NtRp3783
(dp3784
g66
(dp3785
g93
g94
ssg75
g3775
sg68
(lp3786
S':'
asbag61
(g82
g63
NtRp3787
(dp3788
g66
(dp3789
sg75
g3775
sg68
(lp3790
g61
(g62
g63
NtRp3791
(dp3792
g66
(dp3793
g74
I3
ssg75
g3787
sg68
(lp3794
S''
asbasbasbag61
(g77
g63
NtRp3795
(dp3796
g66
(dp3797
sg75
g3771
sg68
(lp3798
g61
(g82
g63
NtRp3799
(dp3800
g66
(dp3801
g86
g87
ssg75
g3795
sg68
(lp3802
g296
asbag61
(g82
g63
NtRp3803
(dp3804
g66
(dp3805
g93
g94
ssg75
g3795
sg68
(lp3806
S':'
asbag61
(g82
g63
NtRp3807
(dp3808
g66
(dp3809
sg75
g3795
sg68
(lp3810
g61
(g62
g63
NtRp3811
(dp3812
g66
(dp3813
g74
I3
ssg75
g3807
sg68
(lp3814
S''
asbasbasbag61
(g77
g63
NtRp3815
(dp3816
g66
(dp3817
sg75
g3771
sg68
(lp3818
g61
(g82
g63
NtRp3819
(dp3820
g66
(dp3821
g86
g87
ssg75
g3815
sg68
(lp3822
g317
asbag61
(g82
g63
NtRp3823
(dp3824
g66
(dp3825
g93
g94
ssg75
g3815
sg68
(lp3826
S':'
asbag61
(g82
g63
NtRp3827
(dp3828
g66
(dp3829
sg75
g3815
sg68
(lp3830
g61
(g62
g63
NtRp3831
(dp3832
g66
(dp3833
g74
I3
ssg75
g3827
sg68
(lp3834
S''
asbasbasbag61
(g77
g63
NtRp3835
(dp3836
g66
(dp3837
sg75
g3771
sg68
(lp3838
g61
(g82
g63
NtRp3839
(dp3840
g66
(dp3841
g86
g87
ssg75
g3835
sg68
(lp3842
g338
asbag61
(g82
g63
NtRp3843
(dp3844
g66
(dp3845
g93
g94
ssg75
g3835
sg68
(lp3846
S':'
asbag61
(g82
g63
NtRp3847
(dp3848
g66
(dp3849
sg75
g3835
sg68
(lp3850
g61
(g62
g63
NtRp3851
(dp3852
g66
(dp3853
g74
I3
ssg75
g3847
sg68
(lp3854
S''
asbasbasbag61
(g77
g63
NtRp3855
(dp3856
g66
(dp3857
sg75
g3771
sg68
(lp3858
g61
(g82
g63
NtRp3859
(dp3860
g66
(dp3861
g86
g87
ssg75
g3855
sg68
(lp3862
g359
asbag61
(g82
g63
NtRp3863
(dp3864
g66
(dp3865
g93
g94
ssg75
g3855
sg68
(lp3866
S':'
asbag61
(g82
g63
NtRp3867
(dp3868
g66
(dp3869
sg75
g3855
sg68
(lp3870
g61
(g62
g63
NtRp3871
(dp3872
g66
(dp3873
g74
I3
ssg75
g3867
sg68
(lp3874
S''
asbasbasbag61
(g77
g63
NtRp3875
(dp3876
g66
(dp3877
sg75
g3771
sg68
(lp3878
g61
(g82
g63
NtRp3879
(dp3880
g66
(dp3881
g86
g87
ssg75
g3875
sg68
(lp3882
g380
asbag61
(g82
g63
NtRp3883
(dp3884
g66
(dp3885
g93
g94
ssg75
g3875
sg68
(lp3886
S':'
asbag61
(g82
g63
NtRp3887
(dp3888
g66
(dp3889
sg75
g3875
sg68
(lp3890
g61
(g62
g63
NtRp3891
(dp3892
g66
(dp3893
g74
I3
ssg75
g3887
sg68
(lp3894
S'/'
asbasbasbag61
(g77
g63
NtRp3895
(dp3896
g66
(dp3897
sg75
g3771
sg68
(lp3898
g61
(g82
g63
NtRp3899
(dp3900
g66
(dp3901
g86
g87
ssg75
g3895
sg68
(lp3902
g401
asbag61
(g82
g63
NtRp3903
(dp3904
g66
(dp3905
g93
g94
ssg75
g3895
sg68
(lp3906
S':'
asbag61
(g82
g63
NtRp3907
(dp3908
g66
(dp3909
sg75
g3895
sg68
(lp3910
g61
(g62
g63
NtRp3911
(dp3912
g66
(dp3913
g74
I3
ssg75
g3907
sg68
(lp3914
S''
asbasbasbag61
(g77
g63
NtRp3915
(dp3916
g66
(dp3917
sg75
g3771
sg68
(lp3918
g61
(g82
g63
NtRp3919
(dp3920
g66
(dp3921
g86
g87
ssg75
g3915
sg68
(lp3922
g422
asbag61
(g82
g63
NtRp3923
(dp3924
g66
(dp3925
g93
g94
ssg75
g3915
sg68
(lp3926
S':'
asbag61
(g82
g63
NtRp3927
(dp3928
g66
(dp3929
sg75
g3915
sg68
(lp3930
g61
(g62
g63
NtRp3931
(dp3932
g66
(dp3933
g74
I3
ssg75
g3927
sg68
(lp3934
S''
asbasbasbasbasbasbasbasbasbasbasbag61
(g77
g63
NtRp3935
(dp3936
g66
(dp3937
sg75
g3701
sg68
(lp3938
g61
(g82
g63
NtRp3939
(dp3940
g66
(dp3941
g86
g87
ssg75
g3935
sg68
(lp3942
S'delimiters'
p3943
asbag61
(g82
g63
NtRp3944
(dp3945
g66
(dp3946
g93
g94
ssg75
g3935
sg68
(lp3947
S':'
asbag61
(g82
g63
NtRp3948
(dp3949
g66
(dp3950
sg75
g3935
sg68
(lp3951
g61
(g62
g63
NtRp3952
(dp3953
g66
(dp3954
g74
I5
ssg75
g3948
sg68
(lp3955
g61
(g70
g63
NtRp3956
(dp3957
g66
(dp3958
g74
I4
ssg75
Nsg68
(lp3959
g61
(g77
g63
NtRp3960
(dp3961
g66
(dp3962
sg75
g3956
sg68
(lp3963
g61
(g82
g63
NtRp3964
(dp3965
g66
(dp3966
sg75
g3960
sg68
(lp3967
g61
(g62
g63
NtRp3968
(dp3969
g66
(dp3970
g74
I4
ssg75
g3964
sg68
(lp3971
S'{{'
p3972
asbasbasbag61
(g77
g63
NtRp3973
(dp3974
g66
(dp3975
sg75
g3956
sg68
(lp3976
g61
(g82
g63
NtRp3977
(dp3978
g66
(dp3979
sg75
g3973
sg68
(lp3980
g61
(g62
g63
NtRp3981
(dp3982
g66
(dp3983
g74
I4
ssg75
g3977
sg68
(lp3984
S'}}'
p3985
asbasbasbasbasbasbasbag61
(g77
g63
NtRp3986
(dp3987
g66
(dp3988
sg75
g3701
sg68
(lp3989
g61
(g82
g63
NtRp3990
(dp3991
g66
(dp3992
g86
g87
ssg75
g3986
sg68
(lp3993
S'files'
p3994
asbag61
(g82
g63
NtRp3995
(dp3996
g66
(dp3997
g93
g94
ssg75
g3986
sg68
(lp3998
S':'
asbag61
(g82
g63
NtRp3999
(dp4000
g66
(dp4001
sg75
g3986
sg68
(lp4002
g61
(g62
g63
NtRp4003
(dp4004
g66
(dp4005
g74
I5
ssg75
g3999
sg68
(lp4006
g61
(g70
g63
NtRp4007
(dp4008
g66
(dp4009
g74
I4
ssg75
Nsg68
(lp4010
sbasbasbasbag61
(g77
g63
NtRp4011
(dp4012
g66
(dp4013
sg75
g3701
sg68
(lp4014
g61
(g82
g63
NtRp4015
(dp4016
g66
(dp4017
g86
g87
ssg75
g4011
sg68
(lp4018
S'flash'
p4019
asbag61
(g82
g63
NtRp4020
(dp4021
g66
(dp4022
g93
g94
ssg75
g4011
sg68
(lp4023
S':'
asbag61
(g82
g63
NtRp4024
(dp4025
g66
(dp4026
sg75
g4011
sg68
(lp4027
g61
(g62
g63
NtRp4028
(dp4029
g66
(dp4030
g74
I5
ssg75
g4024
sg68
(lp4031
S''
asbasbasbag61
(g77
g63
NtRp4032
(dp4033
g66
(dp4034
sg75
g3701
sg68
(lp4035
g61
(g82
g63
NtRp4036
(dp4037
g66
(dp4038
g86
g87
ssg75
g4032
sg68
(lp4039
S'generic_patterns'
p4040
asbag61
(g82
g63
NtRp4041
(dp4042
g66
(dp4043
g93
g94
ssg75
g4032
sg68
(lp4044
S':'
asbag61
(g82
g63
NtRp4045
(dp4046
g66
(dp4047
sg75
g4032
sg68
(lp4048
g61
(g62
g63
NtRp4049
(dp4050
g66
(dp4051
g74
I5
ssg75
g4045
sg68
(lp4052
g61
(g70
g63
NtRp4053
(dp4054
g66
(dp4055
g74
I4
ssg75
Nsg68
(lp4056
g61
(g77
g63
NtRp4057
(dp4058
g66
(dp4059
sg75
g4053
sg68
(lp4060
g61
(g82
g63
NtRp4061
(dp4062
g66
(dp4063
sg75
g4057
sg68
(lp4064
g61
(g62
g63
NtRp4065
(dp4066
g66
(dp4067
g74
I4
ssg75
g4061
sg68
(lp4068
S'*'
asbasbasbasbasbasbasbag61
(g77
g63
NtRp4069
(dp4070
g66
(dp4071
sg75
g3701
sg68
(lp4072
g61
(g82
g63
NtRp4073
(dp4074
g66
(dp4075
g86
g87
ssg75
g4069
sg68
(lp4076
S'headers'
p4077
asbag61
(g82
g63
NtRp4078
(dp4079
g66
(dp4080
g93
g94
ssg75
g4069
sg68
(lp4081
S':'
asbag61
(g82
g63
NtRp4082
(dp4083
g66
(dp4084
sg75
g4069
sg68
(lp4085
g61
(g62
g63
NtRp4086
(dp4087
g66
(dp4088
g74
I5
ssg75
g4082
sg68
(lp4089
g61
(g70
g63
NtRp4090
(dp4091
g66
(dp4092
g74
I4
ssg75
Nsg68
(lp4093
g61
(g77
g63
NtRp4094
(dp4095
g66
(dp4096
sg75
g4090
sg68
(lp4097
g61
(g82
g63
NtRp4098
(dp4099
g66
(dp4100
g86
g87
ssg75
g4094
sg68
(lp4101
S'Cache-Control'
p4102
asbag61
(g82
g63
NtRp4103
(dp4104
g66
(dp4105
g93
g94
ssg75
g4094
sg68
(lp4106
S':'
asbag61
(g82
g63
NtRp4107
(dp4108
g66
(dp4109
sg75
g4094
sg68
(lp4110
g61
(g62
g63
NtRp4111
(dp4112
g66
(dp4113
g74
I4
ssg75
g4107
sg68
(lp4114
S'no-store, no-cache, must-revalidate, post-check=0, pre-check=0'
p4115
asbasbasbag61
(g77
g63
NtRp4116
(dp4117
g66
(dp4118
sg75
g4090
sg68
(lp4119
g61
(g82
g63
NtRp4120
(dp4121
g66
(dp4122
g86
g87
ssg75
g4116
sg68
(lp4123
S'Content-Type'
p4124
asbag61
(g82
g63
NtRp4125
(dp4126
g66
(dp4127
g93
g94
ssg75
g4116
sg68
(lp4128
S':'
asbag61
(g82
g63
NtRp4129
(dp4130
g66
(dp4131
sg75
g4116
sg68
(lp4132
g61
(g62
g63
NtRp4133
(dp4134
g66
(dp4135
g74
I4
ssg75
g4129
sg68
(lp4136
S'text/html; charset=utf-8'
p4137
asbasbasbag61
(g77
g63
NtRp4138
(dp4139
g66
(dp4140
sg75
g4090
sg68
(lp4141
g61
(g82
g63
NtRp4142
(dp4143
g66
(dp4144
g86
g87
ssg75
g4138
sg68
(lp4145
S'Expires'
p4146
asbag61
(g82
g63
NtRp4147
(dp4148
g66
(dp4149
g93
g94
ssg75
g4138
sg68
(lp4150
S':'
asbag61
(g82
g63
NtRp4151
(dp4152
g66
(dp4153
sg75
g4138
sg68
(lp4154
g61
(g62
g63
NtRp4155
(dp4156
g66
(dp4157
g74
I4
ssg75
g4151
sg68
(lp4158
S'Sun, 14 Oct 2012 10:22:51 GMT'
p4159
asbasbasbag61
(g77
g63
NtRp4160
(dp4161
g66
(dp4162
sg75
g4090
sg68
(lp4163
g61
(g82
g63
NtRp4164
(dp4165
g66
(dp4166
g86
g87
ssg75
g4160
sg68
(lp4167
S'Pragma'
p4168
asbag61
(g82
g63
NtRp4169
(dp4170
g66
(dp4171
g93
g94
ssg75
g4160
sg68
(lp4172
S':'
asbag61
(g82
g63
NtRp4173
(dp4174
g66
(dp4175
sg75
g4160
sg68
(lp4176
g61
(g62
g63
NtRp4177
(dp4178
g66
(dp4179
g74
I4
ssg75
g4173
sg68
(lp4180
S'no-cache'
p4181
asbasbasbag61
(g77
g63
NtRp4182
(dp4183
g66
(dp4184
sg75
g4090
sg68
(lp4185
g61
(g82
g63
NtRp4186
(dp4187
g66
(dp4188
g86
g87
ssg75
g4182
sg68
(lp4189
S'X-Powered-By'
p4190
asbag61
(g82
g63
NtRp4191
(dp4192
g66
(dp4193
g93
g94
ssg75
g4182
sg68
(lp4194
S':'
asbag61
(g82
g63
NtRp4195
(dp4196
g66
(dp4197
sg75
g4182
sg68
(lp4198
g61
(g62
g63
NtRp4199
(dp4200
g66
(dp4201
g74
I4
ssg75
g4195
sg68
(lp4202
S'web2py'
p4203
asbasbasbasbasbasbasbag61
(g77
g63
NtRp4204
(dp4205
g66
(dp4206
sg75
g3701
sg68
(lp4207
g61
(g82
g63
NtRp4208
(dp4209
g66
(dp4210
g86
g87
ssg75
g4204
sg68
(lp4211
S'menu'
p4212
asbag61
(g82
g63
NtRp4213
(dp4214
g66
(dp4215
g93
g94
ssg75
g4204
sg68
(lp4216
S':'
asbag61
(g82
g63
NtRp4217
(dp4218
g66
(dp4219
sg75
g4204
sg68
(lp4220
g61
(g62
g63
NtRp4221
(dp4222
g66
(dp4223
g74
I5
ssg75
g4217
sg68
(lp4224
g61
(g70
g63
NtRp4225
(dp4226
g66
(dp4227
g74
I4
ssg75
Nsg68
(lp4228
sbasbasbasbag61
(g77
g63
NtRp4229
(dp4230
g66
(dp4231
sg75
g3701
sg68
(lp4232
g61
(g82
g63
NtRp4233
(dp4234
g66
(dp4235
g86
g87
ssg75
g4229
sg68
(lp4236
S'meta'
p4237
asbag61
(g82
g63
NtRp4238
(dp4239
g66
(dp4240
g93
g94
ssg75
g4229
sg68
(lp4241
S':'
asbag61
(g82
g63
NtRp4242
(dp4243
g66
(dp4244
sg75
g4229
sg68
(lp4245
g61
(g62
g63
NtRp4246
(dp4247
g66
(dp4248
g74
I5
ssg75
g4242
sg68
(lp4249
g61
(g70
g63
NtRp4250
(dp4251
g66
(dp4252
g74
I4
ssg75
Nsg68
(lp4253
sbasbasbasbag61
(g77
g63
NtRp4254
(dp4255
g66
(dp4256
sg75
g3701
sg68
(lp4257
g61
(g82
g63
NtRp4258
(dp4259
g66
(dp4260
g86
g87
ssg75
g4254
sg68
(lp4261
S'postprocessing'
p4262
asbag61
(g82
g63
NtRp4263
(dp4264
g66
(dp4265
g93
g94
ssg75
g4254
sg68
(lp4266
S':'
asbag61
(g82
g63
NtRp4267
(dp4268
g66
(dp4269
sg75
g4254
sg68
(lp4270
g61
(g62
g63
NtRp4271
(dp4272
g66
(dp4273
g74
I5
ssg75
g4267
sg68
(lp4274
g61
(g70
g63
NtRp4275
(dp4276
g66
(dp4277
g74
I4
ssg75
Nsg68
(lp4278
sbasbasbasbag61
(g77
g63
NtRp4279
(dp4280
g66
(dp4281
sg75
g3701
sg68
(lp4282
g61
(g82
g63
NtRp4283
(dp4284
g66
(dp4285
g86
g87
ssg75
g4279
sg68
(lp4286
S'session_file'
p4287
asbag61
(g82
g63
NtRp4288
(dp4289
g66
(dp4290
g93
g94
ssg75
g4279
sg68
(lp4291
S':'
asbag61
(g82
g63
NtRp4292
(dp4293
g66
(dp4294
sg75
g4279
sg68
(lp4295
g61
(g62
g63
NtRp4296
(dp4297
g66
(dp4298
g74
I5
ssg75
g4292
sg68
(lp4299
S"<open file '/home/vishrut/web2py/applications/astra1/sessions/127.0.0.1-3ea7f370-71b8-4b79-b80d-e5c8cc6c433d', mode 'rb+' at 0x9a5fe90>"
p4300
asbasbasbag61
(g77
g63
NtRp4301
(dp4302
g66
(dp4303
sg75
g3701
sg68
(lp4304
g61
(g82
g63
NtRp4305
(dp4306
g66
(dp4307
g86
g87
ssg75
g4301
sg68
(lp4308
S'session_filename'
p4309
asbag61
(g82
g63
NtRp4310
(dp4311
g66
(dp4312
g93
g94
ssg75
g4301
sg68
(lp4313
S':'
asbag61
(g82
g63
NtRp4314
(dp4315
g66
(dp4316
sg75
g4301
sg68
(lp4317
g61
(g62
g63
NtRp4318
(dp4319
g66
(dp4320
g74
I5
ssg75
g4314
sg68
(lp4321
S'/home/vishrut/web2py/applications/astra1/sessions/127.0.0.1-3ea7f370-71b8-4b79-b80d-e5c8cc6c433d'
p4322
asbasbasbag61
(g77
g63
NtRp4323
(dp4324
g66
(dp4325
sg75
g3701
sg68
(lp4326
g61
(g82
g63
NtRp4327
(dp4328
g66
(dp4329
g86
g87
ssg75
g4323
sg68
(lp4330
S'session_id'
p4331
asbag61
(g82
g63
NtRp4332
(dp4333
g66
(dp4334
g93
g94
ssg75
g4323
sg68
(lp4335
S':'
asbag61
(g82
g63
NtRp4336
(dp4337
g66
(dp4338
sg75
g4323
sg68
(lp4339
g61
(g62
g63
NtRp4340
(dp4341
g66
(dp4342
g74
I5
ssg75
g4336
sg68
(lp4343
S'127.0.0.1-3ea7f370-71b8-4b79-b80d-e5c8cc6c433d'
p4344
asbasbasbag61
(g77
g63
NtRp4345
(dp4346
g66
(dp4347
sg75
g3701
sg68
(lp4348
g61
(g82
g63
NtRp4349
(dp4350
g66
(dp4351
g86
g87
ssg75
g4345
sg68
(lp4352
S'session_id_name'
p4353
asbag61
(g82
g63
NtRp4354
(dp4355
g66
(dp4356
g93
g94
ssg75
g4345
sg68
(lp4357
S':'
asbag61
(g82
g63
NtRp4358
(dp4359
g66
(dp4360
sg75
g4345
sg68
(lp4361
g61
(g62
g63
NtRp4362
(dp4363
g66
(dp4364
g74
I5
ssg75
g4358
sg68
(lp4365
g3758
asbasbasbag61
(g77
g63
NtRp4366
(dp4367
g66
(dp4368
sg75
g3701
sg68
(lp4369
g61
(g82
g63
NtRp4370
(dp4371
g66
(dp4372
g86
g87
ssg75
g4366
sg68
(lp4373
S'session_locked'
p4374
asbag61
(g82
g63
NtRp4375
(dp4376
g66
(dp4377
g93
g94
ssg75
g4366
sg68
(lp4378
S':'
asbag61
(g82
g63
NtRp4379
(dp4380
g66
(dp4381
sg75
g4366
sg68
(lp4382
g61
(g62
g63
NtRp4383
(dp4384
g66
(dp4385
g74
I5
ssg75
g4379
sg68
(lp4386
g2215
asbasbasbag61
(g77
g63
NtRp4387
(dp4388
g66
(dp4389
sg75
g3701
sg68
(lp4390
g61
(g82
g63
NtRp4391
(dp4392
g66
(dp4393
g86
g87
ssg75
g4387
sg68
(lp4394
S'session_new'
p4395
asbag61
(g82
g63
NtRp4396
(dp4397
g66
(dp4398
g93
g94
ssg75
g4387
sg68
(lp4399
S':'
asbag61
(g82
g63
NtRp4400
(dp4401
g66
(dp4402
sg75
g4387
sg68
(lp4403
g61
(g62
g63
NtRp4404
(dp4405
g66
(dp4406
g74
I5
ssg75
g4400
sg68
(lp4407
g104
asbasbasbag61
(g77
g63
NtRp4408
(dp4409
g66
(dp4410
sg75
g3701
sg68
(lp4411
g61
(g82
g63
NtRp4412
(dp4413
g66
(dp4414
g86
g87
ssg75
g4408
sg68
(lp4415
S'status'
p4416
asbag61
(g82
g63
NtRp4417
(dp4418
g66
(dp4419
g93
g94
ssg75
g4408
sg68
(lp4420
S':'
asbag61
(g82
g63
NtRp4421
(dp4422
g66
(dp4423
sg75
g4408
sg68
(lp4424
g61
(g62
g63
NtRp4425
(dp4426
g66
(dp4427
g74
I5
ssg75
g4421
sg68
(lp4428
S'200'
p4429
asbasbasbag61
(g77
g63
NtRp4430
(dp4431
g66
(dp4432
sg75
g3701
sg68
(lp4433
g61
(g82
g63
NtRp4434
(dp4435
g66
(dp4436
g86
g87
ssg75
g4430
sg68
(lp4437
g2879
asbag61
(g82
g63
NtRp4438
(dp4439
g66
(dp4440
g93
g94
ssg75
g4430
sg68
(lp4441
S':'
asbag61
(g82
g63
NtRp4442
(dp4443
g66
(dp4444
sg75
g4430
sg68
(lp4445
g61
(g62
g63
NtRp4446
(dp4447
g66
(dp4448
g74
I5
ssg75
g4442
sg68
(lp4449
g2892
asbasbasbag61
(g77
g63
NtRp4450
(dp4451
g66
(dp4452
sg75
g3701
sg68
(lp4453
g61
(g82
g63
NtRp4454
(dp4455
g66
(dp4456
g86
g87
ssg75
g4450
sg68
(lp4457
S'view'
p4458
asbag61
(g82
g63
NtRp4459
(dp4460
g66
(dp4461
g93
g94
ssg75
g4450
sg68
(lp4462
S':'
asbag61
(g82
g63
NtRp4463
(dp4464
g66
(dp4465
sg75
g4450
sg68
(lp4466
g61
(g62
g63
NtRp4467
(dp4468
g66
(dp4469
g74
I5
ssg75
g4463
sg68
(lp4470
S'default/index.html'
p4471
asbasbasbasbasbsS'locals'
p4472
(dp4473
S'a'
S"('ALTER TABLE kids ADD username CHAR(512) UNIQUE;',)"
p4474
sS'self'
p4475
S'<gluon.dal.SQLiteAdapter object>'
p4476
sS'b'
g21
sS't0'
p4477
S'1350210171.411485'
p4478
sssS'traceback'
p4479
S'Traceback (most recent call last):\n  File "/home/vishrut/web2py/gluon/restricted.py", line 205, in restricted\n    exec ccode in environment\n  File "/home/vishrut/web2py/applications/astra1/models/db.py", line 93, in <module>\n    Field(\'rno\',\'integer\')\n  File "/home/vishrut/web2py/gluon/dal.py", line 6320, in define_table\n    polymodel=polymodel)\n  File "/home/vishrut/web2py/gluon/dal.py", line 742, in create_table\n    fake_migrate=fake_migrate)\n  File "/home/vishrut/web2py/gluon/dal.py", line 830, in migrate_table\n    self.execute(sub_query)\n  File "/home/vishrut/web2py/gluon/dal.py", line 1392, in execute\n    return self.log_execute(*a, **b)\n  File "/home/vishrut/web2py/gluon/dal.py", line 1386, in log_execute\n    ret = self.cursor.execute(*a, **b)\nOperationalError: Cannot add a UNIQUE column\n'
p4480
s.