(dp1
S'output'
p2
S"<type 'exceptions.SyntaxError'> Field: unknown field type: passowrd for password"
p3
sS'layer'
p4
S'/home/vishrut/web2py/applications/astra1/models/db.py'
p5
sS'code'
p6
S'# -*- coding: utf-8 -*-\n\n#########################################################################\n## This scaffolding model makes your app work on Google App Engine too\n## File is released under public domain and you can use without limitations\n#########################################################################\n\n## if SSL/HTTPS is properly configured and you want all HTTP requests to\n## be redirected to HTTPS, uncomment the line below:\n# request.requires_https()\n\nif not request.env.web2py_runtime_gae:\n    ## if NOT running on Google App Engine use SQLite or other DB\n    db = DAL(\'sqlite://storage.sqlite\')\nelse:\n    ## connect to Google BigTable (optional \'google:datastore://namespace\')\n    db = DAL(\'google:datastore\')\n    ## store sessions and tickets there\n    session.connect(request, response, db = db)\n    ## or store session in Memcache, Redis, etc.\n    ## from gluon.contrib.memdb import MEMDB\n    ## from google.appengine.api.memcache import Client\n    ## session.connect(request, response, db = MEMDB(Client()))\n\n## by default give a view/generic.extension to all actions from localhost\n## none otherwise. a pattern can be \'controller/function.extension\'\nresponse.generic_patterns = [\'*\'] if request.is_local else []\n## (optional) optimize handling of static files\n# response.optimize_css = \'concat,minify,inline\'\n# response.optimize_js = \'concat,minify,inline\'\n\n#########################################################################\n## Here is sample code if you need for\n## - email capabilities\n## - authentication (registration, login, logout, ... )\n## - authorization (role based authorization)\n## - services (xml, csv, json, xmlrpc, jsonrpc, amf, rss)\n## - old style crud actions\n## (more options discussed in gluon/tools.py)\n#########################################################################\n\nfrom gluon.tools import Auth, Crud, Service, PluginManager, prettydate\nauth = Auth(db, hmac_key=Auth.get_or_create_key())\ncrud, service, plugins = Crud(db), Service(), PluginManager()\n\n## create all tables needed by auth if not custom tables\nauth.define_tables()\n\n## configure email\nmail=auth.settings.mailer\nmail.settings.server = \'logging\' or \'smtp.gmail.com:587\'\nmail.settings.sender = \'you@gmail.com\'\nmail.settings.login = \'username:password\'\n\n## configure auth policy\nauth.settings.registration_requires_verification = False\nauth.settings.registration_requires_approval = False\nauth.settings.reset_password_requires_verification = True\n\n## if you need to use OpenID, Facebook, MySpace, Twitter, Linkedin, etc.\n## register with janrain.com, write your domain:api_key in private/janrain.key\nfrom gluon.contrib.login_methods.rpx_account import use_janrain\nuse_janrain(auth,filename=\'private/janrain.key\')\n\n#########################################################################\n## Define your tables below (or better in another model file) for example\n##\n## >>> db.define_table(\'mytable\',Field(\'myfield\',\'string\'))\n##\n## Fields can be \'string\',\'text\',\'password\',\'integer\',\'double\',\'boolean\'\n##       \'date\',\'time\',\'datetime\',\'blob\',\'upload\', \'reference TABLENAME\'\n## There is an implicit \'id integer autoincrement\' field\n## Consult manual for more options, validators, etc.\n##\n## More API examples for controllers:\n##\n## >>> db.mytable.insert(myfield=\'value\')\n## >>> rows=db(db.mytable.myfield==\'value\').select(db.mytable.ALL)\n## >>> for row in rows: print row.id, row.myfield\n#########################################################################\n\nfrom gluon.tools import Crud\ncrud = Crud(db)\nfrom gluon.tools import Auth\nauth = Auth(db, hmac_key=Auth.get_or_create_key())\n\nauth.define_tables()\nauth.add_group(\'role\',\'description\')\n\ndb.define_table(\'kids\',\n                Field(\'username\',unique=True),\n                Field(\'password\',"passowrd")\n          #      Field(\'rno\',\'integer\')\n                #format=\'%(username)s\'\n                )\n                \ndb.define_table(\'rooms\',\n                Field(\'rnum\',\'integer\',unique=True),\n                Field(\'vidurl\'),\n                format=\'%(rnum)s\')\n\ndb.kids.username.requires=IS_NOT_EMPTY()\n#db.rooms.rnum.requires=IS_NOT_EMPTY()\n#db.rooms.vidurl.requires=IS_NOT_EMPTY()\n#db.kids.rno.requires=IS_IN_DB(db, db.rooms.id, \'%(username)s\')\n'
p7
sS'snapshot'
p8
(dp9
S'exception'
p10
(dp11
S'__getslice__'
p12
S"<method-wrapper '__getslice__' of exceptions.SyntaxError object>"
p13
sS'text'
p14
S'None'
p15
sS'__str__'
p16
S"<method-wrapper '__str__' of exceptions.SyntaxError object>"
p17
sS'__reduce__'
p18
S'<built-in method __reduce__ of exceptions.SyntaxError object>'
p19
sS'__dict__'
p20
S'{}'
p21
sS'__sizeof__'
p22
S'<built-in method __sizeof__ of exceptions.SyntaxError object>'
p23
sS'__init__'
p24
S"<method-wrapper '__init__' of exceptions.SyntaxError object>"
p25
sS'__setattr__'
p26
S"<method-wrapper '__setattr__' of exceptions.SyntaxError object>"
p27
sS'__reduce_ex__'
p28
S'<built-in method __reduce_ex__ of exceptions.SyntaxError object>'
p29
sS'__new__'
p30
S'<built-in method __new__ of type object>'
p31
sS'__format__'
p32
S'<built-in method __format__ of exceptions.SyntaxError object>'
p33
sS'__class__'
p34
S"<type 'exceptions.SyntaxError'>"
p35
sS'filename'
p36
S'None'
p37
sS'lineno'
p38
S'None'
p39
sS'msg'
p40
S"'Field: unknown field type: passowrd for password'"
p41
sS'__doc__'
p42
S"'Invalid syntax.'"
p43
sS'__getitem__'
p44
S"<method-wrapper '__getitem__' of exceptions.SyntaxError object>"
p45
sS'__setstate__'
p46
S'<built-in method __setstate__ of exceptions.SyntaxError object>'
p47
sS'__getattribute__'
p48
S"<method-wrapper '__getattribute__' of exceptions.SyntaxError object>"
p49
sS'print_file_and_line'
p50
S'None'
p51
sS'args'
p52
S"('Field: unknown field type: passowrd for password',)"
p53
sS'__subclasshook__'
p54
S'<built-in method __subclasshook__ of type object>'
p55
sS'offset'
p56
S'None'
p57
sS'__unicode__'
p58
S'<built-in method __unicode__ of exceptions.SyntaxError object>'
p59
sS'__delattr__'
p60
S"<method-wrapper '__delattr__' of exceptions.SyntaxError object>"
p61
sS'__repr__'
p62
S"<method-wrapper '__repr__' of exceptions.SyntaxError object>"
p63
sS'__hash__'
p64
S"<method-wrapper '__hash__' of exceptions.SyntaxError object>"
p65
ssS'evalue'
p66
S'Field: unknown field type: passowrd for password'
p67
sS'request'
p68
ccopy_reg
_reconstructor
p69
(cgluon.html
BEAUTIFY
p70
c__builtin__
object
p71
NtRp72
(dp73
S'attributes'
p74
(dp75
sS'components'
p76
(lp77
g69
(cgluon.html
TABLE
p78
g71
NtRp79
(dp80
g74
(dp81
S'level'
p82
I5
ssS'parent'
p83
Nsg76
(lp84
g69
(cgluon.html
TR
p85
g71
NtRp86
(dp87
g74
(dp88
sg83
g79
sg76
(lp89
g69
(cgluon.html
TD
p90
g71
NtRp91
(dp92
g74
(dp93
S'_style'
p94
S'font-weight:bold;vertical-align:top'
p95
ssg83
g86
sg76
(lp96
S'ajax'
p97
asbag69
(g90
g71
NtRp98
(dp99
g74
(dp100
S'_valign'
p101
S'top'
p102
ssg83
g86
sg76
(lp103
S':'
asbag69
(g90
g71
NtRp104
(dp105
g74
(dp106
sg83
g86
sg76
(lp107
g69
(g70
g71
NtRp108
(dp109
g74
(dp110
g82
I5
ssg83
g104
sg76
(lp111
S'False'
p112
asbasbasbag69
(g85
g71
NtRp113
(dp114
g74
(dp115
sg83
g79
sg76
(lp116
g69
(g90
g71
NtRp117
(dp118
g74
(dp119
g94
g95
ssg83
g113
sg76
(lp120
S'application'
p121
asbag69
(g90
g71
NtRp122
(dp123
g74
(dp124
g101
g102
ssg83
g113
sg76
(lp125
S':'
asbag69
(g90
g71
NtRp126
(dp127
g74
(dp128
sg83
g113
sg76
(lp129
g69
(g70
g71
NtRp130
(dp131
g74
(dp132
g82
I5
ssg83
g126
sg76
(lp133
S'astra1'
p134
asbasbasbag69
(g85
g71
NtRp135
(dp136
g74
(dp137
sg83
g79
sg76
(lp138
g69
(g90
g71
NtRp139
(dp140
g74
(dp141
g94
g95
ssg83
g135
sg76
(lp142
g52
asbag69
(g90
g71
NtRp143
(dp144
g74
(dp145
g101
g102
ssg83
g135
sg76
(lp146
S':'
asbag69
(g90
g71
NtRp147
(dp148
g74
(dp149
sg83
g135
sg76
(lp150
g69
(g70
g71
NtRp151
(dp152
g74
(dp153
g82
I5
ssg83
g147
sg76
(lp154
g69
(g78
g71
NtRp155
(dp156
g74
(dp157
g82
I4
ssg83
Nsg76
(lp158
sbasbasbasbag69
(g85
g71
NtRp159
(dp160
g74
(dp161
sg83
g79
sg76
(lp162
g69
(g90
g71
NtRp163
(dp164
g74
(dp165
g94
g95
ssg83
g159
sg76
(lp166
S'body'
p167
asbag69
(g90
g71
NtRp168
(dp169
g74
(dp170
g101
g102
ssg83
g159
sg76
(lp171
S':'
asbag69
(g90
g71
NtRp172
(dp173
g74
(dp174
sg83
g159
sg76
(lp175
g69
(g70
g71
NtRp176
(dp177
g74
(dp178
g82
I5
ssg83
g172
sg76
(lp179
S"<open file '<fdopen>', mode 'w+b' at 0x90073e8>"
p180
asbasbasbag69
(g85
g71
NtRp181
(dp182
g74
(dp183
sg83
g79
sg76
(lp184
g69
(g90
g71
NtRp185
(dp186
g74
(dp187
g94
g95
ssg83
g181
sg76
(lp188
S'client'
p189
asbag69
(g90
g71
NtRp190
(dp191
g74
(dp192
g101
g102
ssg83
g181
sg76
(lp193
S':'
asbag69
(g90
g71
NtRp194
(dp195
g74
(dp196
sg83
g181
sg76
(lp197
g69
(g70
g71
NtRp198
(dp199
g74
(dp200
g82
I5
ssg83
g194
sg76
(lp201
S'127.0.0.1'
p202
asbasbasbag69
(g85
g71
NtRp203
(dp204
g74
(dp205
sg83
g79
sg76
(lp206
g69
(g90
g71
NtRp207
(dp208
g74
(dp209
g94
g95
ssg83
g203
sg76
(lp210
S'controller'
p211
asbag69
(g90
g71
NtRp212
(dp213
g74
(dp214
g101
g102
ssg83
g203
sg76
(lp215
S':'
asbag69
(g90
g71
NtRp216
(dp217
g74
(dp218
sg83
g203
sg76
(lp219
g69
(g70
g71
NtRp220
(dp221
g74
(dp222
g82
I5
ssg83
g216
sg76
(lp223
S'default'
p224
asbasbasbag69
(g85
g71
NtRp225
(dp226
g74
(dp227
sg83
g79
sg76
(lp228
g69
(g90
g71
NtRp229
(dp230
g74
(dp231
g94
g95
ssg83
g225
sg76
(lp232
S'cookies'
p233
asbag69
(g90
g71
NtRp234
(dp235
g74
(dp236
g101
g102
ssg83
g225
sg76
(lp237
S':'
asbag69
(g90
g71
NtRp238
(dp239
g74
(dp240
sg83
g225
sg76
(lp241
g69
(g70
g71
NtRp242
(dp243
g74
(dp244
g82
I5
ssg83
g238
sg76
(lp245
g69
(g78
g71
NtRp246
(dp247
g74
(dp248
g82
I4
ssg83
Nsg76
(lp249
g69
(g85
g71
NtRp250
(dp251
g74
(dp252
sg83
g246
sg76
(lp253
g69
(g90
g71
NtRp254
(dp255
g74
(dp256
g94
g95
ssg83
g250
sg76
(lp257
S'session_id_admin'
p258
asbag69
(g90
g71
NtRp259
(dp260
g74
(dp261
g101
g102
ssg83
g250
sg76
(lp262
S':'
asbag69
(g90
g71
NtRp263
(dp264
g74
(dp265
sg83
g250
sg76
(lp266
g69
(g70
g71
NtRp267
(dp268
g74
(dp269
g82
I4
ssg83
g263
sg76
(lp270
g69
(g78
g71
NtRp271
(dp272
g74
(dp273
g82
I3
ssg83
Nsg76
(lp274
g69
(g85
g71
NtRp275
(dp276
g74
(dp277
sg83
g271
sg76
(lp278
g69
(g90
g71
NtRp279
(dp280
g74
(dp281
g94
g95
ssg83
g275
sg76
(lp282
S'comment'
p283
asbag69
(g90
g71
NtRp284
(dp285
g74
(dp286
g101
g102
ssg83
g275
sg76
(lp287
S':'
asbag69
(g90
g71
NtRp288
(dp289
g74
(dp290
sg83
g275
sg76
(lp291
g69
(g70
g71
NtRp292
(dp293
g74
(dp294
g82
I3
ssg83
g288
sg76
(lp295
S''
asbasbasbag69
(g85
g71
NtRp296
(dp297
g74
(dp298
sg83
g271
sg76
(lp299
g69
(g90
g71
NtRp300
(dp301
g74
(dp302
g94
g95
ssg83
g296
sg76
(lp303
S'domain'
p304
asbag69
(g90
g71
NtRp305
(dp306
g74
(dp307
g101
g102
ssg83
g296
sg76
(lp308
S':'
asbag69
(g90
g71
NtRp309
(dp310
g74
(dp311
sg83
g296
sg76
(lp312
g69
(g70
g71
NtRp313
(dp314
g74
(dp315
g82
I3
ssg83
g309
sg76
(lp316
S''
asbasbasbag69
(g85
g71
NtRp317
(dp318
g74
(dp319
sg83
g271
sg76
(lp320
g69
(g90
g71
NtRp321
(dp322
g74
(dp323
g94
g95
ssg83
g317
sg76
(lp324
S'expires'
p325
asbag69
(g90
g71
NtRp326
(dp327
g74
(dp328
g101
g102
ssg83
g317
sg76
(lp329
S':'
asbag69
(g90
g71
NtRp330
(dp331
g74
(dp332
sg83
g317
sg76
(lp333
g69
(g70
g71
NtRp334
(dp335
g74
(dp336
g82
I3
ssg83
g330
sg76
(lp337
S''
asbasbasbag69
(g85
g71
NtRp338
(dp339
g74
(dp340
sg83
g271
sg76
(lp341
g69
(g90
g71
NtRp342
(dp343
g74
(dp344
g94
g95
ssg83
g338
sg76
(lp345
S'httponly'
p346
asbag69
(g90
g71
NtRp347
(dp348
g74
(dp349
g101
g102
ssg83
g338
sg76
(lp350
S':'
asbag69
(g90
g71
NtRp351
(dp352
g74
(dp353
sg83
g338
sg76
(lp354
g69
(g70
g71
NtRp355
(dp356
g74
(dp357
g82
I3
ssg83
g351
sg76
(lp358
S''
asbasbasbag69
(g85
g71
NtRp359
(dp360
g74
(dp361
sg83
g271
sg76
(lp362
g69
(g90
g71
NtRp363
(dp364
g74
(dp365
g94
g95
ssg83
g359
sg76
(lp366
S'max-age'
p367
asbag69
(g90
g71
NtRp368
(dp369
g74
(dp370
g101
g102
ssg83
g359
sg76
(lp371
S':'
asbag69
(g90
g71
NtRp372
(dp373
g74
(dp374
sg83
g359
sg76
(lp375
g69
(g70
g71
NtRp376
(dp377
g74
(dp378
g82
I3
ssg83
g372
sg76
(lp379
S''
asbasbasbag69
(g85
g71
NtRp380
(dp381
g74
(dp382
sg83
g271
sg76
(lp383
g69
(g90
g71
NtRp384
(dp385
g74
(dp386
g94
g95
ssg83
g380
sg76
(lp387
S'path'
p388
asbag69
(g90
g71
NtRp389
(dp390
g74
(dp391
g101
g102
ssg83
g380
sg76
(lp392
S':'
asbag69
(g90
g71
NtRp393
(dp394
g74
(dp395
sg83
g380
sg76
(lp396
g69
(g70
g71
NtRp397
(dp398
g74
(dp399
g82
I3
ssg83
g393
sg76
(lp400
S''
asbasbasbag69
(g85
g71
NtRp401
(dp402
g74
(dp403
sg83
g271
sg76
(lp404
g69
(g90
g71
NtRp405
(dp406
g74
(dp407
g94
g95
ssg83
g401
sg76
(lp408
S'secure'
p409
asbag69
(g90
g71
NtRp410
(dp411
g74
(dp412
g101
g102
ssg83
g401
sg76
(lp413
S':'
asbag69
(g90
g71
NtRp414
(dp415
g74
(dp416
sg83
g401
sg76
(lp417
g69
(g70
g71
NtRp418
(dp419
g74
(dp420
g82
I3
ssg83
g414
sg76
(lp421
S''
asbasbasbag69
(g85
g71
NtRp422
(dp423
g74
(dp424
sg83
g271
sg76
(lp425
g69
(g90
g71
NtRp426
(dp427
g74
(dp428
g94
g95
ssg83
g422
sg76
(lp429
S'version'
p430
asbag69
(g90
g71
NtRp431
(dp432
g74
(dp433
g101
g102
ssg83
g422
sg76
(lp434
S':'
asbag69
(g90
g71
NtRp435
(dp436
g74
(dp437
sg83
g422
sg76
(lp438
g69
(g70
g71
NtRp439
(dp440
g74
(dp441
g82
I3
ssg83
g435
sg76
(lp442
S''
asbasbasbasbasbasbasbag69
(g85
g71
NtRp443
(dp444
g74
(dp445
sg83
g246
sg76
(lp446
g69
(g90
g71
NtRp447
(dp448
g74
(dp449
g94
g95
ssg83
g443
sg76
(lp450
S'session_id_astra1'
p451
asbag69
(g90
g71
NtRp452
(dp453
g74
(dp454
g101
g102
ssg83
g443
sg76
(lp455
S':'
asbag69
(g90
g71
NtRp456
(dp457
g74
(dp458
sg83
g443
sg76
(lp459
g69
(g70
g71
NtRp460
(dp461
g74
(dp462
g82
I4
ssg83
g456
sg76
(lp463
g69
(g78
g71
NtRp464
(dp465
g74
(dp466
g82
I3
ssg83
Nsg76
(lp467
g69
(g85
g71
NtRp468
(dp469
g74
(dp470
sg83
g464
sg76
(lp471
g69
(g90
g71
NtRp472
(dp473
g74
(dp474
g94
g95
ssg83
g468
sg76
(lp475
g283
asbag69
(g90
g71
NtRp476
(dp477
g74
(dp478
g101
g102
ssg83
g468
sg76
(lp479
S':'
asbag69
(g90
g71
NtRp480
(dp481
g74
(dp482
sg83
g468
sg76
(lp483
g69
(g70
g71
NtRp484
(dp485
g74
(dp486
g82
I3
ssg83
g480
sg76
(lp487
S''
asbasbasbag69
(g85
g71
NtRp488
(dp489
g74
(dp490
sg83
g464
sg76
(lp491
g69
(g90
g71
NtRp492
(dp493
g74
(dp494
g94
g95
ssg83
g488
sg76
(lp495
g304
asbag69
(g90
g71
NtRp496
(dp497
g74
(dp498
g101
g102
ssg83
g488
sg76
(lp499
S':'
asbag69
(g90
g71
NtRp500
(dp501
g74
(dp502
sg83
g488
sg76
(lp503
g69
(g70
g71
NtRp504
(dp505
g74
(dp506
g82
I3
ssg83
g500
sg76
(lp507
S''
asbasbasbag69
(g85
g71
NtRp508
(dp509
g74
(dp510
sg83
g464
sg76
(lp511
g69
(g90
g71
NtRp512
(dp513
g74
(dp514
g94
g95
ssg83
g508
sg76
(lp515
g325
asbag69
(g90
g71
NtRp516
(dp517
g74
(dp518
g101
g102
ssg83
g508
sg76
(lp519
S':'
asbag69
(g90
g71
NtRp520
(dp521
g74
(dp522
sg83
g508
sg76
(lp523
g69
(g70
g71
NtRp524
(dp525
g74
(dp526
g82
I3
ssg83
g520
sg76
(lp527
S''
asbasbasbag69
(g85
g71
NtRp528
(dp529
g74
(dp530
sg83
g464
sg76
(lp531
g69
(g90
g71
NtRp532
(dp533
g74
(dp534
g94
g95
ssg83
g528
sg76
(lp535
g346
asbag69
(g90
g71
NtRp536
(dp537
g74
(dp538
g101
g102
ssg83
g528
sg76
(lp539
S':'
asbag69
(g90
g71
NtRp540
(dp541
g74
(dp542
sg83
g528
sg76
(lp543
g69
(g70
g71
NtRp544
(dp545
g74
(dp546
g82
I3
ssg83
g540
sg76
(lp547
S''
asbasbasbag69
(g85
g71
NtRp548
(dp549
g74
(dp550
sg83
g464
sg76
(lp551
g69
(g90
g71
NtRp552
(dp553
g74
(dp554
g94
g95
ssg83
g548
sg76
(lp555
g367
asbag69
(g90
g71
NtRp556
(dp557
g74
(dp558
g101
g102
ssg83
g548
sg76
(lp559
S':'
asbag69
(g90
g71
NtRp560
(dp561
g74
(dp562
sg83
g548
sg76
(lp563
g69
(g70
g71
NtRp564
(dp565
g74
(dp566
g82
I3
ssg83
g560
sg76
(lp567
S''
asbasbasbag69
(g85
g71
NtRp568
(dp569
g74
(dp570
sg83
g464
sg76
(lp571
g69
(g90
g71
NtRp572
(dp573
g74
(dp574
g94
g95
ssg83
g568
sg76
(lp575
g388
asbag69
(g90
g71
NtRp576
(dp577
g74
(dp578
g101
g102
ssg83
g568
sg76
(lp579
S':'
asbag69
(g90
g71
NtRp580
(dp581
g74
(dp582
sg83
g568
sg76
(lp583
g69
(g70
g71
NtRp584
(dp585
g74
(dp586
g82
I3
ssg83
g580
sg76
(lp587
S''
asbasbasbag69
(g85
g71
NtRp588
(dp589
g74
(dp590
sg83
g464
sg76
(lp591
g69
(g90
g71
NtRp592
(dp593
g74
(dp594
g94
g95
ssg83
g588
sg76
(lp595
g409
asbag69
(g90
g71
NtRp596
(dp597
g74
(dp598
g101
g102
ssg83
g588
sg76
(lp599
S':'
asbag69
(g90
g71
NtRp600
(dp601
g74
(dp602
sg83
g588
sg76
(lp603
g69
(g70
g71
NtRp604
(dp605
g74
(dp606
g82
I3
ssg83
g600
sg76
(lp607
S''
asbasbasbag69
(g85
g71
NtRp608
(dp609
g74
(dp610
sg83
g464
sg76
(lp611
g69
(g90
g71
NtRp612
(dp613
g74
(dp614
g94
g95
ssg83
g608
sg76
(lp615
g430
asbag69
(g90
g71
NtRp616
(dp617
g74
(dp618
g101
g102
ssg83
g608
sg76
(lp619
S':'
asbag69
(g90
g71
NtRp620
(dp621
g74
(dp622
sg83
g608
sg76
(lp623
g69
(g70
g71
NtRp624
(dp625
g74
(dp626
g82
I3
ssg83
g620
sg76
(lp627
S''
asbasbasbasbasbasbasbag69
(g85
g71
NtRp628
(dp629
g74
(dp630
sg83
g246
sg76
(lp631
g69
(g90
g71
NtRp632
(dp633
g74
(dp634
g94
g95
ssg83
g628
sg76
(lp635
S'session_id_music'
p636
asbag69
(g90
g71
NtRp637
(dp638
g74
(dp639
g101
g102
ssg83
g628
sg76
(lp640
S':'
asbag69
(g90
g71
NtRp641
(dp642
g74
(dp643
sg83
g628
sg76
(lp644
g69
(g70
g71
NtRp645
(dp646
g74
(dp647
g82
I4
ssg83
g641
sg76
(lp648
g69
(g78
g71
NtRp649
(dp650
g74
(dp651
g82
I3
ssg83
Nsg76
(lp652
g69
(g85
g71
NtRp653
(dp654
g74
(dp655
sg83
g649
sg76
(lp656
g69
(g90
g71
NtRp657
(dp658
g74
(dp659
g94
g95
ssg83
g653
sg76
(lp660
g283
asbag69
(g90
g71
NtRp661
(dp662
g74
(dp663
g101
g102
ssg83
g653
sg76
(lp664
S':'
asbag69
(g90
g71
NtRp665
(dp666
g74
(dp667
sg83
g653
sg76
(lp668
g69
(g70
g71
NtRp669
(dp670
g74
(dp671
g82
I3
ssg83
g665
sg76
(lp672
S''
asbasbasbag69
(g85
g71
NtRp673
(dp674
g74
(dp675
sg83
g649
sg76
(lp676
g69
(g90
g71
NtRp677
(dp678
g74
(dp679
g94
g95
ssg83
g673
sg76
(lp680
g304
asbag69
(g90
g71
NtRp681
(dp682
g74
(dp683
g101
g102
ssg83
g673
sg76
(lp684
S':'
asbag69
(g90
g71
NtRp685
(dp686
g74
(dp687
sg83
g673
sg76
(lp688
g69
(g70
g71
NtRp689
(dp690
g74
(dp691
g82
I3
ssg83
g685
sg76
(lp692
S''
asbasbasbag69
(g85
g71
NtRp693
(dp694
g74
(dp695
sg83
g649
sg76
(lp696
g69
(g90
g71
NtRp697
(dp698
g74
(dp699
g94
g95
ssg83
g693
sg76
(lp700
g325
asbag69
(g90
g71
NtRp701
(dp702
g74
(dp703
g101
g102
ssg83
g693
sg76
(lp704
S':'
asbag69
(g90
g71
NtRp705
(dp706
g74
(dp707
sg83
g693
sg76
(lp708
g69
(g70
g71
NtRp709
(dp710
g74
(dp711
g82
I3
ssg83
g705
sg76
(lp712
S''
asbasbasbag69
(g85
g71
NtRp713
(dp714
g74
(dp715
sg83
g649
sg76
(lp716
g69
(g90
g71
NtRp717
(dp718
g74
(dp719
g94
g95
ssg83
g713
sg76
(lp720
g346
asbag69
(g90
g71
NtRp721
(dp722
g74
(dp723
g101
g102
ssg83
g713
sg76
(lp724
S':'
asbag69
(g90
g71
NtRp725
(dp726
g74
(dp727
sg83
g713
sg76
(lp728
g69
(g70
g71
NtRp729
(dp730
g74
(dp731
g82
I3
ssg83
g725
sg76
(lp732
S''
asbasbasbag69
(g85
g71
NtRp733
(dp734
g74
(dp735
sg83
g649
sg76
(lp736
g69
(g90
g71
NtRp737
(dp738
g74
(dp739
g94
g95
ssg83
g733
sg76
(lp740
g367
asbag69
(g90
g71
NtRp741
(dp742
g74
(dp743
g101
g102
ssg83
g733
sg76
(lp744
S':'
asbag69
(g90
g71
NtRp745
(dp746
g74
(dp747
sg83
g733
sg76
(lp748
g69
(g70
g71
NtRp749
(dp750
g74
(dp751
g82
I3
ssg83
g745
sg76
(lp752
S''
asbasbasbag69
(g85
g71
NtRp753
(dp754
g74
(dp755
sg83
g649
sg76
(lp756
g69
(g90
g71
NtRp757
(dp758
g74
(dp759
g94
g95
ssg83
g753
sg76
(lp760
g388
asbag69
(g90
g71
NtRp761
(dp762
g74
(dp763
g101
g102
ssg83
g753
sg76
(lp764
S':'
asbag69
(g90
g71
NtRp765
(dp766
g74
(dp767
sg83
g753
sg76
(lp768
g69
(g70
g71
NtRp769
(dp770
g74
(dp771
g82
I3
ssg83
g765
sg76
(lp772
S''
asbasbasbag69
(g85
g71
NtRp773
(dp774
g74
(dp775
sg83
g649
sg76
(lp776
g69
(g90
g71
NtRp777
(dp778
g74
(dp779
g94
g95
ssg83
g773
sg76
(lp780
g409
asbag69
(g90
g71
NtRp781
(dp782
g74
(dp783
g101
g102
ssg83
g773
sg76
(lp784
S':'
asbag69
(g90
g71
NtRp785
(dp786
g74
(dp787
sg83
g773
sg76
(lp788
g69
(g70
g71
NtRp789
(dp790
g74
(dp791
g82
I3
ssg83
g785
sg76
(lp792
S''
asbasbasbag69
(g85
g71
NtRp793
(dp794
g74
(dp795
sg83
g649
sg76
(lp796
g69
(g90
g71
NtRp797
(dp798
g74
(dp799
g94
g95
ssg83
g793
sg76
(lp800
g430
asbag69
(g90
g71
NtRp801
(dp802
g74
(dp803
g101
g102
ssg83
g793
sg76
(lp804
S':'
asbag69
(g90
g71
NtRp805
(dp806
g74
(dp807
sg83
g793
sg76
(lp808
g69
(g70
g71
NtRp809
(dp810
g74
(dp811
g82
I3
ssg83
g805
sg76
(lp812
S''
asbasbasbasbasbasbasbag69
(g85
g71
NtRp813
(dp814
g74
(dp815
sg83
g246
sg76
(lp816
g69
(g90
g71
NtRp817
(dp818
g74
(dp819
g94
g95
ssg83
g813
sg76
(lp820
S'session_id_photouploader'
p821
asbag69
(g90
g71
NtRp822
(dp823
g74
(dp824
g101
g102
ssg83
g813
sg76
(lp825
S':'
asbag69
(g90
g71
NtRp826
(dp827
g74
(dp828
sg83
g813
sg76
(lp829
g69
(g70
g71
NtRp830
(dp831
g74
(dp832
g82
I4
ssg83
g826
sg76
(lp833
g69
(g78
g71
NtRp834
(dp835
g74
(dp836
g82
I3
ssg83
Nsg76
(lp837
g69
(g85
g71
NtRp838
(dp839
g74
(dp840
sg83
g834
sg76
(lp841
g69
(g90
g71
NtRp842
(dp843
g74
(dp844
g94
g95
ssg83
g838
sg76
(lp845
g283
asbag69
(g90
g71
NtRp846
(dp847
g74
(dp848
g101
g102
ssg83
g838
sg76
(lp849
S':'
asbag69
(g90
g71
NtRp850
(dp851
g74
(dp852
sg83
g838
sg76
(lp853
g69
(g70
g71
NtRp854
(dp855
g74
(dp856
g82
I3
ssg83
g850
sg76
(lp857
S''
asbasbasbag69
(g85
g71
NtRp858
(dp859
g74
(dp860
sg83
g834
sg76
(lp861
g69
(g90
g71
NtRp862
(dp863
g74
(dp864
g94
g95
ssg83
g858
sg76
(lp865
g304
asbag69
(g90
g71
NtRp866
(dp867
g74
(dp868
g101
g102
ssg83
g858
sg76
(lp869
S':'
asbag69
(g90
g71
NtRp870
(dp871
g74
(dp872
sg83
g858
sg76
(lp873
g69
(g70
g71
NtRp874
(dp875
g74
(dp876
g82
I3
ssg83
g870
sg76
(lp877
S''
asbasbasbag69
(g85
g71
NtRp878
(dp879
g74
(dp880
sg83
g834
sg76
(lp881
g69
(g90
g71
NtRp882
(dp883
g74
(dp884
g94
g95
ssg83
g878
sg76
(lp885
g325
asbag69
(g90
g71
NtRp886
(dp887
g74
(dp888
g101
g102
ssg83
g878
sg76
(lp889
S':'
asbag69
(g90
g71
NtRp890
(dp891
g74
(dp892
sg83
g878
sg76
(lp893
g69
(g70
g71
NtRp894
(dp895
g74
(dp896
g82
I3
ssg83
g890
sg76
(lp897
S''
asbasbasbag69
(g85
g71
NtRp898
(dp899
g74
(dp900
sg83
g834
sg76
(lp901
g69
(g90
g71
NtRp902
(dp903
g74
(dp904
g94
g95
ssg83
g898
sg76
(lp905
g346
asbag69
(g90
g71
NtRp906
(dp907
g74
(dp908
g101
g102
ssg83
g898
sg76
(lp909
S':'
asbag69
(g90
g71
NtRp910
(dp911
g74
(dp912
sg83
g898
sg76
(lp913
g69
(g70
g71
NtRp914
(dp915
g74
(dp916
g82
I3
ssg83
g910
sg76
(lp917
S''
asbasbasbag69
(g85
g71
NtRp918
(dp919
g74
(dp920
sg83
g834
sg76
(lp921
g69
(g90
g71
NtRp922
(dp923
g74
(dp924
g94
g95
ssg83
g918
sg76
(lp925
g367
asbag69
(g90
g71
NtRp926
(dp927
g74
(dp928
g101
g102
ssg83
g918
sg76
(lp929
S':'
asbag69
(g90
g71
NtRp930
(dp931
g74
(dp932
sg83
g918
sg76
(lp933
g69
(g70
g71
NtRp934
(dp935
g74
(dp936
g82
I3
ssg83
g930
sg76
(lp937
S''
asbasbasbag69
(g85
g71
NtRp938
(dp939
g74
(dp940
sg83
g834
sg76
(lp941
g69
(g90
g71
NtRp942
(dp943
g74
(dp944
g94
g95
ssg83
g938
sg76
(lp945
g388
asbag69
(g90
g71
NtRp946
(dp947
g74
(dp948
g101
g102
ssg83
g938
sg76
(lp949
S':'
asbag69
(g90
g71
NtRp950
(dp951
g74
(dp952
sg83
g938
sg76
(lp953
g69
(g70
g71
NtRp954
(dp955
g74
(dp956
g82
I3
ssg83
g950
sg76
(lp957
S''
asbasbasbag69
(g85
g71
NtRp958
(dp959
g74
(dp960
sg83
g834
sg76
(lp961
g69
(g90
g71
NtRp962
(dp963
g74
(dp964
g94
g95
ssg83
g958
sg76
(lp965
g409
asbag69
(g90
g71
NtRp966
(dp967
g74
(dp968
g101
g102
ssg83
g958
sg76
(lp969
S':'
asbag69
(g90
g71
NtRp970
(dp971
g74
(dp972
sg83
g958
sg76
(lp973
g69
(g70
g71
NtRp974
(dp975
g74
(dp976
g82
I3
ssg83
g970
sg76
(lp977
S''
asbasbasbag69
(g85
g71
NtRp978
(dp979
g74
(dp980
sg83
g834
sg76
(lp981
g69
(g90
g71
NtRp982
(dp983
g74
(dp984
g94
g95
ssg83
g978
sg76
(lp985
g430
asbag69
(g90
g71
NtRp986
(dp987
g74
(dp988
g101
g102
ssg83
g978
sg76
(lp989
S':'
asbag69
(g90
g71
NtRp990
(dp991
g74
(dp992
sg83
g978
sg76
(lp993
g69
(g70
g71
NtRp994
(dp995
g74
(dp996
g82
I3
ssg83
g990
sg76
(lp997
S''
asbasbasbasbasbasbasbag69
(g85
g71
NtRp998
(dp999
g74
(dp1000
sg83
g246
sg76
(lp1001
g69
(g90
g71
NtRp1002
(dp1003
g74
(dp1004
g94
g95
ssg83
g998
sg76
(lp1005
S'session_id_sudoku'
p1006
asbag69
(g90
g71
NtRp1007
(dp1008
g74
(dp1009
g101
g102
ssg83
g998
sg76
(lp1010
S':'
asbag69
(g90
g71
NtRp1011
(dp1012
g74
(dp1013
sg83
g998
sg76
(lp1014
g69
(g70
g71
NtRp1015
(dp1016
g74
(dp1017
g82
I4
ssg83
g1011
sg76
(lp1018
g69
(g78
g71
NtRp1019
(dp1020
g74
(dp1021
g82
I3
ssg83
Nsg76
(lp1022
g69
(g85
g71
NtRp1023
(dp1024
g74
(dp1025
sg83
g1019
sg76
(lp1026
g69
(g90
g71
NtRp1027
(dp1028
g74
(dp1029
g94
g95
ssg83
g1023
sg76
(lp1030
g283
asbag69
(g90
g71
NtRp1031
(dp1032
g74
(dp1033
g101
g102
ssg83
g1023
sg76
(lp1034
S':'
asbag69
(g90
g71
NtRp1035
(dp1036
g74
(dp1037
sg83
g1023
sg76
(lp1038
g69
(g70
g71
NtRp1039
(dp1040
g74
(dp1041
g82
I3
ssg83
g1035
sg76
(lp1042
S''
asbasbasbag69
(g85
g71
NtRp1043
(dp1044
g74
(dp1045
sg83
g1019
sg76
(lp1046
g69
(g90
g71
NtRp1047
(dp1048
g74
(dp1049
g94
g95
ssg83
g1043
sg76
(lp1050
g304
asbag69
(g90
g71
NtRp1051
(dp1052
g74
(dp1053
g101
g102
ssg83
g1043
sg76
(lp1054
S':'
asbag69
(g90
g71
NtRp1055
(dp1056
g74
(dp1057
sg83
g1043
sg76
(lp1058
g69
(g70
g71
NtRp1059
(dp1060
g74
(dp1061
g82
I3
ssg83
g1055
sg76
(lp1062
S''
asbasbasbag69
(g85
g71
NtRp1063
(dp1064
g74
(dp1065
sg83
g1019
sg76
(lp1066
g69
(g90
g71
NtRp1067
(dp1068
g74
(dp1069
g94
g95
ssg83
g1063
sg76
(lp1070
g325
asbag69
(g90
g71
NtRp1071
(dp1072
g74
(dp1073
g101
g102
ssg83
g1063
sg76
(lp1074
S':'
asbag69
(g90
g71
NtRp1075
(dp1076
g74
(dp1077
sg83
g1063
sg76
(lp1078
g69
(g70
g71
NtRp1079
(dp1080
g74
(dp1081
g82
I3
ssg83
g1075
sg76
(lp1082
S''
asbasbasbag69
(g85
g71
NtRp1083
(dp1084
g74
(dp1085
sg83
g1019
sg76
(lp1086
g69
(g90
g71
NtRp1087
(dp1088
g74
(dp1089
g94
g95
ssg83
g1083
sg76
(lp1090
g346
asbag69
(g90
g71
NtRp1091
(dp1092
g74
(dp1093
g101
g102
ssg83
g1083
sg76
(lp1094
S':'
asbag69
(g90
g71
NtRp1095
(dp1096
g74
(dp1097
sg83
g1083
sg76
(lp1098
g69
(g70
g71
NtRp1099
(dp1100
g74
(dp1101
g82
I3
ssg83
g1095
sg76
(lp1102
S''
asbasbasbag69
(g85
g71
NtRp1103
(dp1104
g74
(dp1105
sg83
g1019
sg76
(lp1106
g69
(g90
g71
NtRp1107
(dp1108
g74
(dp1109
g94
g95
ssg83
g1103
sg76
(lp1110
g367
asbag69
(g90
g71
NtRp1111
(dp1112
g74
(dp1113
g101
g102
ssg83
g1103
sg76
(lp1114
S':'
asbag69
(g90
g71
NtRp1115
(dp1116
g74
(dp1117
sg83
g1103
sg76
(lp1118
g69
(g70
g71
NtRp1119
(dp1120
g74
(dp1121
g82
I3
ssg83
g1115
sg76
(lp1122
S''
asbasbasbag69
(g85
g71
NtRp1123
(dp1124
g74
(dp1125
sg83
g1019
sg76
(lp1126
g69
(g90
g71
NtRp1127
(dp1128
g74
(dp1129
g94
g95
ssg83
g1123
sg76
(lp1130
g388
asbag69
(g90
g71
NtRp1131
(dp1132
g74
(dp1133
g101
g102
ssg83
g1123
sg76
(lp1134
S':'
asbag69
(g90
g71
NtRp1135
(dp1136
g74
(dp1137
sg83
g1123
sg76
(lp1138
g69
(g70
g71
NtRp1139
(dp1140
g74
(dp1141
g82
I3
ssg83
g1135
sg76
(lp1142
S''
asbasbasbag69
(g85
g71
NtRp1143
(dp1144
g74
(dp1145
sg83
g1019
sg76
(lp1146
g69
(g90
g71
NtRp1147
(dp1148
g74
(dp1149
g94
g95
ssg83
g1143
sg76
(lp1150
g409
asbag69
(g90
g71
NtRp1151
(dp1152
g74
(dp1153
g101
g102
ssg83
g1143
sg76
(lp1154
S':'
asbag69
(g90
g71
NtRp1155
(dp1156
g74
(dp1157
sg83
g1143
sg76
(lp1158
g69
(g70
g71
NtRp1159
(dp1160
g74
(dp1161
g82
I3
ssg83
g1155
sg76
(lp1162
S''
asbasbasbag69
(g85
g71
NtRp1163
(dp1164
g74
(dp1165
sg83
g1019
sg76
(lp1166
g69
(g90
g71
NtRp1167
(dp1168
g74
(dp1169
g94
g95
ssg83
g1163
sg76
(lp1170
g430
asbag69
(g90
g71
NtRp1171
(dp1172
g74
(dp1173
g101
g102
ssg83
g1163
sg76
(lp1174
S':'
asbag69
(g90
g71
NtRp1175
(dp1176
g74
(dp1177
sg83
g1163
sg76
(lp1178
g69
(g70
g71
NtRp1179
(dp1180
g74
(dp1181
g82
I3
ssg83
g1175
sg76
(lp1182
S''
asbasbasbasbasbasbasbag69
(g85
g71
NtRp1183
(dp1184
g74
(dp1185
sg83
g246
sg76
(lp1186
g69
(g90
g71
NtRp1187
(dp1188
g74
(dp1189
g94
g95
ssg83
g1183
sg76
(lp1190
S'session_id_welcome'
p1191
asbag69
(g90
g71
NtRp1192
(dp1193
g74
(dp1194
g101
g102
ssg83
g1183
sg76
(lp1195
S':'
asbag69
(g90
g71
NtRp1196
(dp1197
g74
(dp1198
sg83
g1183
sg76
(lp1199
g69
(g70
g71
NtRp1200
(dp1201
g74
(dp1202
g82
I4
ssg83
g1196
sg76
(lp1203
g69
(g78
g71
NtRp1204
(dp1205
g74
(dp1206
g82
I3
ssg83
Nsg76
(lp1207
g69
(g85
g71
NtRp1208
(dp1209
g74
(dp1210
sg83
g1204
sg76
(lp1211
g69
(g90
g71
NtRp1212
(dp1213
g74
(dp1214
g94
g95
ssg83
g1208
sg76
(lp1215
g283
asbag69
(g90
g71
NtRp1216
(dp1217
g74
(dp1218
g101
g102
ssg83
g1208
sg76
(lp1219
S':'
asbag69
(g90
g71
NtRp1220
(dp1221
g74
(dp1222
sg83
g1208
sg76
(lp1223
g69
(g70
g71
NtRp1224
(dp1225
g74
(dp1226
g82
I3
ssg83
g1220
sg76
(lp1227
S''
asbasbasbag69
(g85
g71
NtRp1228
(dp1229
g74
(dp1230
sg83
g1204
sg76
(lp1231
g69
(g90
g71
NtRp1232
(dp1233
g74
(dp1234
g94
g95
ssg83
g1228
sg76
(lp1235
g304
asbag69
(g90
g71
NtRp1236
(dp1237
g74
(dp1238
g101
g102
ssg83
g1228
sg76
(lp1239
S':'
asbag69
(g90
g71
NtRp1240
(dp1241
g74
(dp1242
sg83
g1228
sg76
(lp1243
g69
(g70
g71
NtRp1244
(dp1245
g74
(dp1246
g82
I3
ssg83
g1240
sg76
(lp1247
S''
asbasbasbag69
(g85
g71
NtRp1248
(dp1249
g74
(dp1250
sg83
g1204
sg76
(lp1251
g69
(g90
g71
NtRp1252
(dp1253
g74
(dp1254
g94
g95
ssg83
g1248
sg76
(lp1255
g325
asbag69
(g90
g71
NtRp1256
(dp1257
g74
(dp1258
g101
g102
ssg83
g1248
sg76
(lp1259
S':'
asbag69
(g90
g71
NtRp1260
(dp1261
g74
(dp1262
sg83
g1248
sg76
(lp1263
g69
(g70
g71
NtRp1264
(dp1265
g74
(dp1266
g82
I3
ssg83
g1260
sg76
(lp1267
S''
asbasbasbag69
(g85
g71
NtRp1268
(dp1269
g74
(dp1270
sg83
g1204
sg76
(lp1271
g69
(g90
g71
NtRp1272
(dp1273
g74
(dp1274
g94
g95
ssg83
g1268
sg76
(lp1275
g346
asbag69
(g90
g71
NtRp1276
(dp1277
g74
(dp1278
g101
g102
ssg83
g1268
sg76
(lp1279
S':'
asbag69
(g90
g71
NtRp1280
(dp1281
g74
(dp1282
sg83
g1268
sg76
(lp1283
g69
(g70
g71
NtRp1284
(dp1285
g74
(dp1286
g82
I3
ssg83
g1280
sg76
(lp1287
S''
asbasbasbag69
(g85
g71
NtRp1288
(dp1289
g74
(dp1290
sg83
g1204
sg76
(lp1291
g69
(g90
g71
NtRp1292
(dp1293
g74
(dp1294
g94
g95
ssg83
g1288
sg76
(lp1295
g367
asbag69
(g90
g71
NtRp1296
(dp1297
g74
(dp1298
g101
g102
ssg83
g1288
sg76
(lp1299
S':'
asbag69
(g90
g71
NtRp1300
(dp1301
g74
(dp1302
sg83
g1288
sg76
(lp1303
g69
(g70
g71
NtRp1304
(dp1305
g74
(dp1306
g82
I3
ssg83
g1300
sg76
(lp1307
S''
asbasbasbag69
(g85
g71
NtRp1308
(dp1309
g74
(dp1310
sg83
g1204
sg76
(lp1311
g69
(g90
g71
NtRp1312
(dp1313
g74
(dp1314
g94
g95
ssg83
g1308
sg76
(lp1315
g388
asbag69
(g90
g71
NtRp1316
(dp1317
g74
(dp1318
g101
g102
ssg83
g1308
sg76
(lp1319
S':'
asbag69
(g90
g71
NtRp1320
(dp1321
g74
(dp1322
sg83
g1308
sg76
(lp1323
g69
(g70
g71
NtRp1324
(dp1325
g74
(dp1326
g82
I3
ssg83
g1320
sg76
(lp1327
S''
asbasbasbag69
(g85
g71
NtRp1328
(dp1329
g74
(dp1330
sg83
g1204
sg76
(lp1331
g69
(g90
g71
NtRp1332
(dp1333
g74
(dp1334
g94
g95
ssg83
g1328
sg76
(lp1335
g409
asbag69
(g90
g71
NtRp1336
(dp1337
g74
(dp1338
g101
g102
ssg83
g1328
sg76
(lp1339
S':'
asbag69
(g90
g71
NtRp1340
(dp1341
g74
(dp1342
sg83
g1328
sg76
(lp1343
g69
(g70
g71
NtRp1344
(dp1345
g74
(dp1346
g82
I3
ssg83
g1340
sg76
(lp1347
S''
asbasbasbag69
(g85
g71
NtRp1348
(dp1349
g74
(dp1350
sg83
g1204
sg76
(lp1351
g69
(g90
g71
NtRp1352
(dp1353
g74
(dp1354
g94
g95
ssg83
g1348
sg76
(lp1355
g430
asbag69
(g90
g71
NtRp1356
(dp1357
g74
(dp1358
g101
g102
ssg83
g1348
sg76
(lp1359
S':'
asbag69
(g90
g71
NtRp1360
(dp1361
g74
(dp1362
sg83
g1348
sg76
(lp1363
g69
(g70
g71
NtRp1364
(dp1365
g74
(dp1366
g82
I3
ssg83
g1360
sg76
(lp1367
S''
asbasbasbasbasbasbasbasbasbasbasbag69
(g85
g71
NtRp1368
(dp1369
g74
(dp1370
sg83
g79
sg76
(lp1371
g69
(g90
g71
NtRp1372
(dp1373
g74
(dp1374
g94
g95
ssg83
g1368
sg76
(lp1375
S'env'
p1376
asbag69
(g90
g71
NtRp1377
(dp1378
g74
(dp1379
g101
g102
ssg83
g1368
sg76
(lp1380
S':'
asbag69
(g90
g71
NtRp1381
(dp1382
g74
(dp1383
sg83
g1368
sg76
(lp1384
g69
(g70
g71
NtRp1385
(dp1386
g74
(dp1387
g82
I5
ssg83
g1381
sg76
(lp1388
g69
(g78
g71
NtRp1389
(dp1390
g74
(dp1391
g82
I4
ssg83
Nsg76
(lp1392
g69
(g85
g71
NtRp1393
(dp1394
g74
(dp1395
sg83
g1389
sg76
(lp1396
g69
(g90
g71
NtRp1397
(dp1398
g74
(dp1399
g94
g95
ssg83
g1393
sg76
(lp1400
S'app_folders'
p1401
asbag69
(g90
g71
NtRp1402
(dp1403
g74
(dp1404
g101
g102
ssg83
g1393
sg76
(lp1405
S':'
asbag69
(g90
g71
NtRp1406
(dp1407
g74
(dp1408
sg83
g1393
sg76
(lp1409
g69
(g70
g71
NtRp1410
(dp1411
g74
(dp1412
g82
I4
ssg83
g1406
sg76
(lp1413
S"set(['/home/vishrut/web2py/applications/astra1/', '/home/vishrut/web2py/applications/admin/', '/home/vishrut/web2py/applications/welcome/'])"
p1414
asbasbasbag69
(g85
g71
NtRp1415
(dp1416
g74
(dp1417
sg83
g1389
sg76
(lp1418
g69
(g90
g71
NtRp1419
(dp1420
g74
(dp1421
g94
g95
ssg83
g1415
sg76
(lp1422
S'applications_parent'
p1423
asbag69
(g90
g71
NtRp1424
(dp1425
g74
(dp1426
g101
g102
ssg83
g1415
sg76
(lp1427
S':'
asbag69
(g90
g71
NtRp1428
(dp1429
g74
(dp1430
sg83
g1415
sg76
(lp1431
g69
(g70
g71
NtRp1432
(dp1433
g74
(dp1434
g82
I4
ssg83
g1428
sg76
(lp1435
S'/home/vishrut/web2py'
p1436
asbasbasbag69
(g85
g71
NtRp1437
(dp1438
g74
(dp1439
sg83
g1389
sg76
(lp1440
g69
(g90
g71
NtRp1441
(dp1442
g74
(dp1443
g94
g95
ssg83
g1437
sg76
(lp1444
S'cmd_args'
p1445
asbag69
(g90
g71
NtRp1446
(dp1447
g74
(dp1448
g101
g102
ssg83
g1437
sg76
(lp1449
S':'
asbag69
(g90
g71
NtRp1450
(dp1451
g74
(dp1452
sg83
g1437
sg76
(lp1453
g69
(g70
g71
NtRp1454
(dp1455
g74
(dp1456
g82
I4
ssg83
g1450
sg76
(lp1457
g69
(g78
g71
NtRp1458
(dp1459
g74
(dp1460
g82
I3
ssg83
Nsg76
(lp1461
sbasbasbasbag69
(g85
g71
NtRp1462
(dp1463
g74
(dp1464
sg83
g1389
sg76
(lp1465
g69
(g90
g71
NtRp1466
(dp1467
g74
(dp1468
g94
g95
ssg83
g1462
sg76
(lp1469
S'cmd_options'
p1470
asbag69
(g90
g71
NtRp1471
(dp1472
g74
(dp1473
g101
g102
ssg83
g1462
sg76
(lp1474
S':'
asbag69
(g90
g71
NtRp1475
(dp1476
g74
(dp1477
sg83
g1462
sg76
(lp1478
g69
(g70
g71
NtRp1479
(dp1480
g74
(dp1481
g82
I4
ssg83
g1475
sg76
(lp1482
S"<Values at 0x8b183cc: {'verbose': False, 'ip': '127.0.0.1', 'shutdown_timeout': 5, 'taskbar': False, 'nocron': False, 'pid_filename': 'httpserver.pid', 'maxthreads': None, 'softcron': False, 'server_name': 'vishrut-Vostro-1015', 'bpython': False, 'nogui': False, 'port': 8000, 'extcron': False, 'debuglevel': 30, 'test': None, 'folder': '/home/vishrut/web2py', 'config': '', 'import_models': False, 'winservice': '', 'shell': None, 'run': '', 'log_filename': 'httpserver.log', 'args': [''], 'socket_timeout': 5, 'ssl_ca_certificate': None, 'scheduler': None, 'profiler_filename': None, 'ssl_private_key': '', 'password': '<ask>', 'request_queue_size': 5, 'ssl_certificate': '', 'cronjob': False, 'numthreads': None, 'quiet': False, 'interfaces': None, 'minthreads': None, 'timeout': 10, 'plain': False, 'nobanner': False}>"
p1483
asbasbasbag69
(g85
g71
NtRp1484
(dp1485
g74
(dp1486
sg83
g1389
sg76
(lp1487
g69
(g90
g71
NtRp1488
(dp1489
g74
(dp1490
g94
g95
ssg83
g1484
sg76
(lp1491
S'content_length'
p1492
asbag69
(g90
g71
NtRp1493
(dp1494
g74
(dp1495
g101
g102
ssg83
g1484
sg76
(lp1496
S':'
asbag69
(g90
g71
NtRp1497
(dp1498
g74
(dp1499
sg83
g1484
sg76
(lp1500
g69
(g70
g71
NtRp1501
(dp1502
g74
(dp1503
g82
I4
ssg83
g1497
sg76
(lp1504
S'445'
p1505
asbasbasbag69
(g85
g71
NtRp1506
(dp1507
g74
(dp1508
sg83
g1389
sg76
(lp1509
g69
(g90
g71
NtRp1510
(dp1511
g74
(dp1512
g94
g95
ssg83
g1506
sg76
(lp1513
S'content_type'
p1514
asbag69
(g90
g71
NtRp1515
(dp1516
g74
(dp1517
g101
g102
ssg83
g1506
sg76
(lp1518
S':'
asbag69
(g90
g71
NtRp1519
(dp1520
g74
(dp1521
sg83
g1506
sg76
(lp1522
g69
(g70
g71
NtRp1523
(dp1524
g74
(dp1525
g82
I4
ssg83
g1519
sg76
(lp1526
S'multipart/form-data; boundary=---------------------------691676170533218002682998235'
p1527
asbasbasbag69
(g85
g71
NtRp1528
(dp1529
g74
(dp1530
sg83
g1389
sg76
(lp1531
g69
(g90
g71
NtRp1532
(dp1533
g74
(dp1534
g94
g95
ssg83
g1528
sg76
(lp1535
S'db_sessions'
p1536
asbag69
(g90
g71
NtRp1537
(dp1538
g74
(dp1539
g101
g102
ssg83
g1528
sg76
(lp1540
S':'
asbag69
(g90
g71
NtRp1541
(dp1542
g74
(dp1543
sg83
g1528
sg76
(lp1544
g69
(g70
g71
NtRp1545
(dp1546
g74
(dp1547
g82
I4
ssg83
g1541
sg76
(lp1548
S'set([])'
p1549
asbasbasbag69
(g85
g71
NtRp1550
(dp1551
g74
(dp1552
sg83
g1389
sg76
(lp1553
g69
(g90
g71
NtRp1554
(dp1555
g74
(dp1556
g94
g95
ssg83
g1550
sg76
(lp1557
S'debugging'
p1558
asbag69
(g90
g71
NtRp1559
(dp1560
g74
(dp1561
g101
g102
ssg83
g1550
sg76
(lp1562
S':'
asbag69
(g90
g71
NtRp1563
(dp1564
g74
(dp1565
sg83
g1550
sg76
(lp1566
g69
(g70
g71
NtRp1567
(dp1568
g74
(dp1569
g82
I4
ssg83
g1563
sg76
(lp1570
g112
asbasbasbag69
(g85
g71
NtRp1571
(dp1572
g74
(dp1573
sg83
g1389
sg76
(lp1574
g69
(g90
g71
NtRp1575
(dp1576
g74
(dp1577
g94
g95
ssg83
g1571
sg76
(lp1578
S'gluon_parent'
p1579
asbag69
(g90
g71
NtRp1580
(dp1581
g74
(dp1582
g101
g102
ssg83
g1571
sg76
(lp1583
S':'
asbag69
(g90
g71
NtRp1584
(dp1585
g74
(dp1586
sg83
g1571
sg76
(lp1587
g69
(g70
g71
NtRp1588
(dp1589
g74
(dp1590
g82
I4
ssg83
g1584
sg76
(lp1591
S'/home/vishrut/web2py'
p1592
asbasbasbag69
(g85
g71
NtRp1593
(dp1594
g74
(dp1595
sg83
g1389
sg76
(lp1596
g69
(g90
g71
NtRp1597
(dp1598
g74
(dp1599
g94
g95
ssg83
g1593
sg76
(lp1600
S'http_accept'
p1601
asbag69
(g90
g71
NtRp1602
(dp1603
g74
(dp1604
g101
g102
ssg83
g1593
sg76
(lp1605
S':'
asbag69
(g90
g71
NtRp1606
(dp1607
g74
(dp1608
sg83
g1593
sg76
(lp1609
g69
(g70
g71
NtRp1610
(dp1611
g74
(dp1612
g82
I4
ssg83
g1606
sg76
(lp1613
S'text/html,application/xhtml+xml,application/xml;q=0.9,*/*;q=0.8'
p1614
asbasbasbag69
(g85
g71
NtRp1615
(dp1616
g74
(dp1617
sg83
g1389
sg76
(lp1618
g69
(g90
g71
NtRp1619
(dp1620
g74
(dp1621
g94
g95
ssg83
g1615
sg76
(lp1622
S'http_accept_encoding'
p1623
asbag69
(g90
g71
NtRp1624
(dp1625
g74
(dp1626
g101
g102
ssg83
g1615
sg76
(lp1627
S':'
asbag69
(g90
g71
NtRp1628
(dp1629
g74
(dp1630
sg83
g1615
sg76
(lp1631
g69
(g70
g71
NtRp1632
(dp1633
g74
(dp1634
g82
I4
ssg83
g1628
sg76
(lp1635
S'gzip, deflate'
p1636
asbasbasbag69
(g85
g71
NtRp1637
(dp1638
g74
(dp1639
sg83
g1389
sg76
(lp1640
g69
(g90
g71
NtRp1641
(dp1642
g74
(dp1643
g94
g95
ssg83
g1637
sg76
(lp1644
S'http_accept_language'
p1645
asbag69
(g90
g71
NtRp1646
(dp1647
g74
(dp1648
g101
g102
ssg83
g1637
sg76
(lp1649
S':'
asbag69
(g90
g71
NtRp1650
(dp1651
g74
(dp1652
sg83
g1637
sg76
(lp1653
g69
(g70
g71
NtRp1654
(dp1655
g74
(dp1656
g82
I4
ssg83
g1650
sg76
(lp1657
S'en-US,en;q=0.5'
p1658
asbasbasbag69
(g85
g71
NtRp1659
(dp1660
g74
(dp1661
sg83
g1389
sg76
(lp1662
g69
(g90
g71
NtRp1663
(dp1664
g74
(dp1665
g94
g95
ssg83
g1659
sg76
(lp1666
S'http_cache_control'
p1667
asbag69
(g90
g71
NtRp1668
(dp1669
g74
(dp1670
g101
g102
ssg83
g1659
sg76
(lp1671
S':'
asbag69
(g90
g71
NtRp1672
(dp1673
g74
(dp1674
sg83
g1659
sg76
(lp1675
g69
(g70
g71
NtRp1676
(dp1677
g74
(dp1678
g82
I4
ssg83
g1672
sg76
(lp1679
S'max-age=0'
p1680
asbasbasbag69
(g85
g71
NtRp1681
(dp1682
g74
(dp1683
sg83
g1389
sg76
(lp1684
g69
(g90
g71
NtRp1685
(dp1686
g74
(dp1687
g94
g95
ssg83
g1681
sg76
(lp1688
S'http_connection'
p1689
asbag69
(g90
g71
NtRp1690
(dp1691
g74
(dp1692
g101
g102
ssg83
g1681
sg76
(lp1693
S':'
asbag69
(g90
g71
NtRp1694
(dp1695
g74
(dp1696
sg83
g1681
sg76
(lp1697
g69
(g70
g71
NtRp1698
(dp1699
g74
(dp1700
g82
I4
ssg83
g1694
sg76
(lp1701
S'keep-alive'
p1702
asbasbasbag69
(g85
g71
NtRp1703
(dp1704
g74
(dp1705
sg83
g1389
sg76
(lp1706
g69
(g90
g71
NtRp1707
(dp1708
g74
(dp1709
g94
g95
ssg83
g1703
sg76
(lp1710
S'http_content_length'
p1711
asbag69
(g90
g71
NtRp1712
(dp1713
g74
(dp1714
g101
g102
ssg83
g1703
sg76
(lp1715
S':'
asbag69
(g90
g71
NtRp1716
(dp1717
g74
(dp1718
sg83
g1703
sg76
(lp1719
g69
(g70
g71
NtRp1720
(dp1721
g74
(dp1722
g82
I4
ssg83
g1716
sg76
(lp1723
g1505
asbasbasbag69
(g85
g71
NtRp1724
(dp1725
g74
(dp1726
sg83
g1389
sg76
(lp1727
g69
(g90
g71
NtRp1728
(dp1729
g74
(dp1730
g94
g95
ssg83
g1724
sg76
(lp1731
S'http_content_type'
p1732
asbag69
(g90
g71
NtRp1733
(dp1734
g74
(dp1735
g101
g102
ssg83
g1724
sg76
(lp1736
S':'
asbag69
(g90
g71
NtRp1737
(dp1738
g74
(dp1739
sg83
g1724
sg76
(lp1740
g69
(g70
g71
NtRp1741
(dp1742
g74
(dp1743
g82
I4
ssg83
g1737
sg76
(lp1744
g1527
asbasbasbag69
(g85
g71
NtRp1745
(dp1746
g74
(dp1747
sg83
g1389
sg76
(lp1748
g69
(g90
g71
NtRp1749
(dp1750
g74
(dp1751
g94
g95
ssg83
g1745
sg76
(lp1752
S'http_cookie'
p1753
asbag69
(g90
g71
NtRp1754
(dp1755
g74
(dp1756
g101
g102
ssg83
g1745
sg76
(lp1757
S':'
asbag69
(g90
g71
NtRp1758
(dp1759
g74
(dp1760
sg83
g1745
sg76
(lp1761
g69
(g70
g71
NtRp1762
(dp1763
g74
(dp1764
g82
I4
ssg83
g1758
sg76
(lp1765
S'session_id_photouploader=127.0.0.1-83bacd5e-b575-49a8-9b6e-fdc698e775f9; session_id_astra1=127.0.0.1-3ea7f370-71b8-4b79-b80d-e5c8cc6c433d; session_id_sudoku=127.0.0.1-a38f9f54-52d0-4767-a55e-9a1db318fe95; session_id_music=127.0.0.1-f3e53f29-daab-4348-8032-cb7d46365de6; session_id_welcome=127.0.0.1-6edc65ad-3d1a-4d77-a60d-4b17139a907c; session_id_admin=127.0.0.1-6c67b90d-3883-4b37-ba21-eef2525d3981'
p1766
asbasbasbag69
(g85
g71
NtRp1767
(dp1768
g74
(dp1769
sg83
g1389
sg76
(lp1770
g69
(g90
g71
NtRp1771
(dp1772
g74
(dp1773
g94
g95
ssg83
g1767
sg76
(lp1774
S'http_host'
p1775
asbag69
(g90
g71
NtRp1776
(dp1777
g74
(dp1778
g101
g102
ssg83
g1767
sg76
(lp1779
S':'
asbag69
(g90
g71
NtRp1780
(dp1781
g74
(dp1782
sg83
g1767
sg76
(lp1783
g69
(g70
g71
NtRp1784
(dp1785
g74
(dp1786
g82
I4
ssg83
g1780
sg76
(lp1787
S'127.0.0.1:8000'
p1788
asbasbasbag69
(g85
g71
NtRp1789
(dp1790
g74
(dp1791
sg83
g1389
sg76
(lp1792
g69
(g90
g71
NtRp1793
(dp1794
g74
(dp1795
g94
g95
ssg83
g1789
sg76
(lp1796
S'http_referer'
p1797
asbag69
(g90
g71
NtRp1798
(dp1799
g74
(dp1800
g101
g102
ssg83
g1789
sg76
(lp1801
S':'
asbag69
(g90
g71
NtRp1802
(dp1803
g74
(dp1804
sg83
g1789
sg76
(lp1805
g69
(g70
g71
NtRp1806
(dp1807
g74
(dp1808
g82
I4
ssg83
g1802
sg76
(lp1809
S'http://127.0.0.1:8000/astra1/default/index'
p1810
asbasbasbag69
(g85
g71
NtRp1811
(dp1812
g74
(dp1813
sg83
g1389
sg76
(lp1814
g69
(g90
g71
NtRp1815
(dp1816
g74
(dp1817
g94
g95
ssg83
g1811
sg76
(lp1818
S'http_user_agent'
p1819
asbag69
(g90
g71
NtRp1820
(dp1821
g74
(dp1822
g101
g102
ssg83
g1811
sg76
(lp1823
S':'
asbag69
(g90
g71
NtRp1824
(dp1825
g74
(dp1826
sg83
g1811
sg76
(lp1827
g69
(g70
g71
NtRp1828
(dp1829
g74
(dp1830
g82
I4
ssg83
g1824
sg76
(lp1831
S'Mozilla/5.0 (X11; Ubuntu; Linux i686; rv:16.0) Gecko/20100101 Firefox/16.0'
p1832
asbasbasbag69
(g85
g71
NtRp1833
(dp1834
g74
(dp1835
sg83
g1389
sg76
(lp1836
g69
(g90
g71
NtRp1837
(dp1838
g74
(dp1839
g94
g95
ssg83
g1833
sg76
(lp1840
S'is_jython'
p1841
asbag69
(g90
g71
NtRp1842
(dp1843
g74
(dp1844
g101
g102
ssg83
g1833
sg76
(lp1845
S':'
asbag69
(g90
g71
NtRp1846
(dp1847
g74
(dp1848
sg83
g1833
sg76
(lp1849
g69
(g70
g71
NtRp1850
(dp1851
g74
(dp1852
g82
I4
ssg83
g1846
sg76
(lp1853
g112
asbasbasbag69
(g85
g71
NtRp1854
(dp1855
g74
(dp1856
sg83
g1389
sg76
(lp1857
g69
(g90
g71
NtRp1858
(dp1859
g74
(dp1860
g94
g95
ssg83
g1854
sg76
(lp1861
S'is_pypy'
p1862
asbag69
(g90
g71
NtRp1863
(dp1864
g74
(dp1865
g101
g102
ssg83
g1854
sg76
(lp1866
S':'
asbag69
(g90
g71
NtRp1867
(dp1868
g74
(dp1869
sg83
g1854
sg76
(lp1870
g69
(g70
g71
NtRp1871
(dp1872
g74
(dp1873
g82
I4
ssg83
g1867
sg76
(lp1874
g112
asbasbasbag69
(g85
g71
NtRp1875
(dp1876
g74
(dp1877
sg83
g1389
sg76
(lp1878
g69
(g90
g71
NtRp1879
(dp1880
g74
(dp1881
g94
g95
ssg83
g1875
sg76
(lp1882
S'path_info'
p1883
asbag69
(g90
g71
NtRp1884
(dp1885
g74
(dp1886
g101
g102
ssg83
g1875
sg76
(lp1887
S':'
asbag69
(g90
g71
NtRp1888
(dp1889
g74
(dp1890
sg83
g1875
sg76
(lp1891
g69
(g70
g71
NtRp1892
(dp1893
g74
(dp1894
g82
I4
ssg83
g1888
sg76
(lp1895
S'/astra1/default/index'
p1896
asbasbasbag69
(g85
g71
NtRp1897
(dp1898
g74
(dp1899
sg83
g1389
sg76
(lp1900
g69
(g90
g71
NtRp1901
(dp1902
g74
(dp1903
g94
g95
ssg83
g1897
sg76
(lp1904
S'query_string'
p1905
asbag69
(g90
g71
NtRp1906
(dp1907
g74
(dp1908
g101
g102
ssg83
g1897
sg76
(lp1909
S':'
asbag69
(g90
g71
NtRp1910
(dp1911
g74
(dp1912
sg83
g1897
sg76
(lp1913
g69
(g70
g71
NtRp1914
(dp1915
g74
(dp1916
g82
I4
ssg83
g1910
sg76
(lp1917
S''
asbasbasbag69
(g85
g71
NtRp1918
(dp1919
g74
(dp1920
sg83
g1389
sg76
(lp1921
g69
(g90
g71
NtRp1922
(dp1923
g74
(dp1924
g94
g95
ssg83
g1918
sg76
(lp1925
S'remote_addr'
p1926
asbag69
(g90
g71
NtRp1927
(dp1928
g74
(dp1929
g101
g102
ssg83
g1918
sg76
(lp1930
S':'
asbag69
(g90
g71
NtRp1931
(dp1932
g74
(dp1933
sg83
g1918
sg76
(lp1934
g69
(g70
g71
NtRp1935
(dp1936
g74
(dp1937
g82
I4
ssg83
g1931
sg76
(lp1938
g202
asbasbasbag69
(g85
g71
NtRp1939
(dp1940
g74
(dp1941
sg83
g1389
sg76
(lp1942
g69
(g90
g71
NtRp1943
(dp1944
g74
(dp1945
g94
g95
ssg83
g1939
sg76
(lp1946
S'remote_port'
p1947
asbag69
(g90
g71
NtRp1948
(dp1949
g74
(dp1950
g101
g102
ssg83
g1939
sg76
(lp1951
S':'
asbag69
(g90
g71
NtRp1952
(dp1953
g74
(dp1954
sg83
g1939
sg76
(lp1955
g69
(g70
g71
NtRp1956
(dp1957
g74
(dp1958
g82
I4
ssg83
g1952
sg76
(lp1959
S'37464'
p1960
asbasbasbag69
(g85
g71
NtRp1961
(dp1962
g74
(dp1963
sg83
g1389
sg76
(lp1964
g69
(g90
g71
NtRp1965
(dp1966
g74
(dp1967
g94
g95
ssg83
g1961
sg76
(lp1968
S'request_method'
p1969
asbag69
(g90
g71
NtRp1970
(dp1971
g74
(dp1972
g101
g102
ssg83
g1961
sg76
(lp1973
S':'
asbag69
(g90
g71
NtRp1974
(dp1975
g74
(dp1976
sg83
g1961
sg76
(lp1977
g69
(g70
g71
NtRp1978
(dp1979
g74
(dp1980
g82
I4
ssg83
g1974
sg76
(lp1981
S'POST'
p1982
asbasbasbag69
(g85
g71
NtRp1983
(dp1984
g74
(dp1985
sg83
g1389
sg76
(lp1986
g69
(g90
g71
NtRp1987
(dp1988
g74
(dp1989
g94
g95
ssg83
g1983
sg76
(lp1990
S'script_name'
p1991
asbag69
(g90
g71
NtRp1992
(dp1993
g74
(dp1994
g101
g102
ssg83
g1983
sg76
(lp1995
S':'
asbag69
(g90
g71
NtRp1996
(dp1997
g74
(dp1998
sg83
g1983
sg76
(lp1999
g69
(g70
g71
NtRp2000
(dp2001
g74
(dp2002
g82
I4
ssg83
g1996
sg76
(lp2003
S''
asbasbasbag69
(g85
g71
NtRp2004
(dp2005
g74
(dp2006
sg83
g1389
sg76
(lp2007
g69
(g90
g71
NtRp2008
(dp2009
g74
(dp2010
g94
g95
ssg83
g2004
sg76
(lp2011
S'server_name'
p2012
asbag69
(g90
g71
NtRp2013
(dp2014
g74
(dp2015
g101
g102
ssg83
g2004
sg76
(lp2016
S':'
asbag69
(g90
g71
NtRp2017
(dp2018
g74
(dp2019
sg83
g2004
sg76
(lp2020
g69
(g70
g71
NtRp2021
(dp2022
g74
(dp2023
g82
I4
ssg83
g2017
sg76
(lp2024
S'vishrut-Vostro-1015'
p2025
asbasbasbag69
(g85
g71
NtRp2026
(dp2027
g74
(dp2028
sg83
g1389
sg76
(lp2029
g69
(g90
g71
NtRp2030
(dp2031
g74
(dp2032
g94
g95
ssg83
g2026
sg76
(lp2033
S'server_port'
p2034
asbag69
(g90
g71
NtRp2035
(dp2036
g74
(dp2037
g101
g102
ssg83
g2026
sg76
(lp2038
S':'
asbag69
(g90
g71
NtRp2039
(dp2040
g74
(dp2041
sg83
g2026
sg76
(lp2042
g69
(g70
g71
NtRp2043
(dp2044
g74
(dp2045
g82
I4
ssg83
g2039
sg76
(lp2046
S'8000'
p2047
asbasbasbag69
(g85
g71
NtRp2048
(dp2049
g74
(dp2050
sg83
g1389
sg76
(lp2051
g69
(g90
g71
NtRp2052
(dp2053
g74
(dp2054
g94
g95
ssg83
g2048
sg76
(lp2055
S'server_protocol'
p2056
asbag69
(g90
g71
NtRp2057
(dp2058
g74
(dp2059
g101
g102
ssg83
g2048
sg76
(lp2060
S':'
asbag69
(g90
g71
NtRp2061
(dp2062
g74
(dp2063
sg83
g2048
sg76
(lp2064
g69
(g70
g71
NtRp2065
(dp2066
g74
(dp2067
g82
I4
ssg83
g2061
sg76
(lp2068
S'HTTP/1.1'
p2069
asbasbasbag69
(g85
g71
NtRp2070
(dp2071
g74
(dp2072
sg83
g1389
sg76
(lp2073
g69
(g90
g71
NtRp2074
(dp2075
g74
(dp2076
g94
g95
ssg83
g2070
sg76
(lp2077
S'server_software'
p2078
asbag69
(g90
g71
NtRp2079
(dp2080
g74
(dp2081
g101
g102
ssg83
g2070
sg76
(lp2082
S':'
asbag69
(g90
g71
NtRp2083
(dp2084
g74
(dp2085
sg83
g2070
sg76
(lp2086
g69
(g70
g71
NtRp2087
(dp2088
g74
(dp2089
g82
I4
ssg83
g2083
sg76
(lp2090
S'Rocket 1.2.4'
p2091
asbasbasbag69
(g85
g71
NtRp2092
(dp2093
g74
(dp2094
sg83
g1389
sg76
(lp2095
g69
(g90
g71
NtRp2096
(dp2097
g74
(dp2098
g94
g95
ssg83
g2092
sg76
(lp2099
S'web2py_crontype'
p2100
asbag69
(g90
g71
NtRp2101
(dp2102
g74
(dp2103
g101
g102
ssg83
g2092
sg76
(lp2104
S':'
asbag69
(g90
g71
NtRp2105
(dp2106
g74
(dp2107
sg83
g2092
sg76
(lp2108
g69
(g70
g71
NtRp2109
(dp2110
g74
(dp2111
g82
I4
ssg83
g2105
sg76
(lp2112
S'hard'
p2113
asbasbasbag69
(g85
g71
NtRp2114
(dp2115
g74
(dp2116
sg83
g1389
sg76
(lp2117
g69
(g90
g71
NtRp2118
(dp2119
g74
(dp2120
g94
g95
ssg83
g2114
sg76
(lp2121
S'web2py_path'
p2122
asbag69
(g90
g71
NtRp2123
(dp2124
g74
(dp2125
g101
g102
ssg83
g2114
sg76
(lp2126
S':'
asbag69
(g90
g71
NtRp2127
(dp2128
g74
(dp2129
sg83
g2114
sg76
(lp2130
g69
(g70
g71
NtRp2131
(dp2132
g74
(dp2133
g82
I4
ssg83
g2127
sg76
(lp2134
g1436
asbasbasbag69
(g85
g71
NtRp2135
(dp2136
g74
(dp2137
sg83
g1389
sg76
(lp2138
g69
(g90
g71
NtRp2139
(dp2140
g74
(dp2141
g94
g95
ssg83
g2135
sg76
(lp2142
S'web2py_version'
p2143
asbag69
(g90
g71
NtRp2144
(dp2145
g74
(dp2146
g101
g102
ssg83
g2135
sg76
(lp2147
S':'
asbag69
(g90
g71
NtRp2148
(dp2149
g74
(dp2150
sg83
g2135
sg76
(lp2151
g69
(g70
g71
NtRp2152
(dp2153
g74
(dp2154
g82
I4
ssg83
g2148
sg76
(lp2155
g69
(g78
g71
NtRp2156
(dp2157
g74
(dp2158
g82
I3
ssg83
Nsg76
(lp2159
g69
(g85
g71
NtRp2160
(dp2161
g74
(dp2162
sg83
g2156
sg76
(lp2163
g69
(g90
g71
NtRp2164
(dp2165
g74
(dp2166
sg83
g2160
sg76
(lp2167
g69
(g70
g71
NtRp2168
(dp2169
g74
(dp2170
g82
I3
ssg83
g2164
sg76
(lp2171
S'1'
asbasbasbag69
(g85
g71
NtRp2172
(dp2173
g74
(dp2174
sg83
g2156
sg76
(lp2175
g69
(g90
g71
NtRp2176
(dp2177
g74
(dp2178
sg83
g2172
sg76
(lp2179
g69
(g70
g71
NtRp2180
(dp2181
g74
(dp2182
g82
I3
ssg83
g2176
sg76
(lp2183
S'99'
p2184
asbasbasbag69
(g85
g71
NtRp2185
(dp2186
g74
(dp2187
sg83
g2156
sg76
(lp2188
g69
(g90
g71
NtRp2189
(dp2190
g74
(dp2191
sg83
g2185
sg76
(lp2192
g69
(g70
g71
NtRp2193
(dp2194
g74
(dp2195
g82
I3
ssg83
g2189
sg76
(lp2196
S'7'
asbasbasbag69
(g85
g71
NtRp2197
(dp2198
g74
(dp2199
sg83
g2156
sg76
(lp2200
g69
(g90
g71
NtRp2201
(dp2202
g74
(dp2203
sg83
g2197
sg76
(lp2204
g69
(g70
g71
NtRp2205
(dp2206
g74
(dp2207
g82
I3
ssg83
g2201
sg76
(lp2208
S'datetime.datetime(2012, 3, 4, 22, 12, 8)'
p2209
asbasbasbag69
(g85
g71
NtRp2210
(dp2211
g74
(dp2212
sg83
g2156
sg76
(lp2213
g69
(g90
g71
NtRp2214
(dp2215
g74
(dp2216
sg83
g2210
sg76
(lp2217
g69
(g70
g71
NtRp2218
(dp2219
g74
(dp2220
g82
I3
ssg83
g2214
sg76
(lp2221
S'stable'
p2222
asbasbasbasbasbasbasbag69
(g85
g71
NtRp2223
(dp2224
g74
(dp2225
sg83
g1389
sg76
(lp2226
g69
(g90
g71
NtRp2227
(dp2228
g74
(dp2229
g94
g95
ssg83
g2223
sg76
(lp2230
S'wsgi_errors'
p2231
asbag69
(g90
g71
NtRp2232
(dp2233
g74
(dp2234
g101
g102
ssg83
g2223
sg76
(lp2235
S':'
asbag69
(g90
g71
NtRp2236
(dp2237
g74
(dp2238
sg83
g2223
sg76
(lp2239
g69
(g70
g71
NtRp2240
(dp2241
g74
(dp2242
g82
I4
ssg83
g2236
sg76
(lp2243
S"<open file '<stderr>', mode 'w' at 0xb76fa0d0>"
p2244
asbasbasbag69
(g85
g71
NtRp2245
(dp2246
g74
(dp2247
sg83
g1389
sg76
(lp2248
g69
(g90
g71
NtRp2249
(dp2250
g74
(dp2251
g94
g95
ssg83
g2245
sg76
(lp2252
S'wsgi_file_wrapper'
p2253
asbag69
(g90
g71
NtRp2254
(dp2255
g74
(dp2256
g101
g102
ssg83
g2245
sg76
(lp2257
S':'
asbag69
(g90
g71
NtRp2258
(dp2259
g74
(dp2260
sg83
g2245
sg76
(lp2261
g69
(g70
g71
NtRp2262
(dp2263
g74
(dp2264
g82
I4
ssg83
g2258
sg76
(lp2265
S'<class wsgiref.util.FileWrapper at 0x8a37aac>'
p2266
asbasbasbag69
(g85
g71
NtRp2267
(dp2268
g74
(dp2269
sg83
g1389
sg76
(lp2270
g69
(g90
g71
NtRp2271
(dp2272
g74
(dp2273
g94
g95
ssg83
g2267
sg76
(lp2274
S'wsgi_input'
p2275
asbag69
(g90
g71
NtRp2276
(dp2277
g74
(dp2278
g101
g102
ssg83
g2267
sg76
(lp2279
S':'
asbag69
(g90
g71
NtRp2280
(dp2281
g74
(dp2282
sg83
g2267
sg76
(lp2283
g69
(g70
g71
NtRp2284
(dp2285
g74
(dp2286
g82
I4
ssg83
g2280
sg76
(lp2287
S'<socket._fileobject object at 0x92181ac>'
p2288
asbasbasbag69
(g85
g71
NtRp2289
(dp2290
g74
(dp2291
sg83
g1389
sg76
(lp2292
g69
(g90
g71
NtRp2293
(dp2294
g74
(dp2295
g94
g95
ssg83
g2289
sg76
(lp2296
S'wsgi_multiprocess'
p2297
asbag69
(g90
g71
NtRp2298
(dp2299
g74
(dp2300
g101
g102
ssg83
g2289
sg76
(lp2301
S':'
asbag69
(g90
g71
NtRp2302
(dp2303
g74
(dp2304
sg83
g2289
sg76
(lp2305
g69
(g70
g71
NtRp2306
(dp2307
g74
(dp2308
g82
I4
ssg83
g2302
sg76
(lp2309
g112
asbasbasbag69
(g85
g71
NtRp2310
(dp2311
g74
(dp2312
sg83
g1389
sg76
(lp2313
g69
(g90
g71
NtRp2314
(dp2315
g74
(dp2316
g94
g95
ssg83
g2310
sg76
(lp2317
S'wsgi_multithread'
p2318
asbag69
(g90
g71
NtRp2319
(dp2320
g74
(dp2321
g101
g102
ssg83
g2310
sg76
(lp2322
S':'
asbag69
(g90
g71
NtRp2323
(dp2324
g74
(dp2325
sg83
g2310
sg76
(lp2326
g69
(g70
g71
NtRp2327
(dp2328
g74
(dp2329
g82
I4
ssg83
g2323
sg76
(lp2330
S'True'
p2331
asbasbasbag69
(g85
g71
NtRp2332
(dp2333
g74
(dp2334
sg83
g1389
sg76
(lp2335
g69
(g90
g71
NtRp2336
(dp2337
g74
(dp2338
g94
g95
ssg83
g2332
sg76
(lp2339
S'wsgi_run_once'
p2340
asbag69
(g90
g71
NtRp2341
(dp2342
g74
(dp2343
g101
g102
ssg83
g2332
sg76
(lp2344
S':'
asbag69
(g90
g71
NtRp2345
(dp2346
g74
(dp2347
sg83
g2332
sg76
(lp2348
g69
(g70
g71
NtRp2349
(dp2350
g74
(dp2351
g82
I4
ssg83
g2345
sg76
(lp2352
g112
asbasbasbag69
(g85
g71
NtRp2353
(dp2354
g74
(dp2355
sg83
g1389
sg76
(lp2356
g69
(g90
g71
NtRp2357
(dp2358
g74
(dp2359
g94
g95
ssg83
g2353
sg76
(lp2360
S'wsgi_url_scheme'
p2361
asbag69
(g90
g71
NtRp2362
(dp2363
g74
(dp2364
g101
g102
ssg83
g2353
sg76
(lp2365
S':'
asbag69
(g90
g71
NtRp2366
(dp2367
g74
(dp2368
sg83
g2353
sg76
(lp2369
g69
(g70
g71
NtRp2370
(dp2371
g74
(dp2372
g82
I4
ssg83
g2366
sg76
(lp2373
S'http'
p2374
asbasbasbag69
(g85
g71
NtRp2375
(dp2376
g74
(dp2377
sg83
g1389
sg76
(lp2378
g69
(g90
g71
NtRp2379
(dp2380
g74
(dp2381
g94
g95
ssg83
g2375
sg76
(lp2382
S'wsgi_version'
p2383
asbag69
(g90
g71
NtRp2384
(dp2385
g74
(dp2386
g101
g102
ssg83
g2375
sg76
(lp2387
S':'
asbag69
(g90
g71
NtRp2388
(dp2389
g74
(dp2390
sg83
g2375
sg76
(lp2391
g69
(g70
g71
NtRp2392
(dp2393
g74
(dp2394
g82
I4
ssg83
g2388
sg76
(lp2395
g69
(g78
g71
NtRp2396
(dp2397
g74
(dp2398
g82
I3
ssg83
Nsg76
(lp2399
g69
(g85
g71
NtRp2400
(dp2401
g74
(dp2402
sg83
g2396
sg76
(lp2403
g69
(g90
g71
NtRp2404
(dp2405
g74
(dp2406
sg83
g2400
sg76
(lp2407
g69
(g70
g71
NtRp2408
(dp2409
g74
(dp2410
g82
I3
ssg83
g2404
sg76
(lp2411
S'1'
asbasbasbag69
(g85
g71
NtRp2412
(dp2413
g74
(dp2414
sg83
g2396
sg76
(lp2415
g69
(g90
g71
NtRp2416
(dp2417
g74
(dp2418
sg83
g2412
sg76
(lp2419
g69
(g70
g71
NtRp2420
(dp2421
g74
(dp2422
g82
I3
ssg83
g2416
sg76
(lp2423
S'0'
asbasbasbasbasbasbasbasbasbasbasbag69
(g85
g71
NtRp2424
(dp2425
g74
(dp2426
sg83
g79
sg76
(lp2427
g69
(g90
g71
NtRp2428
(dp2429
g74
(dp2430
g94
g95
ssg83
g2424
sg76
(lp2431
S'extension'
p2432
asbag69
(g90
g71
NtRp2433
(dp2434
g74
(dp2435
g101
g102
ssg83
g2424
sg76
(lp2436
S':'
asbag69
(g90
g71
NtRp2437
(dp2438
g74
(dp2439
sg83
g2424
sg76
(lp2440
g69
(g70
g71
NtRp2441
(dp2442
g74
(dp2443
g82
I5
ssg83
g2437
sg76
(lp2444
S'html'
p2445
asbasbasbag69
(g85
g71
NtRp2446
(dp2447
g74
(dp2448
sg83
g79
sg76
(lp2449
g69
(g90
g71
NtRp2450
(dp2451
g74
(dp2452
g94
g95
ssg83
g2446
sg76
(lp2453
S'folder'
p2454
asbag69
(g90
g71
NtRp2455
(dp2456
g74
(dp2457
g101
g102
ssg83
g2446
sg76
(lp2458
S':'
asbag69
(g90
g71
NtRp2459
(dp2460
g74
(dp2461
sg83
g2446
sg76
(lp2462
g69
(g70
g71
NtRp2463
(dp2464
g74
(dp2465
g82
I5
ssg83
g2459
sg76
(lp2466
S'/home/vishrut/web2py/applications/astra1/'
p2467
asbasbasbag69
(g85
g71
NtRp2468
(dp2469
g74
(dp2470
sg83
g79
sg76
(lp2471
g69
(g90
g71
NtRp2472
(dp2473
g74
(dp2474
g94
g95
ssg83
g2468
sg76
(lp2475
S'function'
p2476
asbag69
(g90
g71
NtRp2477
(dp2478
g74
(dp2479
g101
g102
ssg83
g2468
sg76
(lp2480
S':'
asbag69
(g90
g71
NtRp2481
(dp2482
g74
(dp2483
sg83
g2468
sg76
(lp2484
g69
(g70
g71
NtRp2485
(dp2486
g74
(dp2487
g82
I5
ssg83
g2481
sg76
(lp2488
S'index'
p2489
asbasbasbag69
(g85
g71
NtRp2490
(dp2491
g74
(dp2492
sg83
g79
sg76
(lp2493
g69
(g90
g71
NtRp2494
(dp2495
g74
(dp2496
g94
g95
ssg83
g2490
sg76
(lp2497
S'get_vars'
p2498
asbag69
(g90
g71
NtRp2499
(dp2500
g74
(dp2501
g101
g102
ssg83
g2490
sg76
(lp2502
S':'
asbag69
(g90
g71
NtRp2503
(dp2504
g74
(dp2505
sg83
g2490
sg76
(lp2506
g69
(g70
g71
NtRp2507
(dp2508
g74
(dp2509
g82
I5
ssg83
g2503
sg76
(lp2510
g69
(g78
g71
NtRp2511
(dp2512
g74
(dp2513
g82
I4
ssg83
Nsg76
(lp2514
sbasbasbasbag69
(g85
g71
NtRp2515
(dp2516
g74
(dp2517
sg83
g79
sg76
(lp2518
g69
(g90
g71
NtRp2519
(dp2520
g74
(dp2521
g94
g95
ssg83
g2515
sg76
(lp2522
S'global_settings'
p2523
asbag69
(g90
g71
NtRp2524
(dp2525
g74
(dp2526
g101
g102
ssg83
g2515
sg76
(lp2527
S':'
asbag69
(g90
g71
NtRp2528
(dp2529
g74
(dp2530
sg83
g2515
sg76
(lp2531
g69
(g70
g71
NtRp2532
(dp2533
g74
(dp2534
g82
I5
ssg83
g2528
sg76
(lp2535
g69
(g78
g71
NtRp2536
(dp2537
g74
(dp2538
g82
I4
ssg83
Nsg76
(lp2539
g69
(g85
g71
NtRp2540
(dp2541
g74
(dp2542
sg83
g2536
sg76
(lp2543
g69
(g90
g71
NtRp2544
(dp2545
g74
(dp2546
g94
g95
ssg83
g2540
sg76
(lp2547
g1401
asbag69
(g90
g71
NtRp2548
(dp2549
g74
(dp2550
g101
g102
ssg83
g2540
sg76
(lp2551
S':'
asbag69
(g90
g71
NtRp2552
(dp2553
g74
(dp2554
sg83
g2540
sg76
(lp2555
g69
(g70
g71
NtRp2556
(dp2557
g74
(dp2558
g82
I4
ssg83
g2552
sg76
(lp2559
S"set(['/home/vishrut/web2py/applications/astra1/', '/home/vishrut/web2py/applications/admin/', '/home/vishrut/web2py/applications/welcome/'])"
p2560
asbasbasbag69
(g85
g71
NtRp2561
(dp2562
g74
(dp2563
sg83
g2536
sg76
(lp2564
g69
(g90
g71
NtRp2565
(dp2566
g74
(dp2567
g94
g95
ssg83
g2561
sg76
(lp2568
g1423
asbag69
(g90
g71
NtRp2569
(dp2570
g74
(dp2571
g101
g102
ssg83
g2561
sg76
(lp2572
S':'
asbag69
(g90
g71
NtRp2573
(dp2574
g74
(dp2575
sg83
g2561
sg76
(lp2576
g69
(g70
g71
NtRp2577
(dp2578
g74
(dp2579
g82
I4
ssg83
g2573
sg76
(lp2580
g1436
asbasbasbag69
(g85
g71
NtRp2581
(dp2582
g74
(dp2583
sg83
g2536
sg76
(lp2584
g69
(g90
g71
NtRp2585
(dp2586
g74
(dp2587
g94
g95
ssg83
g2581
sg76
(lp2588
g1445
asbag69
(g90
g71
NtRp2589
(dp2590
g74
(dp2591
g101
g102
ssg83
g2581
sg76
(lp2592
S':'
asbag69
(g90
g71
NtRp2593
(dp2594
g74
(dp2595
sg83
g2581
sg76
(lp2596
g69
(g70
g71
NtRp2597
(dp2598
g74
(dp2599
g82
I4
ssg83
g2593
sg76
(lp2600
g69
(g78
g71
NtRp2601
(dp2602
g74
(dp2603
g82
I3
ssg83
Nsg76
(lp2604
sbasbasbasbag69
(g85
g71
NtRp2605
(dp2606
g74
(dp2607
sg83
g2536
sg76
(lp2608
g69
(g90
g71
NtRp2609
(dp2610
g74
(dp2611
g94
g95
ssg83
g2605
sg76
(lp2612
g1470
asbag69
(g90
g71
NtRp2613
(dp2614
g74
(dp2615
g101
g102
ssg83
g2605
sg76
(lp2616
S':'
asbag69
(g90
g71
NtRp2617
(dp2618
g74
(dp2619
sg83
g2605
sg76
(lp2620
g69
(g70
g71
NtRp2621
(dp2622
g74
(dp2623
g82
I4
ssg83
g2617
sg76
(lp2624
S"<Values at 0x8b183cc: {'verbose': False, 'ip': '127.0.0.1', 'shutdown_timeout': 5, 'taskbar': False, 'nocron': False, 'pid_filename': 'httpserver.pid', 'maxthreads': None, 'softcron': False, 'server_name': 'vishrut-Vostro-1015', 'bpython': False, 'nogui': False, 'port': 8000, 'extcron': False, 'debuglevel': 30, 'test': None, 'folder': '/home/vishrut/web2py', 'config': '', 'import_models': False, 'winservice': '', 'shell': None, 'run': '', 'log_filename': 'httpserver.log', 'args': [''], 'socket_timeout': 5, 'ssl_ca_certificate': None, 'scheduler': None, 'profiler_filename': None, 'ssl_private_key': '', 'password': '<ask>', 'request_queue_size': 5, 'ssl_certificate': '', 'cronjob': False, 'numthreads': None, 'quiet': False, 'interfaces': None, 'minthreads': None, 'timeout': 10, 'plain': False, 'nobanner': False}>"
p2625
asbasbasbag69
(g85
g71
NtRp2626
(dp2627
g74
(dp2628
sg83
g2536
sg76
(lp2629
g69
(g90
g71
NtRp2630
(dp2631
g74
(dp2632
g94
g95
ssg83
g2626
sg76
(lp2633
g1536
asbag69
(g90
g71
NtRp2634
(dp2635
g74
(dp2636
g101
g102
ssg83
g2626
sg76
(lp2637
S':'
asbag69
(g90
g71
NtRp2638
(dp2639
g74
(dp2640
sg83
g2626
sg76
(lp2641
g69
(g70
g71
NtRp2642
(dp2643
g74
(dp2644
g82
I4
ssg83
g2638
sg76
(lp2645
S'set([])'
p2646
asbasbasbag69
(g85
g71
NtRp2647
(dp2648
g74
(dp2649
sg83
g2536
sg76
(lp2650
g69
(g90
g71
NtRp2651
(dp2652
g74
(dp2653
g94
g95
ssg83
g2647
sg76
(lp2654
g1558
asbag69
(g90
g71
NtRp2655
(dp2656
g74
(dp2657
g101
g102
ssg83
g2647
sg76
(lp2658
S':'
asbag69
(g90
g71
NtRp2659
(dp2660
g74
(dp2661
sg83
g2647
sg76
(lp2662
g69
(g70
g71
NtRp2663
(dp2664
g74
(dp2665
g82
I4
ssg83
g2659
sg76
(lp2666
g112
asbasbasbag69
(g85
g71
NtRp2667
(dp2668
g74
(dp2669
sg83
g2536
sg76
(lp2670
g69
(g90
g71
NtRp2671
(dp2672
g74
(dp2673
g94
g95
ssg83
g2667
sg76
(lp2674
g1579
asbag69
(g90
g71
NtRp2675
(dp2676
g74
(dp2677
g101
g102
ssg83
g2667
sg76
(lp2678
S':'
asbag69
(g90
g71
NtRp2679
(dp2680
g74
(dp2681
sg83
g2667
sg76
(lp2682
g69
(g70
g71
NtRp2683
(dp2684
g74
(dp2685
g82
I4
ssg83
g2679
sg76
(lp2686
g1592
asbasbasbag69
(g85
g71
NtRp2687
(dp2688
g74
(dp2689
sg83
g2536
sg76
(lp2690
g69
(g90
g71
NtRp2691
(dp2692
g74
(dp2693
g94
g95
ssg83
g2687
sg76
(lp2694
g1841
asbag69
(g90
g71
NtRp2695
(dp2696
g74
(dp2697
g101
g102
ssg83
g2687
sg76
(lp2698
S':'
asbag69
(g90
g71
NtRp2699
(dp2700
g74
(dp2701
sg83
g2687
sg76
(lp2702
g69
(g70
g71
NtRp2703
(dp2704
g74
(dp2705
g82
I4
ssg83
g2699
sg76
(lp2706
g112
asbasbasbag69
(g85
g71
NtRp2707
(dp2708
g74
(dp2709
sg83
g2536
sg76
(lp2710
g69
(g90
g71
NtRp2711
(dp2712
g74
(dp2713
g94
g95
ssg83
g2707
sg76
(lp2714
g1862
asbag69
(g90
g71
NtRp2715
(dp2716
g74
(dp2717
g101
g102
ssg83
g2707
sg76
(lp2718
S':'
asbag69
(g90
g71
NtRp2719
(dp2720
g74
(dp2721
sg83
g2707
sg76
(lp2722
g69
(g70
g71
NtRp2723
(dp2724
g74
(dp2725
g82
I4
ssg83
g2719
sg76
(lp2726
g112
asbasbasbag69
(g85
g71
NtRp2727
(dp2728
g74
(dp2729
sg83
g2536
sg76
(lp2730
g69
(g90
g71
NtRp2731
(dp2732
g74
(dp2733
g94
g95
ssg83
g2727
sg76
(lp2734
g2100
asbag69
(g90
g71
NtRp2735
(dp2736
g74
(dp2737
g101
g102
ssg83
g2727
sg76
(lp2738
S':'
asbag69
(g90
g71
NtRp2739
(dp2740
g74
(dp2741
sg83
g2727
sg76
(lp2742
g69
(g70
g71
NtRp2743
(dp2744
g74
(dp2745
g82
I4
ssg83
g2739
sg76
(lp2746
g2113
asbasbasbag69
(g85
g71
NtRp2747
(dp2748
g74
(dp2749
sg83
g2536
sg76
(lp2750
g69
(g90
g71
NtRp2751
(dp2752
g74
(dp2753
g94
g95
ssg83
g2747
sg76
(lp2754
g2143
asbag69
(g90
g71
NtRp2755
(dp2756
g74
(dp2757
g101
g102
ssg83
g2747
sg76
(lp2758
S':'
asbag69
(g90
g71
NtRp2759
(dp2760
g74
(dp2761
sg83
g2747
sg76
(lp2762
g69
(g70
g71
NtRp2763
(dp2764
g74
(dp2765
g82
I4
ssg83
g2759
sg76
(lp2766
g69
(g78
g71
NtRp2767
(dp2768
g74
(dp2769
g82
I3
ssg83
Nsg76
(lp2770
g69
(g85
g71
NtRp2771
(dp2772
g74
(dp2773
sg83
g2767
sg76
(lp2774
g69
(g90
g71
NtRp2775
(dp2776
g74
(dp2777
sg83
g2771
sg76
(lp2778
g69
(g70
g71
NtRp2779
(dp2780
g74
(dp2781
g82
I3
ssg83
g2775
sg76
(lp2782
S'1'
asbasbasbag69
(g85
g71
NtRp2783
(dp2784
g74
(dp2785
sg83
g2767
sg76
(lp2786
g69
(g90
g71
NtRp2787
(dp2788
g74
(dp2789
sg83
g2783
sg76
(lp2790
g69
(g70
g71
NtRp2791
(dp2792
g74
(dp2793
g82
I3
ssg83
g2787
sg76
(lp2794
S'99'
p2795
asbasbasbag69
(g85
g71
NtRp2796
(dp2797
g74
(dp2798
sg83
g2767
sg76
(lp2799
g69
(g90
g71
NtRp2800
(dp2801
g74
(dp2802
sg83
g2796
sg76
(lp2803
g69
(g70
g71
NtRp2804
(dp2805
g74
(dp2806
g82
I3
ssg83
g2800
sg76
(lp2807
S'7'
asbasbasbag69
(g85
g71
NtRp2808
(dp2809
g74
(dp2810
sg83
g2767
sg76
(lp2811
g69
(g90
g71
NtRp2812
(dp2813
g74
(dp2814
sg83
g2808
sg76
(lp2815
g69
(g70
g71
NtRp2816
(dp2817
g74
(dp2818
g82
I3
ssg83
g2812
sg76
(lp2819
S'datetime.datetime(2012, 3, 4, 22, 12, 8)'
p2820
asbasbasbag69
(g85
g71
NtRp2821
(dp2822
g74
(dp2823
sg83
g2767
sg76
(lp2824
g69
(g90
g71
NtRp2825
(dp2826
g74
(dp2827
sg83
g2821
sg76
(lp2828
g69
(g70
g71
NtRp2829
(dp2830
g74
(dp2831
g82
I3
ssg83
g2825
sg76
(lp2832
g2222
asbasbasbasbasbasbasbasbasbasbasbag69
(g85
g71
NtRp2833
(dp2834
g74
(dp2835
sg83
g79
sg76
(lp2836
g69
(g90
g71
NtRp2837
(dp2838
g74
(dp2839
g94
g95
ssg83
g2833
sg76
(lp2840
S'is_https'
p2841
asbag69
(g90
g71
NtRp2842
(dp2843
g74
(dp2844
g101
g102
ssg83
g2833
sg76
(lp2845
S':'
asbag69
(g90
g71
NtRp2846
(dp2847
g74
(dp2848
sg83
g2833
sg76
(lp2849
g69
(g70
g71
NtRp2850
(dp2851
g74
(dp2852
g82
I5
ssg83
g2846
sg76
(lp2853
g112
asbasbasbag69
(g85
g71
NtRp2854
(dp2855
g74
(dp2856
sg83
g79
sg76
(lp2857
g69
(g90
g71
NtRp2858
(dp2859
g74
(dp2860
g94
g95
ssg83
g2854
sg76
(lp2861
S'is_local'
p2862
asbag69
(g90
g71
NtRp2863
(dp2864
g74
(dp2865
g101
g102
ssg83
g2854
sg76
(lp2866
S':'
asbag69
(g90
g71
NtRp2867
(dp2868
g74
(dp2869
sg83
g2854
sg76
(lp2870
g69
(g70
g71
NtRp2871
(dp2872
g74
(dp2873
g82
I5
ssg83
g2867
sg76
(lp2874
g2331
asbasbasbag69
(g85
g71
NtRp2875
(dp2876
g74
(dp2877
sg83
g79
sg76
(lp2878
g69
(g90
g71
NtRp2879
(dp2880
g74
(dp2881
g94
g95
ssg83
g2875
sg76
(lp2882
S'is_restful'
p2883
asbag69
(g90
g71
NtRp2884
(dp2885
g74
(dp2886
g101
g102
ssg83
g2875
sg76
(lp2887
S':'
asbag69
(g90
g71
NtRp2888
(dp2889
g74
(dp2890
sg83
g2875
sg76
(lp2891
g69
(g70
g71
NtRp2892
(dp2893
g74
(dp2894
g82
I5
ssg83
g2888
sg76
(lp2895
g112
asbasbasbag69
(g85
g71
NtRp2896
(dp2897
g74
(dp2898
sg83
g79
sg76
(lp2899
g69
(g90
g71
NtRp2900
(dp2901
g74
(dp2902
g94
g95
ssg83
g2896
sg76
(lp2903
S'now'
p2904
asbag69
(g90
g71
NtRp2905
(dp2906
g74
(dp2907
g101
g102
ssg83
g2896
sg76
(lp2908
S':'
asbag69
(g90
g71
NtRp2909
(dp2910
g74
(dp2911
sg83
g2896
sg76
(lp2912
g69
(g70
g71
NtRp2913
(dp2914
g74
(dp2915
g82
I5
ssg83
g2909
sg76
(lp2916
S'datetime.datetime(2012, 10, 14, 15, 35, 33, 99322)'
p2917
asbasbasbag69
(g85
g71
NtRp2918
(dp2919
g74
(dp2920
sg83
g79
sg76
(lp2921
g69
(g90
g71
NtRp2922
(dp2923
g74
(dp2924
g94
g95
ssg83
g2918
sg76
(lp2925
S'post_vars'
p2926
asbag69
(g90
g71
NtRp2927
(dp2928
g74
(dp2929
g101
g102
ssg83
g2918
sg76
(lp2930
S':'
asbag69
(g90
g71
NtRp2931
(dp2932
g74
(dp2933
sg83
g2918
sg76
(lp2934
g69
(g70
g71
NtRp2935
(dp2936
g74
(dp2937
g82
I5
ssg83
g2931
sg76
(lp2938
g69
(g78
g71
NtRp2939
(dp2940
g74
(dp2941
g82
I4
ssg83
Nsg76
(lp2942
g69
(g85
g71
NtRp2943
(dp2944
g74
(dp2945
sg83
g2939
sg76
(lp2946
g69
(g90
g71
NtRp2947
(dp2948
g74
(dp2949
g94
g95
ssg83
g2943
sg76
(lp2950
S'username'
p2951
asbag69
(g90
g71
NtRp2952
(dp2953
g74
(dp2954
g101
g102
ssg83
g2943
sg76
(lp2955
S':'
asbag69
(g90
g71
NtRp2956
(dp2957
g74
(dp2958
sg83
g2943
sg76
(lp2959
g69
(g70
g71
NtRp2960
(dp2961
g74
(dp2962
g82
I4
ssg83
g2956
sg76
(lp2963
S'vish'
p2964
asbasbasbasbasbasbasbag69
(g85
g71
NtRp2965
(dp2966
g74
(dp2967
sg83
g79
sg76
(lp2968
g69
(g90
g71
NtRp2969
(dp2970
g74
(dp2971
g94
g95
ssg83
g2965
sg76
(lp2972
S'url'
p2973
asbag69
(g90
g71
NtRp2974
(dp2975
g74
(dp2976
g101
g102
ssg83
g2965
sg76
(lp2977
S':'
asbag69
(g90
g71
NtRp2978
(dp2979
g74
(dp2980
sg83
g2965
sg76
(lp2981
g69
(g70
g71
NtRp2982
(dp2983
g74
(dp2984
g82
I5
ssg83
g2978
sg76
(lp2985
S'/astra1/default/index'
p2986
asbasbasbag69
(g85
g71
NtRp2987
(dp2988
g74
(dp2989
sg83
g79
sg76
(lp2990
g69
(g90
g71
NtRp2991
(dp2992
g74
(dp2993
g94
g95
ssg83
g2987
sg76
(lp2994
S'utcnow'
p2995
asbag69
(g90
g71
NtRp2996
(dp2997
g74
(dp2998
g101
g102
ssg83
g2987
sg76
(lp2999
S':'
asbag69
(g90
g71
NtRp3000
(dp3001
g74
(dp3002
sg83
g2987
sg76
(lp3003
g69
(g70
g71
NtRp3004
(dp3005
g74
(dp3006
g82
I5
ssg83
g3000
sg76
(lp3007
S'datetime.datetime(2012, 10, 14, 10, 35, 33, 99358)'
p3008
asbasbasbag69
(g85
g71
NtRp3009
(dp3010
g74
(dp3011
sg83
g79
sg76
(lp3012
g69
(g90
g71
NtRp3013
(dp3014
g74
(dp3015
g94
g95
ssg83
g3009
sg76
(lp3016
S'uuid'
p3017
asbag69
(g90
g71
NtRp3018
(dp3019
g74
(dp3020
g101
g102
ssg83
g3009
sg76
(lp3021
S':'
asbag69
(g90
g71
NtRp3022
(dp3023
g74
(dp3024
sg83
g3009
sg76
(lp3025
g69
(g70
g71
NtRp3026
(dp3027
g74
(dp3028
g82
I5
ssg83
g3022
sg76
(lp3029
S'astra1/127.0.0.1.2012-10-14.15-35-33.b7502124-c1a2-400a-b7a7-cd8210e40a1f'
p3030
asbasbasbag69
(g85
g71
NtRp3031
(dp3032
g74
(dp3033
sg83
g79
sg76
(lp3034
g69
(g90
g71
NtRp3035
(dp3036
g74
(dp3037
g94
g95
ssg83
g3031
sg76
(lp3038
S'vars'
p3039
asbag69
(g90
g71
NtRp3040
(dp3041
g74
(dp3042
g101
g102
ssg83
g3031
sg76
(lp3043
S':'
asbag69
(g90
g71
NtRp3044
(dp3045
g74
(dp3046
sg83
g3031
sg76
(lp3047
g69
(g70
g71
NtRp3048
(dp3049
g74
(dp3050
g82
I5
ssg83
g3044
sg76
(lp3051
g69
(g78
g71
NtRp3052
(dp3053
g74
(dp3054
g82
I4
ssg83
Nsg76
(lp3055
g69
(g85
g71
NtRp3056
(dp3057
g74
(dp3058
sg83
g3052
sg76
(lp3059
g69
(g90
g71
NtRp3060
(dp3061
g74
(dp3062
g94
g95
ssg83
g3056
sg76
(lp3063
g2951
asbag69
(g90
g71
NtRp3064
(dp3065
g74
(dp3066
g101
g102
ssg83
g3056
sg76
(lp3067
S':'
asbag69
(g90
g71
NtRp3068
(dp3069
g74
(dp3070
sg83
g3056
sg76
(lp3071
g69
(g70
g71
NtRp3072
(dp3073
g74
(dp3074
g82
I4
ssg83
g3068
sg76
(lp3075
g2964
asbasbasbasbasbasbasbag69
(g85
g71
NtRp3076
(dp3077
g74
(dp3078
sg83
g79
sg76
(lp3079
g69
(g90
g71
NtRp3080
(dp3081
g74
(dp3082
g94
g95
ssg83
g3076
sg76
(lp3083
S'wsgi'
p3084
asbag69
(g90
g71
NtRp3085
(dp3086
g74
(dp3087
g101
g102
ssg83
g3076
sg76
(lp3088
S':'
asbag69
(g90
g71
NtRp3089
(dp3090
g74
(dp3091
sg83
g3076
sg76
(lp3092
g69
(g70
g71
NtRp3093
(dp3094
g74
(dp3095
g82
I5
ssg83
g3089
sg76
(lp3096
g69
(g78
g71
NtRp3097
(dp3098
g74
(dp3099
g82
I4
ssg83
Nsg76
(lp3100
g69
(g85
g71
NtRp3101
(dp3102
g74
(dp3103
sg83
g3097
sg76
(lp3104
g69
(g90
g71
NtRp3105
(dp3106
g74
(dp3107
g94
g95
ssg83
g3101
sg76
(lp3108
S'environ'
p3109
asbag69
(g90
g71
NtRp3110
(dp3111
g74
(dp3112
g101
g102
ssg83
g3101
sg76
(lp3113
S':'
asbag69
(g90
g71
NtRp3114
(dp3115
g74
(dp3116
sg83
g3101
sg76
(lp3117
g69
(g70
g71
NtRp3118
(dp3119
g74
(dp3120
g82
I4
ssg83
g3114
sg76
(lp3121
g69
(g78
g71
NtRp3122
(dp3123
g74
(dp3124
g82
I3
ssg83
Nsg76
(lp3125
g69
(g85
g71
NtRp3126
(dp3127
g74
(dp3128
sg83
g3122
sg76
(lp3129
g69
(g90
g71
NtRp3130
(dp3131
g74
(dp3132
g94
g95
ssg83
g3126
sg76
(lp3133
S'CONTENT_LENGTH'
p3134
asbag69
(g90
g71
NtRp3135
(dp3136
g74
(dp3137
g101
g102
ssg83
g3126
sg76
(lp3138
S':'
asbag69
(g90
g71
NtRp3139
(dp3140
g74
(dp3141
sg83
g3126
sg76
(lp3142
g69
(g70
g71
NtRp3143
(dp3144
g74
(dp3145
g82
I3
ssg83
g3139
sg76
(lp3146
g1505
asbasbasbag69
(g85
g71
NtRp3147
(dp3148
g74
(dp3149
sg83
g3122
sg76
(lp3150
g69
(g90
g71
NtRp3151
(dp3152
g74
(dp3153
g94
g95
ssg83
g3147
sg76
(lp3154
S'CONTENT_TYPE'
p3155
asbag69
(g90
g71
NtRp3156
(dp3157
g74
(dp3158
g101
g102
ssg83
g3147
sg76
(lp3159
S':'
asbag69
(g90
g71
NtRp3160
(dp3161
g74
(dp3162
sg83
g3147
sg76
(lp3163
g69
(g70
g71
NtRp3164
(dp3165
g74
(dp3166
g82
I3
ssg83
g3160
sg76
(lp3167
g1527
asbasbasbag69
(g85
g71
NtRp3168
(dp3169
g74
(dp3170
sg83
g3122
sg76
(lp3171
g69
(g90
g71
NtRp3172
(dp3173
g74
(dp3174
g94
g95
ssg83
g3168
sg76
(lp3175
S'HTTP_ACCEPT'
p3176
asbag69
(g90
g71
NtRp3177
(dp3178
g74
(dp3179
g101
g102
ssg83
g3168
sg76
(lp3180
S':'
asbag69
(g90
g71
NtRp3181
(dp3182
g74
(dp3183
sg83
g3168
sg76
(lp3184
g69
(g70
g71
NtRp3185
(dp3186
g74
(dp3187
g82
I3
ssg83
g3181
sg76
(lp3188
g1614
asbasbasbag69
(g85
g71
NtRp3189
(dp3190
g74
(dp3191
sg83
g3122
sg76
(lp3192
g69
(g90
g71
NtRp3193
(dp3194
g74
(dp3195
g94
g95
ssg83
g3189
sg76
(lp3196
S'HTTP_ACCEPT_ENCODING'
p3197
asbag69
(g90
g71
NtRp3198
(dp3199
g74
(dp3200
g101
g102
ssg83
g3189
sg76
(lp3201
S':'
asbag69
(g90
g71
NtRp3202
(dp3203
g74
(dp3204
sg83
g3189
sg76
(lp3205
g69
(g70
g71
NtRp3206
(dp3207
g74
(dp3208
g82
I3
ssg83
g3202
sg76
(lp3209
g1636
asbasbasbag69
(g85
g71
NtRp3210
(dp3211
g74
(dp3212
sg83
g3122
sg76
(lp3213
g69
(g90
g71
NtRp3214
(dp3215
g74
(dp3216
g94
g95
ssg83
g3210
sg76
(lp3217
S'HTTP_ACCEPT_LANGUAGE'
p3218
asbag69
(g90
g71
NtRp3219
(dp3220
g74
(dp3221
g101
g102
ssg83
g3210
sg76
(lp3222
S':'
asbag69
(g90
g71
NtRp3223
(dp3224
g74
(dp3225
sg83
g3210
sg76
(lp3226
g69
(g70
g71
NtRp3227
(dp3228
g74
(dp3229
g82
I3
ssg83
g3223
sg76
(lp3230
g1658
asbasbasbag69
(g85
g71
NtRp3231
(dp3232
g74
(dp3233
sg83
g3122
sg76
(lp3234
g69
(g90
g71
NtRp3235
(dp3236
g74
(dp3237
g94
g95
ssg83
g3231
sg76
(lp3238
S'HTTP_CACHE_CONTROL'
p3239
asbag69
(g90
g71
NtRp3240
(dp3241
g74
(dp3242
g101
g102
ssg83
g3231
sg76
(lp3243
S':'
asbag69
(g90
g71
NtRp3244
(dp3245
g74
(dp3246
sg83
g3231
sg76
(lp3247
g69
(g70
g71
NtRp3248
(dp3249
g74
(dp3250
g82
I3
ssg83
g3244
sg76
(lp3251
g1680
asbasbasbag69
(g85
g71
NtRp3252
(dp3253
g74
(dp3254
sg83
g3122
sg76
(lp3255
g69
(g90
g71
NtRp3256
(dp3257
g74
(dp3258
g94
g95
ssg83
g3252
sg76
(lp3259
S'HTTP_CONNECTION'
p3260
asbag69
(g90
g71
NtRp3261
(dp3262
g74
(dp3263
g101
g102
ssg83
g3252
sg76
(lp3264
S':'
asbag69
(g90
g71
NtRp3265
(dp3266
g74
(dp3267
sg83
g3252
sg76
(lp3268
g69
(g70
g71
NtRp3269
(dp3270
g74
(dp3271
g82
I3
ssg83
g3265
sg76
(lp3272
g1702
asbasbasbag69
(g85
g71
NtRp3273
(dp3274
g74
(dp3275
sg83
g3122
sg76
(lp3276
g69
(g90
g71
NtRp3277
(dp3278
g74
(dp3279
g94
g95
ssg83
g3273
sg76
(lp3280
S'HTTP_CONTENT_LENGTH'
p3281
asbag69
(g90
g71
NtRp3282
(dp3283
g74
(dp3284
g101
g102
ssg83
g3273
sg76
(lp3285
S':'
asbag69
(g90
g71
NtRp3286
(dp3287
g74
(dp3288
sg83
g3273
sg76
(lp3289
g69
(g70
g71
NtRp3290
(dp3291
g74
(dp3292
g82
I3
ssg83
g3286
sg76
(lp3293
g1505
asbasbasbag69
(g85
g71
NtRp3294
(dp3295
g74
(dp3296
sg83
g3122
sg76
(lp3297
g69
(g90
g71
NtRp3298
(dp3299
g74
(dp3300
g94
g95
ssg83
g3294
sg76
(lp3301
S'HTTP_CONTENT_TYPE'
p3302
asbag69
(g90
g71
NtRp3303
(dp3304
g74
(dp3305
g101
g102
ssg83
g3294
sg76
(lp3306
S':'
asbag69
(g90
g71
NtRp3307
(dp3308
g74
(dp3309
sg83
g3294
sg76
(lp3310
g69
(g70
g71
NtRp3311
(dp3312
g74
(dp3313
g82
I3
ssg83
g3307
sg76
(lp3314
g1527
asbasbasbag69
(g85
g71
NtRp3315
(dp3316
g74
(dp3317
sg83
g3122
sg76
(lp3318
g69
(g90
g71
NtRp3319
(dp3320
g74
(dp3321
g94
g95
ssg83
g3315
sg76
(lp3322
S'HTTP_COOKIE'
p3323
asbag69
(g90
g71
NtRp3324
(dp3325
g74
(dp3326
g101
g102
ssg83
g3315
sg76
(lp3327
S':'
asbag69
(g90
g71
NtRp3328
(dp3329
g74
(dp3330
sg83
g3315
sg76
(lp3331
g69
(g70
g71
NtRp3332
(dp3333
g74
(dp3334
g82
I3
ssg83
g3328
sg76
(lp3335
g1766
asbasbasbag69
(g85
g71
NtRp3336
(dp3337
g74
(dp3338
sg83
g3122
sg76
(lp3339
g69
(g90
g71
NtRp3340
(dp3341
g74
(dp3342
g94
g95
ssg83
g3336
sg76
(lp3343
S'HTTP_HOST'
p3344
asbag69
(g90
g71
NtRp3345
(dp3346
g74
(dp3347
g101
g102
ssg83
g3336
sg76
(lp3348
S':'
asbag69
(g90
g71
NtRp3349
(dp3350
g74
(dp3351
sg83
g3336
sg76
(lp3352
g69
(g70
g71
NtRp3353
(dp3354
g74
(dp3355
g82
I3
ssg83
g3349
sg76
(lp3356
g1788
asbasbasbag69
(g85
g71
NtRp3357
(dp3358
g74
(dp3359
sg83
g3122
sg76
(lp3360
g69
(g90
g71
NtRp3361
(dp3362
g74
(dp3363
g94
g95
ssg83
g3357
sg76
(lp3364
S'HTTP_REFERER'
p3365
asbag69
(g90
g71
NtRp3366
(dp3367
g74
(dp3368
g101
g102
ssg83
g3357
sg76
(lp3369
S':'
asbag69
(g90
g71
NtRp3370
(dp3371
g74
(dp3372
sg83
g3357
sg76
(lp3373
g69
(g70
g71
NtRp3374
(dp3375
g74
(dp3376
g82
I3
ssg83
g3370
sg76
(lp3377
g1810
asbasbasbag69
(g85
g71
NtRp3378
(dp3379
g74
(dp3380
sg83
g3122
sg76
(lp3381
g69
(g90
g71
NtRp3382
(dp3383
g74
(dp3384
g94
g95
ssg83
g3378
sg76
(lp3385
S'HTTP_USER_AGENT'
p3386
asbag69
(g90
g71
NtRp3387
(dp3388
g74
(dp3389
g101
g102
ssg83
g3378
sg76
(lp3390
S':'
asbag69
(g90
g71
NtRp3391
(dp3392
g74
(dp3393
sg83
g3378
sg76
(lp3394
g69
(g70
g71
NtRp3395
(dp3396
g74
(dp3397
g82
I3
ssg83
g3391
sg76
(lp3398
g1832
asbasbasbag69
(g85
g71
NtRp3399
(dp3400
g74
(dp3401
sg83
g3122
sg76
(lp3402
g69
(g90
g71
NtRp3403
(dp3404
g74
(dp3405
g94
g95
ssg83
g3399
sg76
(lp3406
S'PATH_INFO'
p3407
asbag69
(g90
g71
NtRp3408
(dp3409
g74
(dp3410
g101
g102
ssg83
g3399
sg76
(lp3411
S':'
asbag69
(g90
g71
NtRp3412
(dp3413
g74
(dp3414
sg83
g3399
sg76
(lp3415
g69
(g70
g71
NtRp3416
(dp3417
g74
(dp3418
g82
I3
ssg83
g3412
sg76
(lp3419
g1896
asbasbasbag69
(g85
g71
NtRp3420
(dp3421
g74
(dp3422
sg83
g3122
sg76
(lp3423
g69
(g90
g71
NtRp3424
(dp3425
g74
(dp3426
g94
g95
ssg83
g3420
sg76
(lp3427
S'QUERY_STRING'
p3428
asbag69
(g90
g71
NtRp3429
(dp3430
g74
(dp3431
g101
g102
ssg83
g3420
sg76
(lp3432
S':'
asbag69
(g90
g71
NtRp3433
(dp3434
g74
(dp3435
sg83
g3420
sg76
(lp3436
g69
(g70
g71
NtRp3437
(dp3438
g74
(dp3439
g82
I3
ssg83
g3433
sg76
(lp3440
S''
asbasbasbag69
(g85
g71
NtRp3441
(dp3442
g74
(dp3443
sg83
g3122
sg76
(lp3444
g69
(g90
g71
NtRp3445
(dp3446
g74
(dp3447
g94
g95
ssg83
g3441
sg76
(lp3448
S'REMOTE_ADDR'
p3449
asbag69
(g90
g71
NtRp3450
(dp3451
g74
(dp3452
g101
g102
ssg83
g3441
sg76
(lp3453
S':'
asbag69
(g90
g71
NtRp3454
(dp3455
g74
(dp3456
sg83
g3441
sg76
(lp3457
g69
(g70
g71
NtRp3458
(dp3459
g74
(dp3460
g82
I3
ssg83
g3454
sg76
(lp3461
g202
asbasbasbag69
(g85
g71
NtRp3462
(dp3463
g74
(dp3464
sg83
g3122
sg76
(lp3465
g69
(g90
g71
NtRp3466
(dp3467
g74
(dp3468
g94
g95
ssg83
g3462
sg76
(lp3469
S'REMOTE_PORT'
p3470
asbag69
(g90
g71
NtRp3471
(dp3472
g74
(dp3473
g101
g102
ssg83
g3462
sg76
(lp3474
S':'
asbag69
(g90
g71
NtRp3475
(dp3476
g74
(dp3477
sg83
g3462
sg76
(lp3478
g69
(g70
g71
NtRp3479
(dp3480
g74
(dp3481
g82
I3
ssg83
g3475
sg76
(lp3482
g1960
asbasbasbag69
(g85
g71
NtRp3483
(dp3484
g74
(dp3485
sg83
g3122
sg76
(lp3486
g69
(g90
g71
NtRp3487
(dp3488
g74
(dp3489
g94
g95
ssg83
g3483
sg76
(lp3490
S'REQUEST_METHOD'
p3491
asbag69
(g90
g71
NtRp3492
(dp3493
g74
(dp3494
g101
g102
ssg83
g3483
sg76
(lp3495
S':'
asbag69
(g90
g71
NtRp3496
(dp3497
g74
(dp3498
sg83
g3483
sg76
(lp3499
g69
(g70
g71
NtRp3500
(dp3501
g74
(dp3502
g82
I3
ssg83
g3496
sg76
(lp3503
g1982
asbasbasbag69
(g85
g71
NtRp3504
(dp3505
g74
(dp3506
sg83
g3122
sg76
(lp3507
g69
(g90
g71
NtRp3508
(dp3509
g74
(dp3510
g94
g95
ssg83
g3504
sg76
(lp3511
S'SCRIPT_NAME'
p3512
asbag69
(g90
g71
NtRp3513
(dp3514
g74
(dp3515
g101
g102
ssg83
g3504
sg76
(lp3516
S':'
asbag69
(g90
g71
NtRp3517
(dp3518
g74
(dp3519
sg83
g3504
sg76
(lp3520
g69
(g70
g71
NtRp3521
(dp3522
g74
(dp3523
g82
I3
ssg83
g3517
sg76
(lp3524
S''
asbasbasbag69
(g85
g71
NtRp3525
(dp3526
g74
(dp3527
sg83
g3122
sg76
(lp3528
g69
(g90
g71
NtRp3529
(dp3530
g74
(dp3531
g94
g95
ssg83
g3525
sg76
(lp3532
S'SERVER_NAME'
p3533
asbag69
(g90
g71
NtRp3534
(dp3535
g74
(dp3536
g101
g102
ssg83
g3525
sg76
(lp3537
S':'
asbag69
(g90
g71
NtRp3538
(dp3539
g74
(dp3540
sg83
g3525
sg76
(lp3541
g69
(g70
g71
NtRp3542
(dp3543
g74
(dp3544
g82
I3
ssg83
g3538
sg76
(lp3545
g2025
asbasbasbag69
(g85
g71
NtRp3546
(dp3547
g74
(dp3548
sg83
g3122
sg76
(lp3549
g69
(g90
g71
NtRp3550
(dp3551
g74
(dp3552
g94
g95
ssg83
g3546
sg76
(lp3553
S'SERVER_PORT'
p3554
asbag69
(g90
g71
NtRp3555
(dp3556
g74
(dp3557
g101
g102
ssg83
g3546
sg76
(lp3558
S':'
asbag69
(g90
g71
NtRp3559
(dp3560
g74
(dp3561
sg83
g3546
sg76
(lp3562
g69
(g70
g71
NtRp3563
(dp3564
g74
(dp3565
g82
I3
ssg83
g3559
sg76
(lp3566
g2047
asbasbasbag69
(g85
g71
NtRp3567
(dp3568
g74
(dp3569
sg83
g3122
sg76
(lp3570
g69
(g90
g71
NtRp3571
(dp3572
g74
(dp3573
g94
g95
ssg83
g3567
sg76
(lp3574
S'SERVER_PROTOCOL'
p3575
asbag69
(g90
g71
NtRp3576
(dp3577
g74
(dp3578
g101
g102
ssg83
g3567
sg76
(lp3579
S':'
asbag69
(g90
g71
NtRp3580
(dp3581
g74
(dp3582
sg83
g3567
sg76
(lp3583
g69
(g70
g71
NtRp3584
(dp3585
g74
(dp3586
g82
I3
ssg83
g3580
sg76
(lp3587
g2069
asbasbasbag69
(g85
g71
NtRp3588
(dp3589
g74
(dp3590
sg83
g3122
sg76
(lp3591
g69
(g90
g71
NtRp3592
(dp3593
g74
(dp3594
g94
g95
ssg83
g3588
sg76
(lp3595
S'SERVER_SOFTWARE'
p3596
asbag69
(g90
g71
NtRp3597
(dp3598
g74
(dp3599
g101
g102
ssg83
g3588
sg76
(lp3600
S':'
asbag69
(g90
g71
NtRp3601
(dp3602
g74
(dp3603
sg83
g3588
sg76
(lp3604
g69
(g70
g71
NtRp3605
(dp3606
g74
(dp3607
g82
I3
ssg83
g3601
sg76
(lp3608
g2091
asbasbasbag69
(g85
g71
NtRp3609
(dp3610
g74
(dp3611
sg83
g3122
sg76
(lp3612
g69
(g90
g71
NtRp3613
(dp3614
g74
(dp3615
g94
g95
ssg83
g3609
sg76
(lp3616
S'wsgi.errors'
p3617
asbag69
(g90
g71
NtRp3618
(dp3619
g74
(dp3620
g101
g102
ssg83
g3609
sg76
(lp3621
S':'
asbag69
(g90
g71
NtRp3622
(dp3623
g74
(dp3624
sg83
g3609
sg76
(lp3625
g69
(g70
g71
NtRp3626
(dp3627
g74
(dp3628
g82
I3
ssg83
g3622
sg76
(lp3629
S"<open file '<stderr>', mode 'w' at 0xb76fa0d0>"
p3630
asbasbasbag69
(g85
g71
NtRp3631
(dp3632
g74
(dp3633
sg83
g3122
sg76
(lp3634
g69
(g90
g71
NtRp3635
(dp3636
g74
(dp3637
g94
g95
ssg83
g3631
sg76
(lp3638
S'wsgi.file_wrapper'
p3639
asbag69
(g90
g71
NtRp3640
(dp3641
g74
(dp3642
g101
g102
ssg83
g3631
sg76
(lp3643
S':'
asbag69
(g90
g71
NtRp3644
(dp3645
g74
(dp3646
sg83
g3631
sg76
(lp3647
g69
(g70
g71
NtRp3648
(dp3649
g74
(dp3650
g82
I3
ssg83
g3644
sg76
(lp3651
S'<class wsgiref.util.FileWrapper at 0x8a37aac>'
p3652
asbasbasbag69
(g85
g71
NtRp3653
(dp3654
g74
(dp3655
sg83
g3122
sg76
(lp3656
g69
(g90
g71
NtRp3657
(dp3658
g74
(dp3659
g94
g95
ssg83
g3653
sg76
(lp3660
S'wsgi.input'
p3661
asbag69
(g90
g71
NtRp3662
(dp3663
g74
(dp3664
g101
g102
ssg83
g3653
sg76
(lp3665
S':'
asbag69
(g90
g71
NtRp3666
(dp3667
g74
(dp3668
sg83
g3653
sg76
(lp3669
g69
(g70
g71
NtRp3670
(dp3671
g74
(dp3672
g82
I3
ssg83
g3666
sg76
(lp3673
S"<open file '<fdopen>', mode 'w+b' at 0x90073e8>"
p3674
asbasbasbag69
(g85
g71
NtRp3675
(dp3676
g74
(dp3677
sg83
g3122
sg76
(lp3678
g69
(g90
g71
NtRp3679
(dp3680
g74
(dp3681
g94
g95
ssg83
g3675
sg76
(lp3682
S'wsgi.multiprocess'
p3683
asbag69
(g90
g71
NtRp3684
(dp3685
g74
(dp3686
g101
g102
ssg83
g3675
sg76
(lp3687
S':'
asbag69
(g90
g71
NtRp3688
(dp3689
g74
(dp3690
sg83
g3675
sg76
(lp3691
g69
(g70
g71
NtRp3692
(dp3693
g74
(dp3694
g82
I3
ssg83
g3688
sg76
(lp3695
g112
asbasbasbag69
(g85
g71
NtRp3696
(dp3697
g74
(dp3698
sg83
g3122
sg76
(lp3699
g69
(g90
g71
NtRp3700
(dp3701
g74
(dp3702
g94
g95
ssg83
g3696
sg76
(lp3703
S'wsgi.multithread'
p3704
asbag69
(g90
g71
NtRp3705
(dp3706
g74
(dp3707
g101
g102
ssg83
g3696
sg76
(lp3708
S':'
asbag69
(g90
g71
NtRp3709
(dp3710
g74
(dp3711
sg83
g3696
sg76
(lp3712
g69
(g70
g71
NtRp3713
(dp3714
g74
(dp3715
g82
I3
ssg83
g3709
sg76
(lp3716
g2331
asbasbasbag69
(g85
g71
NtRp3717
(dp3718
g74
(dp3719
sg83
g3122
sg76
(lp3720
g69
(g90
g71
NtRp3721
(dp3722
g74
(dp3723
g94
g95
ssg83
g3717
sg76
(lp3724
S'wsgi.run_once'
p3725
asbag69
(g90
g71
NtRp3726
(dp3727
g74
(dp3728
g101
g102
ssg83
g3717
sg76
(lp3729
S':'
asbag69
(g90
g71
NtRp3730
(dp3731
g74
(dp3732
sg83
g3717
sg76
(lp3733
g69
(g70
g71
NtRp3734
(dp3735
g74
(dp3736
g82
I3
ssg83
g3730
sg76
(lp3737
g112
asbasbasbag69
(g85
g71
NtRp3738
(dp3739
g74
(dp3740
sg83
g3122
sg76
(lp3741
g69
(g90
g71
NtRp3742
(dp3743
g74
(dp3744
g94
g95
ssg83
g3738
sg76
(lp3745
S'wsgi.url_scheme'
p3746
asbag69
(g90
g71
NtRp3747
(dp3748
g74
(dp3749
g101
g102
ssg83
g3738
sg76
(lp3750
S':'
asbag69
(g90
g71
NtRp3751
(dp3752
g74
(dp3753
sg83
g3738
sg76
(lp3754
g69
(g70
g71
NtRp3755
(dp3756
g74
(dp3757
g82
I3
ssg83
g3751
sg76
(lp3758
g2374
asbasbasbag69
(g85
g71
NtRp3759
(dp3760
g74
(dp3761
sg83
g3122
sg76
(lp3762
g69
(g90
g71
NtRp3763
(dp3764
g74
(dp3765
g94
g95
ssg83
g3759
sg76
(lp3766
S'wsgi.version'
p3767
asbag69
(g90
g71
NtRp3768
(dp3769
g74
(dp3770
g101
g102
ssg83
g3759
sg76
(lp3771
S':'
asbag69
(g90
g71
NtRp3772
(dp3773
g74
(dp3774
sg83
g3759
sg76
(lp3775
g69
(g70
g71
NtRp3776
(dp3777
g74
(dp3778
g82
I3
ssg83
g3772
sg76
(lp3779
S'1'
asbasbasbasbasbasbasbasbasbasbasbasbasbsS'frames'
p3780
(lp3781
(dp3782
S'file'
p3783
S'/home/vishrut/web2py/gluon/restricted.py'
p3784
sS'dump'
p3785
(dp3786
S'environment'
p3787
S"{'A': <class 'gluon.html.A'>, 'Auth': <class 'gluon.tools.Auth'>, 'B': <class 'gluon.html.B'>, 'BEAUTIFY': <class 'gluon.html.BEAUTIFY'>, 'BODY': <class 'gluon.html.BODY'>, 'BR': <class 'gluon.html.BR'>, 'BUTTON': <class 'gluon.html.BUTTON'>, 'CAT': <class 'gluon.html.CAT'>, 'CENTER': <class 'gluon.html.CENTER'>, 'CLEANUP': <class 'gluon.validators.CLEANUP'>, ...}"
p3788
sS'ccode'
p3789
S'<code object <module> at 0x9066cc8, file "/home/...eb2py/applications/astra1/models/db.py", line 12>'
p3790
ssS'lnum'
p3791
I205
sS'lines'
p3792
(dp3793
I200
S'    try:'
p3794
sI201
S'        if type(code) == types.CodeType:'
p3795
sI202
S'            ccode = code'
p3796
sI203
S'        else:'
p3797
sI204
S'            ccode = compile2(code,layer)'
p3798
sI205
S'        exec ccode in environment'
p3799
sI206
S'    except HTTP:'
p3800
sI207
S'        raise'
p3801
sI208
S'    except RestrictedError:'
p3802
sI209
S'        # do not encapsulate (obfuscate) the original RestrictedError'
p3803
ssS'call'
p3804
S'(code="# -*- coding: utf-8 -*-\\n\\n#######################...quires=IS_IN_DB(db, db.rooms.id, \'%(username)s\')\\n", environment={\'A\': <class \'gluon.html.A\'>, \'Auth\': <class \'gluon.tools.Auth\'>, \'B\': <class \'gluon.html.B\'>, \'BEAUTIFY\': <class \'gluon.html.BEAUTIFY\'>, \'BODY\': <class \'gluon.html.BODY\'>, \'BR\': <class \'gluon.html.BR\'>, \'BUTTON\': <class \'gluon.html.BUTTON\'>, \'CAT\': <class \'gluon.html.CAT\'>, \'CENTER\': <class \'gluon.html.CENTER\'>, \'CLEANUP\': <class \'gluon.validators.CLEANUP\'>, ...}, layer=\'/home/vishrut/web2py/applications/astra1/models/db.py\')'
p3805
sS'func'
p3806
S'restricted'
p3807
sa(dp3808
g3783
S'/home/vishrut/web2py/applications/astra1/models/db.py'
p3809
sg3785
(dp3810
S'Field'
p3811
S"<class 'gluon.dal.Field'>"
p3812
ssg3791
I92
sg3792
(dp3813
I96
S''
sI87
S'auth.define_tables()'
p3814
sI88
S"auth.add_group('role','description')"
p3815
sI89
S''
sI90
S"db.define_table('kids',"
p3816
sI91
S"                Field('username',unique=True),"
p3817
sI92
S'                Field(\'password\',"passowrd")'
p3818
sI93
S"          #      Field('rno','integer')"
p3819
sI94
S"                #format='%(username)s'"
p3820
sI95
S'                )'
p3821
ssg3804
S'()'
p3822
sg3806
S'<module>'
p3823
sa(dp3824
g3783
S'/home/vishrut/web2py/gluon/dal.py'
p3825
sg3785
(dp3826
S'polymodel'
p3827
S'None'
p3828
ssg3791
I6320
sg3792
(dp3829
I6315
S"        if migrate or self._adapter.dbengine=='google:datastore':"
p3830
sI6316
S'            try:'
p3831
sI6317
S'                sql_locker.acquire()'
p3832
sI6318
S'                self._adapter.create_table(t,migrate=migrate,'
p3833
sI6319
S'                                           fake_migrate=fake_migrate,'
p3834
sI6320
S'                                           polymodel=polymodel)'
p3835
sI6321
S'            finally:'
p3836
sI6322
S'                sql_locker.release()'
p3837
sI6323
S'        else:'
p3838
sI6324
S'            t._dbt = None'
p3839
ssg3804
S"(self=<DAL {'auth_event': <Table {'origin': <gluon.dal...n_key': <gluon.dal.Field object at 0x9058eac>}>}>, tablename='kids', *fields=(<gluon.dal.Field object>, <gluon.dal.Field object>), **args={})"
p3840
sg3806
S'define_table'
p3841
sa(dp3842
g3783
S'/home/vishrut/web2py/gluon/dal.py'
p3843
sg3785
(dp3844
S'field.type'
p3845
S"'passowrd'"
p3846
sS'field'
p3847
S'<gluon.dal.Field object>'
p3848
sS'field.name'
p3849
S"'password'"
p3850
ssg3791
I638
sg3792
(dp3851
I640
S'                ftype = self.types[field.type]\\'
p3852
sI641
S'                     % dict(length=field.length)'
p3853
sI642
S"            if not field.type.startswith('id') and not field.type.startswith('reference'):"
p3854
sI633
S"                precision, scale = map(int,field.type[8:-1].split(','))"
p3855
sI634
S'                ftype = self.types[field.type[:7]] % \\'
p3856
sI635
S'                    dict(precision=precision,scale=scale)'
p3857
sI636
S'            elif not field.type in self.types:'
p3858
sI637
S"                raise SyntaxError, 'Field: unknown field type: %s for %s' % \\"
p3859
sI638
S'                    (field.type, field.name)'
p3860
sI639
S'            else:'
p3861
ssg3804
S"(self=<gluon.dal.SQLiteAdapter object>, table=<Table {'username': <gluon.dal.Field object at 0...c>, 'id': <gluon.dal.Field object at 0x902b7ac>}>, migrate=True, fake_migrate=False, polymodel=None)"
p3862
sg3806
S'create_table'
p3863
sasS'pyver'
p3864
S'Python 2.7.2+: /usr/bin/python'
p3865
sS'session'
p3866
g69
(g70
g71
NtRp3867
(dp3868
g74
(dp3869
sg76
(lp3870
g69
(g78
g71
NtRp3871
(dp3872
g74
(dp3873
g82
I5
ssg83
Nsg76
(lp3874
g69
(g85
g71
NtRp3875
(dp3876
g74
(dp3877
sg83
g3871
sg76
(lp3878
g69
(g90
g71
NtRp3879
(dp3880
g74
(dp3881
g94
g95
ssg83
g3875
sg76
(lp3882
S'last_query'
p3883
asbag69
(g90
g71
NtRp3884
(dp3885
g74
(dp3886
g101
g102
ssg83
g3875
sg76
(lp3887
S':'
asbag69
(g90
g71
NtRp3888
(dp3889
g74
(dp3890
sg83
g3875
sg76
(lp3891
g69
(g70
g71
NtRp3892
(dp3893
g74
(dp3894
g82
I5
ssg83
g3888
sg76
(lp3895
S'db.kids.id>0'
p3896
asbasbasbasbasbsS'etype'
p3897
S"<type 'exceptions.SyntaxError'>"
p3898
sS'date'
p3899
S'Sun Oct 14 15:35:33 2012'
p3900
sS'response'
p3901
g69
(g70
g71
NtRp3902
(dp3903
g74
(dp3904
sg76
(lp3905
g69
(g78
g71
NtRp3906
(dp3907
g74
(dp3908
g82
I5
ssg83
Nsg76
(lp3909
g69
(g85
g71
NtRp3910
(dp3911
g74
(dp3912
sg83
g3906
sg76
(lp3913
g69
(g90
g71
NtRp3914
(dp3915
g74
(dp3916
g94
g95
ssg83
g3910
sg76
(lp3917
g167
asbag69
(g90
g71
NtRp3918
(dp3919
g74
(dp3920
g101
g102
ssg83
g3910
sg76
(lp3921
S':'
asbag69
(g90
g71
NtRp3922
(dp3923
g74
(dp3924
sg83
g3910
sg76
(lp3925
g69
(g70
g71
NtRp3926
(dp3927
g74
(dp3928
g82
I5
ssg83
g3922
sg76
(lp3929
S'<cStringIO.StringO object at 0x909fca0>'
p3930
asbasbasbag69
(g85
g71
NtRp3931
(dp3932
g74
(dp3933
sg83
g3906
sg76
(lp3934
g69
(g90
g71
NtRp3935
(dp3936
g74
(dp3937
g94
g95
ssg83
g3931
sg76
(lp3938
g233
asbag69
(g90
g71
NtRp3939
(dp3940
g74
(dp3941
g101
g102
ssg83
g3931
sg76
(lp3942
S':'
asbag69
(g90
g71
NtRp3943
(dp3944
g74
(dp3945
sg83
g3931
sg76
(lp3946
g69
(g70
g71
NtRp3947
(dp3948
g74
(dp3949
g82
I5
ssg83
g3943
sg76
(lp3950
g69
(g78
g71
NtRp3951
(dp3952
g74
(dp3953
g82
I4
ssg83
Nsg76
(lp3954
g69
(g85
g71
NtRp3955
(dp3956
g74
(dp3957
sg83
g3951
sg76
(lp3958
g69
(g90
g71
NtRp3959
(dp3960
g74
(dp3961
g94
g95
ssg83
g3955
sg76
(lp3962
S'session_id_astra1'
p3963
asbag69
(g90
g71
NtRp3964
(dp3965
g74
(dp3966
g101
g102
ssg83
g3955
sg76
(lp3967
S':'
asbag69
(g90
g71
NtRp3968
(dp3969
g74
(dp3970
sg83
g3955
sg76
(lp3971
g69
(g70
g71
NtRp3972
(dp3973
g74
(dp3974
g82
I4
ssg83
g3968
sg76
(lp3975
g69
(g78
g71
NtRp3976
(dp3977
g74
(dp3978
g82
I3
ssg83
Nsg76
(lp3979
g69
(g85
g71
NtRp3980
(dp3981
g74
(dp3982
sg83
g3976
sg76
(lp3983
g69
(g90
g71
NtRp3984
(dp3985
g74
(dp3986
g94
g95
ssg83
g3980
sg76
(lp3987
g283
asbag69
(g90
g71
NtRp3988
(dp3989
g74
(dp3990
g101
g102
ssg83
g3980
sg76
(lp3991
S':'
asbag69
(g90
g71
NtRp3992
(dp3993
g74
(dp3994
sg83
g3980
sg76
(lp3995
g69
(g70
g71
NtRp3996
(dp3997
g74
(dp3998
g82
I3
ssg83
g3992
sg76
(lp3999
S''
asbasbasbag69
(g85
g71
NtRp4000
(dp4001
g74
(dp4002
sg83
g3976
sg76
(lp4003
g69
(g90
g71
NtRp4004
(dp4005
g74
(dp4006
g94
g95
ssg83
g4000
sg76
(lp4007
g304
asbag69
(g90
g71
NtRp4008
(dp4009
g74
(dp4010
g101
g102
ssg83
g4000
sg76
(lp4011
S':'
asbag69
(g90
g71
NtRp4012
(dp4013
g74
(dp4014
sg83
g4000
sg76
(lp4015
g69
(g70
g71
NtRp4016
(dp4017
g74
(dp4018
g82
I3
ssg83
g4012
sg76
(lp4019
S''
asbasbasbag69
(g85
g71
NtRp4020
(dp4021
g74
(dp4022
sg83
g3976
sg76
(lp4023
g69
(g90
g71
NtRp4024
(dp4025
g74
(dp4026
g94
g95
ssg83
g4020
sg76
(lp4027
g325
asbag69
(g90
g71
NtRp4028
(dp4029
g74
(dp4030
g101
g102
ssg83
g4020
sg76
(lp4031
S':'
asbag69
(g90
g71
NtRp4032
(dp4033
g74
(dp4034
sg83
g4020
sg76
(lp4035
g69
(g70
g71
NtRp4036
(dp4037
g74
(dp4038
g82
I3
ssg83
g4032
sg76
(lp4039
S''
asbasbasbag69
(g85
g71
NtRp4040
(dp4041
g74
(dp4042
sg83
g3976
sg76
(lp4043
g69
(g90
g71
NtRp4044
(dp4045
g74
(dp4046
g94
g95
ssg83
g4040
sg76
(lp4047
g346
asbag69
(g90
g71
NtRp4048
(dp4049
g74
(dp4050
g101
g102
ssg83
g4040
sg76
(lp4051
S':'
asbag69
(g90
g71
NtRp4052
(dp4053
g74
(dp4054
sg83
g4040
sg76
(lp4055
g69
(g70
g71
NtRp4056
(dp4057
g74
(dp4058
g82
I3
ssg83
g4052
sg76
(lp4059
S''
asbasbasbag69
(g85
g71
NtRp4060
(dp4061
g74
(dp4062
sg83
g3976
sg76
(lp4063
g69
(g90
g71
NtRp4064
(dp4065
g74
(dp4066
g94
g95
ssg83
g4060
sg76
(lp4067
g367
asbag69
(g90
g71
NtRp4068
(dp4069
g74
(dp4070
g101
g102
ssg83
g4060
sg76
(lp4071
S':'
asbag69
(g90
g71
NtRp4072
(dp4073
g74
(dp4074
sg83
g4060
sg76
(lp4075
g69
(g70
g71
NtRp4076
(dp4077
g74
(dp4078
g82
I3
ssg83
g4072
sg76
(lp4079
S''
asbasbasbag69
(g85
g71
NtRp4080
(dp4081
g74
(dp4082
sg83
g3976
sg76
(lp4083
g69
(g90
g71
NtRp4084
(dp4085
g74
(dp4086
g94
g95
ssg83
g4080
sg76
(lp4087
g388
asbag69
(g90
g71
NtRp4088
(dp4089
g74
(dp4090
g101
g102
ssg83
g4080
sg76
(lp4091
S':'
asbag69
(g90
g71
NtRp4092
(dp4093
g74
(dp4094
sg83
g4080
sg76
(lp4095
g69
(g70
g71
NtRp4096
(dp4097
g74
(dp4098
g82
I3
ssg83
g4092
sg76
(lp4099
S'/'
asbasbasbag69
(g85
g71
NtRp4100
(dp4101
g74
(dp4102
sg83
g3976
sg76
(lp4103
g69
(g90
g71
NtRp4104
(dp4105
g74
(dp4106
g94
g95
ssg83
g4100
sg76
(lp4107
g409
asbag69
(g90
g71
NtRp4108
(dp4109
g74
(dp4110
g101
g102
ssg83
g4100
sg76
(lp4111
S':'
asbag69
(g90
g71
NtRp4112
(dp4113
g74
(dp4114
sg83
g4100
sg76
(lp4115
g69
(g70
g71
NtRp4116
(dp4117
g74
(dp4118
g82
I3
ssg83
g4112
sg76
(lp4119
S''
asbasbasbag69
(g85
g71
NtRp4120
(dp4121
g74
(dp4122
sg83
g3976
sg76
(lp4123
g69
(g90
g71
NtRp4124
(dp4125
g74
(dp4126
g94
g95
ssg83
g4120
sg76
(lp4127
g430
asbag69
(g90
g71
NtRp4128
(dp4129
g74
(dp4130
g101
g102
ssg83
g4120
sg76
(lp4131
S':'
asbag69
(g90
g71
NtRp4132
(dp4133
g74
(dp4134
sg83
g4120
sg76
(lp4135
g69
(g70
g71
NtRp4136
(dp4137
g74
(dp4138
g82
I3
ssg83
g4132
sg76
(lp4139
S''
asbasbasbasbasbasbasbasbasbasbasbag69
(g85
g71
NtRp4140
(dp4141
g74
(dp4142
sg83
g3906
sg76
(lp4143
g69
(g90
g71
NtRp4144
(dp4145
g74
(dp4146
g94
g95
ssg83
g4140
sg76
(lp4147
S'delimiters'
p4148
asbag69
(g90
g71
NtRp4149
(dp4150
g74
(dp4151
g101
g102
ssg83
g4140
sg76
(lp4152
S':'
asbag69
(g90
g71
NtRp4153
(dp4154
g74
(dp4155
sg83
g4140
sg76
(lp4156
g69
(g70
g71
NtRp4157
(dp4158
g74
(dp4159
g82
I5
ssg83
g4153
sg76
(lp4160
g69
(g78
g71
NtRp4161
(dp4162
g74
(dp4163
g82
I4
ssg83
Nsg76
(lp4164
g69
(g85
g71
NtRp4165
(dp4166
g74
(dp4167
sg83
g4161
sg76
(lp4168
g69
(g90
g71
NtRp4169
(dp4170
g74
(dp4171
sg83
g4165
sg76
(lp4172
g69
(g70
g71
NtRp4173
(dp4174
g74
(dp4175
g82
I4
ssg83
g4169
sg76
(lp4176
S'{{'
p4177
asbasbasbag69
(g85
g71
NtRp4178
(dp4179
g74
(dp4180
sg83
g4161
sg76
(lp4181
g69
(g90
g71
NtRp4182
(dp4183
g74
(dp4184
sg83
g4178
sg76
(lp4185
g69
(g70
g71
NtRp4186
(dp4187
g74
(dp4188
g82
I4
ssg83
g4182
sg76
(lp4189
S'}}'
p4190
asbasbasbasbasbasbasbag69
(g85
g71
NtRp4191
(dp4192
g74
(dp4193
sg83
g3906
sg76
(lp4194
g69
(g90
g71
NtRp4195
(dp4196
g74
(dp4197
g94
g95
ssg83
g4191
sg76
(lp4198
S'files'
p4199
asbag69
(g90
g71
NtRp4200
(dp4201
g74
(dp4202
g101
g102
ssg83
g4191
sg76
(lp4203
S':'
asbag69
(g90
g71
NtRp4204
(dp4205
g74
(dp4206
sg83
g4191
sg76
(lp4207
g69
(g70
g71
NtRp4208
(dp4209
g74
(dp4210
g82
I5
ssg83
g4204
sg76
(lp4211
g69
(g78
g71
NtRp4212
(dp4213
g74
(dp4214
g82
I4
ssg83
Nsg76
(lp4215
sbasbasbasbag69
(g85
g71
NtRp4216
(dp4217
g74
(dp4218
sg83
g3906
sg76
(lp4219
g69
(g90
g71
NtRp4220
(dp4221
g74
(dp4222
g94
g95
ssg83
g4216
sg76
(lp4223
S'flash'
p4224
asbag69
(g90
g71
NtRp4225
(dp4226
g74
(dp4227
g101
g102
ssg83
g4216
sg76
(lp4228
S':'
asbag69
(g90
g71
NtRp4229
(dp4230
g74
(dp4231
sg83
g4216
sg76
(lp4232
g69
(g70
g71
NtRp4233
(dp4234
g74
(dp4235
g82
I5
ssg83
g4229
sg76
(lp4236
S''
asbasbasbag69
(g85
g71
NtRp4237
(dp4238
g74
(dp4239
sg83
g3906
sg76
(lp4240
g69
(g90
g71
NtRp4241
(dp4242
g74
(dp4243
g94
g95
ssg83
g4237
sg76
(lp4244
S'generic_patterns'
p4245
asbag69
(g90
g71
NtRp4246
(dp4247
g74
(dp4248
g101
g102
ssg83
g4237
sg76
(lp4249
S':'
asbag69
(g90
g71
NtRp4250
(dp4251
g74
(dp4252
sg83
g4237
sg76
(lp4253
g69
(g70
g71
NtRp4254
(dp4255
g74
(dp4256
g82
I5
ssg83
g4250
sg76
(lp4257
g69
(g78
g71
NtRp4258
(dp4259
g74
(dp4260
g82
I4
ssg83
Nsg76
(lp4261
g69
(g85
g71
NtRp4262
(dp4263
g74
(dp4264
sg83
g4258
sg76
(lp4265
g69
(g90
g71
NtRp4266
(dp4267
g74
(dp4268
sg83
g4262
sg76
(lp4269
g69
(g70
g71
NtRp4270
(dp4271
g74
(dp4272
g82
I4
ssg83
g4266
sg76
(lp4273
S'*'
asbasbasbasbasbasbasbag69
(g85
g71
NtRp4274
(dp4275
g74
(dp4276
sg83
g3906
sg76
(lp4277
g69
(g90
g71
NtRp4278
(dp4279
g74
(dp4280
g94
g95
ssg83
g4274
sg76
(lp4281
S'headers'
p4282
asbag69
(g90
g71
NtRp4283
(dp4284
g74
(dp4285
g101
g102
ssg83
g4274
sg76
(lp4286
S':'
asbag69
(g90
g71
NtRp4287
(dp4288
g74
(dp4289
sg83
g4274
sg76
(lp4290
g69
(g70
g71
NtRp4291
(dp4292
g74
(dp4293
g82
I5
ssg83
g4287
sg76
(lp4294
g69
(g78
g71
NtRp4295
(dp4296
g74
(dp4297
g82
I4
ssg83
Nsg76
(lp4298
g69
(g85
g71
NtRp4299
(dp4300
g74
(dp4301
sg83
g4295
sg76
(lp4302
g69
(g90
g71
NtRp4303
(dp4304
g74
(dp4305
g94
g95
ssg83
g4299
sg76
(lp4306
S'Cache-Control'
p4307
asbag69
(g90
g71
NtRp4308
(dp4309
g74
(dp4310
g101
g102
ssg83
g4299
sg76
(lp4311
S':'
asbag69
(g90
g71
NtRp4312
(dp4313
g74
(dp4314
sg83
g4299
sg76
(lp4315
g69
(g70
g71
NtRp4316
(dp4317
g74
(dp4318
g82
I4
ssg83
g4312
sg76
(lp4319
S'no-store, no-cache, must-revalidate, post-check=0, pre-check=0'
p4320
asbasbasbag69
(g85
g71
NtRp4321
(dp4322
g74
(dp4323
sg83
g4295
sg76
(lp4324
g69
(g90
g71
NtRp4325
(dp4326
g74
(dp4327
g94
g95
ssg83
g4321
sg76
(lp4328
S'Content-Type'
p4329
asbag69
(g90
g71
NtRp4330
(dp4331
g74
(dp4332
g101
g102
ssg83
g4321
sg76
(lp4333
S':'
asbag69
(g90
g71
NtRp4334
(dp4335
g74
(dp4336
sg83
g4321
sg76
(lp4337
g69
(g70
g71
NtRp4338
(dp4339
g74
(dp4340
g82
I4
ssg83
g4334
sg76
(lp4341
S'text/html; charset=utf-8'
p4342
asbasbasbag69
(g85
g71
NtRp4343
(dp4344
g74
(dp4345
sg83
g4295
sg76
(lp4346
g69
(g90
g71
NtRp4347
(dp4348
g74
(dp4349
g94
g95
ssg83
g4343
sg76
(lp4350
S'Expires'
p4351
asbag69
(g90
g71
NtRp4352
(dp4353
g74
(dp4354
g101
g102
ssg83
g4343
sg76
(lp4355
S':'
asbag69
(g90
g71
NtRp4356
(dp4357
g74
(dp4358
sg83
g4343
sg76
(lp4359
g69
(g70
g71
NtRp4360
(dp4361
g74
(dp4362
g82
I4
ssg83
g4356
sg76
(lp4363
S'Sun, 14 Oct 2012 10:35:33 GMT'
p4364
asbasbasbag69
(g85
g71
NtRp4365
(dp4366
g74
(dp4367
sg83
g4295
sg76
(lp4368
g69
(g90
g71
NtRp4369
(dp4370
g74
(dp4371
g94
g95
ssg83
g4365
sg76
(lp4372
S'Pragma'
p4373
asbag69
(g90
g71
NtRp4374
(dp4375
g74
(dp4376
g101
g102
ssg83
g4365
sg76
(lp4377
S':'
asbag69
(g90
g71
NtRp4378
(dp4379
g74
(dp4380
sg83
g4365
sg76
(lp4381
g69
(g70
g71
NtRp4382
(dp4383
g74
(dp4384
g82
I4
ssg83
g4378
sg76
(lp4385
S'no-cache'
p4386
asbasbasbag69
(g85
g71
NtRp4387
(dp4388
g74
(dp4389
sg83
g4295
sg76
(lp4390
g69
(g90
g71
NtRp4391
(dp4392
g74
(dp4393
g94
g95
ssg83
g4387
sg76
(lp4394
S'X-Powered-By'
p4395
asbag69
(g90
g71
NtRp4396
(dp4397
g74
(dp4398
g101
g102
ssg83
g4387
sg76
(lp4399
S':'
asbag69
(g90
g71
NtRp4400
(dp4401
g74
(dp4402
sg83
g4387
sg76
(lp4403
g69
(g70
g71
NtRp4404
(dp4405
g74
(dp4406
g82
I4
ssg83
g4400
sg76
(lp4407
S'web2py'
p4408
asbasbasbasbasbasbasbag69
(g85
g71
NtRp4409
(dp4410
g74
(dp4411
sg83
g3906
sg76
(lp4412
g69
(g90
g71
NtRp4413
(dp4414
g74
(dp4415
g94
g95
ssg83
g4409
sg76
(lp4416
S'menu'
p4417
asbag69
(g90
g71
NtRp4418
(dp4419
g74
(dp4420
g101
g102
ssg83
g4409
sg76
(lp4421
S':'
asbag69
(g90
g71
NtRp4422
(dp4423
g74
(dp4424
sg83
g4409
sg76
(lp4425
g69
(g70
g71
NtRp4426
(dp4427
g74
(dp4428
g82
I5
ssg83
g4422
sg76
(lp4429
g69
(g78
g71
NtRp4430
(dp4431
g74
(dp4432
g82
I4
ssg83
Nsg76
(lp4433
sbasbasbasbag69
(g85
g71
NtRp4434
(dp4435
g74
(dp4436
sg83
g3906
sg76
(lp4437
g69
(g90
g71
NtRp4438
(dp4439
g74
(dp4440
g94
g95
ssg83
g4434
sg76
(lp4441
S'meta'
p4442
asbag69
(g90
g71
NtRp4443
(dp4444
g74
(dp4445
g101
g102
ssg83
g4434
sg76
(lp4446
S':'
asbag69
(g90
g71
NtRp4447
(dp4448
g74
(dp4449
sg83
g4434
sg76
(lp4450
g69
(g70
g71
NtRp4451
(dp4452
g74
(dp4453
g82
I5
ssg83
g4447
sg76
(lp4454
g69
(g78
g71
NtRp4455
(dp4456
g74
(dp4457
g82
I4
ssg83
Nsg76
(lp4458
sbasbasbasbag69
(g85
g71
NtRp4459
(dp4460
g74
(dp4461
sg83
g3906
sg76
(lp4462
g69
(g90
g71
NtRp4463
(dp4464
g74
(dp4465
g94
g95
ssg83
g4459
sg76
(lp4466
S'postprocessing'
p4467
asbag69
(g90
g71
NtRp4468
(dp4469
g74
(dp4470
g101
g102
ssg83
g4459
sg76
(lp4471
S':'
asbag69
(g90
g71
NtRp4472
(dp4473
g74
(dp4474
sg83
g4459
sg76
(lp4475
g69
(g70
g71
NtRp4476
(dp4477
g74
(dp4478
g82
I5
ssg83
g4472
sg76
(lp4479
g69
(g78
g71
NtRp4480
(dp4481
g74
(dp4482
g82
I4
ssg83
Nsg76
(lp4483
sbasbasbasbag69
(g85
g71
NtRp4484
(dp4485
g74
(dp4486
sg83
g3906
sg76
(lp4487
g69
(g90
g71
NtRp4488
(dp4489
g74
(dp4490
g94
g95
ssg83
g4484
sg76
(lp4491
S'session_file'
p4492
asbag69
(g90
g71
NtRp4493
(dp4494
g74
(dp4495
g101
g102
ssg83
g4484
sg76
(lp4496
S':'
asbag69
(g90
g71
NtRp4497
(dp4498
g74
(dp4499
sg83
g4484
sg76
(lp4500
g69
(g70
g71
NtRp4501
(dp4502
g74
(dp4503
g82
I5
ssg83
g4497
sg76
(lp4504
S"<open file '/home/vishrut/web2py/applications/astra1/sessions/127.0.0.1-3ea7f370-71b8-4b79-b80d-e5c8cc6c433d', mode 'rb+' at 0x902e390>"
p4505
asbasbasbag69
(g85
g71
NtRp4506
(dp4507
g74
(dp4508
sg83
g3906
sg76
(lp4509
g69
(g90
g71
NtRp4510
(dp4511
g74
(dp4512
g94
g95
ssg83
g4506
sg76
(lp4513
S'session_filename'
p4514
asbag69
(g90
g71
NtRp4515
(dp4516
g74
(dp4517
g101
g102
ssg83
g4506
sg76
(lp4518
S':'
asbag69
(g90
g71
NtRp4519
(dp4520
g74
(dp4521
sg83
g4506
sg76
(lp4522
g69
(g70
g71
NtRp4523
(dp4524
g74
(dp4525
g82
I5
ssg83
g4519
sg76
(lp4526
S'/home/vishrut/web2py/applications/astra1/sessions/127.0.0.1-3ea7f370-71b8-4b79-b80d-e5c8cc6c433d'
p4527
asbasbasbag69
(g85
g71
NtRp4528
(dp4529
g74
(dp4530
sg83
g3906
sg76
(lp4531
g69
(g90
g71
NtRp4532
(dp4533
g74
(dp4534
g94
g95
ssg83
g4528
sg76
(lp4535
S'session_id'
p4536
asbag69
(g90
g71
NtRp4537
(dp4538
g74
(dp4539
g101
g102
ssg83
g4528
sg76
(lp4540
S':'
asbag69
(g90
g71
NtRp4541
(dp4542
g74
(dp4543
sg83
g4528
sg76
(lp4544
g69
(g70
g71
NtRp4545
(dp4546
g74
(dp4547
g82
I5
ssg83
g4541
sg76
(lp4548
S'127.0.0.1-3ea7f370-71b8-4b79-b80d-e5c8cc6c433d'
p4549
asbasbasbag69
(g85
g71
NtRp4550
(dp4551
g74
(dp4552
sg83
g3906
sg76
(lp4553
g69
(g90
g71
NtRp4554
(dp4555
g74
(dp4556
g94
g95
ssg83
g4550
sg76
(lp4557
S'session_id_name'
p4558
asbag69
(g90
g71
NtRp4559
(dp4560
g74
(dp4561
g101
g102
ssg83
g4550
sg76
(lp4562
S':'
asbag69
(g90
g71
NtRp4563
(dp4564
g74
(dp4565
sg83
g4550
sg76
(lp4566
g69
(g70
g71
NtRp4567
(dp4568
g74
(dp4569
g82
I5
ssg83
g4563
sg76
(lp4570
g3963
asbasbasbag69
(g85
g71
NtRp4571
(dp4572
g74
(dp4573
sg83
g3906
sg76
(lp4574
g69
(g90
g71
NtRp4575
(dp4576
g74
(dp4577
g94
g95
ssg83
g4571
sg76
(lp4578
S'session_locked'
p4579
asbag69
(g90
g71
NtRp4580
(dp4581
g74
(dp4582
g101
g102
ssg83
g4571
sg76
(lp4583
S':'
asbag69
(g90
g71
NtRp4584
(dp4585
g74
(dp4586
sg83
g4571
sg76
(lp4587
g69
(g70
g71
NtRp4588
(dp4589
g74
(dp4590
g82
I5
ssg83
g4584
sg76
(lp4591
g2331
asbasbasbag69
(g85
g71
NtRp4592
(dp4593
g74
(dp4594
sg83
g3906
sg76
(lp4595
g69
(g90
g71
NtRp4596
(dp4597
g74
(dp4598
g94
g95
ssg83
g4592
sg76
(lp4599
S'session_new'
p4600
asbag69
(g90
g71
NtRp4601
(dp4602
g74
(dp4603
g101
g102
ssg83
g4592
sg76
(lp4604
S':'
asbag69
(g90
g71
NtRp4605
(dp4606
g74
(dp4607
sg83
g4592
sg76
(lp4608
g69
(g70
g71
NtRp4609
(dp4610
g74
(dp4611
g82
I5
ssg83
g4605
sg76
(lp4612
g112
asbasbasbag69
(g85
g71
NtRp4613
(dp4614
g74
(dp4615
sg83
g3906
sg76
(lp4616
g69
(g90
g71
NtRp4617
(dp4618
g74
(dp4619
g94
g95
ssg83
g4613
sg76
(lp4620
S'status'
p4621
asbag69
(g90
g71
NtRp4622
(dp4623
g74
(dp4624
g101
g102
ssg83
g4613
sg76
(lp4625
S':'
asbag69
(g90
g71
NtRp4626
(dp4627
g74
(dp4628
sg83
g4613
sg76
(lp4629
g69
(g70
g71
NtRp4630
(dp4631
g74
(dp4632
g82
I5
ssg83
g4626
sg76
(lp4633
S'200'
p4634
asbasbasbag69
(g85
g71
NtRp4635
(dp4636
g74
(dp4637
sg83
g3906
sg76
(lp4638
g69
(g90
g71
NtRp4639
(dp4640
g74
(dp4641
g94
g95
ssg83
g4635
sg76
(lp4642
g3017
asbag69
(g90
g71
NtRp4643
(dp4644
g74
(dp4645
g101
g102
ssg83
g4635
sg76
(lp4646
S':'
asbag69
(g90
g71
NtRp4647
(dp4648
g74
(dp4649
sg83
g4635
sg76
(lp4650
g69
(g70
g71
NtRp4651
(dp4652
g74
(dp4653
g82
I5
ssg83
g4647
sg76
(lp4654
g3030
asbasbasbag69
(g85
g71
NtRp4655
(dp4656
g74
(dp4657
sg83
g3906
sg76
(lp4658
g69
(g90
g71
NtRp4659
(dp4660
g74
(dp4661
g94
g95
ssg83
g4655
sg76
(lp4662
S'view'
p4663
asbag69
(g90
g71
NtRp4664
(dp4665
g74
(dp4666
g101
g102
ssg83
g4655
sg76
(lp4667
S':'
asbag69
(g90
g71
NtRp4668
(dp4669
g74
(dp4670
sg83
g4655
sg76
(lp4671
g69
(g70
g71
NtRp4672
(dp4673
g74
(dp4674
g82
I5
ssg83
g4668
sg76
(lp4675
S'default/index.html'
p4676
asbasbasbasbasbsS'locals'
p4677
(dp4678
S'polymodel'
p4679
S'None'
p4680
sS'sortable'
p4681
S'3'
sS'sql_fields_aux'
p4682
S"{'id': {'sql': 'INTEGER PRIMARY KEY AUTOINCREMENT'}, 'username': {'sql': 'CHAR(512) UNIQUE'}}"
p4683
sS'TFK'
p4684
g21
sS'migrate'
p4685
g2331
sS'fields'
p4686
S"['id INTEGER PRIMARY KEY AUTOINCREMENT', 'username CHAR(512) UNIQUE']"
p4687
sS'k'
S"'password'"
p4688
sS'tablename'
p4689
S"'kids'"
p4690
sS'fake_migrate'
p4691
g112
sS'field'
p4692
S'<gluon.dal.Field object>'
p4693
sS'ftype'
p4694
S"'CHAR(512) UNIQUE'"
p4695
sS'table'
p4696
S"<Table {'username': <gluon.dal.Field object at 0...c>, 'id': <gluon.dal.Field object at 0x902b7ac>}>"
p4697
sS'sql_fields'
p4698
S"{'id': {'sortable': 1, 'sql': 'INTEGER PRIMARY KEY AUTOINCREMENT', 'type': 'id'}, 'username': {'sortable': 2, 'sql': 'CHAR(512) UNIQUE', 'type': 'string'}}"
p4699
sS'self'
p4700
S'<gluon.dal.SQLiteAdapter object>'
p4701
sssS'traceback'
p4702
S'Traceback (most recent call last):\n  File "/home/vishrut/web2py/gluon/restricted.py", line 205, in restricted\n    exec ccode in environment\n  File "/home/vishrut/web2py/applications/astra1/models/db.py", line 92, in <module>\n    Field(\'password\',"passowrd")\n  File "/home/vishrut/web2py/gluon/dal.py", line 6320, in define_table\n    polymodel=polymodel)\n  File "/home/vishrut/web2py/gluon/dal.py", line 638, in create_table\n    (field.type, field.name)\nSyntaxError: Field: unknown field type: passowrd for password\n'
p4703
s.