(dp1
S'output'
p2
S"<type 'exceptions.SyntaxError'> not enough information to build the url"
p3
sS'layer'
p4
S'/home/vishrut/web2py/applications/astra1/views/default/show.html'
p5
sS'code'
p6
S'response.write(\'<!DOCTYPE html>\\n<!-- paulirish.com/2008/conditional-stylesheets-vs-css-hacks-answer-neither/ -->\\n<!--[if lt IE 7]><html class="ie ie6 ie-lte9 ie-lte8 ie-lte7 no-js" lang="\', escape=False)\nresponse.write(T.accepted_language or \'en\')\nresponse.write(\'"> <![endif]-->\\n<!--[if IE 7]><html class="ie ie7 ie-lte9 ie-lte8 ie-lte7 no-js" lang="\', escape=False)\nresponse.write(T.accepted_language or \'en\')\nresponse.write(\'"> <![endif]-->\\n<!--[if IE 8]><html class="ie ie8 ie-lte9 ie-lte8 no-js" lang="\', escape=False)\nresponse.write(T.accepted_language or \'en\')\nresponse.write(\'"> <![endif]-->\\n<!--[if IE 9]><html class="ie9 ie-lte9 no-js" lang="\', escape=False)\nresponse.write(T.accepted_language or \'en\')\nresponse.write(\'"> <![endif]-->\\n<!--[if (gt IE 9)|!(IE)]><!--> <html class="no-js" lang="\', escape=False)\nresponse.write(T.accepted_language or \'en\')\nresponse.write(\'"> <!--<![endif]-->\\n<head>\\n  <meta charset="utf-8" />\\n  <!-- www.phpied.com/conditional-comments-block-downloads/ -->\\n  <!-- Always force latest IE rendering engine\\n\\t   (even in intranet) & Chrome Frame\\n\\t   Remove this if you use the .htaccess -->\\n  <!--[if IE]>\\n    <meta http-equiv="X-UA-Compatible" content="IE=edge\', escape=False)\nresponse.write(not request.is_local and \',chrome=1\' or \'\')\nresponse.write(\'">\\n  <![endif]-->\\n  \\n  <title>\', escape=False)\nresponse.write(response.title or request.application)\nresponse.write(\'</title>\\n  \\n  <!-- http://dev.w3.org/html5/markup/meta.name.html -->\\n  <meta name="application-name" content="\', escape=False)\nresponse.write(request.application)\nresponse.write(\'" />\\n  \\n  <!-- Speaking of Google, don\\\'t forget to set your site up:\\n\\t   http://google.com/webmasters -->\\n  <meta name="google-site-verification" content="" />\\n\\n  <!--  Mobile Viewport Fix\\n\\t  j.mp/mobileviewport & davidbcalhoun.com/2010/viewport-metatag\\n\\t  device-width: Occupy full width of the screen in its current orientation\\n\\t  initial-scale = 1.0 retains dimensions instead of zooming out if page height > device height\\n\\t  user-scalable = yes allows the user to zoom in -->\\n  <meta name="viewport" content="width=device-width, initial-scale=1.0, user-scalable=yes">\\n  \\n  <!-- Place favicon.ico and apple-touch-icon.png in the root of your domain and delete these references -->\\n  <link rel="shortcut icon" href="\', escape=False)\nresponse.write(URL(\'static\',\'favicon.ico\'))\nresponse.write(\'" type="image/x-icon">\\n  <link rel="apple-touch-icon" href="\', escape=False)\nresponse.write(URL(\'static\',\'favicon.png\'))\nresponse.write(\'">\\n\\n  <!-- All JavaScript at the bottom, except for Modernizr which enables \\n\\t   HTML5 elements & feature detects -->\\n  <script src="\', escape=False)\nresponse.write(URL(\'static\',\'js/modernizr.custom.js\'))\nresponse.write(\'"></script>  \\n\\n  <!-- include stylesheets -->\\n  \', escape=False)\nresponse.files.append(URL(\'static\',\'css/skeleton.css\'))\nresponse.files.append(URL(\'static\',\'css/web2py.css\'))\nif response.menu:\n    response.files.append(URL(\'static\',\'css/superfish.css\'))\n    response.files.append(URL(\'static\',\'js/superfish.js\'))\n    pass\nresponse.write(\'\\n\\n  \', escape=False)\nresponse.write(\'<script type="text/javascript"><!--\\n    // These variables are used by the web2py_ajax_init function in web2py_ajax.js (which is loaded below).\\n    var w2p_ajax_confirm_message = "\', escape=False)\nresponse.write(T(\'Are you sure you want to delete this object?\'))\nresponse.write(\'";\\n    var w2p_ajax_date_format = "\', escape=False)\nresponse.write(T(\'%Y-%m-%d\'))\nresponse.write(\'";\\n    var w2p_ajax_datetime_format = "\', escape=False)\nresponse.write(T(\'%Y-%m-%d %H:%M:%S\'))\nresponse.write(\'";\\n    //--></script>\\n\', escape=False)\nresponse.files.insert(0,URL(\'static\',\'js/jquery.js\'))\nresponse.files.insert(1,URL(\'static\',\'css/calendar.css\'))\nresponse.files.insert(2,URL(\'static\',\'js/calendar.js\'))\nresponse.files.insert(3,URL(\'static\',\'js/web2py.js\'))\nresponse.include_meta()\nresponse.include_files()\nresponse.write(\'\\n\', escape=False)\nresponse.write(\'\\n\\n  \', escape=False)\nif response.menu:\n    response.write(\'\\n  <script type="text/javascript">\\n    jQuery(function(){ jQuery(\\\'ul.sf-menu\\\').supersubs({minWidth:12,maxWidth:30,extraWidth:3}).superfish(); });\\n  </script>\\n  \', escape=False)\n    pass\nresponse.write(\'\\n\\n  \', escape=False)\n# using sidebars need to know what sidebar you want to use\nleft_sidebar_enabled = globals().get(\'left_sidebar_enabled\',False)\nright_sidebar_enabled = globals().get(\'right_sidebar_enabled\',False)\nmiddle_columns = {0:\'sixteen\',1:\'twelve\',2:\'eight\'}[\n(left_sidebar_enabled and 1 or 0)+(right_sidebar_enabled and 1 or 0)]\nresponse.write(\'\\n\\n  <!-- uncomment here to load jquery-ui\\n  <link rel="stylesheet" href="http://ajax.googleapis.com/ajax/libs/jqueryui/1.8.16/themes/base/jquery-ui.css" type="text/css" media="all" />\\n  <script src="http://ajax.googleapis.com/ajax/libs/jqueryui/1.8.16/jquery-ui.min.js" type="text/javascript"></script>\\n  uncomment to load jquery-ui //-->\\n</head>\\n<body>\\n  <div class="wrapper"><!-- for sticky footer -->\\n  \\n    <div class="topbar">\\n      <div class="container">    \\n        <div class="sixteen columns">\\n          <div id="navbar">\', escape=False)\nresponse.write(\'auth\' in globals() and auth.navbar(separators=(\' \',\' | \',\'\')))\nresponse.write(\'</div>\\n          \', escape=False)\nis_mobile=request.user_agent().is_mobile\nresponse.write(\'\\n\\t  \', escape=False)\nif response.menu:\n    response.write(\'\\n          <div id="menu">\\n             \', escape=False)\n    response.write(MENU(response.menu, _class=\'mobile-menu\' if is_mobile else \'sf-menu\',mobile=is_mobile))\n    response.write(\'\\n          </div>\\n          \', escape=False)\n    pass\nresponse.write(\'\\n        </div>\\n      </div>\\n    </div><!-- topbar -->\\n    \\n    <div class="flash">\', escape=False)\nresponse.write(response.flash or \'\')\nresponse.write(\'</div>\\n    \\n    <div class="header">\\n      <div class="container">         \\n        <div class="sixteen columns">\\n          <h1 class="remove-bottom" style="margin-top: .5em;">\\n          \', escape=False)\nresponse.write(response.title or request.application)\nresponse.write(\'\\n          </h1>\\n          <h5>\', escape=False)\nresponse.write(response.subtitle or \'\')\nresponse.write(\'</h5>\\n        </div>\\n        <div class="sixteen columns">\\n          <div class="statusbar clearfix">\\n            \', escape=False)\nresponse.write(\'\\n            <div class="breadcrumbs">\', escape=False)\nresponse.write(request.function.replace(\'_\', \' \').title())\nresponse.write(\'</div>\\n            \', escape=False)\nresponse.write(\'\\n            <!-- AddToAny BEGIN -->\\n            <div style="float:right; padding-top: .25em;" class="a2a_kit a2a_default_style">\\n            <a class="a2a_dd" href="http://www.addtoany.com/share_save">Share</a></div>\\n            <script type="text/javascript" src="http://static.addtoany.com/menu/page.js"></script>\\n            <!-- AddToAny END -->\\n          </div>\\n        </div>\\n      </div>\\n    </div>\\n\\n    <div class="main">\\n      <div class="container">                 \\n        \', escape=False)\nif left_sidebar_enabled:\n    response.write(\'\\n        <div class="four columns left-sidebar">\\n          \', escape=False)\n    response.write(\'\\n          <h3>Left Sidebar</h3>\\n          <p></p>\\n          \', escape=False)\n    response.write(\'\\n        </div>\\n        \', escape=False)\n    pass\nresponse.write(\'\\n        \\n        <div class="\', escape=False)\nresponse.write(middle_columns)\nresponse.write(\' columns center">\\n          \', escape=False)\nresponse.write(\'\\n          \', escape=False)\nresponse.write(\'\\n<h1>This is the default/show.html template</h1>\\n\', escape=False)\nxxx="apple"\nresponse.write(\'\\n<video width="320" height="240" controls="controls">  \\n        <source src="\', escape=False)\nresponse.write(URL(\'/astra1/static/\'+\'apple\'+\'.ogv\'))\nresponse.write(\'" type="video/ogg">\\n</video>\\n<button type="button" onclick="document.location=\\\'\', escape=False)\nresponse.write(URL("logout"))\nresponse.write(\'\\\'">Logout</button>\\n\', escape=False)\npass\nresponse.write(\'\\n\', escape=False)\npass\nresponse.write(\'\\n\', escape=False)\nresponse.write(BEAUTIFY(response._vars))\nresponse.write(\'\\n\', escape=False)\nresponse.write(\'\\n          \', escape=False)\nresponse.write(\'\\n        </div>\\n        \\n        \', escape=False)\nif right_sidebar_enabled:\n    response.write(\'\\n        <div class="four columns">\\n          \', escape=False)\n    response.write(\'\\n          <h3>Right Sidebar</h3>\\n          <p></p>\\n          \', escape=False)\n    response.write(\'\\n        </div>    \\n        \', escape=False)\n    pass\nresponse.write(\'\\n        \\n      </div><!-- container -->\\n    </div><!-- main -->\\n    \\n    <div class="push"></div>\\n  </div><!-- wrapper -->\\n\\n  <div class="footer">\\n    <div class="container">    \\n      <div class="sixteen columns">\\n        \', escape=False)\nresponse.write(\' <!-- this is default footer -->\\n        <div class="footer-content clearfix">\\n          <div class="copyright">\', escape=False)\nresponse.write(T(\'Copyright\'))\nresponse.write(\' &#169; 2011</div>\\n          <div style="float: right;">\\n            <a href="http://www.web2py.com/">\\n            <img style="padding-bottom: 0;" src="\', escape=False)\nresponse.write(URL(\'static\',\'images/poweredby.png\'))\nresponse.write(\'"/>\\n            </a>\\n          </div>\\n        </div>\\n        \', escape=False)\nresponse.write(\'\\t\\n      </div>\\n    </div><!-- container -->\\n  </div><!-- footer -->\\n  \\n  <!--[if lt IE 7 ]>\\n\\t<script src="\', escape=False)\nresponse.write(URL(\'static\',\'js/dd_belatedpng.js\'))\nresponse.write(\'"></script>\\n\\t<script> DD_belatedPNG.fix(\\\'img, .png_bg\\\'); //fix any <img> or .png_bg background-images </script>\\n\\t<![endif]-->\\n  \', escape=False)\nif response.google_analytics_id:\n    response.write(\'<script type="text/javascript"> var _gaq = _gaq || []; _gaq.push([\\\'_setAccount\\\', \\\'\', escape=False)\n    response.write(response.google_analytics_id)\n    response.write("\']); _gaq.push([\'_trackPageview\']); (function() { var ga = document.createElement(\'script\'); ga.type = \'text/javascript\'; ga.async = true; ga.src = (\'https:\' == document.location.protocol ? \'https://ssl\' : \'http://www\') + \'.google-analytics.com/ga.js\'; var s = document.getElementsByTagName(\'script\')[0]; s.parentNode.insertBefore(ga, s); })(); </script> ", escape=False)\n    pass\nresponse.write(\'\\n</body>\\n</html>\\n\', escape=False)'
p7
sS'snapshot'
p8
(dp9
S'exception'
p10
(dp11
S'__getslice__'
p12
S"<method-wrapper '__getslice__' of exceptions.SyntaxError object>"
p13
sS'text'
p14
S'None'
p15
sS'__str__'
p16
S"<method-wrapper '__str__' of exceptions.SyntaxError object>"
p17
sS'__reduce__'
p18
S'<built-in method __reduce__ of exceptions.SyntaxError object>'
p19
sS'__dict__'
p20
S'{}'
p21
sS'__sizeof__'
p22
S'<built-in method __sizeof__ of exceptions.SyntaxError object>'
p23
sS'__init__'
p24
S"<method-wrapper '__init__' of exceptions.SyntaxError object>"
p25
sS'__setattr__'
p26
S"<method-wrapper '__setattr__' of exceptions.SyntaxError object>"
p27
sS'__reduce_ex__'
p28
S'<built-in method __reduce_ex__ of exceptions.SyntaxError object>'
p29
sS'__new__'
p30
S'<built-in method __new__ of type object>'
p31
sS'__format__'
p32
S'<built-in method __format__ of exceptions.SyntaxError object>'
p33
sS'__class__'
p34
S"<type 'exceptions.SyntaxError'>"
p35
sS'filename'
p36
S'None'
p37
sS'lineno'
p38
S'None'
p39
sS'msg'
p40
S"'not enough information to build the url'"
p41
sS'__doc__'
p42
S"'Invalid syntax.'"
p43
sS'__getitem__'
p44
S"<method-wrapper '__getitem__' of exceptions.SyntaxError object>"
p45
sS'__setstate__'
p46
S'<built-in method __setstate__ of exceptions.SyntaxError object>'
p47
sS'__getattribute__'
p48
S"<method-wrapper '__getattribute__' of exceptions.SyntaxError object>"
p49
sS'print_file_and_line'
p50
S'None'
p51
sS'args'
p52
S"('not enough information to build the url',)"
p53
sS'__subclasshook__'
p54
S'<built-in method __subclasshook__ of type object>'
p55
sS'offset'
p56
S'None'
p57
sS'__unicode__'
p58
S'<built-in method __unicode__ of exceptions.SyntaxError object>'
p59
sS'__delattr__'
p60
S"<method-wrapper '__delattr__' of exceptions.SyntaxError object>"
p61
sS'__repr__'
p62
S"<method-wrapper '__repr__' of exceptions.SyntaxError object>"
p63
sS'__hash__'
p64
S"<method-wrapper '__hash__' of exceptions.SyntaxError object>"
p65
ssS'evalue'
p66
S'not enough information to build the url'
p67
sS'request'
p68
ccopy_reg
_reconstructor
p69
(cgluon.html
BEAUTIFY
p70
c__builtin__
object
p71
NtRp72
(dp73
S'attributes'
p74
(dp75
sS'components'
p76
(lp77
g69
(cgluon.html
TABLE
p78
g71
NtRp79
(dp80
g74
(dp81
S'level'
p82
I5
ssS'parent'
p83
Nsg76
(lp84
g69
(cgluon.html
TR
p85
g71
NtRp86
(dp87
g74
(dp88
sg83
g79
sg76
(lp89
g69
(cgluon.html
TD
p90
g71
NtRp91
(dp92
g74
(dp93
S'_style'
p94
S'font-weight:bold;vertical-align:top'
p95
ssg83
g86
sg76
(lp96
S'ajax'
p97
asbag69
(g90
g71
NtRp98
(dp99
g74
(dp100
S'_valign'
p101
S'top'
p102
ssg83
g86
sg76
(lp103
S':'
asbag69
(g90
g71
NtRp104
(dp105
g74
(dp106
sg83
g86
sg76
(lp107
g69
(g70
g71
NtRp108
(dp109
g74
(dp110
g82
I5
ssg83
g104
sg76
(lp111
S'False'
p112
asbasbasbag69
(g85
g71
NtRp113
(dp114
g74
(dp115
sg83
g79
sg76
(lp116
g69
(g90
g71
NtRp117
(dp118
g74
(dp119
g94
g95
ssg83
g113
sg76
(lp120
S'application'
p121
asbag69
(g90
g71
NtRp122
(dp123
g74
(dp124
g101
g102
ssg83
g113
sg76
(lp125
S':'
asbag69
(g90
g71
NtRp126
(dp127
g74
(dp128
sg83
g113
sg76
(lp129
g69
(g70
g71
NtRp130
(dp131
g74
(dp132
g82
I5
ssg83
g126
sg76
(lp133
S'astra1'
p134
asbasbasbag69
(g85
g71
NtRp135
(dp136
g74
(dp137
sg83
g79
sg76
(lp138
g69
(g90
g71
NtRp139
(dp140
g74
(dp141
g94
g95
ssg83
g135
sg76
(lp142
g52
asbag69
(g90
g71
NtRp143
(dp144
g74
(dp145
g101
g102
ssg83
g135
sg76
(lp146
S':'
asbag69
(g90
g71
NtRp147
(dp148
g74
(dp149
sg83
g135
sg76
(lp150
g69
(g70
g71
NtRp151
(dp152
g74
(dp153
g82
I5
ssg83
g147
sg76
(lp154
g69
(g78
g71
NtRp155
(dp156
g74
(dp157
g82
I4
ssg83
Nsg76
(lp158
sbasbasbasbag69
(g85
g71
NtRp159
(dp160
g74
(dp161
sg83
g79
sg76
(lp162
g69
(g90
g71
NtRp163
(dp164
g74
(dp165
g94
g95
ssg83
g159
sg76
(lp166
S'body'
p167
asbag69
(g90
g71
NtRp168
(dp169
g74
(dp170
g101
g102
ssg83
g159
sg76
(lp171
S':'
asbag69
(g90
g71
NtRp172
(dp173
g74
(dp174
sg83
g159
sg76
(lp175
g69
(g70
g71
NtRp176
(dp177
g74
(dp178
g82
I5
ssg83
g172
sg76
(lp179
S'<cStringIO.StringO object at 0xaa51ca0>'
p180
asbasbasbag69
(g85
g71
NtRp181
(dp182
g74
(dp183
sg83
g79
sg76
(lp184
g69
(g90
g71
NtRp185
(dp186
g74
(dp187
g94
g95
ssg83
g181
sg76
(lp188
S'client'
p189
asbag69
(g90
g71
NtRp190
(dp191
g74
(dp192
g101
g102
ssg83
g181
sg76
(lp193
S':'
asbag69
(g90
g71
NtRp194
(dp195
g74
(dp196
sg83
g181
sg76
(lp197
g69
(g70
g71
NtRp198
(dp199
g74
(dp200
g82
I5
ssg83
g194
sg76
(lp201
S'127.0.0.1'
p202
asbasbasbag69
(g85
g71
NtRp203
(dp204
g74
(dp205
sg83
g79
sg76
(lp206
g69
(g90
g71
NtRp207
(dp208
g74
(dp209
g94
g95
ssg83
g203
sg76
(lp210
S'controller'
p211
asbag69
(g90
g71
NtRp212
(dp213
g74
(dp214
g101
g102
ssg83
g203
sg76
(lp215
S':'
asbag69
(g90
g71
NtRp216
(dp217
g74
(dp218
sg83
g203
sg76
(lp219
g69
(g70
g71
NtRp220
(dp221
g74
(dp222
g82
I5
ssg83
g216
sg76
(lp223
S'default'
p224
asbasbasbag69
(g85
g71
NtRp225
(dp226
g74
(dp227
sg83
g79
sg76
(lp228
g69
(g90
g71
NtRp229
(dp230
g74
(dp231
g94
g95
ssg83
g225
sg76
(lp232
S'cookies'
p233
asbag69
(g90
g71
NtRp234
(dp235
g74
(dp236
g101
g102
ssg83
g225
sg76
(lp237
S':'
asbag69
(g90
g71
NtRp238
(dp239
g74
(dp240
sg83
g225
sg76
(lp241
g69
(g70
g71
NtRp242
(dp243
g74
(dp244
g82
I5
ssg83
g238
sg76
(lp245
g69
(g78
g71
NtRp246
(dp247
g74
(dp248
g82
I4
ssg83
Nsg76
(lp249
g69
(g85
g71
NtRp250
(dp251
g74
(dp252
sg83
g246
sg76
(lp253
g69
(g90
g71
NtRp254
(dp255
g74
(dp256
g94
g95
ssg83
g250
sg76
(lp257
S'session_id_admin'
p258
asbag69
(g90
g71
NtRp259
(dp260
g74
(dp261
g101
g102
ssg83
g250
sg76
(lp262
S':'
asbag69
(g90
g71
NtRp263
(dp264
g74
(dp265
sg83
g250
sg76
(lp266
g69
(g70
g71
NtRp267
(dp268
g74
(dp269
g82
I4
ssg83
g263
sg76
(lp270
g69
(g78
g71
NtRp271
(dp272
g74
(dp273
g82
I3
ssg83
Nsg76
(lp274
g69
(g85
g71
NtRp275
(dp276
g74
(dp277
sg83
g271
sg76
(lp278
g69
(g90
g71
NtRp279
(dp280
g74
(dp281
g94
g95
ssg83
g275
sg76
(lp282
S'comment'
p283
asbag69
(g90
g71
NtRp284
(dp285
g74
(dp286
g101
g102
ssg83
g275
sg76
(lp287
S':'
asbag69
(g90
g71
NtRp288
(dp289
g74
(dp290
sg83
g275
sg76
(lp291
g69
(g70
g71
NtRp292
(dp293
g74
(dp294
g82
I3
ssg83
g288
sg76
(lp295
S''
asbasbasbag69
(g85
g71
NtRp296
(dp297
g74
(dp298
sg83
g271
sg76
(lp299
g69
(g90
g71
NtRp300
(dp301
g74
(dp302
g94
g95
ssg83
g296
sg76
(lp303
S'domain'
p304
asbag69
(g90
g71
NtRp305
(dp306
g74
(dp307
g101
g102
ssg83
g296
sg76
(lp308
S':'
asbag69
(g90
g71
NtRp309
(dp310
g74
(dp311
sg83
g296
sg76
(lp312
g69
(g70
g71
NtRp313
(dp314
g74
(dp315
g82
I3
ssg83
g309
sg76
(lp316
S''
asbasbasbag69
(g85
g71
NtRp317
(dp318
g74
(dp319
sg83
g271
sg76
(lp320
g69
(g90
g71
NtRp321
(dp322
g74
(dp323
g94
g95
ssg83
g317
sg76
(lp324
S'expires'
p325
asbag69
(g90
g71
NtRp326
(dp327
g74
(dp328
g101
g102
ssg83
g317
sg76
(lp329
S':'
asbag69
(g90
g71
NtRp330
(dp331
g74
(dp332
sg83
g317
sg76
(lp333
g69
(g70
g71
NtRp334
(dp335
g74
(dp336
g82
I3
ssg83
g330
sg76
(lp337
S''
asbasbasbag69
(g85
g71
NtRp338
(dp339
g74
(dp340
sg83
g271
sg76
(lp341
g69
(g90
g71
NtRp342
(dp343
g74
(dp344
g94
g95
ssg83
g338
sg76
(lp345
S'httponly'
p346
asbag69
(g90
g71
NtRp347
(dp348
g74
(dp349
g101
g102
ssg83
g338
sg76
(lp350
S':'
asbag69
(g90
g71
NtRp351
(dp352
g74
(dp353
sg83
g338
sg76
(lp354
g69
(g70
g71
NtRp355
(dp356
g74
(dp357
g82
I3
ssg83
g351
sg76
(lp358
S''
asbasbasbag69
(g85
g71
NtRp359
(dp360
g74
(dp361
sg83
g271
sg76
(lp362
g69
(g90
g71
NtRp363
(dp364
g74
(dp365
g94
g95
ssg83
g359
sg76
(lp366
S'max-age'
p367
asbag69
(g90
g71
NtRp368
(dp369
g74
(dp370
g101
g102
ssg83
g359
sg76
(lp371
S':'
asbag69
(g90
g71
NtRp372
(dp373
g74
(dp374
sg83
g359
sg76
(lp375
g69
(g70
g71
NtRp376
(dp377
g74
(dp378
g82
I3
ssg83
g372
sg76
(lp379
S''
asbasbasbag69
(g85
g71
NtRp380
(dp381
g74
(dp382
sg83
g271
sg76
(lp383
g69
(g90
g71
NtRp384
(dp385
g74
(dp386
g94
g95
ssg83
g380
sg76
(lp387
S'path'
p388
asbag69
(g90
g71
NtRp389
(dp390
g74
(dp391
g101
g102
ssg83
g380
sg76
(lp392
S':'
asbag69
(g90
g71
NtRp393
(dp394
g74
(dp395
sg83
g380
sg76
(lp396
g69
(g70
g71
NtRp397
(dp398
g74
(dp399
g82
I3
ssg83
g393
sg76
(lp400
S''
asbasbasbag69
(g85
g71
NtRp401
(dp402
g74
(dp403
sg83
g271
sg76
(lp404
g69
(g90
g71
NtRp405
(dp406
g74
(dp407
g94
g95
ssg83
g401
sg76
(lp408
S'secure'
p409
asbag69
(g90
g71
NtRp410
(dp411
g74
(dp412
g101
g102
ssg83
g401
sg76
(lp413
S':'
asbag69
(g90
g71
NtRp414
(dp415
g74
(dp416
sg83
g401
sg76
(lp417
g69
(g70
g71
NtRp418
(dp419
g74
(dp420
g82
I3
ssg83
g414
sg76
(lp421
S''
asbasbasbag69
(g85
g71
NtRp422
(dp423
g74
(dp424
sg83
g271
sg76
(lp425
g69
(g90
g71
NtRp426
(dp427
g74
(dp428
g94
g95
ssg83
g422
sg76
(lp429
S'version'
p430
asbag69
(g90
g71
NtRp431
(dp432
g74
(dp433
g101
g102
ssg83
g422
sg76
(lp434
S':'
asbag69
(g90
g71
NtRp435
(dp436
g74
(dp437
sg83
g422
sg76
(lp438
g69
(g70
g71
NtRp439
(dp440
g74
(dp441
g82
I3
ssg83
g435
sg76
(lp442
S''
asbasbasbasbasbasbasbag69
(g85
g71
NtRp443
(dp444
g74
(dp445
sg83
g246
sg76
(lp446
g69
(g90
g71
NtRp447
(dp448
g74
(dp449
g94
g95
ssg83
g443
sg76
(lp450
S'session_id_astra1'
p451
asbag69
(g90
g71
NtRp452
(dp453
g74
(dp454
g101
g102
ssg83
g443
sg76
(lp455
S':'
asbag69
(g90
g71
NtRp456
(dp457
g74
(dp458
sg83
g443
sg76
(lp459
g69
(g70
g71
NtRp460
(dp461
g74
(dp462
g82
I4
ssg83
g456
sg76
(lp463
g69
(g78
g71
NtRp464
(dp465
g74
(dp466
g82
I3
ssg83
Nsg76
(lp467
g69
(g85
g71
NtRp468
(dp469
g74
(dp470
sg83
g464
sg76
(lp471
g69
(g90
g71
NtRp472
(dp473
g74
(dp474
g94
g95
ssg83
g468
sg76
(lp475
g283
asbag69
(g90
g71
NtRp476
(dp477
g74
(dp478
g101
g102
ssg83
g468
sg76
(lp479
S':'
asbag69
(g90
g71
NtRp480
(dp481
g74
(dp482
sg83
g468
sg76
(lp483
g69
(g70
g71
NtRp484
(dp485
g74
(dp486
g82
I3
ssg83
g480
sg76
(lp487
S''
asbasbasbag69
(g85
g71
NtRp488
(dp489
g74
(dp490
sg83
g464
sg76
(lp491
g69
(g90
g71
NtRp492
(dp493
g74
(dp494
g94
g95
ssg83
g488
sg76
(lp495
g304
asbag69
(g90
g71
NtRp496
(dp497
g74
(dp498
g101
g102
ssg83
g488
sg76
(lp499
S':'
asbag69
(g90
g71
NtRp500
(dp501
g74
(dp502
sg83
g488
sg76
(lp503
g69
(g70
g71
NtRp504
(dp505
g74
(dp506
g82
I3
ssg83
g500
sg76
(lp507
S''
asbasbasbag69
(g85
g71
NtRp508
(dp509
g74
(dp510
sg83
g464
sg76
(lp511
g69
(g90
g71
NtRp512
(dp513
g74
(dp514
g94
g95
ssg83
g508
sg76
(lp515
g325
asbag69
(g90
g71
NtRp516
(dp517
g74
(dp518
g101
g102
ssg83
g508
sg76
(lp519
S':'
asbag69
(g90
g71
NtRp520
(dp521
g74
(dp522
sg83
g508
sg76
(lp523
g69
(g70
g71
NtRp524
(dp525
g74
(dp526
g82
I3
ssg83
g520
sg76
(lp527
S''
asbasbasbag69
(g85
g71
NtRp528
(dp529
g74
(dp530
sg83
g464
sg76
(lp531
g69
(g90
g71
NtRp532
(dp533
g74
(dp534
g94
g95
ssg83
g528
sg76
(lp535
g346
asbag69
(g90
g71
NtRp536
(dp537
g74
(dp538
g101
g102
ssg83
g528
sg76
(lp539
S':'
asbag69
(g90
g71
NtRp540
(dp541
g74
(dp542
sg83
g528
sg76
(lp543
g69
(g70
g71
NtRp544
(dp545
g74
(dp546
g82
I3
ssg83
g540
sg76
(lp547
S''
asbasbasbag69
(g85
g71
NtRp548
(dp549
g74
(dp550
sg83
g464
sg76
(lp551
g69
(g90
g71
NtRp552
(dp553
g74
(dp554
g94
g95
ssg83
g548
sg76
(lp555
g367
asbag69
(g90
g71
NtRp556
(dp557
g74
(dp558
g101
g102
ssg83
g548
sg76
(lp559
S':'
asbag69
(g90
g71
NtRp560
(dp561
g74
(dp562
sg83
g548
sg76
(lp563
g69
(g70
g71
NtRp564
(dp565
g74
(dp566
g82
I3
ssg83
g560
sg76
(lp567
S''
asbasbasbag69
(g85
g71
NtRp568
(dp569
g74
(dp570
sg83
g464
sg76
(lp571
g69
(g90
g71
NtRp572
(dp573
g74
(dp574
g94
g95
ssg83
g568
sg76
(lp575
g388
asbag69
(g90
g71
NtRp576
(dp577
g74
(dp578
g101
g102
ssg83
g568
sg76
(lp579
S':'
asbag69
(g90
g71
NtRp580
(dp581
g74
(dp582
sg83
g568
sg76
(lp583
g69
(g70
g71
NtRp584
(dp585
g74
(dp586
g82
I3
ssg83
g580
sg76
(lp587
S''
asbasbasbag69
(g85
g71
NtRp588
(dp589
g74
(dp590
sg83
g464
sg76
(lp591
g69
(g90
g71
NtRp592
(dp593
g74
(dp594
g94
g95
ssg83
g588
sg76
(lp595
g409
asbag69
(g90
g71
NtRp596
(dp597
g74
(dp598
g101
g102
ssg83
g588
sg76
(lp599
S':'
asbag69
(g90
g71
NtRp600
(dp601
g74
(dp602
sg83
g588
sg76
(lp603
g69
(g70
g71
NtRp604
(dp605
g74
(dp606
g82
I3
ssg83
g600
sg76
(lp607
S''
asbasbasbag69
(g85
g71
NtRp608
(dp609
g74
(dp610
sg83
g464
sg76
(lp611
g69
(g90
g71
NtRp612
(dp613
g74
(dp614
g94
g95
ssg83
g608
sg76
(lp615
g430
asbag69
(g90
g71
NtRp616
(dp617
g74
(dp618
g101
g102
ssg83
g608
sg76
(lp619
S':'
asbag69
(g90
g71
NtRp620
(dp621
g74
(dp622
sg83
g608
sg76
(lp623
g69
(g70
g71
NtRp624
(dp625
g74
(dp626
g82
I3
ssg83
g620
sg76
(lp627
S''
asbasbasbasbasbasbasbag69
(g85
g71
NtRp628
(dp629
g74
(dp630
sg83
g246
sg76
(lp631
g69
(g90
g71
NtRp632
(dp633
g74
(dp634
g94
g95
ssg83
g628
sg76
(lp635
S'session_id_music'
p636
asbag69
(g90
g71
NtRp637
(dp638
g74
(dp639
g101
g102
ssg83
g628
sg76
(lp640
S':'
asbag69
(g90
g71
NtRp641
(dp642
g74
(dp643
sg83
g628
sg76
(lp644
g69
(g70
g71
NtRp645
(dp646
g74
(dp647
g82
I4
ssg83
g641
sg76
(lp648
g69
(g78
g71
NtRp649
(dp650
g74
(dp651
g82
I3
ssg83
Nsg76
(lp652
g69
(g85
g71
NtRp653
(dp654
g74
(dp655
sg83
g649
sg76
(lp656
g69
(g90
g71
NtRp657
(dp658
g74
(dp659
g94
g95
ssg83
g653
sg76
(lp660
g283
asbag69
(g90
g71
NtRp661
(dp662
g74
(dp663
g101
g102
ssg83
g653
sg76
(lp664
S':'
asbag69
(g90
g71
NtRp665
(dp666
g74
(dp667
sg83
g653
sg76
(lp668
g69
(g70
g71
NtRp669
(dp670
g74
(dp671
g82
I3
ssg83
g665
sg76
(lp672
S''
asbasbasbag69
(g85
g71
NtRp673
(dp674
g74
(dp675
sg83
g649
sg76
(lp676
g69
(g90
g71
NtRp677
(dp678
g74
(dp679
g94
g95
ssg83
g673
sg76
(lp680
g304
asbag69
(g90
g71
NtRp681
(dp682
g74
(dp683
g101
g102
ssg83
g673
sg76
(lp684
S':'
asbag69
(g90
g71
NtRp685
(dp686
g74
(dp687
sg83
g673
sg76
(lp688
g69
(g70
g71
NtRp689
(dp690
g74
(dp691
g82
I3
ssg83
g685
sg76
(lp692
S''
asbasbasbag69
(g85
g71
NtRp693
(dp694
g74
(dp695
sg83
g649
sg76
(lp696
g69
(g90
g71
NtRp697
(dp698
g74
(dp699
g94
g95
ssg83
g693
sg76
(lp700
g325
asbag69
(g90
g71
NtRp701
(dp702
g74
(dp703
g101
g102
ssg83
g693
sg76
(lp704
S':'
asbag69
(g90
g71
NtRp705
(dp706
g74
(dp707
sg83
g693
sg76
(lp708
g69
(g70
g71
NtRp709
(dp710
g74
(dp711
g82
I3
ssg83
g705
sg76
(lp712
S''
asbasbasbag69
(g85
g71
NtRp713
(dp714
g74
(dp715
sg83
g649
sg76
(lp716
g69
(g90
g71
NtRp717
(dp718
g74
(dp719
g94
g95
ssg83
g713
sg76
(lp720
g346
asbag69
(g90
g71
NtRp721
(dp722
g74
(dp723
g101
g102
ssg83
g713
sg76
(lp724
S':'
asbag69
(g90
g71
NtRp725
(dp726
g74
(dp727
sg83
g713
sg76
(lp728
g69
(g70
g71
NtRp729
(dp730
g74
(dp731
g82
I3
ssg83
g725
sg76
(lp732
S''
asbasbasbag69
(g85
g71
NtRp733
(dp734
g74
(dp735
sg83
g649
sg76
(lp736
g69
(g90
g71
NtRp737
(dp738
g74
(dp739
g94
g95
ssg83
g733
sg76
(lp740
g367
asbag69
(g90
g71
NtRp741
(dp742
g74
(dp743
g101
g102
ssg83
g733
sg76
(lp744
S':'
asbag69
(g90
g71
NtRp745
(dp746
g74
(dp747
sg83
g733
sg76
(lp748
g69
(g70
g71
NtRp749
(dp750
g74
(dp751
g82
I3
ssg83
g745
sg76
(lp752
S''
asbasbasbag69
(g85
g71
NtRp753
(dp754
g74
(dp755
sg83
g649
sg76
(lp756
g69
(g90
g71
NtRp757
(dp758
g74
(dp759
g94
g95
ssg83
g753
sg76
(lp760
g388
asbag69
(g90
g71
NtRp761
(dp762
g74
(dp763
g101
g102
ssg83
g753
sg76
(lp764
S':'
asbag69
(g90
g71
NtRp765
(dp766
g74
(dp767
sg83
g753
sg76
(lp768
g69
(g70
g71
NtRp769
(dp770
g74
(dp771
g82
I3
ssg83
g765
sg76
(lp772
S''
asbasbasbag69
(g85
g71
NtRp773
(dp774
g74
(dp775
sg83
g649
sg76
(lp776
g69
(g90
g71
NtRp777
(dp778
g74
(dp779
g94
g95
ssg83
g773
sg76
(lp780
g409
asbag69
(g90
g71
NtRp781
(dp782
g74
(dp783
g101
g102
ssg83
g773
sg76
(lp784
S':'
asbag69
(g90
g71
NtRp785
(dp786
g74
(dp787
sg83
g773
sg76
(lp788
g69
(g70
g71
NtRp789
(dp790
g74
(dp791
g82
I3
ssg83
g785
sg76
(lp792
S''
asbasbasbag69
(g85
g71
NtRp793
(dp794
g74
(dp795
sg83
g649
sg76
(lp796
g69
(g90
g71
NtRp797
(dp798
g74
(dp799
g94
g95
ssg83
g793
sg76
(lp800
g430
asbag69
(g90
g71
NtRp801
(dp802
g74
(dp803
g101
g102
ssg83
g793
sg76
(lp804
S':'
asbag69
(g90
g71
NtRp805
(dp806
g74
(dp807
sg83
g793
sg76
(lp808
g69
(g70
g71
NtRp809
(dp810
g74
(dp811
g82
I3
ssg83
g805
sg76
(lp812
S''
asbasbasbasbasbasbasbag69
(g85
g71
NtRp813
(dp814
g74
(dp815
sg83
g246
sg76
(lp816
g69
(g90
g71
NtRp817
(dp818
g74
(dp819
g94
g95
ssg83
g813
sg76
(lp820
S'session_id_music_library'
p821
asbag69
(g90
g71
NtRp822
(dp823
g74
(dp824
g101
g102
ssg83
g813
sg76
(lp825
S':'
asbag69
(g90
g71
NtRp826
(dp827
g74
(dp828
sg83
g813
sg76
(lp829
g69
(g70
g71
NtRp830
(dp831
g74
(dp832
g82
I4
ssg83
g826
sg76
(lp833
g69
(g78
g71
NtRp834
(dp835
g74
(dp836
g82
I3
ssg83
Nsg76
(lp837
g69
(g85
g71
NtRp838
(dp839
g74
(dp840
sg83
g834
sg76
(lp841
g69
(g90
g71
NtRp842
(dp843
g74
(dp844
g94
g95
ssg83
g838
sg76
(lp845
g283
asbag69
(g90
g71
NtRp846
(dp847
g74
(dp848
g101
g102
ssg83
g838
sg76
(lp849
S':'
asbag69
(g90
g71
NtRp850
(dp851
g74
(dp852
sg83
g838
sg76
(lp853
g69
(g70
g71
NtRp854
(dp855
g74
(dp856
g82
I3
ssg83
g850
sg76
(lp857
S''
asbasbasbag69
(g85
g71
NtRp858
(dp859
g74
(dp860
sg83
g834
sg76
(lp861
g69
(g90
g71
NtRp862
(dp863
g74
(dp864
g94
g95
ssg83
g858
sg76
(lp865
g304
asbag69
(g90
g71
NtRp866
(dp867
g74
(dp868
g101
g102
ssg83
g858
sg76
(lp869
S':'
asbag69
(g90
g71
NtRp870
(dp871
g74
(dp872
sg83
g858
sg76
(lp873
g69
(g70
g71
NtRp874
(dp875
g74
(dp876
g82
I3
ssg83
g870
sg76
(lp877
S''
asbasbasbag69
(g85
g71
NtRp878
(dp879
g74
(dp880
sg83
g834
sg76
(lp881
g69
(g90
g71
NtRp882
(dp883
g74
(dp884
g94
g95
ssg83
g878
sg76
(lp885
g325
asbag69
(g90
g71
NtRp886
(dp887
g74
(dp888
g101
g102
ssg83
g878
sg76
(lp889
S':'
asbag69
(g90
g71
NtRp890
(dp891
g74
(dp892
sg83
g878
sg76
(lp893
g69
(g70
g71
NtRp894
(dp895
g74
(dp896
g82
I3
ssg83
g890
sg76
(lp897
S''
asbasbasbag69
(g85
g71
NtRp898
(dp899
g74
(dp900
sg83
g834
sg76
(lp901
g69
(g90
g71
NtRp902
(dp903
g74
(dp904
g94
g95
ssg83
g898
sg76
(lp905
g346
asbag69
(g90
g71
NtRp906
(dp907
g74
(dp908
g101
g102
ssg83
g898
sg76
(lp909
S':'
asbag69
(g90
g71
NtRp910
(dp911
g74
(dp912
sg83
g898
sg76
(lp913
g69
(g70
g71
NtRp914
(dp915
g74
(dp916
g82
I3
ssg83
g910
sg76
(lp917
S''
asbasbasbag69
(g85
g71
NtRp918
(dp919
g74
(dp920
sg83
g834
sg76
(lp921
g69
(g90
g71
NtRp922
(dp923
g74
(dp924
g94
g95
ssg83
g918
sg76
(lp925
g367
asbag69
(g90
g71
NtRp926
(dp927
g74
(dp928
g101
g102
ssg83
g918
sg76
(lp929
S':'
asbag69
(g90
g71
NtRp930
(dp931
g74
(dp932
sg83
g918
sg76
(lp933
g69
(g70
g71
NtRp934
(dp935
g74
(dp936
g82
I3
ssg83
g930
sg76
(lp937
S''
asbasbasbag69
(g85
g71
NtRp938
(dp939
g74
(dp940
sg83
g834
sg76
(lp941
g69
(g90
g71
NtRp942
(dp943
g74
(dp944
g94
g95
ssg83
g938
sg76
(lp945
g388
asbag69
(g90
g71
NtRp946
(dp947
g74
(dp948
g101
g102
ssg83
g938
sg76
(lp949
S':'
asbag69
(g90
g71
NtRp950
(dp951
g74
(dp952
sg83
g938
sg76
(lp953
g69
(g70
g71
NtRp954
(dp955
g74
(dp956
g82
I3
ssg83
g950
sg76
(lp957
S''
asbasbasbag69
(g85
g71
NtRp958
(dp959
g74
(dp960
sg83
g834
sg76
(lp961
g69
(g90
g71
NtRp962
(dp963
g74
(dp964
g94
g95
ssg83
g958
sg76
(lp965
g409
asbag69
(g90
g71
NtRp966
(dp967
g74
(dp968
g101
g102
ssg83
g958
sg76
(lp969
S':'
asbag69
(g90
g71
NtRp970
(dp971
g74
(dp972
sg83
g958
sg76
(lp973
g69
(g70
g71
NtRp974
(dp975
g74
(dp976
g82
I3
ssg83
g970
sg76
(lp977
S''
asbasbasbag69
(g85
g71
NtRp978
(dp979
g74
(dp980
sg83
g834
sg76
(lp981
g69
(g90
g71
NtRp982
(dp983
g74
(dp984
g94
g95
ssg83
g978
sg76
(lp985
g430
asbag69
(g90
g71
NtRp986
(dp987
g74
(dp988
g101
g102
ssg83
g978
sg76
(lp989
S':'
asbag69
(g90
g71
NtRp990
(dp991
g74
(dp992
sg83
g978
sg76
(lp993
g69
(g70
g71
NtRp994
(dp995
g74
(dp996
g82
I3
ssg83
g990
sg76
(lp997
S''
asbasbasbasbasbasbasbag69
(g85
g71
NtRp998
(dp999
g74
(dp1000
sg83
g246
sg76
(lp1001
g69
(g90
g71
NtRp1002
(dp1003
g74
(dp1004
g94
g95
ssg83
g998
sg76
(lp1005
S'session_id_photouploader'
p1006
asbag69
(g90
g71
NtRp1007
(dp1008
g74
(dp1009
g101
g102
ssg83
g998
sg76
(lp1010
S':'
asbag69
(g90
g71
NtRp1011
(dp1012
g74
(dp1013
sg83
g998
sg76
(lp1014
g69
(g70
g71
NtRp1015
(dp1016
g74
(dp1017
g82
I4
ssg83
g1011
sg76
(lp1018
g69
(g78
g71
NtRp1019
(dp1020
g74
(dp1021
g82
I3
ssg83
Nsg76
(lp1022
g69
(g85
g71
NtRp1023
(dp1024
g74
(dp1025
sg83
g1019
sg76
(lp1026
g69
(g90
g71
NtRp1027
(dp1028
g74
(dp1029
g94
g95
ssg83
g1023
sg76
(lp1030
g283
asbag69
(g90
g71
NtRp1031
(dp1032
g74
(dp1033
g101
g102
ssg83
g1023
sg76
(lp1034
S':'
asbag69
(g90
g71
NtRp1035
(dp1036
g74
(dp1037
sg83
g1023
sg76
(lp1038
g69
(g70
g71
NtRp1039
(dp1040
g74
(dp1041
g82
I3
ssg83
g1035
sg76
(lp1042
S''
asbasbasbag69
(g85
g71
NtRp1043
(dp1044
g74
(dp1045
sg83
g1019
sg76
(lp1046
g69
(g90
g71
NtRp1047
(dp1048
g74
(dp1049
g94
g95
ssg83
g1043
sg76
(lp1050
g304
asbag69
(g90
g71
NtRp1051
(dp1052
g74
(dp1053
g101
g102
ssg83
g1043
sg76
(lp1054
S':'
asbag69
(g90
g71
NtRp1055
(dp1056
g74
(dp1057
sg83
g1043
sg76
(lp1058
g69
(g70
g71
NtRp1059
(dp1060
g74
(dp1061
g82
I3
ssg83
g1055
sg76
(lp1062
S''
asbasbasbag69
(g85
g71
NtRp1063
(dp1064
g74
(dp1065
sg83
g1019
sg76
(lp1066
g69
(g90
g71
NtRp1067
(dp1068
g74
(dp1069
g94
g95
ssg83
g1063
sg76
(lp1070
g325
asbag69
(g90
g71
NtRp1071
(dp1072
g74
(dp1073
g101
g102
ssg83
g1063
sg76
(lp1074
S':'
asbag69
(g90
g71
NtRp1075
(dp1076
g74
(dp1077
sg83
g1063
sg76
(lp1078
g69
(g70
g71
NtRp1079
(dp1080
g74
(dp1081
g82
I3
ssg83
g1075
sg76
(lp1082
S''
asbasbasbag69
(g85
g71
NtRp1083
(dp1084
g74
(dp1085
sg83
g1019
sg76
(lp1086
g69
(g90
g71
NtRp1087
(dp1088
g74
(dp1089
g94
g95
ssg83
g1083
sg76
(lp1090
g346
asbag69
(g90
g71
NtRp1091
(dp1092
g74
(dp1093
g101
g102
ssg83
g1083
sg76
(lp1094
S':'
asbag69
(g90
g71
NtRp1095
(dp1096
g74
(dp1097
sg83
g1083
sg76
(lp1098
g69
(g70
g71
NtRp1099
(dp1100
g74
(dp1101
g82
I3
ssg83
g1095
sg76
(lp1102
S''
asbasbasbag69
(g85
g71
NtRp1103
(dp1104
g74
(dp1105
sg83
g1019
sg76
(lp1106
g69
(g90
g71
NtRp1107
(dp1108
g74
(dp1109
g94
g95
ssg83
g1103
sg76
(lp1110
g367
asbag69
(g90
g71
NtRp1111
(dp1112
g74
(dp1113
g101
g102
ssg83
g1103
sg76
(lp1114
S':'
asbag69
(g90
g71
NtRp1115
(dp1116
g74
(dp1117
sg83
g1103
sg76
(lp1118
g69
(g70
g71
NtRp1119
(dp1120
g74
(dp1121
g82
I3
ssg83
g1115
sg76
(lp1122
S''
asbasbasbag69
(g85
g71
NtRp1123
(dp1124
g74
(dp1125
sg83
g1019
sg76
(lp1126
g69
(g90
g71
NtRp1127
(dp1128
g74
(dp1129
g94
g95
ssg83
g1123
sg76
(lp1130
g388
asbag69
(g90
g71
NtRp1131
(dp1132
g74
(dp1133
g101
g102
ssg83
g1123
sg76
(lp1134
S':'
asbag69
(g90
g71
NtRp1135
(dp1136
g74
(dp1137
sg83
g1123
sg76
(lp1138
g69
(g70
g71
NtRp1139
(dp1140
g74
(dp1141
g82
I3
ssg83
g1135
sg76
(lp1142
S''
asbasbasbag69
(g85
g71
NtRp1143
(dp1144
g74
(dp1145
sg83
g1019
sg76
(lp1146
g69
(g90
g71
NtRp1147
(dp1148
g74
(dp1149
g94
g95
ssg83
g1143
sg76
(lp1150
g409
asbag69
(g90
g71
NtRp1151
(dp1152
g74
(dp1153
g101
g102
ssg83
g1143
sg76
(lp1154
S':'
asbag69
(g90
g71
NtRp1155
(dp1156
g74
(dp1157
sg83
g1143
sg76
(lp1158
g69
(g70
g71
NtRp1159
(dp1160
g74
(dp1161
g82
I3
ssg83
g1155
sg76
(lp1162
S''
asbasbasbag69
(g85
g71
NtRp1163
(dp1164
g74
(dp1165
sg83
g1019
sg76
(lp1166
g69
(g90
g71
NtRp1167
(dp1168
g74
(dp1169
g94
g95
ssg83
g1163
sg76
(lp1170
g430
asbag69
(g90
g71
NtRp1171
(dp1172
g74
(dp1173
g101
g102
ssg83
g1163
sg76
(lp1174
S':'
asbag69
(g90
g71
NtRp1175
(dp1176
g74
(dp1177
sg83
g1163
sg76
(lp1178
g69
(g70
g71
NtRp1179
(dp1180
g74
(dp1181
g82
I3
ssg83
g1175
sg76
(lp1182
S''
asbasbasbasbasbasbasbag69
(g85
g71
NtRp1183
(dp1184
g74
(dp1185
sg83
g246
sg76
(lp1186
g69
(g90
g71
NtRp1187
(dp1188
g74
(dp1189
g94
g95
ssg83
g1183
sg76
(lp1190
S'session_id_sudoku'
p1191
asbag69
(g90
g71
NtRp1192
(dp1193
g74
(dp1194
g101
g102
ssg83
g1183
sg76
(lp1195
S':'
asbag69
(g90
g71
NtRp1196
(dp1197
g74
(dp1198
sg83
g1183
sg76
(lp1199
g69
(g70
g71
NtRp1200
(dp1201
g74
(dp1202
g82
I4
ssg83
g1196
sg76
(lp1203
g69
(g78
g71
NtRp1204
(dp1205
g74
(dp1206
g82
I3
ssg83
Nsg76
(lp1207
g69
(g85
g71
NtRp1208
(dp1209
g74
(dp1210
sg83
g1204
sg76
(lp1211
g69
(g90
g71
NtRp1212
(dp1213
g74
(dp1214
g94
g95
ssg83
g1208
sg76
(lp1215
g283
asbag69
(g90
g71
NtRp1216
(dp1217
g74
(dp1218
g101
g102
ssg83
g1208
sg76
(lp1219
S':'
asbag69
(g90
g71
NtRp1220
(dp1221
g74
(dp1222
sg83
g1208
sg76
(lp1223
g69
(g70
g71
NtRp1224
(dp1225
g74
(dp1226
g82
I3
ssg83
g1220
sg76
(lp1227
S''
asbasbasbag69
(g85
g71
NtRp1228
(dp1229
g74
(dp1230
sg83
g1204
sg76
(lp1231
g69
(g90
g71
NtRp1232
(dp1233
g74
(dp1234
g94
g95
ssg83
g1228
sg76
(lp1235
g304
asbag69
(g90
g71
NtRp1236
(dp1237
g74
(dp1238
g101
g102
ssg83
g1228
sg76
(lp1239
S':'
asbag69
(g90
g71
NtRp1240
(dp1241
g74
(dp1242
sg83
g1228
sg76
(lp1243
g69
(g70
g71
NtRp1244
(dp1245
g74
(dp1246
g82
I3
ssg83
g1240
sg76
(lp1247
S''
asbasbasbag69
(g85
g71
NtRp1248
(dp1249
g74
(dp1250
sg83
g1204
sg76
(lp1251
g69
(g90
g71
NtRp1252
(dp1253
g74
(dp1254
g94
g95
ssg83
g1248
sg76
(lp1255
g325
asbag69
(g90
g71
NtRp1256
(dp1257
g74
(dp1258
g101
g102
ssg83
g1248
sg76
(lp1259
S':'
asbag69
(g90
g71
NtRp1260
(dp1261
g74
(dp1262
sg83
g1248
sg76
(lp1263
g69
(g70
g71
NtRp1264
(dp1265
g74
(dp1266
g82
I3
ssg83
g1260
sg76
(lp1267
S''
asbasbasbag69
(g85
g71
NtRp1268
(dp1269
g74
(dp1270
sg83
g1204
sg76
(lp1271
g69
(g90
g71
NtRp1272
(dp1273
g74
(dp1274
g94
g95
ssg83
g1268
sg76
(lp1275
g346
asbag69
(g90
g71
NtRp1276
(dp1277
g74
(dp1278
g101
g102
ssg83
g1268
sg76
(lp1279
S':'
asbag69
(g90
g71
NtRp1280
(dp1281
g74
(dp1282
sg83
g1268
sg76
(lp1283
g69
(g70
g71
NtRp1284
(dp1285
g74
(dp1286
g82
I3
ssg83
g1280
sg76
(lp1287
S''
asbasbasbag69
(g85
g71
NtRp1288
(dp1289
g74
(dp1290
sg83
g1204
sg76
(lp1291
g69
(g90
g71
NtRp1292
(dp1293
g74
(dp1294
g94
g95
ssg83
g1288
sg76
(lp1295
g367
asbag69
(g90
g71
NtRp1296
(dp1297
g74
(dp1298
g101
g102
ssg83
g1288
sg76
(lp1299
S':'
asbag69
(g90
g71
NtRp1300
(dp1301
g74
(dp1302
sg83
g1288
sg76
(lp1303
g69
(g70
g71
NtRp1304
(dp1305
g74
(dp1306
g82
I3
ssg83
g1300
sg76
(lp1307
S''
asbasbasbag69
(g85
g71
NtRp1308
(dp1309
g74
(dp1310
sg83
g1204
sg76
(lp1311
g69
(g90
g71
NtRp1312
(dp1313
g74
(dp1314
g94
g95
ssg83
g1308
sg76
(lp1315
g388
asbag69
(g90
g71
NtRp1316
(dp1317
g74
(dp1318
g101
g102
ssg83
g1308
sg76
(lp1319
S':'
asbag69
(g90
g71
NtRp1320
(dp1321
g74
(dp1322
sg83
g1308
sg76
(lp1323
g69
(g70
g71
NtRp1324
(dp1325
g74
(dp1326
g82
I3
ssg83
g1320
sg76
(lp1327
S''
asbasbasbag69
(g85
g71
NtRp1328
(dp1329
g74
(dp1330
sg83
g1204
sg76
(lp1331
g69
(g90
g71
NtRp1332
(dp1333
g74
(dp1334
g94
g95
ssg83
g1328
sg76
(lp1335
g409
asbag69
(g90
g71
NtRp1336
(dp1337
g74
(dp1338
g101
g102
ssg83
g1328
sg76
(lp1339
S':'
asbag69
(g90
g71
NtRp1340
(dp1341
g74
(dp1342
sg83
g1328
sg76
(lp1343
g69
(g70
g71
NtRp1344
(dp1345
g74
(dp1346
g82
I3
ssg83
g1340
sg76
(lp1347
S''
asbasbasbag69
(g85
g71
NtRp1348
(dp1349
g74
(dp1350
sg83
g1204
sg76
(lp1351
g69
(g90
g71
NtRp1352
(dp1353
g74
(dp1354
g94
g95
ssg83
g1348
sg76
(lp1355
g430
asbag69
(g90
g71
NtRp1356
(dp1357
g74
(dp1358
g101
g102
ssg83
g1348
sg76
(lp1359
S':'
asbag69
(g90
g71
NtRp1360
(dp1361
g74
(dp1362
sg83
g1348
sg76
(lp1363
g69
(g70
g71
NtRp1364
(dp1365
g74
(dp1366
g82
I3
ssg83
g1360
sg76
(lp1367
S''
asbasbasbasbasbasbasbag69
(g85
g71
NtRp1368
(dp1369
g74
(dp1370
sg83
g246
sg76
(lp1371
g69
(g90
g71
NtRp1372
(dp1373
g74
(dp1374
g94
g95
ssg83
g1368
sg76
(lp1375
S'session_id_vish'
p1376
asbag69
(g90
g71
NtRp1377
(dp1378
g74
(dp1379
g101
g102
ssg83
g1368
sg76
(lp1380
S':'
asbag69
(g90
g71
NtRp1381
(dp1382
g74
(dp1383
sg83
g1368
sg76
(lp1384
g69
(g70
g71
NtRp1385
(dp1386
g74
(dp1387
g82
I4
ssg83
g1381
sg76
(lp1388
g69
(g78
g71
NtRp1389
(dp1390
g74
(dp1391
g82
I3
ssg83
Nsg76
(lp1392
g69
(g85
g71
NtRp1393
(dp1394
g74
(dp1395
sg83
g1389
sg76
(lp1396
g69
(g90
g71
NtRp1397
(dp1398
g74
(dp1399
g94
g95
ssg83
g1393
sg76
(lp1400
g283
asbag69
(g90
g71
NtRp1401
(dp1402
g74
(dp1403
g101
g102
ssg83
g1393
sg76
(lp1404
S':'
asbag69
(g90
g71
NtRp1405
(dp1406
g74
(dp1407
sg83
g1393
sg76
(lp1408
g69
(g70
g71
NtRp1409
(dp1410
g74
(dp1411
g82
I3
ssg83
g1405
sg76
(lp1412
S''
asbasbasbag69
(g85
g71
NtRp1413
(dp1414
g74
(dp1415
sg83
g1389
sg76
(lp1416
g69
(g90
g71
NtRp1417
(dp1418
g74
(dp1419
g94
g95
ssg83
g1413
sg76
(lp1420
g304
asbag69
(g90
g71
NtRp1421
(dp1422
g74
(dp1423
g101
g102
ssg83
g1413
sg76
(lp1424
S':'
asbag69
(g90
g71
NtRp1425
(dp1426
g74
(dp1427
sg83
g1413
sg76
(lp1428
g69
(g70
g71
NtRp1429
(dp1430
g74
(dp1431
g82
I3
ssg83
g1425
sg76
(lp1432
S''
asbasbasbag69
(g85
g71
NtRp1433
(dp1434
g74
(dp1435
sg83
g1389
sg76
(lp1436
g69
(g90
g71
NtRp1437
(dp1438
g74
(dp1439
g94
g95
ssg83
g1433
sg76
(lp1440
g325
asbag69
(g90
g71
NtRp1441
(dp1442
g74
(dp1443
g101
g102
ssg83
g1433
sg76
(lp1444
S':'
asbag69
(g90
g71
NtRp1445
(dp1446
g74
(dp1447
sg83
g1433
sg76
(lp1448
g69
(g70
g71
NtRp1449
(dp1450
g74
(dp1451
g82
I3
ssg83
g1445
sg76
(lp1452
S''
asbasbasbag69
(g85
g71
NtRp1453
(dp1454
g74
(dp1455
sg83
g1389
sg76
(lp1456
g69
(g90
g71
NtRp1457
(dp1458
g74
(dp1459
g94
g95
ssg83
g1453
sg76
(lp1460
g346
asbag69
(g90
g71
NtRp1461
(dp1462
g74
(dp1463
g101
g102
ssg83
g1453
sg76
(lp1464
S':'
asbag69
(g90
g71
NtRp1465
(dp1466
g74
(dp1467
sg83
g1453
sg76
(lp1468
g69
(g70
g71
NtRp1469
(dp1470
g74
(dp1471
g82
I3
ssg83
g1465
sg76
(lp1472
S''
asbasbasbag69
(g85
g71
NtRp1473
(dp1474
g74
(dp1475
sg83
g1389
sg76
(lp1476
g69
(g90
g71
NtRp1477
(dp1478
g74
(dp1479
g94
g95
ssg83
g1473
sg76
(lp1480
g367
asbag69
(g90
g71
NtRp1481
(dp1482
g74
(dp1483
g101
g102
ssg83
g1473
sg76
(lp1484
S':'
asbag69
(g90
g71
NtRp1485
(dp1486
g74
(dp1487
sg83
g1473
sg76
(lp1488
g69
(g70
g71
NtRp1489
(dp1490
g74
(dp1491
g82
I3
ssg83
g1485
sg76
(lp1492
S''
asbasbasbag69
(g85
g71
NtRp1493
(dp1494
g74
(dp1495
sg83
g1389
sg76
(lp1496
g69
(g90
g71
NtRp1497
(dp1498
g74
(dp1499
g94
g95
ssg83
g1493
sg76
(lp1500
g388
asbag69
(g90
g71
NtRp1501
(dp1502
g74
(dp1503
g101
g102
ssg83
g1493
sg76
(lp1504
S':'
asbag69
(g90
g71
NtRp1505
(dp1506
g74
(dp1507
sg83
g1493
sg76
(lp1508
g69
(g70
g71
NtRp1509
(dp1510
g74
(dp1511
g82
I3
ssg83
g1505
sg76
(lp1512
S''
asbasbasbag69
(g85
g71
NtRp1513
(dp1514
g74
(dp1515
sg83
g1389
sg76
(lp1516
g69
(g90
g71
NtRp1517
(dp1518
g74
(dp1519
g94
g95
ssg83
g1513
sg76
(lp1520
g409
asbag69
(g90
g71
NtRp1521
(dp1522
g74
(dp1523
g101
g102
ssg83
g1513
sg76
(lp1524
S':'
asbag69
(g90
g71
NtRp1525
(dp1526
g74
(dp1527
sg83
g1513
sg76
(lp1528
g69
(g70
g71
NtRp1529
(dp1530
g74
(dp1531
g82
I3
ssg83
g1525
sg76
(lp1532
S''
asbasbasbag69
(g85
g71
NtRp1533
(dp1534
g74
(dp1535
sg83
g1389
sg76
(lp1536
g69
(g90
g71
NtRp1537
(dp1538
g74
(dp1539
g94
g95
ssg83
g1533
sg76
(lp1540
g430
asbag69
(g90
g71
NtRp1541
(dp1542
g74
(dp1543
g101
g102
ssg83
g1533
sg76
(lp1544
S':'
asbag69
(g90
g71
NtRp1545
(dp1546
g74
(dp1547
sg83
g1533
sg76
(lp1548
g69
(g70
g71
NtRp1549
(dp1550
g74
(dp1551
g82
I3
ssg83
g1545
sg76
(lp1552
S''
asbasbasbasbasbasbasbag69
(g85
g71
NtRp1553
(dp1554
g74
(dp1555
sg83
g246
sg76
(lp1556
g69
(g90
g71
NtRp1557
(dp1558
g74
(dp1559
g94
g95
ssg83
g1553
sg76
(lp1560
S'session_id_welcome'
p1561
asbag69
(g90
g71
NtRp1562
(dp1563
g74
(dp1564
g101
g102
ssg83
g1553
sg76
(lp1565
S':'
asbag69
(g90
g71
NtRp1566
(dp1567
g74
(dp1568
sg83
g1553
sg76
(lp1569
g69
(g70
g71
NtRp1570
(dp1571
g74
(dp1572
g82
I4
ssg83
g1566
sg76
(lp1573
g69
(g78
g71
NtRp1574
(dp1575
g74
(dp1576
g82
I3
ssg83
Nsg76
(lp1577
g69
(g85
g71
NtRp1578
(dp1579
g74
(dp1580
sg83
g1574
sg76
(lp1581
g69
(g90
g71
NtRp1582
(dp1583
g74
(dp1584
g94
g95
ssg83
g1578
sg76
(lp1585
g283
asbag69
(g90
g71
NtRp1586
(dp1587
g74
(dp1588
g101
g102
ssg83
g1578
sg76
(lp1589
S':'
asbag69
(g90
g71
NtRp1590
(dp1591
g74
(dp1592
sg83
g1578
sg76
(lp1593
g69
(g70
g71
NtRp1594
(dp1595
g74
(dp1596
g82
I3
ssg83
g1590
sg76
(lp1597
S''
asbasbasbag69
(g85
g71
NtRp1598
(dp1599
g74
(dp1600
sg83
g1574
sg76
(lp1601
g69
(g90
g71
NtRp1602
(dp1603
g74
(dp1604
g94
g95
ssg83
g1598
sg76
(lp1605
g304
asbag69
(g90
g71
NtRp1606
(dp1607
g74
(dp1608
g101
g102
ssg83
g1598
sg76
(lp1609
S':'
asbag69
(g90
g71
NtRp1610
(dp1611
g74
(dp1612
sg83
g1598
sg76
(lp1613
g69
(g70
g71
NtRp1614
(dp1615
g74
(dp1616
g82
I3
ssg83
g1610
sg76
(lp1617
S''
asbasbasbag69
(g85
g71
NtRp1618
(dp1619
g74
(dp1620
sg83
g1574
sg76
(lp1621
g69
(g90
g71
NtRp1622
(dp1623
g74
(dp1624
g94
g95
ssg83
g1618
sg76
(lp1625
g325
asbag69
(g90
g71
NtRp1626
(dp1627
g74
(dp1628
g101
g102
ssg83
g1618
sg76
(lp1629
S':'
asbag69
(g90
g71
NtRp1630
(dp1631
g74
(dp1632
sg83
g1618
sg76
(lp1633
g69
(g70
g71
NtRp1634
(dp1635
g74
(dp1636
g82
I3
ssg83
g1630
sg76
(lp1637
S''
asbasbasbag69
(g85
g71
NtRp1638
(dp1639
g74
(dp1640
sg83
g1574
sg76
(lp1641
g69
(g90
g71
NtRp1642
(dp1643
g74
(dp1644
g94
g95
ssg83
g1638
sg76
(lp1645
g346
asbag69
(g90
g71
NtRp1646
(dp1647
g74
(dp1648
g101
g102
ssg83
g1638
sg76
(lp1649
S':'
asbag69
(g90
g71
NtRp1650
(dp1651
g74
(dp1652
sg83
g1638
sg76
(lp1653
g69
(g70
g71
NtRp1654
(dp1655
g74
(dp1656
g82
I3
ssg83
g1650
sg76
(lp1657
S''
asbasbasbag69
(g85
g71
NtRp1658
(dp1659
g74
(dp1660
sg83
g1574
sg76
(lp1661
g69
(g90
g71
NtRp1662
(dp1663
g74
(dp1664
g94
g95
ssg83
g1658
sg76
(lp1665
g367
asbag69
(g90
g71
NtRp1666
(dp1667
g74
(dp1668
g101
g102
ssg83
g1658
sg76
(lp1669
S':'
asbag69
(g90
g71
NtRp1670
(dp1671
g74
(dp1672
sg83
g1658
sg76
(lp1673
g69
(g70
g71
NtRp1674
(dp1675
g74
(dp1676
g82
I3
ssg83
g1670
sg76
(lp1677
S''
asbasbasbag69
(g85
g71
NtRp1678
(dp1679
g74
(dp1680
sg83
g1574
sg76
(lp1681
g69
(g90
g71
NtRp1682
(dp1683
g74
(dp1684
g94
g95
ssg83
g1678
sg76
(lp1685
g388
asbag69
(g90
g71
NtRp1686
(dp1687
g74
(dp1688
g101
g102
ssg83
g1678
sg76
(lp1689
S':'
asbag69
(g90
g71
NtRp1690
(dp1691
g74
(dp1692
sg83
g1678
sg76
(lp1693
g69
(g70
g71
NtRp1694
(dp1695
g74
(dp1696
g82
I3
ssg83
g1690
sg76
(lp1697
S''
asbasbasbag69
(g85
g71
NtRp1698
(dp1699
g74
(dp1700
sg83
g1574
sg76
(lp1701
g69
(g90
g71
NtRp1702
(dp1703
g74
(dp1704
g94
g95
ssg83
g1698
sg76
(lp1705
g409
asbag69
(g90
g71
NtRp1706
(dp1707
g74
(dp1708
g101
g102
ssg83
g1698
sg76
(lp1709
S':'
asbag69
(g90
g71
NtRp1710
(dp1711
g74
(dp1712
sg83
g1698
sg76
(lp1713
g69
(g70
g71
NtRp1714
(dp1715
g74
(dp1716
g82
I3
ssg83
g1710
sg76
(lp1717
S''
asbasbasbag69
(g85
g71
NtRp1718
(dp1719
g74
(dp1720
sg83
g1574
sg76
(lp1721
g69
(g90
g71
NtRp1722
(dp1723
g74
(dp1724
g94
g95
ssg83
g1718
sg76
(lp1725
g430
asbag69
(g90
g71
NtRp1726
(dp1727
g74
(dp1728
g101
g102
ssg83
g1718
sg76
(lp1729
S':'
asbag69
(g90
g71
NtRp1730
(dp1731
g74
(dp1732
sg83
g1718
sg76
(lp1733
g69
(g70
g71
NtRp1734
(dp1735
g74
(dp1736
g82
I3
ssg83
g1730
sg76
(lp1737
S''
asbasbasbasbasbasbasbasbasbasbasbag69
(g85
g71
NtRp1738
(dp1739
g74
(dp1740
sg83
g79
sg76
(lp1741
g69
(g90
g71
NtRp1742
(dp1743
g74
(dp1744
g94
g95
ssg83
g1738
sg76
(lp1745
S'env'
p1746
asbag69
(g90
g71
NtRp1747
(dp1748
g74
(dp1749
g101
g102
ssg83
g1738
sg76
(lp1750
S':'
asbag69
(g90
g71
NtRp1751
(dp1752
g74
(dp1753
sg83
g1738
sg76
(lp1754
g69
(g70
g71
NtRp1755
(dp1756
g74
(dp1757
g82
I5
ssg83
g1751
sg76
(lp1758
g69
(g78
g71
NtRp1759
(dp1760
g74
(dp1761
g82
I4
ssg83
Nsg76
(lp1762
g69
(g85
g71
NtRp1763
(dp1764
g74
(dp1765
sg83
g1759
sg76
(lp1766
g69
(g90
g71
NtRp1767
(dp1768
g74
(dp1769
g94
g95
ssg83
g1763
sg76
(lp1770
S'app_folders'
p1771
asbag69
(g90
g71
NtRp1772
(dp1773
g74
(dp1774
g101
g102
ssg83
g1763
sg76
(lp1775
S':'
asbag69
(g90
g71
NtRp1776
(dp1777
g74
(dp1778
sg83
g1763
sg76
(lp1779
g69
(g70
g71
NtRp1780
(dp1781
g74
(dp1782
g82
I4
ssg83
g1776
sg76
(lp1783
S"set(['/home/vishrut/web2py/applications/astra1/', '/home/vishrut/web2py/applications/admin/', '/home/vishrut/web2py/applications/PhotoUploader/', '/home/vishrut/web2py/applications/welcome/'])"
p1784
asbasbasbag69
(g85
g71
NtRp1785
(dp1786
g74
(dp1787
sg83
g1759
sg76
(lp1788
g69
(g90
g71
NtRp1789
(dp1790
g74
(dp1791
g94
g95
ssg83
g1785
sg76
(lp1792
S'applications_parent'
p1793
asbag69
(g90
g71
NtRp1794
(dp1795
g74
(dp1796
g101
g102
ssg83
g1785
sg76
(lp1797
S':'
asbag69
(g90
g71
NtRp1798
(dp1799
g74
(dp1800
sg83
g1785
sg76
(lp1801
g69
(g70
g71
NtRp1802
(dp1803
g74
(dp1804
g82
I4
ssg83
g1798
sg76
(lp1805
S'/home/vishrut/web2py'
p1806
asbasbasbag69
(g85
g71
NtRp1807
(dp1808
g74
(dp1809
sg83
g1759
sg76
(lp1810
g69
(g90
g71
NtRp1811
(dp1812
g74
(dp1813
g94
g95
ssg83
g1807
sg76
(lp1814
S'cmd_args'
p1815
asbag69
(g90
g71
NtRp1816
(dp1817
g74
(dp1818
g101
g102
ssg83
g1807
sg76
(lp1819
S':'
asbag69
(g90
g71
NtRp1820
(dp1821
g74
(dp1822
sg83
g1807
sg76
(lp1823
g69
(g70
g71
NtRp1824
(dp1825
g74
(dp1826
g82
I4
ssg83
g1820
sg76
(lp1827
g69
(g78
g71
NtRp1828
(dp1829
g74
(dp1830
g82
I3
ssg83
Nsg76
(lp1831
sbasbasbasbag69
(g85
g71
NtRp1832
(dp1833
g74
(dp1834
sg83
g1759
sg76
(lp1835
g69
(g90
g71
NtRp1836
(dp1837
g74
(dp1838
g94
g95
ssg83
g1832
sg76
(lp1839
S'cmd_options'
p1840
asbag69
(g90
g71
NtRp1841
(dp1842
g74
(dp1843
g101
g102
ssg83
g1832
sg76
(lp1844
S':'
asbag69
(g90
g71
NtRp1845
(dp1846
g74
(dp1847
sg83
g1832
sg76
(lp1848
g69
(g70
g71
NtRp1849
(dp1850
g74
(dp1851
g82
I4
ssg83
g1845
sg76
(lp1852
S"<Values at 0x9d363cc: {'verbose': False, 'ip': '127.0.0.1', 'shutdown_timeout': 5, 'taskbar': False, 'nocron': False, 'pid_filename': 'httpserver.pid', 'maxthreads': None, 'softcron': False, 'server_name': 'vishrut-Vostro-1015', 'bpython': False, 'nogui': False, 'port': 8000, 'extcron': False, 'debuglevel': 30, 'test': None, 'folder': '/home/vishrut/web2py', 'config': '', 'import_models': False, 'winservice': '', 'shell': None, 'run': '', 'log_filename': 'httpserver.log', 'args': [''], 'socket_timeout': 5, 'ssl_ca_certificate': None, 'scheduler': None, 'profiler_filename': None, 'ssl_private_key': '', 'password': '<ask>', 'request_queue_size': 5, 'ssl_certificate': '', 'cronjob': False, 'numthreads': None, 'quiet': False, 'interfaces': None, 'minthreads': None, 'timeout': 10, 'plain': False, 'nobanner': False}>"
p1853
asbasbasbag69
(g85
g71
NtRp1854
(dp1855
g74
(dp1856
sg83
g1759
sg76
(lp1857
g69
(g90
g71
NtRp1858
(dp1859
g74
(dp1860
g94
g95
ssg83
g1854
sg76
(lp1861
S'db_sessions'
p1862
asbag69
(g90
g71
NtRp1863
(dp1864
g74
(dp1865
g101
g102
ssg83
g1854
sg76
(lp1866
S':'
asbag69
(g90
g71
NtRp1867
(dp1868
g74
(dp1869
sg83
g1854
sg76
(lp1870
g69
(g70
g71
NtRp1871
(dp1872
g74
(dp1873
g82
I4
ssg83
g1867
sg76
(lp1874
S'set([])'
p1875
asbasbasbag69
(g85
g71
NtRp1876
(dp1877
g74
(dp1878
sg83
g1759
sg76
(lp1879
g69
(g90
g71
NtRp1880
(dp1881
g74
(dp1882
g94
g95
ssg83
g1876
sg76
(lp1883
S'debugging'
p1884
asbag69
(g90
g71
NtRp1885
(dp1886
g74
(dp1887
g101
g102
ssg83
g1876
sg76
(lp1888
S':'
asbag69
(g90
g71
NtRp1889
(dp1890
g74
(dp1891
sg83
g1876
sg76
(lp1892
g69
(g70
g71
NtRp1893
(dp1894
g74
(dp1895
g82
I4
ssg83
g1889
sg76
(lp1896
g112
asbasbasbag69
(g85
g71
NtRp1897
(dp1898
g74
(dp1899
sg83
g1759
sg76
(lp1900
g69
(g90
g71
NtRp1901
(dp1902
g74
(dp1903
g94
g95
ssg83
g1897
sg76
(lp1904
S'gluon_parent'
p1905
asbag69
(g90
g71
NtRp1906
(dp1907
g74
(dp1908
g101
g102
ssg83
g1897
sg76
(lp1909
S':'
asbag69
(g90
g71
NtRp1910
(dp1911
g74
(dp1912
sg83
g1897
sg76
(lp1913
g69
(g70
g71
NtRp1914
(dp1915
g74
(dp1916
g82
I4
ssg83
g1910
sg76
(lp1917
S'/home/vishrut/web2py'
p1918
asbasbasbag69
(g85
g71
NtRp1919
(dp1920
g74
(dp1921
sg83
g1759
sg76
(lp1922
g69
(g90
g71
NtRp1923
(dp1924
g74
(dp1925
g94
g95
ssg83
g1919
sg76
(lp1926
S'http_accept'
p1927
asbag69
(g90
g71
NtRp1928
(dp1929
g74
(dp1930
g101
g102
ssg83
g1919
sg76
(lp1931
S':'
asbag69
(g90
g71
NtRp1932
(dp1933
g74
(dp1934
sg83
g1919
sg76
(lp1935
g69
(g70
g71
NtRp1936
(dp1937
g74
(dp1938
g82
I4
ssg83
g1932
sg76
(lp1939
S'text/html,application/xhtml+xml,application/xml;q=0.9,*/*;q=0.8'
p1940
asbasbasbag69
(g85
g71
NtRp1941
(dp1942
g74
(dp1943
sg83
g1759
sg76
(lp1944
g69
(g90
g71
NtRp1945
(dp1946
g74
(dp1947
g94
g95
ssg83
g1941
sg76
(lp1948
S'http_accept_encoding'
p1949
asbag69
(g90
g71
NtRp1950
(dp1951
g74
(dp1952
g101
g102
ssg83
g1941
sg76
(lp1953
S':'
asbag69
(g90
g71
NtRp1954
(dp1955
g74
(dp1956
sg83
g1941
sg76
(lp1957
g69
(g70
g71
NtRp1958
(dp1959
g74
(dp1960
g82
I4
ssg83
g1954
sg76
(lp1961
S'gzip, deflate'
p1962
asbasbasbag69
(g85
g71
NtRp1963
(dp1964
g74
(dp1965
sg83
g1759
sg76
(lp1966
g69
(g90
g71
NtRp1967
(dp1968
g74
(dp1969
g94
g95
ssg83
g1963
sg76
(lp1970
S'http_accept_language'
p1971
asbag69
(g90
g71
NtRp1972
(dp1973
g74
(dp1974
g101
g102
ssg83
g1963
sg76
(lp1975
S':'
asbag69
(g90
g71
NtRp1976
(dp1977
g74
(dp1978
sg83
g1963
sg76
(lp1979
g69
(g70
g71
NtRp1980
(dp1981
g74
(dp1982
g82
I4
ssg83
g1976
sg76
(lp1983
S'en-US,en;q=0.5'
p1984
asbasbasbag69
(g85
g71
NtRp1985
(dp1986
g74
(dp1987
sg83
g1759
sg76
(lp1988
g69
(g90
g71
NtRp1989
(dp1990
g74
(dp1991
g94
g95
ssg83
g1985
sg76
(lp1992
S'http_cache_control'
p1993
asbag69
(g90
g71
NtRp1994
(dp1995
g74
(dp1996
g101
g102
ssg83
g1985
sg76
(lp1997
S':'
asbag69
(g90
g71
NtRp1998
(dp1999
g74
(dp2000
sg83
g1985
sg76
(lp2001
g69
(g70
g71
NtRp2002
(dp2003
g74
(dp2004
g82
I4
ssg83
g1998
sg76
(lp2005
S'max-age=0'
p2006
asbasbasbag69
(g85
g71
NtRp2007
(dp2008
g74
(dp2009
sg83
g1759
sg76
(lp2010
g69
(g90
g71
NtRp2011
(dp2012
g74
(dp2013
g94
g95
ssg83
g2007
sg76
(lp2014
S'http_connection'
p2015
asbag69
(g90
g71
NtRp2016
(dp2017
g74
(dp2018
g101
g102
ssg83
g2007
sg76
(lp2019
S':'
asbag69
(g90
g71
NtRp2020
(dp2021
g74
(dp2022
sg83
g2007
sg76
(lp2023
g69
(g70
g71
NtRp2024
(dp2025
g74
(dp2026
g82
I4
ssg83
g2020
sg76
(lp2027
S'keep-alive'
p2028
asbasbasbag69
(g85
g71
NtRp2029
(dp2030
g74
(dp2031
sg83
g1759
sg76
(lp2032
g69
(g90
g71
NtRp2033
(dp2034
g74
(dp2035
g94
g95
ssg83
g2029
sg76
(lp2036
S'http_cookie'
p2037
asbag69
(g90
g71
NtRp2038
(dp2039
g74
(dp2040
g101
g102
ssg83
g2029
sg76
(lp2041
S':'
asbag69
(g90
g71
NtRp2042
(dp2043
g74
(dp2044
sg83
g2029
sg76
(lp2045
g69
(g70
g71
NtRp2046
(dp2047
g74
(dp2048
g82
I4
ssg83
g2042
sg76
(lp2049
S'session_id_photouploader=127.0.0.1-83bacd5e-b575-49a8-9b6e-fdc698e775f9; session_id_astra1=127.0.0.1-6c6943ea-9e10-4b64-9f35-8611eb020dd8; session_id_sudoku=127.0.0.1-a38f9f54-52d0-4767-a55e-9a1db318fe95; session_id_music=127.0.0.1-5772fb54-09d1-429f-9de0-d5ccdcb57f3a; session_id_welcome=127.0.0.1-ce947a26-bb3e-43d4-9cd9-87c4abcec933; session_id_admin=127.0.0.1-6c67b90d-3883-4b37-ba21-eef2525d3981; session_id_vish=127.0.0.1-bfddb273-c13f-44aa-9345-6c2c33dcf2db; session_id_music_library=127.0.0.1-868801ee-bee6-4d4d-8081-d21e25945ab6'
p2050
asbasbasbag69
(g85
g71
NtRp2051
(dp2052
g74
(dp2053
sg83
g1759
sg76
(lp2054
g69
(g90
g71
NtRp2055
(dp2056
g74
(dp2057
g94
g95
ssg83
g2051
sg76
(lp2058
S'http_host'
p2059
asbag69
(g90
g71
NtRp2060
(dp2061
g74
(dp2062
g101
g102
ssg83
g2051
sg76
(lp2063
S':'
asbag69
(g90
g71
NtRp2064
(dp2065
g74
(dp2066
sg83
g2051
sg76
(lp2067
g69
(g70
g71
NtRp2068
(dp2069
g74
(dp2070
g82
I4
ssg83
g2064
sg76
(lp2071
S'127.0.0.1:8000'
p2072
asbasbasbag69
(g85
g71
NtRp2073
(dp2074
g74
(dp2075
sg83
g1759
sg76
(lp2076
g69
(g90
g71
NtRp2077
(dp2078
g74
(dp2079
g94
g95
ssg83
g2073
sg76
(lp2080
S'http_user_agent'
p2081
asbag69
(g90
g71
NtRp2082
(dp2083
g74
(dp2084
g101
g102
ssg83
g2073
sg76
(lp2085
S':'
asbag69
(g90
g71
NtRp2086
(dp2087
g74
(dp2088
sg83
g2073
sg76
(lp2089
g69
(g70
g71
NtRp2090
(dp2091
g74
(dp2092
g82
I4
ssg83
g2086
sg76
(lp2093
S'Mozilla/5.0 (X11; Ubuntu; Linux i686; rv:16.0) Gecko/20100101 Firefox/16.0'
p2094
asbasbasbag69
(g85
g71
NtRp2095
(dp2096
g74
(dp2097
sg83
g1759
sg76
(lp2098
g69
(g90
g71
NtRp2099
(dp2100
g74
(dp2101
g94
g95
ssg83
g2095
sg76
(lp2102
S'is_jython'
p2103
asbag69
(g90
g71
NtRp2104
(dp2105
g74
(dp2106
g101
g102
ssg83
g2095
sg76
(lp2107
S':'
asbag69
(g90
g71
NtRp2108
(dp2109
g74
(dp2110
sg83
g2095
sg76
(lp2111
g69
(g70
g71
NtRp2112
(dp2113
g74
(dp2114
g82
I4
ssg83
g2108
sg76
(lp2115
g112
asbasbasbag69
(g85
g71
NtRp2116
(dp2117
g74
(dp2118
sg83
g1759
sg76
(lp2119
g69
(g90
g71
NtRp2120
(dp2121
g74
(dp2122
g94
g95
ssg83
g2116
sg76
(lp2123
S'is_pypy'
p2124
asbag69
(g90
g71
NtRp2125
(dp2126
g74
(dp2127
g101
g102
ssg83
g2116
sg76
(lp2128
S':'
asbag69
(g90
g71
NtRp2129
(dp2130
g74
(dp2131
sg83
g2116
sg76
(lp2132
g69
(g70
g71
NtRp2133
(dp2134
g74
(dp2135
g82
I4
ssg83
g2129
sg76
(lp2136
g112
asbasbasbag69
(g85
g71
NtRp2137
(dp2138
g74
(dp2139
sg83
g1759
sg76
(lp2140
g69
(g90
g71
NtRp2141
(dp2142
g74
(dp2143
g94
g95
ssg83
g2137
sg76
(lp2144
S'path_info'
p2145
asbag69
(g90
g71
NtRp2146
(dp2147
g74
(dp2148
g101
g102
ssg83
g2137
sg76
(lp2149
S':'
asbag69
(g90
g71
NtRp2150
(dp2151
g74
(dp2152
sg83
g2137
sg76
(lp2153
g69
(g70
g71
NtRp2154
(dp2155
g74
(dp2156
g82
I4
ssg83
g2150
sg76
(lp2157
S'/astra1/default/show'
p2158
asbasbasbag69
(g85
g71
NtRp2159
(dp2160
g74
(dp2161
sg83
g1759
sg76
(lp2162
g69
(g90
g71
NtRp2163
(dp2164
g74
(dp2165
g94
g95
ssg83
g2159
sg76
(lp2166
S'query_string'
p2167
asbag69
(g90
g71
NtRp2168
(dp2169
g74
(dp2170
g101
g102
ssg83
g2159
sg76
(lp2171
S':'
asbag69
(g90
g71
NtRp2172
(dp2173
g74
(dp2174
sg83
g2159
sg76
(lp2175
g69
(g70
g71
NtRp2176
(dp2177
g74
(dp2178
g82
I4
ssg83
g2172
sg76
(lp2179
S''
asbasbasbag69
(g85
g71
NtRp2180
(dp2181
g74
(dp2182
sg83
g1759
sg76
(lp2183
g69
(g90
g71
NtRp2184
(dp2185
g74
(dp2186
g94
g95
ssg83
g2180
sg76
(lp2187
S'remote_addr'
p2188
asbag69
(g90
g71
NtRp2189
(dp2190
g74
(dp2191
g101
g102
ssg83
g2180
sg76
(lp2192
S':'
asbag69
(g90
g71
NtRp2193
(dp2194
g74
(dp2195
sg83
g2180
sg76
(lp2196
g69
(g70
g71
NtRp2197
(dp2198
g74
(dp2199
g82
I4
ssg83
g2193
sg76
(lp2200
g202
asbasbasbag69
(g85
g71
NtRp2201
(dp2202
g74
(dp2203
sg83
g1759
sg76
(lp2204
g69
(g90
g71
NtRp2205
(dp2206
g74
(dp2207
g94
g95
ssg83
g2201
sg76
(lp2208
S'remote_port'
p2209
asbag69
(g90
g71
NtRp2210
(dp2211
g74
(dp2212
g101
g102
ssg83
g2201
sg76
(lp2213
S':'
asbag69
(g90
g71
NtRp2214
(dp2215
g74
(dp2216
sg83
g2201
sg76
(lp2217
g69
(g70
g71
NtRp2218
(dp2219
g74
(dp2220
g82
I4
ssg83
g2214
sg76
(lp2221
S'45300'
p2222
asbasbasbag69
(g85
g71
NtRp2223
(dp2224
g74
(dp2225
sg83
g1759
sg76
(lp2226
g69
(g90
g71
NtRp2227
(dp2228
g74
(dp2229
g94
g95
ssg83
g2223
sg76
(lp2230
S'request_method'
p2231
asbag69
(g90
g71
NtRp2232
(dp2233
g74
(dp2234
g101
g102
ssg83
g2223
sg76
(lp2235
S':'
asbag69
(g90
g71
NtRp2236
(dp2237
g74
(dp2238
sg83
g2223
sg76
(lp2239
g69
(g70
g71
NtRp2240
(dp2241
g74
(dp2242
g82
I4
ssg83
g2236
sg76
(lp2243
S'GET'
p2244
asbasbasbag69
(g85
g71
NtRp2245
(dp2246
g74
(dp2247
sg83
g1759
sg76
(lp2248
g69
(g90
g71
NtRp2249
(dp2250
g74
(dp2251
g94
g95
ssg83
g2245
sg76
(lp2252
S'script_name'
p2253
asbag69
(g90
g71
NtRp2254
(dp2255
g74
(dp2256
g101
g102
ssg83
g2245
sg76
(lp2257
S':'
asbag69
(g90
g71
NtRp2258
(dp2259
g74
(dp2260
sg83
g2245
sg76
(lp2261
g69
(g70
g71
NtRp2262
(dp2263
g74
(dp2264
g82
I4
ssg83
g2258
sg76
(lp2265
S''
asbasbasbag69
(g85
g71
NtRp2266
(dp2267
g74
(dp2268
sg83
g1759
sg76
(lp2269
g69
(g90
g71
NtRp2270
(dp2271
g74
(dp2272
g94
g95
ssg83
g2266
sg76
(lp2273
S'server_name'
p2274
asbag69
(g90
g71
NtRp2275
(dp2276
g74
(dp2277
g101
g102
ssg83
g2266
sg76
(lp2278
S':'
asbag69
(g90
g71
NtRp2279
(dp2280
g74
(dp2281
sg83
g2266
sg76
(lp2282
g69
(g70
g71
NtRp2283
(dp2284
g74
(dp2285
g82
I4
ssg83
g2279
sg76
(lp2286
S'vishrut-Vostro-1015'
p2287
asbasbasbag69
(g85
g71
NtRp2288
(dp2289
g74
(dp2290
sg83
g1759
sg76
(lp2291
g69
(g90
g71
NtRp2292
(dp2293
g74
(dp2294
g94
g95
ssg83
g2288
sg76
(lp2295
S'server_port'
p2296
asbag69
(g90
g71
NtRp2297
(dp2298
g74
(dp2299
g101
g102
ssg83
g2288
sg76
(lp2300
S':'
asbag69
(g90
g71
NtRp2301
(dp2302
g74
(dp2303
sg83
g2288
sg76
(lp2304
g69
(g70
g71
NtRp2305
(dp2306
g74
(dp2307
g82
I4
ssg83
g2301
sg76
(lp2308
S'8000'
p2309
asbasbasbag69
(g85
g71
NtRp2310
(dp2311
g74
(dp2312
sg83
g1759
sg76
(lp2313
g69
(g90
g71
NtRp2314
(dp2315
g74
(dp2316
g94
g95
ssg83
g2310
sg76
(lp2317
S'server_protocol'
p2318
asbag69
(g90
g71
NtRp2319
(dp2320
g74
(dp2321
g101
g102
ssg83
g2310
sg76
(lp2322
S':'
asbag69
(g90
g71
NtRp2323
(dp2324
g74
(dp2325
sg83
g2310
sg76
(lp2326
g69
(g70
g71
NtRp2327
(dp2328
g74
(dp2329
g82
I4
ssg83
g2323
sg76
(lp2330
S'HTTP/1.1'
p2331
asbasbasbag69
(g85
g71
NtRp2332
(dp2333
g74
(dp2334
sg83
g1759
sg76
(lp2335
g69
(g90
g71
NtRp2336
(dp2337
g74
(dp2338
g94
g95
ssg83
g2332
sg76
(lp2339
S'server_software'
p2340
asbag69
(g90
g71
NtRp2341
(dp2342
g74
(dp2343
g101
g102
ssg83
g2332
sg76
(lp2344
S':'
asbag69
(g90
g71
NtRp2345
(dp2346
g74
(dp2347
sg83
g2332
sg76
(lp2348
g69
(g70
g71
NtRp2349
(dp2350
g74
(dp2351
g82
I4
ssg83
g2345
sg76
(lp2352
S'Rocket 1.2.4'
p2353
asbasbasbag69
(g85
g71
NtRp2354
(dp2355
g74
(dp2356
sg83
g1759
sg76
(lp2357
g69
(g90
g71
NtRp2358
(dp2359
g74
(dp2360
g94
g95
ssg83
g2354
sg76
(lp2361
S'web2py_crontype'
p2362
asbag69
(g90
g71
NtRp2363
(dp2364
g74
(dp2365
g101
g102
ssg83
g2354
sg76
(lp2366
S':'
asbag69
(g90
g71
NtRp2367
(dp2368
g74
(dp2369
sg83
g2354
sg76
(lp2370
g69
(g70
g71
NtRp2371
(dp2372
g74
(dp2373
g82
I4
ssg83
g2367
sg76
(lp2374
S'hard'
p2375
asbasbasbag69
(g85
g71
NtRp2376
(dp2377
g74
(dp2378
sg83
g1759
sg76
(lp2379
g69
(g90
g71
NtRp2380
(dp2381
g74
(dp2382
g94
g95
ssg83
g2376
sg76
(lp2383
S'web2py_path'
p2384
asbag69
(g90
g71
NtRp2385
(dp2386
g74
(dp2387
g101
g102
ssg83
g2376
sg76
(lp2388
S':'
asbag69
(g90
g71
NtRp2389
(dp2390
g74
(dp2391
sg83
g2376
sg76
(lp2392
g69
(g70
g71
NtRp2393
(dp2394
g74
(dp2395
g82
I4
ssg83
g2389
sg76
(lp2396
g1806
asbasbasbag69
(g85
g71
NtRp2397
(dp2398
g74
(dp2399
sg83
g1759
sg76
(lp2400
g69
(g90
g71
NtRp2401
(dp2402
g74
(dp2403
g94
g95
ssg83
g2397
sg76
(lp2404
S'web2py_version'
p2405
asbag69
(g90
g71
NtRp2406
(dp2407
g74
(dp2408
g101
g102
ssg83
g2397
sg76
(lp2409
S':'
asbag69
(g90
g71
NtRp2410
(dp2411
g74
(dp2412
sg83
g2397
sg76
(lp2413
g69
(g70
g71
NtRp2414
(dp2415
g74
(dp2416
g82
I4
ssg83
g2410
sg76
(lp2417
g69
(g78
g71
NtRp2418
(dp2419
g74
(dp2420
g82
I3
ssg83
Nsg76
(lp2421
g69
(g85
g71
NtRp2422
(dp2423
g74
(dp2424
sg83
g2418
sg76
(lp2425
g69
(g90
g71
NtRp2426
(dp2427
g74
(dp2428
sg83
g2422
sg76
(lp2429
g69
(g70
g71
NtRp2430
(dp2431
g74
(dp2432
g82
I3
ssg83
g2426
sg76
(lp2433
S'1'
asbasbasbag69
(g85
g71
NtRp2434
(dp2435
g74
(dp2436
sg83
g2418
sg76
(lp2437
g69
(g90
g71
NtRp2438
(dp2439
g74
(dp2440
sg83
g2434
sg76
(lp2441
g69
(g70
g71
NtRp2442
(dp2443
g74
(dp2444
g82
I3
ssg83
g2438
sg76
(lp2445
S'99'
p2446
asbasbasbag69
(g85
g71
NtRp2447
(dp2448
g74
(dp2449
sg83
g2418
sg76
(lp2450
g69
(g90
g71
NtRp2451
(dp2452
g74
(dp2453
sg83
g2447
sg76
(lp2454
g69
(g70
g71
NtRp2455
(dp2456
g74
(dp2457
g82
I3
ssg83
g2451
sg76
(lp2458
S'7'
asbasbasbag69
(g85
g71
NtRp2459
(dp2460
g74
(dp2461
sg83
g2418
sg76
(lp2462
g69
(g90
g71
NtRp2463
(dp2464
g74
(dp2465
sg83
g2459
sg76
(lp2466
g69
(g70
g71
NtRp2467
(dp2468
g74
(dp2469
g82
I3
ssg83
g2463
sg76
(lp2470
S'datetime.datetime(2012, 3, 4, 22, 12, 8)'
p2471
asbasbasbag69
(g85
g71
NtRp2472
(dp2473
g74
(dp2474
sg83
g2418
sg76
(lp2475
g69
(g90
g71
NtRp2476
(dp2477
g74
(dp2478
sg83
g2472
sg76
(lp2479
g69
(g70
g71
NtRp2480
(dp2481
g74
(dp2482
g82
I3
ssg83
g2476
sg76
(lp2483
S'stable'
p2484
asbasbasbasbasbasbasbag69
(g85
g71
NtRp2485
(dp2486
g74
(dp2487
sg83
g1759
sg76
(lp2488
g69
(g90
g71
NtRp2489
(dp2490
g74
(dp2491
g94
g95
ssg83
g2485
sg76
(lp2492
S'wsgi_errors'
p2493
asbag69
(g90
g71
NtRp2494
(dp2495
g74
(dp2496
g101
g102
ssg83
g2485
sg76
(lp2497
S':'
asbag69
(g90
g71
NtRp2498
(dp2499
g74
(dp2500
sg83
g2485
sg76
(lp2501
g69
(g70
g71
NtRp2502
(dp2503
g74
(dp2504
g82
I4
ssg83
g2498
sg76
(lp2505
S"<open file '<stderr>', mode 'w' at 0xb77bc0d0>"
p2506
asbasbasbag69
(g85
g71
NtRp2507
(dp2508
g74
(dp2509
sg83
g1759
sg76
(lp2510
g69
(g90
g71
NtRp2511
(dp2512
g74
(dp2513
g94
g95
ssg83
g2507
sg76
(lp2514
S'wsgi_file_wrapper'
p2515
asbag69
(g90
g71
NtRp2516
(dp2517
g74
(dp2518
g101
g102
ssg83
g2507
sg76
(lp2519
S':'
asbag69
(g90
g71
NtRp2520
(dp2521
g74
(dp2522
sg83
g2507
sg76
(lp2523
g69
(g70
g71
NtRp2524
(dp2525
g74
(dp2526
g82
I4
ssg83
g2520
sg76
(lp2527
S'<class wsgiref.util.FileWrapper at 0x9c55aac>'
p2528
asbasbasbag69
(g85
g71
NtRp2529
(dp2530
g74
(dp2531
sg83
g1759
sg76
(lp2532
g69
(g90
g71
NtRp2533
(dp2534
g74
(dp2535
g94
g95
ssg83
g2529
sg76
(lp2536
S'wsgi_input'
p2537
asbag69
(g90
g71
NtRp2538
(dp2539
g74
(dp2540
g101
g102
ssg83
g2529
sg76
(lp2541
S':'
asbag69
(g90
g71
NtRp2542
(dp2543
g74
(dp2544
sg83
g2529
sg76
(lp2545
g69
(g70
g71
NtRp2546
(dp2547
g74
(dp2548
g82
I4
ssg83
g2542
sg76
(lp2549
S'<socket._fileobject object at 0xaf885ec>'
p2550
asbasbasbag69
(g85
g71
NtRp2551
(dp2552
g74
(dp2553
sg83
g1759
sg76
(lp2554
g69
(g90
g71
NtRp2555
(dp2556
g74
(dp2557
g94
g95
ssg83
g2551
sg76
(lp2558
S'wsgi_multiprocess'
p2559
asbag69
(g90
g71
NtRp2560
(dp2561
g74
(dp2562
g101
g102
ssg83
g2551
sg76
(lp2563
S':'
asbag69
(g90
g71
NtRp2564
(dp2565
g74
(dp2566
sg83
g2551
sg76
(lp2567
g69
(g70
g71
NtRp2568
(dp2569
g74
(dp2570
g82
I4
ssg83
g2564
sg76
(lp2571
g112
asbasbasbag69
(g85
g71
NtRp2572
(dp2573
g74
(dp2574
sg83
g1759
sg76
(lp2575
g69
(g90
g71
NtRp2576
(dp2577
g74
(dp2578
g94
g95
ssg83
g2572
sg76
(lp2579
S'wsgi_multithread'
p2580
asbag69
(g90
g71
NtRp2581
(dp2582
g74
(dp2583
g101
g102
ssg83
g2572
sg76
(lp2584
S':'
asbag69
(g90
g71
NtRp2585
(dp2586
g74
(dp2587
sg83
g2572
sg76
(lp2588
g69
(g70
g71
NtRp2589
(dp2590
g74
(dp2591
g82
I4
ssg83
g2585
sg76
(lp2592
S'True'
p2593
asbasbasbag69
(g85
g71
NtRp2594
(dp2595
g74
(dp2596
sg83
g1759
sg76
(lp2597
g69
(g90
g71
NtRp2598
(dp2599
g74
(dp2600
g94
g95
ssg83
g2594
sg76
(lp2601
S'wsgi_run_once'
p2602
asbag69
(g90
g71
NtRp2603
(dp2604
g74
(dp2605
g101
g102
ssg83
g2594
sg76
(lp2606
S':'
asbag69
(g90
g71
NtRp2607
(dp2608
g74
(dp2609
sg83
g2594
sg76
(lp2610
g69
(g70
g71
NtRp2611
(dp2612
g74
(dp2613
g82
I4
ssg83
g2607
sg76
(lp2614
g112
asbasbasbag69
(g85
g71
NtRp2615
(dp2616
g74
(dp2617
sg83
g1759
sg76
(lp2618
g69
(g90
g71
NtRp2619
(dp2620
g74
(dp2621
g94
g95
ssg83
g2615
sg76
(lp2622
S'wsgi_url_scheme'
p2623
asbag69
(g90
g71
NtRp2624
(dp2625
g74
(dp2626
g101
g102
ssg83
g2615
sg76
(lp2627
S':'
asbag69
(g90
g71
NtRp2628
(dp2629
g74
(dp2630
sg83
g2615
sg76
(lp2631
g69
(g70
g71
NtRp2632
(dp2633
g74
(dp2634
g82
I4
ssg83
g2628
sg76
(lp2635
S'http'
p2636
asbasbasbag69
(g85
g71
NtRp2637
(dp2638
g74
(dp2639
sg83
g1759
sg76
(lp2640
g69
(g90
g71
NtRp2641
(dp2642
g74
(dp2643
g94
g95
ssg83
g2637
sg76
(lp2644
S'wsgi_version'
p2645
asbag69
(g90
g71
NtRp2646
(dp2647
g74
(dp2648
g101
g102
ssg83
g2637
sg76
(lp2649
S':'
asbag69
(g90
g71
NtRp2650
(dp2651
g74
(dp2652
sg83
g2637
sg76
(lp2653
g69
(g70
g71
NtRp2654
(dp2655
g74
(dp2656
g82
I4
ssg83
g2650
sg76
(lp2657
g69
(g78
g71
NtRp2658
(dp2659
g74
(dp2660
g82
I3
ssg83
Nsg76
(lp2661
g69
(g85
g71
NtRp2662
(dp2663
g74
(dp2664
sg83
g2658
sg76
(lp2665
g69
(g90
g71
NtRp2666
(dp2667
g74
(dp2668
sg83
g2662
sg76
(lp2669
g69
(g70
g71
NtRp2670
(dp2671
g74
(dp2672
g82
I3
ssg83
g2666
sg76
(lp2673
S'1'
asbasbasbag69
(g85
g71
NtRp2674
(dp2675
g74
(dp2676
sg83
g2658
sg76
(lp2677
g69
(g90
g71
NtRp2678
(dp2679
g74
(dp2680
sg83
g2674
sg76
(lp2681
g69
(g70
g71
NtRp2682
(dp2683
g74
(dp2684
g82
I3
ssg83
g2678
sg76
(lp2685
S'0'
asbasbasbasbasbasbasbasbasbasbasbag69
(g85
g71
NtRp2686
(dp2687
g74
(dp2688
sg83
g79
sg76
(lp2689
g69
(g90
g71
NtRp2690
(dp2691
g74
(dp2692
g94
g95
ssg83
g2686
sg76
(lp2693
S'extension'
p2694
asbag69
(g90
g71
NtRp2695
(dp2696
g74
(dp2697
g101
g102
ssg83
g2686
sg76
(lp2698
S':'
asbag69
(g90
g71
NtRp2699
(dp2700
g74
(dp2701
sg83
g2686
sg76
(lp2702
g69
(g70
g71
NtRp2703
(dp2704
g74
(dp2705
g82
I5
ssg83
g2699
sg76
(lp2706
S'html'
p2707
asbasbasbag69
(g85
g71
NtRp2708
(dp2709
g74
(dp2710
sg83
g79
sg76
(lp2711
g69
(g90
g71
NtRp2712
(dp2713
g74
(dp2714
g94
g95
ssg83
g2708
sg76
(lp2715
S'folder'
p2716
asbag69
(g90
g71
NtRp2717
(dp2718
g74
(dp2719
g101
g102
ssg83
g2708
sg76
(lp2720
S':'
asbag69
(g90
g71
NtRp2721
(dp2722
g74
(dp2723
sg83
g2708
sg76
(lp2724
g69
(g70
g71
NtRp2725
(dp2726
g74
(dp2727
g82
I5
ssg83
g2721
sg76
(lp2728
S'/home/vishrut/web2py/applications/astra1/'
p2729
asbasbasbag69
(g85
g71
NtRp2730
(dp2731
g74
(dp2732
sg83
g79
sg76
(lp2733
g69
(g90
g71
NtRp2734
(dp2735
g74
(dp2736
g94
g95
ssg83
g2730
sg76
(lp2737
S'function'
p2738
asbag69
(g90
g71
NtRp2739
(dp2740
g74
(dp2741
g101
g102
ssg83
g2730
sg76
(lp2742
S':'
asbag69
(g90
g71
NtRp2743
(dp2744
g74
(dp2745
sg83
g2730
sg76
(lp2746
g69
(g70
g71
NtRp2747
(dp2748
g74
(dp2749
g82
I5
ssg83
g2743
sg76
(lp2750
S'show'
p2751
asbasbasbag69
(g85
g71
NtRp2752
(dp2753
g74
(dp2754
sg83
g79
sg76
(lp2755
g69
(g90
g71
NtRp2756
(dp2757
g74
(dp2758
g94
g95
ssg83
g2752
sg76
(lp2759
S'get_vars'
p2760
asbag69
(g90
g71
NtRp2761
(dp2762
g74
(dp2763
g101
g102
ssg83
g2752
sg76
(lp2764
S':'
asbag69
(g90
g71
NtRp2765
(dp2766
g74
(dp2767
sg83
g2752
sg76
(lp2768
g69
(g70
g71
NtRp2769
(dp2770
g74
(dp2771
g82
I5
ssg83
g2765
sg76
(lp2772
g69
(g78
g71
NtRp2773
(dp2774
g74
(dp2775
g82
I4
ssg83
Nsg76
(lp2776
sbasbasbasbag69
(g85
g71
NtRp2777
(dp2778
g74
(dp2779
sg83
g79
sg76
(lp2780
g69
(g90
g71
NtRp2781
(dp2782
g74
(dp2783
g94
g95
ssg83
g2777
sg76
(lp2784
S'global_settings'
p2785
asbag69
(g90
g71
NtRp2786
(dp2787
g74
(dp2788
g101
g102
ssg83
g2777
sg76
(lp2789
S':'
asbag69
(g90
g71
NtRp2790
(dp2791
g74
(dp2792
sg83
g2777
sg76
(lp2793
g69
(g70
g71
NtRp2794
(dp2795
g74
(dp2796
g82
I5
ssg83
g2790
sg76
(lp2797
g69
(g78
g71
NtRp2798
(dp2799
g74
(dp2800
g82
I4
ssg83
Nsg76
(lp2801
g69
(g85
g71
NtRp2802
(dp2803
g74
(dp2804
sg83
g2798
sg76
(lp2805
g69
(g90
g71
NtRp2806
(dp2807
g74
(dp2808
g94
g95
ssg83
g2802
sg76
(lp2809
g1771
asbag69
(g90
g71
NtRp2810
(dp2811
g74
(dp2812
g101
g102
ssg83
g2802
sg76
(lp2813
S':'
asbag69
(g90
g71
NtRp2814
(dp2815
g74
(dp2816
sg83
g2802
sg76
(lp2817
g69
(g70
g71
NtRp2818
(dp2819
g74
(dp2820
g82
I4
ssg83
g2814
sg76
(lp2821
S"set(['/home/vishrut/web2py/applications/astra1/', '/home/vishrut/web2py/applications/admin/', '/home/vishrut/web2py/applications/PhotoUploader/', '/home/vishrut/web2py/applications/welcome/'])"
p2822
asbasbasbag69
(g85
g71
NtRp2823
(dp2824
g74
(dp2825
sg83
g2798
sg76
(lp2826
g69
(g90
g71
NtRp2827
(dp2828
g74
(dp2829
g94
g95
ssg83
g2823
sg76
(lp2830
g1793
asbag69
(g90
g71
NtRp2831
(dp2832
g74
(dp2833
g101
g102
ssg83
g2823
sg76
(lp2834
S':'
asbag69
(g90
g71
NtRp2835
(dp2836
g74
(dp2837
sg83
g2823
sg76
(lp2838
g69
(g70
g71
NtRp2839
(dp2840
g74
(dp2841
g82
I4
ssg83
g2835
sg76
(lp2842
g1806
asbasbasbag69
(g85
g71
NtRp2843
(dp2844
g74
(dp2845
sg83
g2798
sg76
(lp2846
g69
(g90
g71
NtRp2847
(dp2848
g74
(dp2849
g94
g95
ssg83
g2843
sg76
(lp2850
g1815
asbag69
(g90
g71
NtRp2851
(dp2852
g74
(dp2853
g101
g102
ssg83
g2843
sg76
(lp2854
S':'
asbag69
(g90
g71
NtRp2855
(dp2856
g74
(dp2857
sg83
g2843
sg76
(lp2858
g69
(g70
g71
NtRp2859
(dp2860
g74
(dp2861
g82
I4
ssg83
g2855
sg76
(lp2862
g69
(g78
g71
NtRp2863
(dp2864
g74
(dp2865
g82
I3
ssg83
Nsg76
(lp2866
sbasbasbasbag69
(g85
g71
NtRp2867
(dp2868
g74
(dp2869
sg83
g2798
sg76
(lp2870
g69
(g90
g71
NtRp2871
(dp2872
g74
(dp2873
g94
g95
ssg83
g2867
sg76
(lp2874
g1840
asbag69
(g90
g71
NtRp2875
(dp2876
g74
(dp2877
g101
g102
ssg83
g2867
sg76
(lp2878
S':'
asbag69
(g90
g71
NtRp2879
(dp2880
g74
(dp2881
sg83
g2867
sg76
(lp2882
g69
(g70
g71
NtRp2883
(dp2884
g74
(dp2885
g82
I4
ssg83
g2879
sg76
(lp2886
S"<Values at 0x9d363cc: {'verbose': False, 'ip': '127.0.0.1', 'shutdown_timeout': 5, 'taskbar': False, 'nocron': False, 'pid_filename': 'httpserver.pid', 'maxthreads': None, 'softcron': False, 'server_name': 'vishrut-Vostro-1015', 'bpython': False, 'nogui': False, 'port': 8000, 'extcron': False, 'debuglevel': 30, 'test': None, 'folder': '/home/vishrut/web2py', 'config': '', 'import_models': False, 'winservice': '', 'shell': None, 'run': '', 'log_filename': 'httpserver.log', 'args': [''], 'socket_timeout': 5, 'ssl_ca_certificate': None, 'scheduler': None, 'profiler_filename': None, 'ssl_private_key': '', 'password': '<ask>', 'request_queue_size': 5, 'ssl_certificate': '', 'cronjob': False, 'numthreads': None, 'quiet': False, 'interfaces': None, 'minthreads': None, 'timeout': 10, 'plain': False, 'nobanner': False}>"
p2887
asbasbasbag69
(g85
g71
NtRp2888
(dp2889
g74
(dp2890
sg83
g2798
sg76
(lp2891
g69
(g90
g71
NtRp2892
(dp2893
g74
(dp2894
g94
g95
ssg83
g2888
sg76
(lp2895
g1862
asbag69
(g90
g71
NtRp2896
(dp2897
g74
(dp2898
g101
g102
ssg83
g2888
sg76
(lp2899
S':'
asbag69
(g90
g71
NtRp2900
(dp2901
g74
(dp2902
sg83
g2888
sg76
(lp2903
g69
(g70
g71
NtRp2904
(dp2905
g74
(dp2906
g82
I4
ssg83
g2900
sg76
(lp2907
S'set([])'
p2908
asbasbasbag69
(g85
g71
NtRp2909
(dp2910
g74
(dp2911
sg83
g2798
sg76
(lp2912
g69
(g90
g71
NtRp2913
(dp2914
g74
(dp2915
g94
g95
ssg83
g2909
sg76
(lp2916
g1884
asbag69
(g90
g71
NtRp2917
(dp2918
g74
(dp2919
g101
g102
ssg83
g2909
sg76
(lp2920
S':'
asbag69
(g90
g71
NtRp2921
(dp2922
g74
(dp2923
sg83
g2909
sg76
(lp2924
g69
(g70
g71
NtRp2925
(dp2926
g74
(dp2927
g82
I4
ssg83
g2921
sg76
(lp2928
g112
asbasbasbag69
(g85
g71
NtRp2929
(dp2930
g74
(dp2931
sg83
g2798
sg76
(lp2932
g69
(g90
g71
NtRp2933
(dp2934
g74
(dp2935
g94
g95
ssg83
g2929
sg76
(lp2936
g1905
asbag69
(g90
g71
NtRp2937
(dp2938
g74
(dp2939
g101
g102
ssg83
g2929
sg76
(lp2940
S':'
asbag69
(g90
g71
NtRp2941
(dp2942
g74
(dp2943
sg83
g2929
sg76
(lp2944
g69
(g70
g71
NtRp2945
(dp2946
g74
(dp2947
g82
I4
ssg83
g2941
sg76
(lp2948
g1918
asbasbasbag69
(g85
g71
NtRp2949
(dp2950
g74
(dp2951
sg83
g2798
sg76
(lp2952
g69
(g90
g71
NtRp2953
(dp2954
g74
(dp2955
g94
g95
ssg83
g2949
sg76
(lp2956
g2103
asbag69
(g90
g71
NtRp2957
(dp2958
g74
(dp2959
g101
g102
ssg83
g2949
sg76
(lp2960
S':'
asbag69
(g90
g71
NtRp2961
(dp2962
g74
(dp2963
sg83
g2949
sg76
(lp2964
g69
(g70
g71
NtRp2965
(dp2966
g74
(dp2967
g82
I4
ssg83
g2961
sg76
(lp2968
g112
asbasbasbag69
(g85
g71
NtRp2969
(dp2970
g74
(dp2971
sg83
g2798
sg76
(lp2972
g69
(g90
g71
NtRp2973
(dp2974
g74
(dp2975
g94
g95
ssg83
g2969
sg76
(lp2976
g2124
asbag69
(g90
g71
NtRp2977
(dp2978
g74
(dp2979
g101
g102
ssg83
g2969
sg76
(lp2980
S':'
asbag69
(g90
g71
NtRp2981
(dp2982
g74
(dp2983
sg83
g2969
sg76
(lp2984
g69
(g70
g71
NtRp2985
(dp2986
g74
(dp2987
g82
I4
ssg83
g2981
sg76
(lp2988
g112
asbasbasbag69
(g85
g71
NtRp2989
(dp2990
g74
(dp2991
sg83
g2798
sg76
(lp2992
g69
(g90
g71
NtRp2993
(dp2994
g74
(dp2995
g94
g95
ssg83
g2989
sg76
(lp2996
g2362
asbag69
(g90
g71
NtRp2997
(dp2998
g74
(dp2999
g101
g102
ssg83
g2989
sg76
(lp3000
S':'
asbag69
(g90
g71
NtRp3001
(dp3002
g74
(dp3003
sg83
g2989
sg76
(lp3004
g69
(g70
g71
NtRp3005
(dp3006
g74
(dp3007
g82
I4
ssg83
g3001
sg76
(lp3008
g2375
asbasbasbag69
(g85
g71
NtRp3009
(dp3010
g74
(dp3011
sg83
g2798
sg76
(lp3012
g69
(g90
g71
NtRp3013
(dp3014
g74
(dp3015
g94
g95
ssg83
g3009
sg76
(lp3016
g2405
asbag69
(g90
g71
NtRp3017
(dp3018
g74
(dp3019
g101
g102
ssg83
g3009
sg76
(lp3020
S':'
asbag69
(g90
g71
NtRp3021
(dp3022
g74
(dp3023
sg83
g3009
sg76
(lp3024
g69
(g70
g71
NtRp3025
(dp3026
g74
(dp3027
g82
I4
ssg83
g3021
sg76
(lp3028
g69
(g78
g71
NtRp3029
(dp3030
g74
(dp3031
g82
I3
ssg83
Nsg76
(lp3032
g69
(g85
g71
NtRp3033
(dp3034
g74
(dp3035
sg83
g3029
sg76
(lp3036
g69
(g90
g71
NtRp3037
(dp3038
g74
(dp3039
sg83
g3033
sg76
(lp3040
g69
(g70
g71
NtRp3041
(dp3042
g74
(dp3043
g82
I3
ssg83
g3037
sg76
(lp3044
S'1'
asbasbasbag69
(g85
g71
NtRp3045
(dp3046
g74
(dp3047
sg83
g3029
sg76
(lp3048
g69
(g90
g71
NtRp3049
(dp3050
g74
(dp3051
sg83
g3045
sg76
(lp3052
g69
(g70
g71
NtRp3053
(dp3054
g74
(dp3055
g82
I3
ssg83
g3049
sg76
(lp3056
S'99'
p3057
asbasbasbag69
(g85
g71
NtRp3058
(dp3059
g74
(dp3060
sg83
g3029
sg76
(lp3061
g69
(g90
g71
NtRp3062
(dp3063
g74
(dp3064
sg83
g3058
sg76
(lp3065
g69
(g70
g71
NtRp3066
(dp3067
g74
(dp3068
g82
I3
ssg83
g3062
sg76
(lp3069
S'7'
asbasbasbag69
(g85
g71
NtRp3070
(dp3071
g74
(dp3072
sg83
g3029
sg76
(lp3073
g69
(g90
g71
NtRp3074
(dp3075
g74
(dp3076
sg83
g3070
sg76
(lp3077
g69
(g70
g71
NtRp3078
(dp3079
g74
(dp3080
g82
I3
ssg83
g3074
sg76
(lp3081
S'datetime.datetime(2012, 3, 4, 22, 12, 8)'
p3082
asbasbasbag69
(g85
g71
NtRp3083
(dp3084
g74
(dp3085
sg83
g3029
sg76
(lp3086
g69
(g90
g71
NtRp3087
(dp3088
g74
(dp3089
sg83
g3083
sg76
(lp3090
g69
(g70
g71
NtRp3091
(dp3092
g74
(dp3093
g82
I3
ssg83
g3087
sg76
(lp3094
g2484
asbasbasbasbasbasbasbasbasbasbasbag69
(g85
g71
NtRp3095
(dp3096
g74
(dp3097
sg83
g79
sg76
(lp3098
g69
(g90
g71
NtRp3099
(dp3100
g74
(dp3101
g94
g95
ssg83
g3095
sg76
(lp3102
S'is_https'
p3103
asbag69
(g90
g71
NtRp3104
(dp3105
g74
(dp3106
g101
g102
ssg83
g3095
sg76
(lp3107
S':'
asbag69
(g90
g71
NtRp3108
(dp3109
g74
(dp3110
sg83
g3095
sg76
(lp3111
g69
(g70
g71
NtRp3112
(dp3113
g74
(dp3114
g82
I5
ssg83
g3108
sg76
(lp3115
g112
asbasbasbag69
(g85
g71
NtRp3116
(dp3117
g74
(dp3118
sg83
g79
sg76
(lp3119
g69
(g90
g71
NtRp3120
(dp3121
g74
(dp3122
g94
g95
ssg83
g3116
sg76
(lp3123
S'is_local'
p3124
asbag69
(g90
g71
NtRp3125
(dp3126
g74
(dp3127
g101
g102
ssg83
g3116
sg76
(lp3128
S':'
asbag69
(g90
g71
NtRp3129
(dp3130
g74
(dp3131
sg83
g3116
sg76
(lp3132
g69
(g70
g71
NtRp3133
(dp3134
g74
(dp3135
g82
I5
ssg83
g3129
sg76
(lp3136
g2593
asbasbasbag69
(g85
g71
NtRp3137
(dp3138
g74
(dp3139
sg83
g79
sg76
(lp3140
g69
(g90
g71
NtRp3141
(dp3142
g74
(dp3143
g94
g95
ssg83
g3137
sg76
(lp3144
S'is_restful'
p3145
asbag69
(g90
g71
NtRp3146
(dp3147
g74
(dp3148
g101
g102
ssg83
g3137
sg76
(lp3149
S':'
asbag69
(g90
g71
NtRp3150
(dp3151
g74
(dp3152
sg83
g3137
sg76
(lp3153
g69
(g70
g71
NtRp3154
(dp3155
g74
(dp3156
g82
I5
ssg83
g3150
sg76
(lp3157
g112
asbasbasbag69
(g85
g71
NtRp3158
(dp3159
g74
(dp3160
sg83
g79
sg76
(lp3161
g69
(g90
g71
NtRp3162
(dp3163
g74
(dp3164
g94
g95
ssg83
g3158
sg76
(lp3165
S'now'
p3166
asbag69
(g90
g71
NtRp3167
(dp3168
g74
(dp3169
g101
g102
ssg83
g3158
sg76
(lp3170
S':'
asbag69
(g90
g71
NtRp3171
(dp3172
g74
(dp3173
sg83
g3158
sg76
(lp3174
g69
(g70
g71
NtRp3175
(dp3176
g74
(dp3177
g82
I5
ssg83
g3171
sg76
(lp3178
S'datetime.datetime(2012, 10, 15, 0, 57, 29, 279615)'
p3179
asbasbasbag69
(g85
g71
NtRp3180
(dp3181
g74
(dp3182
sg83
g79
sg76
(lp3183
g69
(g90
g71
NtRp3184
(dp3185
g74
(dp3186
g94
g95
ssg83
g3180
sg76
(lp3187
S'post_vars'
p3188
asbag69
(g90
g71
NtRp3189
(dp3190
g74
(dp3191
g101
g102
ssg83
g3180
sg76
(lp3192
S':'
asbag69
(g90
g71
NtRp3193
(dp3194
g74
(dp3195
sg83
g3180
sg76
(lp3196
g69
(g70
g71
NtRp3197
(dp3198
g74
(dp3199
g82
I5
ssg83
g3193
sg76
(lp3200
g69
(g78
g71
NtRp3201
(dp3202
g74
(dp3203
g82
I4
ssg83
Nsg76
(lp3204
sbasbasbasbag69
(g85
g71
NtRp3205
(dp3206
g74
(dp3207
sg83
g79
sg76
(lp3208
g69
(g90
g71
NtRp3209
(dp3210
g74
(dp3211
g94
g95
ssg83
g3205
sg76
(lp3212
S'url'
p3213
asbag69
(g90
g71
NtRp3214
(dp3215
g74
(dp3216
g101
g102
ssg83
g3205
sg76
(lp3217
S':'
asbag69
(g90
g71
NtRp3218
(dp3219
g74
(dp3220
sg83
g3205
sg76
(lp3221
g69
(g70
g71
NtRp3222
(dp3223
g74
(dp3224
g82
I5
ssg83
g3218
sg76
(lp3225
S'/astra1/default/show'
p3226
asbasbasbag69
(g85
g71
NtRp3227
(dp3228
g74
(dp3229
sg83
g79
sg76
(lp3230
g69
(g90
g71
NtRp3231
(dp3232
g74
(dp3233
g94
g95
ssg83
g3227
sg76
(lp3234
S'utcnow'
p3235
asbag69
(g90
g71
NtRp3236
(dp3237
g74
(dp3238
g101
g102
ssg83
g3227
sg76
(lp3239
S':'
asbag69
(g90
g71
NtRp3240
(dp3241
g74
(dp3242
sg83
g3227
sg76
(lp3243
g69
(g70
g71
NtRp3244
(dp3245
g74
(dp3246
g82
I5
ssg83
g3240
sg76
(lp3247
S'datetime.datetime(2012, 10, 14, 19, 57, 29, 279653)'
p3248
asbasbasbag69
(g85
g71
NtRp3249
(dp3250
g74
(dp3251
sg83
g79
sg76
(lp3252
g69
(g90
g71
NtRp3253
(dp3254
g74
(dp3255
g94
g95
ssg83
g3249
sg76
(lp3256
S'uuid'
p3257
asbag69
(g90
g71
NtRp3258
(dp3259
g74
(dp3260
g101
g102
ssg83
g3249
sg76
(lp3261
S':'
asbag69
(g90
g71
NtRp3262
(dp3263
g74
(dp3264
sg83
g3249
sg76
(lp3265
g69
(g70
g71
NtRp3266
(dp3267
g74
(dp3268
g82
I5
ssg83
g3262
sg76
(lp3269
S'astra1/127.0.0.1.2012-10-15.00-57-29.87506000-b053-404a-a91e-1ad3cd54e0a9'
p3270
asbasbasbag69
(g85
g71
NtRp3271
(dp3272
g74
(dp3273
sg83
g79
sg76
(lp3274
g69
(g90
g71
NtRp3275
(dp3276
g74
(dp3277
g94
g95
ssg83
g3271
sg76
(lp3278
S'vars'
p3279
asbag69
(g90
g71
NtRp3280
(dp3281
g74
(dp3282
g101
g102
ssg83
g3271
sg76
(lp3283
S':'
asbag69
(g90
g71
NtRp3284
(dp3285
g74
(dp3286
sg83
g3271
sg76
(lp3287
g69
(g70
g71
NtRp3288
(dp3289
g74
(dp3290
g82
I5
ssg83
g3284
sg76
(lp3291
g69
(g78
g71
NtRp3292
(dp3293
g74
(dp3294
g82
I4
ssg83
Nsg76
(lp3295
sbasbasbasbag69
(g85
g71
NtRp3296
(dp3297
g74
(dp3298
sg83
g79
sg76
(lp3299
g69
(g90
g71
NtRp3300
(dp3301
g74
(dp3302
g94
g95
ssg83
g3296
sg76
(lp3303
S'wsgi'
p3304
asbag69
(g90
g71
NtRp3305
(dp3306
g74
(dp3307
g101
g102
ssg83
g3296
sg76
(lp3308
S':'
asbag69
(g90
g71
NtRp3309
(dp3310
g74
(dp3311
sg83
g3296
sg76
(lp3312
g69
(g70
g71
NtRp3313
(dp3314
g74
(dp3315
g82
I5
ssg83
g3309
sg76
(lp3316
g69
(g78
g71
NtRp3317
(dp3318
g74
(dp3319
g82
I4
ssg83
Nsg76
(lp3320
g69
(g85
g71
NtRp3321
(dp3322
g74
(dp3323
sg83
g3317
sg76
(lp3324
g69
(g90
g71
NtRp3325
(dp3326
g74
(dp3327
g94
g95
ssg83
g3321
sg76
(lp3328
S'environ'
p3329
asbag69
(g90
g71
NtRp3330
(dp3331
g74
(dp3332
g101
g102
ssg83
g3321
sg76
(lp3333
S':'
asbag69
(g90
g71
NtRp3334
(dp3335
g74
(dp3336
sg83
g3321
sg76
(lp3337
g69
(g70
g71
NtRp3338
(dp3339
g74
(dp3340
g82
I4
ssg83
g3334
sg76
(lp3341
g69
(g78
g71
NtRp3342
(dp3343
g74
(dp3344
g82
I3
ssg83
Nsg76
(lp3345
g69
(g85
g71
NtRp3346
(dp3347
g74
(dp3348
sg83
g3342
sg76
(lp3349
g69
(g90
g71
NtRp3350
(dp3351
g74
(dp3352
g94
g95
ssg83
g3346
sg76
(lp3353
S'HTTP_ACCEPT'
p3354
asbag69
(g90
g71
NtRp3355
(dp3356
g74
(dp3357
g101
g102
ssg83
g3346
sg76
(lp3358
S':'
asbag69
(g90
g71
NtRp3359
(dp3360
g74
(dp3361
sg83
g3346
sg76
(lp3362
g69
(g70
g71
NtRp3363
(dp3364
g74
(dp3365
g82
I3
ssg83
g3359
sg76
(lp3366
g1940
asbasbasbag69
(g85
g71
NtRp3367
(dp3368
g74
(dp3369
sg83
g3342
sg76
(lp3370
g69
(g90
g71
NtRp3371
(dp3372
g74
(dp3373
g94
g95
ssg83
g3367
sg76
(lp3374
S'HTTP_ACCEPT_ENCODING'
p3375
asbag69
(g90
g71
NtRp3376
(dp3377
g74
(dp3378
g101
g102
ssg83
g3367
sg76
(lp3379
S':'
asbag69
(g90
g71
NtRp3380
(dp3381
g74
(dp3382
sg83
g3367
sg76
(lp3383
g69
(g70
g71
NtRp3384
(dp3385
g74
(dp3386
g82
I3
ssg83
g3380
sg76
(lp3387
g1962
asbasbasbag69
(g85
g71
NtRp3388
(dp3389
g74
(dp3390
sg83
g3342
sg76
(lp3391
g69
(g90
g71
NtRp3392
(dp3393
g74
(dp3394
g94
g95
ssg83
g3388
sg76
(lp3395
S'HTTP_ACCEPT_LANGUAGE'
p3396
asbag69
(g90
g71
NtRp3397
(dp3398
g74
(dp3399
g101
g102
ssg83
g3388
sg76
(lp3400
S':'
asbag69
(g90
g71
NtRp3401
(dp3402
g74
(dp3403
sg83
g3388
sg76
(lp3404
g69
(g70
g71
NtRp3405
(dp3406
g74
(dp3407
g82
I3
ssg83
g3401
sg76
(lp3408
g1984
asbasbasbag69
(g85
g71
NtRp3409
(dp3410
g74
(dp3411
sg83
g3342
sg76
(lp3412
g69
(g90
g71
NtRp3413
(dp3414
g74
(dp3415
g94
g95
ssg83
g3409
sg76
(lp3416
S'HTTP_CACHE_CONTROL'
p3417
asbag69
(g90
g71
NtRp3418
(dp3419
g74
(dp3420
g101
g102
ssg83
g3409
sg76
(lp3421
S':'
asbag69
(g90
g71
NtRp3422
(dp3423
g74
(dp3424
sg83
g3409
sg76
(lp3425
g69
(g70
g71
NtRp3426
(dp3427
g74
(dp3428
g82
I3
ssg83
g3422
sg76
(lp3429
g2006
asbasbasbag69
(g85
g71
NtRp3430
(dp3431
g74
(dp3432
sg83
g3342
sg76
(lp3433
g69
(g90
g71
NtRp3434
(dp3435
g74
(dp3436
g94
g95
ssg83
g3430
sg76
(lp3437
S'HTTP_CONNECTION'
p3438
asbag69
(g90
g71
NtRp3439
(dp3440
g74
(dp3441
g101
g102
ssg83
g3430
sg76
(lp3442
S':'
asbag69
(g90
g71
NtRp3443
(dp3444
g74
(dp3445
sg83
g3430
sg76
(lp3446
g69
(g70
g71
NtRp3447
(dp3448
g74
(dp3449
g82
I3
ssg83
g3443
sg76
(lp3450
g2028
asbasbasbag69
(g85
g71
NtRp3451
(dp3452
g74
(dp3453
sg83
g3342
sg76
(lp3454
g69
(g90
g71
NtRp3455
(dp3456
g74
(dp3457
g94
g95
ssg83
g3451
sg76
(lp3458
S'HTTP_COOKIE'
p3459
asbag69
(g90
g71
NtRp3460
(dp3461
g74
(dp3462
g101
g102
ssg83
g3451
sg76
(lp3463
S':'
asbag69
(g90
g71
NtRp3464
(dp3465
g74
(dp3466
sg83
g3451
sg76
(lp3467
g69
(g70
g71
NtRp3468
(dp3469
g74
(dp3470
g82
I3
ssg83
g3464
sg76
(lp3471
g2050
asbasbasbag69
(g85
g71
NtRp3472
(dp3473
g74
(dp3474
sg83
g3342
sg76
(lp3475
g69
(g90
g71
NtRp3476
(dp3477
g74
(dp3478
g94
g95
ssg83
g3472
sg76
(lp3479
S'HTTP_HOST'
p3480
asbag69
(g90
g71
NtRp3481
(dp3482
g74
(dp3483
g101
g102
ssg83
g3472
sg76
(lp3484
S':'
asbag69
(g90
g71
NtRp3485
(dp3486
g74
(dp3487
sg83
g3472
sg76
(lp3488
g69
(g70
g71
NtRp3489
(dp3490
g74
(dp3491
g82
I3
ssg83
g3485
sg76
(lp3492
g2072
asbasbasbag69
(g85
g71
NtRp3493
(dp3494
g74
(dp3495
sg83
g3342
sg76
(lp3496
g69
(g90
g71
NtRp3497
(dp3498
g74
(dp3499
g94
g95
ssg83
g3493
sg76
(lp3500
S'HTTP_USER_AGENT'
p3501
asbag69
(g90
g71
NtRp3502
(dp3503
g74
(dp3504
g101
g102
ssg83
g3493
sg76
(lp3505
S':'
asbag69
(g90
g71
NtRp3506
(dp3507
g74
(dp3508
sg83
g3493
sg76
(lp3509
g69
(g70
g71
NtRp3510
(dp3511
g74
(dp3512
g82
I3
ssg83
g3506
sg76
(lp3513
g2094
asbasbasbag69
(g85
g71
NtRp3514
(dp3515
g74
(dp3516
sg83
g3342
sg76
(lp3517
g69
(g90
g71
NtRp3518
(dp3519
g74
(dp3520
g94
g95
ssg83
g3514
sg76
(lp3521
S'PATH_INFO'
p3522
asbag69
(g90
g71
NtRp3523
(dp3524
g74
(dp3525
g101
g102
ssg83
g3514
sg76
(lp3526
S':'
asbag69
(g90
g71
NtRp3527
(dp3528
g74
(dp3529
sg83
g3514
sg76
(lp3530
g69
(g70
g71
NtRp3531
(dp3532
g74
(dp3533
g82
I3
ssg83
g3527
sg76
(lp3534
g2158
asbasbasbag69
(g85
g71
NtRp3535
(dp3536
g74
(dp3537
sg83
g3342
sg76
(lp3538
g69
(g90
g71
NtRp3539
(dp3540
g74
(dp3541
g94
g95
ssg83
g3535
sg76
(lp3542
S'QUERY_STRING'
p3543
asbag69
(g90
g71
NtRp3544
(dp3545
g74
(dp3546
g101
g102
ssg83
g3535
sg76
(lp3547
S':'
asbag69
(g90
g71
NtRp3548
(dp3549
g74
(dp3550
sg83
g3535
sg76
(lp3551
g69
(g70
g71
NtRp3552
(dp3553
g74
(dp3554
g82
I3
ssg83
g3548
sg76
(lp3555
S''
asbasbasbag69
(g85
g71
NtRp3556
(dp3557
g74
(dp3558
sg83
g3342
sg76
(lp3559
g69
(g90
g71
NtRp3560
(dp3561
g74
(dp3562
g94
g95
ssg83
g3556
sg76
(lp3563
S'REMOTE_ADDR'
p3564
asbag69
(g90
g71
NtRp3565
(dp3566
g74
(dp3567
g101
g102
ssg83
g3556
sg76
(lp3568
S':'
asbag69
(g90
g71
NtRp3569
(dp3570
g74
(dp3571
sg83
g3556
sg76
(lp3572
g69
(g70
g71
NtRp3573
(dp3574
g74
(dp3575
g82
I3
ssg83
g3569
sg76
(lp3576
g202
asbasbasbag69
(g85
g71
NtRp3577
(dp3578
g74
(dp3579
sg83
g3342
sg76
(lp3580
g69
(g90
g71
NtRp3581
(dp3582
g74
(dp3583
g94
g95
ssg83
g3577
sg76
(lp3584
S'REMOTE_PORT'
p3585
asbag69
(g90
g71
NtRp3586
(dp3587
g74
(dp3588
g101
g102
ssg83
g3577
sg76
(lp3589
S':'
asbag69
(g90
g71
NtRp3590
(dp3591
g74
(dp3592
sg83
g3577
sg76
(lp3593
g69
(g70
g71
NtRp3594
(dp3595
g74
(dp3596
g82
I3
ssg83
g3590
sg76
(lp3597
g2222
asbasbasbag69
(g85
g71
NtRp3598
(dp3599
g74
(dp3600
sg83
g3342
sg76
(lp3601
g69
(g90
g71
NtRp3602
(dp3603
g74
(dp3604
g94
g95
ssg83
g3598
sg76
(lp3605
S'REQUEST_METHOD'
p3606
asbag69
(g90
g71
NtRp3607
(dp3608
g74
(dp3609
g101
g102
ssg83
g3598
sg76
(lp3610
S':'
asbag69
(g90
g71
NtRp3611
(dp3612
g74
(dp3613
sg83
g3598
sg76
(lp3614
g69
(g70
g71
NtRp3615
(dp3616
g74
(dp3617
g82
I3
ssg83
g3611
sg76
(lp3618
g2244
asbasbasbag69
(g85
g71
NtRp3619
(dp3620
g74
(dp3621
sg83
g3342
sg76
(lp3622
g69
(g90
g71
NtRp3623
(dp3624
g74
(dp3625
g94
g95
ssg83
g3619
sg76
(lp3626
S'SCRIPT_NAME'
p3627
asbag69
(g90
g71
NtRp3628
(dp3629
g74
(dp3630
g101
g102
ssg83
g3619
sg76
(lp3631
S':'
asbag69
(g90
g71
NtRp3632
(dp3633
g74
(dp3634
sg83
g3619
sg76
(lp3635
g69
(g70
g71
NtRp3636
(dp3637
g74
(dp3638
g82
I3
ssg83
g3632
sg76
(lp3639
S''
asbasbasbag69
(g85
g71
NtRp3640
(dp3641
g74
(dp3642
sg83
g3342
sg76
(lp3643
g69
(g90
g71
NtRp3644
(dp3645
g74
(dp3646
g94
g95
ssg83
g3640
sg76
(lp3647
S'SERVER_NAME'
p3648
asbag69
(g90
g71
NtRp3649
(dp3650
g74
(dp3651
g101
g102
ssg83
g3640
sg76
(lp3652
S':'
asbag69
(g90
g71
NtRp3653
(dp3654
g74
(dp3655
sg83
g3640
sg76
(lp3656
g69
(g70
g71
NtRp3657
(dp3658
g74
(dp3659
g82
I3
ssg83
g3653
sg76
(lp3660
g2287
asbasbasbag69
(g85
g71
NtRp3661
(dp3662
g74
(dp3663
sg83
g3342
sg76
(lp3664
g69
(g90
g71
NtRp3665
(dp3666
g74
(dp3667
g94
g95
ssg83
g3661
sg76
(lp3668
S'SERVER_PORT'
p3669
asbag69
(g90
g71
NtRp3670
(dp3671
g74
(dp3672
g101
g102
ssg83
g3661
sg76
(lp3673
S':'
asbag69
(g90
g71
NtRp3674
(dp3675
g74
(dp3676
sg83
g3661
sg76
(lp3677
g69
(g70
g71
NtRp3678
(dp3679
g74
(dp3680
g82
I3
ssg83
g3674
sg76
(lp3681
g2309
asbasbasbag69
(g85
g71
NtRp3682
(dp3683
g74
(dp3684
sg83
g3342
sg76
(lp3685
g69
(g90
g71
NtRp3686
(dp3687
g74
(dp3688
g94
g95
ssg83
g3682
sg76
(lp3689
S'SERVER_PROTOCOL'
p3690
asbag69
(g90
g71
NtRp3691
(dp3692
g74
(dp3693
g101
g102
ssg83
g3682
sg76
(lp3694
S':'
asbag69
(g90
g71
NtRp3695
(dp3696
g74
(dp3697
sg83
g3682
sg76
(lp3698
g69
(g70
g71
NtRp3699
(dp3700
g74
(dp3701
g82
I3
ssg83
g3695
sg76
(lp3702
g2331
asbasbasbag69
(g85
g71
NtRp3703
(dp3704
g74
(dp3705
sg83
g3342
sg76
(lp3706
g69
(g90
g71
NtRp3707
(dp3708
g74
(dp3709
g94
g95
ssg83
g3703
sg76
(lp3710
S'SERVER_SOFTWARE'
p3711
asbag69
(g90
g71
NtRp3712
(dp3713
g74
(dp3714
g101
g102
ssg83
g3703
sg76
(lp3715
S':'
asbag69
(g90
g71
NtRp3716
(dp3717
g74
(dp3718
sg83
g3703
sg76
(lp3719
g69
(g70
g71
NtRp3720
(dp3721
g74
(dp3722
g82
I3
ssg83
g3716
sg76
(lp3723
g2353
asbasbasbag69
(g85
g71
NtRp3724
(dp3725
g74
(dp3726
sg83
g3342
sg76
(lp3727
g69
(g90
g71
NtRp3728
(dp3729
g74
(dp3730
g94
g95
ssg83
g3724
sg76
(lp3731
S'wsgi.errors'
p3732
asbag69
(g90
g71
NtRp3733
(dp3734
g74
(dp3735
g101
g102
ssg83
g3724
sg76
(lp3736
S':'
asbag69
(g90
g71
NtRp3737
(dp3738
g74
(dp3739
sg83
g3724
sg76
(lp3740
g69
(g70
g71
NtRp3741
(dp3742
g74
(dp3743
g82
I3
ssg83
g3737
sg76
(lp3744
S"<open file '<stderr>', mode 'w' at 0xb77bc0d0>"
p3745
asbasbasbag69
(g85
g71
NtRp3746
(dp3747
g74
(dp3748
sg83
g3342
sg76
(lp3749
g69
(g90
g71
NtRp3750
(dp3751
g74
(dp3752
g94
g95
ssg83
g3746
sg76
(lp3753
S'wsgi.file_wrapper'
p3754
asbag69
(g90
g71
NtRp3755
(dp3756
g74
(dp3757
g101
g102
ssg83
g3746
sg76
(lp3758
S':'
asbag69
(g90
g71
NtRp3759
(dp3760
g74
(dp3761
sg83
g3746
sg76
(lp3762
g69
(g70
g71
NtRp3763
(dp3764
g74
(dp3765
g82
I3
ssg83
g3759
sg76
(lp3766
S'<class wsgiref.util.FileWrapper at 0x9c55aac>'
p3767
asbasbasbag69
(g85
g71
NtRp3768
(dp3769
g74
(dp3770
sg83
g3342
sg76
(lp3771
g69
(g90
g71
NtRp3772
(dp3773
g74
(dp3774
g94
g95
ssg83
g3768
sg76
(lp3775
S'wsgi.input'
p3776
asbag69
(g90
g71
NtRp3777
(dp3778
g74
(dp3779
g101
g102
ssg83
g3768
sg76
(lp3780
S':'
asbag69
(g90
g71
NtRp3781
(dp3782
g74
(dp3783
sg83
g3768
sg76
(lp3784
g69
(g70
g71
NtRp3785
(dp3786
g74
(dp3787
g82
I3
ssg83
g3781
sg76
(lp3788
S'<cStringIO.StringO object at 0xaa51ca0>'
p3789
asbasbasbag69
(g85
g71
NtRp3790
(dp3791
g74
(dp3792
sg83
g3342
sg76
(lp3793
g69
(g90
g71
NtRp3794
(dp3795
g74
(dp3796
g94
g95
ssg83
g3790
sg76
(lp3797
S'wsgi.multiprocess'
p3798
asbag69
(g90
g71
NtRp3799
(dp3800
g74
(dp3801
g101
g102
ssg83
g3790
sg76
(lp3802
S':'
asbag69
(g90
g71
NtRp3803
(dp3804
g74
(dp3805
sg83
g3790
sg76
(lp3806
g69
(g70
g71
NtRp3807
(dp3808
g74
(dp3809
g82
I3
ssg83
g3803
sg76
(lp3810
g112
asbasbasbag69
(g85
g71
NtRp3811
(dp3812
g74
(dp3813
sg83
g3342
sg76
(lp3814
g69
(g90
g71
NtRp3815
(dp3816
g74
(dp3817
g94
g95
ssg83
g3811
sg76
(lp3818
S'wsgi.multithread'
p3819
asbag69
(g90
g71
NtRp3820
(dp3821
g74
(dp3822
g101
g102
ssg83
g3811
sg76
(lp3823
S':'
asbag69
(g90
g71
NtRp3824
(dp3825
g74
(dp3826
sg83
g3811
sg76
(lp3827
g69
(g70
g71
NtRp3828
(dp3829
g74
(dp3830
g82
I3
ssg83
g3824
sg76
(lp3831
g2593
asbasbasbag69
(g85
g71
NtRp3832
(dp3833
g74
(dp3834
sg83
g3342
sg76
(lp3835
g69
(g90
g71
NtRp3836
(dp3837
g74
(dp3838
g94
g95
ssg83
g3832
sg76
(lp3839
S'wsgi.run_once'
p3840
asbag69
(g90
g71
NtRp3841
(dp3842
g74
(dp3843
g101
g102
ssg83
g3832
sg76
(lp3844
S':'
asbag69
(g90
g71
NtRp3845
(dp3846
g74
(dp3847
sg83
g3832
sg76
(lp3848
g69
(g70
g71
NtRp3849
(dp3850
g74
(dp3851
g82
I3
ssg83
g3845
sg76
(lp3852
g112
asbasbasbag69
(g85
g71
NtRp3853
(dp3854
g74
(dp3855
sg83
g3342
sg76
(lp3856
g69
(g90
g71
NtRp3857
(dp3858
g74
(dp3859
g94
g95
ssg83
g3853
sg76
(lp3860
S'wsgi.url_scheme'
p3861
asbag69
(g90
g71
NtRp3862
(dp3863
g74
(dp3864
g101
g102
ssg83
g3853
sg76
(lp3865
S':'
asbag69
(g90
g71
NtRp3866
(dp3867
g74
(dp3868
sg83
g3853
sg76
(lp3869
g69
(g70
g71
NtRp3870
(dp3871
g74
(dp3872
g82
I3
ssg83
g3866
sg76
(lp3873
g2636
asbasbasbag69
(g85
g71
NtRp3874
(dp3875
g74
(dp3876
sg83
g3342
sg76
(lp3877
g69
(g90
g71
NtRp3878
(dp3879
g74
(dp3880
g94
g95
ssg83
g3874
sg76
(lp3881
S'wsgi.version'
p3882
asbag69
(g90
g71
NtRp3883
(dp3884
g74
(dp3885
g101
g102
ssg83
g3874
sg76
(lp3886
S':'
asbag69
(g90
g71
NtRp3887
(dp3888
g74
(dp3889
sg83
g3874
sg76
(lp3890
g69
(g70
g71
NtRp3891
(dp3892
g74
(dp3893
g82
I3
ssg83
g3887
sg76
(lp3894
S'1'
asbasbasbasbasbasbasbasbasbasbasbasbasbsS'frames'
p3895
(lp3896
(dp3897
S'file'
p3898
S'/home/vishrut/web2py/gluon/restricted.py'
p3899
sS'dump'
p3900
(dp3901
S'environment'
p3902
S"{'A': <class 'gluon.html.A'>, 'Auth': <class 'gluon.tools.Auth'>, 'B': <class 'gluon.html.B'>, 'BEAUTIFY': <class 'gluon.html.BEAUTIFY'>, 'BODY': <class 'gluon.html.BODY'>, 'BR': <class 'gluon.html.BR'>, 'BUTTON': <class 'gluon.html.BUTTON'>, 'CAT': <class 'gluon.html.CAT'>, 'CENTER': <class 'gluon.html.CENTER'>, 'CLEANUP': <class 'gluon.validators.CLEANUP'>, ...}"
p3903
sS'ccode'
p3904
S'<code object <module> at 0xb02bf50, file "/home/...ications/astra1/views/default/show.html", line 1>'
p3905
ssS'lnum'
p3906
I205
sS'lines'
p3907
(dp3908
I200
S'    try:'
p3909
sI201
S'        if type(code) == types.CodeType:'
p3910
sI202
S'            ccode = code'
p3911
sI203
S'        else:'
p3912
sI204
S'            ccode = compile2(code,layer)'
p3913
sI205
S'        exec ccode in environment'
p3914
sI206
S'    except HTTP:'
p3915
sI207
S'        raise'
p3916
sI208
S'    except RestrictedError:'
p3917
sI209
S'        # do not encapsulate (obfuscate) the original RestrictedError'
p3918
ssS'call'
p3919
S'(code=r"response.write(\'<!DOCTYPE html>\\n<!-- paulirish....ponse.write(\'\\n</body>\\n</html>\\n\', escape=False)", environment={\'A\': <class \'gluon.html.A\'>, \'Auth\': <class \'gluon.tools.Auth\'>, \'B\': <class \'gluon.html.B\'>, \'BEAUTIFY\': <class \'gluon.html.BEAUTIFY\'>, \'BODY\': <class \'gluon.html.BODY\'>, \'BR\': <class \'gluon.html.BR\'>, \'BUTTON\': <class \'gluon.html.BUTTON\'>, \'CAT\': <class \'gluon.html.CAT\'>, \'CENTER\': <class \'gluon.html.CENTER\'>, \'CLEANUP\': <class \'gluon.validators.CLEANUP\'>, ...}, layer=\'/home/vishrut/web2py/applications/astra1/views/default/show.html\')'
p3920
sS'func'
p3921
S'restricted'
p3922
sa(dp3923
g3898
S'/home/vishrut/web2py/applications/astra1/views/default/show.html'
p3924
sg3900
(dp3925
sg3906
I88
sg3907
(dp3926
I96
S'response.write(BEAUTIFY(response._vars))'
p3927
sI97
S"response.write('\\n', escape=False)"
p3928
sI98
S"response.write('\\n          ', escape=False)"
p3929
sI79
S"    response.write('\\n        </div>\\n        ', escape=False)"
p3930
sI80
S'    pass'
p3931
sI81
S'response.write(\'\\n        \\n        <div class="\', escape=False)'
p3932
sI82
S'response.write(middle_columns)'
p3933
sI83
S'response.write(\' columns center">\\n          \', escape=False)'
p3934
sI84
S"response.write('\\n          ', escape=False)"
p3935
sI85
S"response.write('\\n<h1>This is the default/show.html template</h1>\\n', escape=False)"
p3936
sI86
S'xxx="apple"'
p3937
sI87
S'response.write(\'\\n<video width="320" height="240" controls="controls">  \\n        <source src="\', escape=False)'
p3938
sI88
S"response.write(URL('/astra1/static/'+'apple'+'.ogv'))"
p3939
sI89
S'response.write(\'" type="video/ogg">\\n</video>\\n<button type="button" onclick="document.location=\\\'\', escape=False)'
p3940
sI90
S'response.write(URL("logout"))'
p3941
sI91
S'response.write(\'\\\'">Logout</button>\\n\', escape=False)'
p3942
sI92
S'pass'
p3943
sI93
S"response.write('\\n', escape=False)"
p3944
sI94
S'pass'
p3945
sI95
S"response.write('\\n', escape=False)"
p3946
ssg3919
S'()'
p3947
sg3921
S'<module>'
p3948
sa(dp3949
g3898
S'/home/vishrut/web2py/gluon/html.py'
p3950
sg3900
(dp3951
S'builtinSyntaxError'
p3952
S"<type 'exceptions.SyntaxError'>"
p3953
ssg3906
I274
sg3907
(dp3954
I269
S"            function, extension = function.split('.', 1)"
p3955
sI270
S''
sI271
S"    function2 = '%s.%s' % (function,extension or 'html')"
p3956
sI272
S''
sI273
S'    if not (application and controller and function):'
p3957
sI274
S"        raise SyntaxError, 'not enough information to build the url'"
p3958
sI275
S''
sI276
S'    if args:'
p3959
sI277
S'        if url_encode:'
p3960
sI278
S'            if encode_embedded_slash:'
p3961
ssg3919
S"(a=None, c=None, f='', r=<Storage {'body': <cStringIO.StringO object at 0..._vars': <Storage {}>, 'post_vars': <Storage {}>}>, args=['astra1', 'static', 'apple.ogv'], vars={}, anchor='', extension=None, env=<Storage {'debugging': False, 'http_user_agent':...[]), 'query_string': '', 'wsgi_run_once': False}>, hmac_key=None, hash_vars=True, salt=None, user_signature=None, scheme=None, host=None, port=None, encode_embedded_slash=False, url_encode=True)"
p3962
sg3921
S'URL'
p3963
sasS'pyver'
p3964
S'Python 2.7.2+: /usr/bin/python'
p3965
sS'session'
p3966
g69
(g70
g71
NtRp3967
(dp3968
g74
(dp3969
sg76
(lp3970
g69
(g78
g71
NtRp3971
(dp3972
g74
(dp3973
g82
I5
ssg83
Nsg76
(lp3974
g69
(g85
g71
NtRp3975
(dp3976
g74
(dp3977
sg83
g3971
sg76
(lp3978
g69
(g90
g71
NtRp3979
(dp3980
g74
(dp3981
g94
g95
ssg83
g3975
sg76
(lp3982
S'last_query'
p3983
asbag69
(g90
g71
NtRp3984
(dp3985
g74
(dp3986
g101
g102
ssg83
g3975
sg76
(lp3987
S':'
asbag69
(g90
g71
NtRp3988
(dp3989
g74
(dp3990
sg83
g3975
sg76
(lp3991
g69
(g70
g71
NtRp3992
(dp3993
g74
(dp3994
g82
I5
ssg83
g3988
sg76
(lp3995
S'db.rooms.id>0'
p3996
asbasbasbag69
(g85
g71
NtRp3997
(dp3998
g74
(dp3999
sg83
g3971
sg76
(lp4000
g69
(g90
g71
NtRp4001
(dp4002
g74
(dp4003
g94
g95
ssg83
g3997
sg76
(lp4004
S'logged'
p4005
asbag69
(g90
g71
NtRp4006
(dp4007
g74
(dp4008
g101
g102
ssg83
g3997
sg76
(lp4009
S':'
asbag69
(g90
g71
NtRp4010
(dp4011
g74
(dp4012
sg83
g3997
sg76
(lp4013
g69
(g70
g71
NtRp4014
(dp4015
g74
(dp4016
g82
I5
ssg83
g4010
sg76
(lp4017
S'0'
asbasbasbag69
(g85
g71
NtRp4018
(dp4019
g74
(dp4020
sg83
g3971
sg76
(lp4021
g69
(g90
g71
NtRp4022
(dp4023
g74
(dp4024
g94
g95
ssg83
g4018
sg76
(lp4025
S'name'
p4026
asbag69
(g90
g71
NtRp4027
(dp4028
g74
(dp4029
g101
g102
ssg83
g4018
sg76
(lp4030
S':'
asbag69
(g90
g71
NtRp4031
(dp4032
g74
(dp4033
sg83
g4018
sg76
(lp4034
g69
(g70
g71
NtRp4035
(dp4036
g74
(dp4037
g82
I5
ssg83
g4031
sg76
(lp4038
S'Hist'
p4039
asbasbasbag69
(g85
g71
NtRp4040
(dp4041
g74
(dp4042
sg83
g3971
sg76
(lp4043
g69
(g90
g71
NtRp4044
(dp4045
g74
(dp4046
g94
g95
ssg83
g4040
sg76
(lp4047
S'username'
p4048
asbag69
(g90
g71
NtRp4049
(dp4050
g74
(dp4051
g101
g102
ssg83
g4040
sg76
(lp4052
S':'
asbag69
(g90
g71
NtRp4053
(dp4054
g74
(dp4055
sg83
g4040
sg76
(lp4056
g69
(g70
g71
NtRp4057
(dp4058
g74
(dp4059
g82
I5
ssg83
g4053
sg76
(lp4060
S'Tan'
p4061
asbasbasbasbasbsS'etype'
p4062
S"<type 'exceptions.SyntaxError'>"
p4063
sS'date'
p4064
S'Mon Oct 15 00:57:29 2012'
p4065
sS'response'
p4066
g69
(g70
g71
NtRp4067
(dp4068
g74
(dp4069
sg76
(lp4070
g69
(g78
g71
NtRp4071
(dp4072
g74
(dp4073
g82
I5
ssg83
Nsg76
(lp4074
g69
(g85
g71
NtRp4075
(dp4076
g74
(dp4077
sg83
g4071
sg76
(lp4078
g69
(g90
g71
NtRp4079
(dp4080
g74
(dp4081
g94
g95
ssg83
g4075
sg76
(lp4082
g167
asbag69
(g90
g71
NtRp4083
(dp4084
g74
(dp4085
g101
g102
ssg83
g4075
sg76
(lp4086
S':'
asbag69
(g90
g71
NtRp4087
(dp4088
g74
(dp4089
sg83
g4075
sg76
(lp4090
g69
(g70
g71
NtRp4091
(dp4092
g74
(dp4093
g82
I5
ssg83
g4087
sg76
(lp4094
S'<cStringIO.StringO object at 0xa147e00>'
p4095
asbasbasbag69
(g85
g71
NtRp4096
(dp4097
g74
(dp4098
sg83
g4071
sg76
(lp4099
g69
(g90
g71
NtRp4100
(dp4101
g74
(dp4102
g94
g95
ssg83
g4096
sg76
(lp4103
g233
asbag69
(g90
g71
NtRp4104
(dp4105
g74
(dp4106
g101
g102
ssg83
g4096
sg76
(lp4107
S':'
asbag69
(g90
g71
NtRp4108
(dp4109
g74
(dp4110
sg83
g4096
sg76
(lp4111
g69
(g70
g71
NtRp4112
(dp4113
g74
(dp4114
g82
I5
ssg83
g4108
sg76
(lp4115
g69
(g78
g71
NtRp4116
(dp4117
g74
(dp4118
g82
I4
ssg83
Nsg76
(lp4119
g69
(g85
g71
NtRp4120
(dp4121
g74
(dp4122
sg83
g4116
sg76
(lp4123
g69
(g90
g71
NtRp4124
(dp4125
g74
(dp4126
g94
g95
ssg83
g4120
sg76
(lp4127
S'session_id_astra1'
p4128
asbag69
(g90
g71
NtRp4129
(dp4130
g74
(dp4131
g101
g102
ssg83
g4120
sg76
(lp4132
S':'
asbag69
(g90
g71
NtRp4133
(dp4134
g74
(dp4135
sg83
g4120
sg76
(lp4136
g69
(g70
g71
NtRp4137
(dp4138
g74
(dp4139
g82
I4
ssg83
g4133
sg76
(lp4140
g69
(g78
g71
NtRp4141
(dp4142
g74
(dp4143
g82
I3
ssg83
Nsg76
(lp4144
g69
(g85
g71
NtRp4145
(dp4146
g74
(dp4147
sg83
g4141
sg76
(lp4148
g69
(g90
g71
NtRp4149
(dp4150
g74
(dp4151
g94
g95
ssg83
g4145
sg76
(lp4152
g283
asbag69
(g90
g71
NtRp4153
(dp4154
g74
(dp4155
g101
g102
ssg83
g4145
sg76
(lp4156
S':'
asbag69
(g90
g71
NtRp4157
(dp4158
g74
(dp4159
sg83
g4145
sg76
(lp4160
g69
(g70
g71
NtRp4161
(dp4162
g74
(dp4163
g82
I3
ssg83
g4157
sg76
(lp4164
S''
asbasbasbag69
(g85
g71
NtRp4165
(dp4166
g74
(dp4167
sg83
g4141
sg76
(lp4168
g69
(g90
g71
NtRp4169
(dp4170
g74
(dp4171
g94
g95
ssg83
g4165
sg76
(lp4172
g304
asbag69
(g90
g71
NtRp4173
(dp4174
g74
(dp4175
g101
g102
ssg83
g4165
sg76
(lp4176
S':'
asbag69
(g90
g71
NtRp4177
(dp4178
g74
(dp4179
sg83
g4165
sg76
(lp4180
g69
(g70
g71
NtRp4181
(dp4182
g74
(dp4183
g82
I3
ssg83
g4177
sg76
(lp4184
S''
asbasbasbag69
(g85
g71
NtRp4185
(dp4186
g74
(dp4187
sg83
g4141
sg76
(lp4188
g69
(g90
g71
NtRp4189
(dp4190
g74
(dp4191
g94
g95
ssg83
g4185
sg76
(lp4192
g325
asbag69
(g90
g71
NtRp4193
(dp4194
g74
(dp4195
g101
g102
ssg83
g4185
sg76
(lp4196
S':'
asbag69
(g90
g71
NtRp4197
(dp4198
g74
(dp4199
sg83
g4185
sg76
(lp4200
g69
(g70
g71
NtRp4201
(dp4202
g74
(dp4203
g82
I3
ssg83
g4197
sg76
(lp4204
S''
asbasbasbag69
(g85
g71
NtRp4205
(dp4206
g74
(dp4207
sg83
g4141
sg76
(lp4208
g69
(g90
g71
NtRp4209
(dp4210
g74
(dp4211
g94
g95
ssg83
g4205
sg76
(lp4212
g346
asbag69
(g90
g71
NtRp4213
(dp4214
g74
(dp4215
g101
g102
ssg83
g4205
sg76
(lp4216
S':'
asbag69
(g90
g71
NtRp4217
(dp4218
g74
(dp4219
sg83
g4205
sg76
(lp4220
g69
(g70
g71
NtRp4221
(dp4222
g74
(dp4223
g82
I3
ssg83
g4217
sg76
(lp4224
S''
asbasbasbag69
(g85
g71
NtRp4225
(dp4226
g74
(dp4227
sg83
g4141
sg76
(lp4228
g69
(g90
g71
NtRp4229
(dp4230
g74
(dp4231
g94
g95
ssg83
g4225
sg76
(lp4232
g367
asbag69
(g90
g71
NtRp4233
(dp4234
g74
(dp4235
g101
g102
ssg83
g4225
sg76
(lp4236
S':'
asbag69
(g90
g71
NtRp4237
(dp4238
g74
(dp4239
sg83
g4225
sg76
(lp4240
g69
(g70
g71
NtRp4241
(dp4242
g74
(dp4243
g82
I3
ssg83
g4237
sg76
(lp4244
S''
asbasbasbag69
(g85
g71
NtRp4245
(dp4246
g74
(dp4247
sg83
g4141
sg76
(lp4248
g69
(g90
g71
NtRp4249
(dp4250
g74
(dp4251
g94
g95
ssg83
g4245
sg76
(lp4252
g388
asbag69
(g90
g71
NtRp4253
(dp4254
g74
(dp4255
g101
g102
ssg83
g4245
sg76
(lp4256
S':'
asbag69
(g90
g71
NtRp4257
(dp4258
g74
(dp4259
sg83
g4245
sg76
(lp4260
g69
(g70
g71
NtRp4261
(dp4262
g74
(dp4263
g82
I3
ssg83
g4257
sg76
(lp4264
S'/'
asbasbasbag69
(g85
g71
NtRp4265
(dp4266
g74
(dp4267
sg83
g4141
sg76
(lp4268
g69
(g90
g71
NtRp4269
(dp4270
g74
(dp4271
g94
g95
ssg83
g4265
sg76
(lp4272
g409
asbag69
(g90
g71
NtRp4273
(dp4274
g74
(dp4275
g101
g102
ssg83
g4265
sg76
(lp4276
S':'
asbag69
(g90
g71
NtRp4277
(dp4278
g74
(dp4279
sg83
g4265
sg76
(lp4280
g69
(g70
g71
NtRp4281
(dp4282
g74
(dp4283
g82
I3
ssg83
g4277
sg76
(lp4284
S''
asbasbasbag69
(g85
g71
NtRp4285
(dp4286
g74
(dp4287
sg83
g4141
sg76
(lp4288
g69
(g90
g71
NtRp4289
(dp4290
g74
(dp4291
g94
g95
ssg83
g4285
sg76
(lp4292
g430
asbag69
(g90
g71
NtRp4293
(dp4294
g74
(dp4295
g101
g102
ssg83
g4285
sg76
(lp4296
S':'
asbag69
(g90
g71
NtRp4297
(dp4298
g74
(dp4299
sg83
g4285
sg76
(lp4300
g69
(g70
g71
NtRp4301
(dp4302
g74
(dp4303
g82
I3
ssg83
g4297
sg76
(lp4304
S''
asbasbasbasbasbasbasbasbasbasbasbag69
(g85
g71
NtRp4305
(dp4306
g74
(dp4307
sg83
g4071
sg76
(lp4308
g69
(g90
g71
NtRp4309
(dp4310
g74
(dp4311
g94
g95
ssg83
g4305
sg76
(lp4312
S'delimiters'
p4313
asbag69
(g90
g71
NtRp4314
(dp4315
g74
(dp4316
g101
g102
ssg83
g4305
sg76
(lp4317
S':'
asbag69
(g90
g71
NtRp4318
(dp4319
g74
(dp4320
sg83
g4305
sg76
(lp4321
g69
(g70
g71
NtRp4322
(dp4323
g74
(dp4324
g82
I5
ssg83
g4318
sg76
(lp4325
g69
(g78
g71
NtRp4326
(dp4327
g74
(dp4328
g82
I4
ssg83
Nsg76
(lp4329
g69
(g85
g71
NtRp4330
(dp4331
g74
(dp4332
sg83
g4326
sg76
(lp4333
g69
(g90
g71
NtRp4334
(dp4335
g74
(dp4336
sg83
g4330
sg76
(lp4337
g69
(g70
g71
NtRp4338
(dp4339
g74
(dp4340
g82
I4
ssg83
g4334
sg76
(lp4341
S'{{'
p4342
asbasbasbag69
(g85
g71
NtRp4343
(dp4344
g74
(dp4345
sg83
g4326
sg76
(lp4346
g69
(g90
g71
NtRp4347
(dp4348
g74
(dp4349
sg83
g4343
sg76
(lp4350
g69
(g70
g71
NtRp4351
(dp4352
g74
(dp4353
g82
I4
ssg83
g4347
sg76
(lp4354
S'}}'
p4355
asbasbasbasbasbasbasbag69
(g85
g71
NtRp4356
(dp4357
g74
(dp4358
sg83
g4071
sg76
(lp4359
g69
(g90
g71
NtRp4360
(dp4361
g74
(dp4362
g94
g95
ssg83
g4356
sg76
(lp4363
S'files'
p4364
asbag69
(g90
g71
NtRp4365
(dp4366
g74
(dp4367
g101
g102
ssg83
g4356
sg76
(lp4368
S':'
asbag69
(g90
g71
NtRp4369
(dp4370
g74
(dp4371
sg83
g4356
sg76
(lp4372
g69
(g70
g71
NtRp4373
(dp4374
g74
(dp4375
g82
I5
ssg83
g4369
sg76
(lp4376
g69
(g78
g71
NtRp4377
(dp4378
g74
(dp4379
g82
I4
ssg83
Nsg76
(lp4380
g69
(g85
g71
NtRp4381
(dp4382
g74
(dp4383
sg83
g4377
sg76
(lp4384
g69
(g90
g71
NtRp4385
(dp4386
g74
(dp4387
sg83
g4381
sg76
(lp4388
g69
(g70
g71
NtRp4389
(dp4390
g74
(dp4391
g82
I4
ssg83
g4385
sg76
(lp4392
S'/astra1/static/js/jquery.js'
p4393
asbasbasbag69
(g85
g71
NtRp4394
(dp4395
g74
(dp4396
sg83
g4377
sg76
(lp4397
g69
(g90
g71
NtRp4398
(dp4399
g74
(dp4400
sg83
g4394
sg76
(lp4401
g69
(g70
g71
NtRp4402
(dp4403
g74
(dp4404
g82
I4
ssg83
g4398
sg76
(lp4405
S'/astra1/static/css/calendar.css'
p4406
asbasbasbag69
(g85
g71
NtRp4407
(dp4408
g74
(dp4409
sg83
g4377
sg76
(lp4410
g69
(g90
g71
NtRp4411
(dp4412
g74
(dp4413
sg83
g4407
sg76
(lp4414
g69
(g70
g71
NtRp4415
(dp4416
g74
(dp4417
g82
I4
ssg83
g4411
sg76
(lp4418
S'/astra1/static/js/calendar.js'
p4419
asbasbasbag69
(g85
g71
NtRp4420
(dp4421
g74
(dp4422
sg83
g4377
sg76
(lp4423
g69
(g90
g71
NtRp4424
(dp4425
g74
(dp4426
sg83
g4420
sg76
(lp4427
g69
(g70
g71
NtRp4428
(dp4429
g74
(dp4430
g82
I4
ssg83
g4424
sg76
(lp4431
S'/astra1/static/js/web2py.js'
p4432
asbasbasbag69
(g85
g71
NtRp4433
(dp4434
g74
(dp4435
sg83
g4377
sg76
(lp4436
g69
(g90
g71
NtRp4437
(dp4438
g74
(dp4439
sg83
g4433
sg76
(lp4440
g69
(g70
g71
NtRp4441
(dp4442
g74
(dp4443
g82
I4
ssg83
g4437
sg76
(lp4444
S'/astra1/static/css/skeleton.css'
p4445
asbasbasbag69
(g85
g71
NtRp4446
(dp4447
g74
(dp4448
sg83
g4377
sg76
(lp4449
g69
(g90
g71
NtRp4450
(dp4451
g74
(dp4452
sg83
g4446
sg76
(lp4453
g69
(g70
g71
NtRp4454
(dp4455
g74
(dp4456
g82
I4
ssg83
g4450
sg76
(lp4457
S'/astra1/static/css/web2py.css'
p4458
asbasbasbag69
(g85
g71
NtRp4459
(dp4460
g74
(dp4461
sg83
g4377
sg76
(lp4462
g69
(g90
g71
NtRp4463
(dp4464
g74
(dp4465
sg83
g4459
sg76
(lp4466
g69
(g70
g71
NtRp4467
(dp4468
g74
(dp4469
g82
I4
ssg83
g4463
sg76
(lp4470
S'/astra1/static/css/superfish.css'
p4471
asbasbasbag69
(g85
g71
NtRp4472
(dp4473
g74
(dp4474
sg83
g4377
sg76
(lp4475
g69
(g90
g71
NtRp4476
(dp4477
g74
(dp4478
sg83
g4472
sg76
(lp4479
g69
(g70
g71
NtRp4480
(dp4481
g74
(dp4482
g82
I4
ssg83
g4476
sg76
(lp4483
S'/astra1/static/js/superfish.js'
p4484
asbasbasbasbasbasbasbag69
(g85
g71
NtRp4485
(dp4486
g74
(dp4487
sg83
g4071
sg76
(lp4488
g69
(g90
g71
NtRp4489
(dp4490
g74
(dp4491
g94
g95
ssg83
g4485
sg76
(lp4492
S'flash'
p4493
asbag69
(g90
g71
NtRp4494
(dp4495
g74
(dp4496
g101
g102
ssg83
g4485
sg76
(lp4497
S':'
asbag69
(g90
g71
NtRp4498
(dp4499
g74
(dp4500
sg83
g4485
sg76
(lp4501
g69
(g70
g71
NtRp4502
(dp4503
g74
(dp4504
g82
I5
ssg83
g4498
sg76
(lp4505
S'Welcome Tan'
p4506
asbasbasbag69
(g85
g71
NtRp4507
(dp4508
g74
(dp4509
sg83
g4071
sg76
(lp4510
g69
(g90
g71
NtRp4511
(dp4512
g74
(dp4513
g94
g95
ssg83
g4507
sg76
(lp4514
S'generic_patterns'
p4515
asbag69
(g90
g71
NtRp4516
(dp4517
g74
(dp4518
g101
g102
ssg83
g4507
sg76
(lp4519
S':'
asbag69
(g90
g71
NtRp4520
(dp4521
g74
(dp4522
sg83
g4507
sg76
(lp4523
g69
(g70
g71
NtRp4524
(dp4525
g74
(dp4526
g82
I5
ssg83
g4520
sg76
(lp4527
g69
(g78
g71
NtRp4528
(dp4529
g74
(dp4530
g82
I4
ssg83
Nsg76
(lp4531
g69
(g85
g71
NtRp4532
(dp4533
g74
(dp4534
sg83
g4528
sg76
(lp4535
g69
(g90
g71
NtRp4536
(dp4537
g74
(dp4538
sg83
g4532
sg76
(lp4539
g69
(g70
g71
NtRp4540
(dp4541
g74
(dp4542
g82
I4
ssg83
g4536
sg76
(lp4543
S'*'
asbasbasbasbasbasbasbag69
(g85
g71
NtRp4544
(dp4545
g74
(dp4546
sg83
g4071
sg76
(lp4547
g69
(g90
g71
NtRp4548
(dp4549
g74
(dp4550
g94
g95
ssg83
g4544
sg76
(lp4551
S'headers'
p4552
asbag69
(g90
g71
NtRp4553
(dp4554
g74
(dp4555
g101
g102
ssg83
g4544
sg76
(lp4556
S':'
asbag69
(g90
g71
NtRp4557
(dp4558
g74
(dp4559
sg83
g4544
sg76
(lp4560
g69
(g70
g71
NtRp4561
(dp4562
g74
(dp4563
g82
I5
ssg83
g4557
sg76
(lp4564
g69
(g78
g71
NtRp4565
(dp4566
g74
(dp4567
g82
I4
ssg83
Nsg76
(lp4568
g69
(g85
g71
NtRp4569
(dp4570
g74
(dp4571
sg83
g4565
sg76
(lp4572
g69
(g90
g71
NtRp4573
(dp4574
g74
(dp4575
g94
g95
ssg83
g4569
sg76
(lp4576
S'Cache-Control'
p4577
asbag69
(g90
g71
NtRp4578
(dp4579
g74
(dp4580
g101
g102
ssg83
g4569
sg76
(lp4581
S':'
asbag69
(g90
g71
NtRp4582
(dp4583
g74
(dp4584
sg83
g4569
sg76
(lp4585
g69
(g70
g71
NtRp4586
(dp4587
g74
(dp4588
g82
I4
ssg83
g4582
sg76
(lp4589
S'no-store, no-cache, must-revalidate, post-check=0, pre-check=0'
p4590
asbasbasbag69
(g85
g71
NtRp4591
(dp4592
g74
(dp4593
sg83
g4565
sg76
(lp4594
g69
(g90
g71
NtRp4595
(dp4596
g74
(dp4597
g94
g95
ssg83
g4591
sg76
(lp4598
S'Content-Type'
p4599
asbag69
(g90
g71
NtRp4600
(dp4601
g74
(dp4602
g101
g102
ssg83
g4591
sg76
(lp4603
S':'
asbag69
(g90
g71
NtRp4604
(dp4605
g74
(dp4606
sg83
g4591
sg76
(lp4607
g69
(g70
g71
NtRp4608
(dp4609
g74
(dp4610
g82
I4
ssg83
g4604
sg76
(lp4611
S'text/html; charset=utf-8'
p4612
asbasbasbag69
(g85
g71
NtRp4613
(dp4614
g74
(dp4615
sg83
g4565
sg76
(lp4616
g69
(g90
g71
NtRp4617
(dp4618
g74
(dp4619
g94
g95
ssg83
g4613
sg76
(lp4620
S'Expires'
p4621
asbag69
(g90
g71
NtRp4622
(dp4623
g74
(dp4624
g101
g102
ssg83
g4613
sg76
(lp4625
S':'
asbag69
(g90
g71
NtRp4626
(dp4627
g74
(dp4628
sg83
g4613
sg76
(lp4629
g69
(g70
g71
NtRp4630
(dp4631
g74
(dp4632
g82
I4
ssg83
g4626
sg76
(lp4633
S'Sun, 14 Oct 2012 19:57:29 GMT'
p4634
asbasbasbag69
(g85
g71
NtRp4635
(dp4636
g74
(dp4637
sg83
g4565
sg76
(lp4638
g69
(g90
g71
NtRp4639
(dp4640
g74
(dp4641
g94
g95
ssg83
g4635
sg76
(lp4642
S'Pragma'
p4643
asbag69
(g90
g71
NtRp4644
(dp4645
g74
(dp4646
g101
g102
ssg83
g4635
sg76
(lp4647
S':'
asbag69
(g90
g71
NtRp4648
(dp4649
g74
(dp4650
sg83
g4635
sg76
(lp4651
g69
(g70
g71
NtRp4652
(dp4653
g74
(dp4654
g82
I4
ssg83
g4648
sg76
(lp4655
S'no-cache'
p4656
asbasbasbag69
(g85
g71
NtRp4657
(dp4658
g74
(dp4659
sg83
g4565
sg76
(lp4660
g69
(g90
g71
NtRp4661
(dp4662
g74
(dp4663
g94
g95
ssg83
g4657
sg76
(lp4664
S'X-Powered-By'
p4665
asbag69
(g90
g71
NtRp4666
(dp4667
g74
(dp4668
g101
g102
ssg83
g4657
sg76
(lp4669
S':'
asbag69
(g90
g71
NtRp4670
(dp4671
g74
(dp4672
sg83
g4657
sg76
(lp4673
g69
(g70
g71
NtRp4674
(dp4675
g74
(dp4676
g82
I4
ssg83
g4670
sg76
(lp4677
S'web2py'
p4678
asbasbasbasbasbasbasbag69
(g85
g71
NtRp4679
(dp4680
g74
(dp4681
sg83
g4071
sg76
(lp4682
g69
(g90
g71
NtRp4683
(dp4684
g74
(dp4685
g94
g95
ssg83
g4679
sg76
(lp4686
S'menu'
p4687
asbag69
(g90
g71
NtRp4688
(dp4689
g74
(dp4690
g101
g102
ssg83
g4679
sg76
(lp4691
S':'
asbag69
(g90
g71
NtRp4692
(dp4693
g74
(dp4694
sg83
g4679
sg76
(lp4695
g69
(g70
g71
NtRp4696
(dp4697
g74
(dp4698
g82
I5
ssg83
g4692
sg76
(lp4699
g69
(g78
g71
NtRp4700
(dp4701
g74
(dp4702
g82
I4
ssg83
Nsg76
(lp4703
g69
(g85
g71
NtRp4704
(dp4705
g74
(dp4706
sg83
g4700
sg76
(lp4707
g69
(g90
g71
NtRp4708
(dp4709
g74
(dp4710
sg83
g4704
sg76
(lp4711
g69
(g70
g71
NtRp4712
(dp4713
g74
(dp4714
g82
I4
ssg83
g4708
sg76
(lp4715
g69
(g78
g71
NtRp4716
(dp4717
g74
(dp4718
g82
I3
ssg83
Nsg76
(lp4719
g69
(g85
g71
NtRp4720
(dp4721
g74
(dp4722
sg83
g4716
sg76
(lp4723
g69
(g90
g71
NtRp4724
(dp4725
g74
(dp4726
sg83
g4720
sg76
(lp4727
g69
(g70
g71
NtRp4728
(dp4729
g74
(dp4730
g82
I3
ssg83
g4724
sg76
(lp4731
cgluon.languages
lazyT_unpickle
p4732
(S't\x04\x00\x00\x00Home'
tRp4733
asbasbasbag69
(g85
g71
NtRp4734
(dp4735
g74
(dp4736
sg83
g4716
sg76
(lp4737
g69
(g90
g71
NtRp4738
(dp4739
g74
(dp4740
sg83
g4734
sg76
(lp4741
g69
(g70
g71
NtRp4742
(dp4743
g74
(dp4744
g82
I3
ssg83
g4738
sg76
(lp4745
g112
asbasbasbag69
(g85
g71
NtRp4746
(dp4747
g74
(dp4748
sg83
g4716
sg76
(lp4749
g69
(g90
g71
NtRp4750
(dp4751
g74
(dp4752
sg83
g4746
sg76
(lp4753
g69
(g70
g71
NtRp4754
(dp4755
g74
(dp4756
g82
I3
ssg83
g4750
sg76
(lp4757
S'/astra1/default/index'
p4758
asbasbasbag69
(g85
g71
NtRp4759
(dp4760
g74
(dp4761
sg83
g4716
sg76
(lp4762
g69
(g90
g71
NtRp4763
(dp4764
g74
(dp4765
sg83
g4759
sg76
(lp4766
g69
(g70
g71
NtRp4767
(dp4768
g74
(dp4769
g82
I3
ssg83
g4763
sg76
(lp4770
g69
(g78
g71
NtRp4771
(dp4772
g74
(dp4773
g82
I2
ssg83
Nsg76
(lp4774
sbasbasbasbasbasbasbasbag69
(g85
g71
NtRp4775
(dp4776
g74
(dp4777
sg83
g4700
sg76
(lp4778
g69
(g90
g71
NtRp4779
(dp4780
g74
(dp4781
sg83
g4775
sg76
(lp4782
g69
(g70
g71
NtRp4783
(dp4784
g74
(dp4785
g82
I4
ssg83
g4779
sg76
(lp4786
g69
(g78
g71
NtRp4787
(dp4788
g74
(dp4789
g82
I3
ssg83
Nsg76
(lp4790
g69
(g85
g71
NtRp4791
(dp4792
g74
(dp4793
sg83
g4787
sg76
(lp4794
g69
(g90
g71
NtRp4795
(dp4796
g74
(dp4797
sg83
g4791
sg76
(lp4798
g69
(g70
g71
NtRp4799
(dp4800
g74
(dp4801
g82
I3
ssg83
g4795
sg76
(lp4802
g69
(cgluon.html
SPAN
p4803
g71
NtRp4804
(dp4805
g74
(dp4806
g94
S'color:yellow'
p4807
ssg83
g69
(cgluon.html
A
p4808
g71
NtRp4809
(dp4810
g74
(dp4811
S'_onclick'
p4812
S'javascript:void(0);return false;'
p4813
sS'_href'
p4814
S'#'
ssg83
g69
(cgluon.html
LI
p4815
g71
NtRp4816
(dp4817
g74
(dp4818
S'_class'
p4819
S'web2py-menu-expand'
p4820
ssg83
g69
(cgluon.html
UL
p4821
g71
NtRp4822
(dp4823
g74
(dp4824
S'mobile'
p4825
I00
sS'li_class'
p4826
g4820
sg4819
S'sf-menu'
p4827
sS'ul_class'
p4828
S'web2py-menu-vertical'
p4829
sS'li_active'
p4830
S'web2py-menu-active'
p4831
ssg83
Nsg76
(lp4832
g69
(g4815
g71
NtRp4833
(dp4834
g74
(dp4835
sg83
g4822
sg76
(lp4836
g69
(g4808
g71
NtRp4837
(dp4838
g74
(dp4839
g4814
g4758
ssg83
g4833
sg76
(lp4840
g4733
asbasbag4816
asbsg76
(lp4841
g4809
ag69
(g4821
g71
NtRp4842
(dp4843
g74
(dp4844
g4819
g4829
ssg83
g4816
sg76
(lp4845
g69
(g4815
g71
NtRp4846
(dp4847
g74
(dp4848
sg83
g4842
sg76
(lp4849
g69
(g4808
g71
NtRp4850
(dp4851
g74
(dp4852
g4814
S'/admin/default/site'
p4853
ssg83
g4846
sg76
(lp4854
g4732
(S's\x08\x00\x00\x00My Sites'
tRp4855
asbasbag69
(g4815
g71
NtRp4856
(dp4857
g74
(dp4858
g4819
g4820
ssg83
g4842
sg76
(lp4859
g69
(g4808
g71
NtRp4860
(dp4861
g74
(dp4862
g4814
S'/admin/default/design/astra1'
p4863
ssg83
g4856
sg76
(lp4864
g4732
(S's\x08\x00\x00\x00This App'
tRp4865
asbag69
(g4821
g71
NtRp4866
(dp4867
g74
(dp4868
g4819
g4829
ssg83
g4856
sg76
(lp4869
g69
(g4815
g71
NtRp4870
(dp4871
g74
(dp4872
sg83
g4866
sg76
(lp4873
g69
(g4808
g71
NtRp4874
(dp4875
g74
(dp4876
g4814
S'/admin/default/edit/astra1/controllers/default.py'
p4877
ssg83
g4870
sg76
(lp4878
g4732
(S't\n\x00\x00\x00Controller'
tRp4879
asbasbag69
(g4815
g71
NtRp4880
(dp4881
g74
(dp4882
sg83
g4866
sg76
(lp4883
g69
(g4808
g71
NtRp4884
(dp4885
g74
(dp4886
g4814
S'/admin/default/edit/astra1/views/default/show.html'
p4887
ssg83
g4880
sg76
(lp4888
g4732
(S't\x04\x00\x00\x00View'
tRp4889
asbasbag69
(g4815
g71
NtRp4890
(dp4891
g74
(dp4892
sg83
g4866
sg76
(lp4893
g69
(g4808
g71
NtRp4894
(dp4895
g74
(dp4896
g4814
S'/admin/default/edit/astra1/views/layout.html'
p4897
ssg83
g4890
sg76
(lp4898
g4732
(S't\x06\x00\x00\x00Layout'
tRp4899
asbasbag69
(g4815
g71
NtRp4900
(dp4901
g74
(dp4902
sg83
g4866
sg76
(lp4903
g69
(g4808
g71
NtRp4904
(dp4905
g74
(dp4906
g4814
S'/admin/default/edit/astra1/static/css/web2py.css'
p4907
ssg83
g4900
sg76
(lp4908
g4732
(S't\n\x00\x00\x00Stylesheet'
tRp4909
asbasbag69
(g4815
g71
NtRp4910
(dp4911
g74
(dp4912
sg83
g4866
sg76
(lp4913
g69
(g4808
g71
NtRp4914
(dp4915
g74
(dp4916
g4814
S'/admin/default/edit/astra1/models/db.py'
p4917
ssg83
g4910
sg76
(lp4918
g4732
(S's\x08\x00\x00\x00DB Model'
tRp4919
asbasbag69
(g4815
g71
NtRp4920
(dp4921
g74
(dp4922
sg83
g4866
sg76
(lp4923
g69
(g4808
g71
NtRp4924
(dp4925
g74
(dp4926
g4814
S'/admin/default/edit/astra1/models/menu.py'
p4927
ssg83
g4920
sg76
(lp4928
g4732
(S's\n\x00\x00\x00Menu Model'
tRp4929
asbasbag69
(g4815
g71
NtRp4930
(dp4931
g74
(dp4932
sg83
g4866
sg76
(lp4933
g69
(g4808
g71
NtRp4934
(dp4935
g74
(dp4936
g4814
S'/astra1/appadmin/index'
p4937
ssg83
g4930
sg76
(lp4938
g4732
(S't\x08\x00\x00\x00Database'
tRp4939
asbasbag69
(g4815
g71
NtRp4940
(dp4941
g74
(dp4942
sg83
g4866
sg76
(lp4943
g69
(g4808
g71
NtRp4944
(dp4945
g74
(dp4946
g4814
S'/admin/default/errors/astra1'
p4947
ssg83
g4940
sg76
(lp4948
g4732
(S't\x06\x00\x00\x00Errors'
tRp4949
asbasbag69
(g4815
g71
NtRp4950
(dp4951
g74
(dp4952
sg83
g4866
sg76
(lp4953
g69
(g4808
g71
NtRp4954
(dp4955
g74
(dp4956
g4814
S'/admin/default/about/astra1'
p4957
ssg83
g4950
sg76
(lp4958
g4732
(S't\x05\x00\x00\x00About'
tRp4959
asbasbasbasbag69
(g4815
g71
NtRp4960
(dp4961
g74
(dp4962
g4819
g4820
ssg83
g4842
sg76
(lp4963
g69
(g4808
g71
NtRp4964
(dp4965
g74
(dp4966
g4814
S'http://www.web2py.com'
p4967
ssg83
g4960
sg76
(lp4968
S'web2py.com'
p4969
asbag69
(g4821
g71
NtRp4970
(dp4971
g74
(dp4972
g4819
g4829
ssg83
g4960
sg76
(lp4973
g69
(g4815
g71
NtRp4974
(dp4975
g74
(dp4976
sg83
g4970
sg76
(lp4977
g69
(g4808
g71
NtRp4978
(dp4979
g74
(dp4980
g4814
S'http://www.web2py.com/examples/default/download'
p4981
ssg83
g4974
sg76
(lp4982
g4732
(S't\x08\x00\x00\x00Download'
tRp4983
asbasbag69
(g4815
g71
NtRp4984
(dp4985
g74
(dp4986
sg83
g4970
sg76
(lp4987
g69
(g4808
g71
NtRp4988
(dp4989
g74
(dp4990
g4814
S'http://www.web2py.com/examples/default/support'
p4991
ssg83
g4984
sg76
(lp4992
g4732
(S't\x07\x00\x00\x00Support'
tRp4993
asbasbag69
(g4815
g71
NtRp4994
(dp4995
g74
(dp4996
sg83
g4970
sg76
(lp4997
g69
(g4808
g71
NtRp4998
(dp4999
g74
(dp5000
g4814
S'http://web2py.com/demo_admin'
p5001
ssg83
g4994
sg76
(lp5002
g4732
(S't\x04\x00\x00\x00Demo'
tRp5003
asbasbag69
(g4815
g71
NtRp5004
(dp5005
g74
(dp5006
sg83
g4970
sg76
(lp5007
g69
(g4808
g71
NtRp5008
(dp5009
g74
(dp5010
g4814
S'http://web2py.com/examples/default/examples'
p5011
ssg83
g5004
sg76
(lp5012
g4732
(S's\x0e\x00\x00\x00Quick Examples'
tRp5013
asbasbag69
(g4815
g71
NtRp5014
(dp5015
g74
(dp5016
sg83
g4970
sg76
(lp5017
g69
(g4808
g71
NtRp5018
(dp5019
g74
(dp5020
g4814
S'http://web2py.com/AlterEgo'
p5021
ssg83
g5014
sg76
(lp5022
g4732
(S't\x03\x00\x00\x00FAQ'
tRp5023
asbasbag69
(g4815
g71
NtRp5024
(dp5025
g74
(dp5026
sg83
g4970
sg76
(lp5027
g69
(g4808
g71
NtRp5028
(dp5029
g74
(dp5030
g4814
S'http://www.web2py.com/examples/default/videos/'
p5031
ssg83
g5024
sg76
(lp5032
g4732
(S't\x06\x00\x00\x00Videos'
tRp5033
asbasbag69
(g4815
g71
NtRp5034
(dp5035
g74
(dp5036
sg83
g4970
sg76
(lp5037
g69
(g4808
g71
NtRp5038
(dp5039
g74
(dp5040
g4814
S'http://web2py.com/appliances'
p5041
ssg83
g5034
sg76
(lp5042
g4732
(S's\x11\x00\x00\x00Free Applications'
tRp5043
asbasbag69
(g4815
g71
NtRp5044
(dp5045
g74
(dp5046
sg83
g4970
sg76
(lp5047
g69
(g4808
g71
NtRp5048
(dp5049
g74
(dp5050
g4814
S'http://web2py.com/plugins'
p5051
ssg83
g5044
sg76
(lp5052
g4732
(S't\x07\x00\x00\x00Plugins'
tRp5053
asbasbag69
(g4815
g71
NtRp5054
(dp5055
g74
(dp5056
sg83
g4970
sg76
(lp5057
g69
(g4808
g71
NtRp5058
(dp5059
g74
(dp5060
g4814
S'http://web2py.com/layouts'
p5061
ssg83
g5054
sg76
(lp5062
g4732
(S't\x07\x00\x00\x00Layouts'
tRp5063
asbasbag69
(g4815
g71
NtRp5064
(dp5065
g74
(dp5066
sg83
g4970
sg76
(lp5067
g69
(g4808
g71
NtRp5068
(dp5069
g74
(dp5070
g4814
S'http://web2pyslices.com/'
p5071
ssg83
g5064
sg76
(lp5072
g4732
(S't\x07\x00\x00\x00Recipes'
tRp5073
asbasbag69
(g4815
g71
NtRp5074
(dp5075
g74
(dp5076
sg83
g4970
sg76
(lp5077
g69
(g4808
g71
NtRp5078
(dp5079
g74
(dp5080
g4814
S'http://web2py.com/semantic'
p5081
ssg83
g5074
sg76
(lp5082
g4732
(S't\x08\x00\x00\x00Semantic'
tRp5083
asbasbasbasbag69
(g4815
g71
NtRp5084
(dp5085
g74
(dp5086
g4819
g4820
ssg83
g4842
sg76
(lp5087
g69
(g4808
g71
NtRp5088
(dp5089
g74
(dp5090
g4814
S'http://www.web2py.com/book'
p5091
ssg83
g5084
sg76
(lp5092
g4732
(S't\r\x00\x00\x00Documentation'
tRp5093
asbag69
(g4821
g71
NtRp5094
(dp5095
g74
(dp5096
g4819
g4829
ssg83
g5084
sg76
(lp5097
g69
(g4815
g71
NtRp5098
(dp5099
g74
(dp5100
sg83
g5094
sg76
(lp5101
g69
(g4808
g71
NtRp5102
(dp5103
g74
(dp5104
g4814
S'http://www.web2py.com/book/default/chapter/00'
p5105
ssg83
g5098
sg76
(lp5106
g4732
(S't\x07\x00\x00\x00Preface'
tRp5107
asbasbag69
(g4815
g71
NtRp5108
(dp5109
g74
(dp5110
sg83
g5094
sg76
(lp5111
g69
(g4808
g71
NtRp5112
(dp5113
g74
(dp5114
g4814
S'http://www.web2py.com/book/default/chapter/01'
p5115
ssg83
g5108
sg76
(lp5116
g4732
(S't\x0c\x00\x00\x00Introduction'
tRp5117
asbasbag69
(g4815
g71
NtRp5118
(dp5119
g74
(dp5120
sg83
g5094
sg76
(lp5121
g69
(g4808
g71
NtRp5122
(dp5123
g74
(dp5124
g4814
S'http://www.web2py.com/book/default/chapter/02'
p5125
ssg83
g5118
sg76
(lp5126
g4732
(S't\x06\x00\x00\x00Python'
tRp5127
asbasbag69
(g4815
g71
NtRp5128
(dp5129
g74
(dp5130
sg83
g5094
sg76
(lp5131
g69
(g4808
g71
NtRp5132
(dp5133
g74
(dp5134
g4814
S'http://www.web2py.com/book/default/chapter/03'
p5135
ssg83
g5128
sg76
(lp5136
g4732
(S't\x08\x00\x00\x00Overview'
tRp5137
asbasbag69
(g4815
g71
NtRp5138
(dp5139
g74
(dp5140
sg83
g5094
sg76
(lp5141
g69
(g4808
g71
NtRp5142
(dp5143
g74
(dp5144
g4814
S'http://www.web2py.com/book/default/chapter/04'
p5145
ssg83
g5138
sg76
(lp5146
g4732
(S's\x08\x00\x00\x00The Core'
tRp5147
asbasbag69
(g4815
g71
NtRp5148
(dp5149
g74
(dp5150
sg83
g5094
sg76
(lp5151
g69
(g4808
g71
NtRp5152
(dp5153
g74
(dp5154
g4814
S'http://www.web2py.com/book/default/chapter/05'
p5155
ssg83
g5148
sg76
(lp5156
g4732
(S's\t\x00\x00\x00The Views'
tRp5157
asbasbag69
(g4815
g71
NtRp5158
(dp5159
g74
(dp5160
sg83
g5094
sg76
(lp5161
g69
(g4808
g71
NtRp5162
(dp5163
g74
(dp5164
g4814
S'http://www.web2py.com/book/default/chapter/06'
p5165
ssg83
g5158
sg76
(lp5166
g4732
(S't\x08\x00\x00\x00Database'
tRp5167
asbasbag69
(g4815
g71
NtRp5168
(dp5169
g74
(dp5170
sg83
g5094
sg76
(lp5171
g69
(g4808
g71
NtRp5172
(dp5173
g74
(dp5174
g4814
S'http://www.web2py.com/book/default/chapter/07'
p5175
ssg83
g5168
sg76
(lp5176
g4732
(S's\x14\x00\x00\x00Forms and Validators'
tRp5177
asbasbag69
(g4815
g71
NtRp5178
(dp5179
g74
(dp5180
sg83
g5094
sg76
(lp5181
g69
(g4808
g71
NtRp5182
(dp5183
g74
(dp5184
g4814
S'http://www.web2py.com/book/default/chapter/08'
p5185
ssg83
g5178
sg76
(lp5186
g4732
(S's\r\x00\x00\x00Email and SMS'
tRp5187
asbasbag69
(g4815
g71
NtRp5188
(dp5189
g74
(dp5190
sg83
g5094
sg76
(lp5191
g69
(g4808
g71
NtRp5192
(dp5193
g74
(dp5194
g4814
S'http://www.web2py.com/book/default/chapter/09'
p5195
ssg83
g5188
sg76
(lp5196
g4732
(S's\x0e\x00\x00\x00Access Control'
tRp5197
asbasbag69
(g4815
g71
NtRp5198
(dp5199
g74
(dp5200
sg83
g5094
sg76
(lp5201
g69
(g4808
g71
NtRp5202
(dp5203
g74
(dp5204
g4814
S'http://www.web2py.com/book/default/chapter/10'
p5205
ssg83
g5198
sg76
(lp5206
g4732
(S't\x08\x00\x00\x00Services'
tRp5207
asbasbag69
(g4815
g71
NtRp5208
(dp5209
g74
(dp5210
sg83
g5094
sg76
(lp5211
g69
(g4808
g71
NtRp5212
(dp5213
g74
(dp5214
g4814
S'http://www.web2py.com/book/default/chapter/11'
p5215
ssg83
g5208
sg76
(lp5216
g4732
(S's\x0c\x00\x00\x00Ajax Recipes'
tRp5217
asbasbag69
(g4815
g71
NtRp5218
(dp5219
g74
(dp5220
sg83
g5094
sg76
(lp5221
g69
(g4808
g71
NtRp5222
(dp5223
g74
(dp5224
g4814
S'http://www.web2py.com/book/default/chapter/12'
p5225
ssg83
g5218
sg76
(lp5226
g4732
(S's\x16\x00\x00\x00Components and Plugins'
tRp5227
asbasbag69
(g4815
g71
NtRp5228
(dp5229
g74
(dp5230
sg83
g5094
sg76
(lp5231
g69
(g4808
g71
NtRp5232
(dp5233
g74
(dp5234
g4814
S'http://www.web2py.com/book/default/chapter/13'
p5235
ssg83
g5228
sg76
(lp5236
g4732
(S's\x12\x00\x00\x00Deployment Recipes'
tRp5237
asbasbag69
(g4815
g71
NtRp5238
(dp5239
g74
(dp5240
sg83
g5094
sg76
(lp5241
g69
(g4808
g71
NtRp5242
(dp5243
g74
(dp5244
g4814
S'http://www.web2py.com/book/default/chapter/14'
p5245
ssg83
g5238
sg76
(lp5246
g4732
(S's\r\x00\x00\x00Other Recipes'
tRp5247
asbasbag69
(g4815
g71
NtRp5248
(dp5249
g74
(dp5250
sg83
g5094
sg76
(lp5251
g69
(g4808
g71
NtRp5252
(dp5253
g74
(dp5254
g4814
S'http://stores.lulu.com/web2py'
p5255
ssg83
g5248
sg76
(lp5256
g4732
(S's\r\x00\x00\x00Buy this book'
tRp5257
asbasbasbasbag69
(g4815
g71
NtRp5258
(dp5259
g74
(dp5260
g4819
g4820
ssg83
g4842
sg76
(lp5261
g69
(g4808
g71
NtRp5262
(dp5263
g74
(dp5264
g4812
g4813
sg4814
S'#'
ssg83
g5258
sg76
(lp5265
g4732
(S't\t\x00\x00\x00Community'
tRp5266
asbag69
(g4821
g71
NtRp5267
(dp5268
g74
(dp5269
g4819
g4829
ssg83
g5258
sg76
(lp5270
g69
(g4815
g71
NtRp5271
(dp5272
g74
(dp5273
sg83
g5267
sg76
(lp5274
g69
(g4808
g71
NtRp5275
(dp5276
g74
(dp5277
g4814
S'http://www.web2py.com/examples/default/usergroups'
p5278
ssg83
g5271
sg76
(lp5279
g4732
(S't\x06\x00\x00\x00Groups'
tRp5280
asbasbag69
(g4815
g71
NtRp5281
(dp5282
g74
(dp5283
sg83
g5267
sg76
(lp5284
g69
(g4808
g71
NtRp5285
(dp5286
g74
(dp5287
g4814
S'http://twitter.com/web2py'
p5288
ssg83
g5281
sg76
(lp5289
g4732
(S't\x07\x00\x00\x00Twitter'
tRp5290
asbasbag69
(g4815
g71
NtRp5291
(dp5292
g74
(dp5293
sg83
g5267
sg76
(lp5294
g69
(g4808
g71
NtRp5295
(dp5296
g74
(dp5297
g4814
S'http://webchat.freenode.net/?channels=web2py'
p5298
ssg83
g5291
sg76
(lp5299
g4732
(S's\t\x00\x00\x00Live Chat'
tRp5300
asbasbasbasbag69
(g4815
g71
NtRp5301
(dp5302
g74
(dp5303
g4819
g4820
ssg83
g4842
sg76
(lp5304
g69
(g4808
g71
NtRp5305
(dp5306
g74
(dp5307
g4812
g4813
sg4814
S'#'
ssg83
g5301
sg76
(lp5308
g4732
(S't\x07\x00\x00\x00Plugins'
tRp5309
asbag69
(g4821
g71
NtRp5310
(dp5311
g74
(dp5312
g4819
g4829
ssg83
g5301
sg76
(lp5313
g69
(g4815
g71
NtRp5314
(dp5315
g74
(dp5316
sg83
g5310
sg76
(lp5317
g69
(g4808
g71
NtRp5318
(dp5319
g74
(dp5320
g4814
S'http://web2py.com/examples/default/download'
p5321
ssg83
g5314
sg76
(lp5322
S'plugin_wiki'
p5323
asbasbag69
(g4815
g71
NtRp5324
(dp5325
g74
(dp5326
sg83
g5310
sg76
(lp5327
g69
(g4808
g71
NtRp5328
(dp5329
g74
(dp5330
g4814
g5051
ssg83
g5324
sg76
(lp5331
g4732
(S's\r\x00\x00\x00Other Plugins'
tRp5332
asbasbag69
(g4815
g71
NtRp5333
(dp5334
g74
(dp5335
sg83
g5310
sg76
(lp5336
g69
(g4808
g71
NtRp5337
(dp5338
g74
(dp5339
g4814
g5061
ssg83
g5333
sg76
(lp5340
g4732
(S's\x0e\x00\x00\x00Layout Plugins'
tRp5341
asbasbasbasbasbasbsg76
(lp5342
g4804
asbsg76
(lp5343
g4678
asbasbasbasbag69
(g85
g71
NtRp5344
(dp5345
g74
(dp5346
sg83
g4787
sg76
(lp5347
g69
(g90
g71
NtRp5348
(dp5349
g74
(dp5350
sg83
g5344
sg76
(lp5351
g69
(g70
g71
NtRp5352
(dp5353
g74
(dp5354
g82
I3
ssg83
g5348
sg76
(lp5355
g112
asbasbasbag69
(g85
g71
NtRp5356
(dp5357
g74
(dp5358
sg83
g4787
sg76
(lp5359
g69
(g90
g71
NtRp5360
(dp5361
g74
(dp5362
sg83
g5356
sg76
(lp5363
g69
(g70
g71
NtRp5364
(dp5365
g74
(dp5366
g82
I3
ssg83
g5360
sg76
(lp5367
S'None'
p5368
asbasbasbag69
(g85
g71
NtRp5369
(dp5370
g74
(dp5371
sg83
g4787
sg76
(lp5372
g69
(g90
g71
NtRp5373
(dp5374
g74
(dp5375
sg83
g5369
sg76
(lp5376
g69
(g70
g71
NtRp5377
(dp5378
g74
(dp5379
g82
I3
ssg83
g5373
sg76
(lp5380
g69
(g78
g71
NtRp5381
(dp5382
g74
(dp5383
g82
I2
ssg83
Nsg76
(lp5384
g69
(g85
g71
NtRp5385
(dp5386
g74
(dp5387
sg83
g5381
sg76
(lp5388
g69
(g90
g71
NtRp5389
(dp5390
g74
(dp5391
sg83
g5385
sg76
(lp5392
g69
(g70
g71
NtRp5393
(dp5394
g74
(dp5395
g82
I2
ssg83
g5389
sg76
(lp5396
g69
(g78
g71
NtRp5397
(dp5398
g74
(dp5399
g82
I1
ssg83
Nsg76
(lp5400
g69
(g85
g71
NtRp5401
(dp5402
g74
(dp5403
sg83
g5397
sg76
(lp5404
g69
(g90
g71
NtRp5405
(dp5406
g74
(dp5407
sg83
g5401
sg76
(lp5408
g69
(g70
g71
NtRp5409
(dp5410
g74
(dp5411
g82
I1
ssg83
g5405
sg76
(lp5412
g4855
asbasbasbag69
(g85
g71
NtRp5413
(dp5414
g74
(dp5415
sg83
g5397
sg76
(lp5416
g69
(g90
g71
NtRp5417
(dp5418
g74
(dp5419
sg83
g5413
sg76
(lp5420
g69
(g70
g71
NtRp5421
(dp5422
g74
(dp5423
g82
I1
ssg83
g5417
sg76
(lp5424
I00
asbasbasbag69
(g85
g71
NtRp5425
(dp5426
g74
(dp5427
sg83
g5397
sg76
(lp5428
g69
(g90
g71
NtRp5429
(dp5430
g74
(dp5431
sg83
g5425
sg76
(lp5432
g69
(g70
g71
NtRp5433
(dp5434
g74
(dp5435
g82
I1
ssg83
g5429
sg76
(lp5436
g4853
asbasbasbasbasbasbasbag69
(g85
g71
NtRp5437
(dp5438
g74
(dp5439
sg83
g5381
sg76
(lp5440
g69
(g90
g71
NtRp5441
(dp5442
g74
(dp5443
sg83
g5437
sg76
(lp5444
g69
(g70
g71
NtRp5445
(dp5446
g74
(dp5447
g82
I2
ssg83
g5441
sg76
(lp5448
g69
(g78
g71
NtRp5449
(dp5450
g74
(dp5451
g82
I1
ssg83
Nsg76
(lp5452
g69
(g85
g71
NtRp5453
(dp5454
g74
(dp5455
sg83
g5449
sg76
(lp5456
g69
(g90
g71
NtRp5457
(dp5458
g74
(dp5459
sg83
g5453
sg76
(lp5460
g69
(g70
g71
NtRp5461
(dp5462
g74
(dp5463
g82
I1
ssg83
g5457
sg76
(lp5464
g4865
asbasbasbag69
(g85
g71
NtRp5465
(dp5466
g74
(dp5467
sg83
g5449
sg76
(lp5468
g69
(g90
g71
NtRp5469
(dp5470
g74
(dp5471
sg83
g5465
sg76
(lp5472
g69
(g70
g71
NtRp5473
(dp5474
g74
(dp5475
g82
I1
ssg83
g5469
sg76
(lp5476
I00
asbasbasbag69
(g85
g71
NtRp5477
(dp5478
g74
(dp5479
sg83
g5449
sg76
(lp5480
g69
(g90
g71
NtRp5481
(dp5482
g74
(dp5483
sg83
g5477
sg76
(lp5484
g69
(g70
g71
NtRp5485
(dp5486
g74
(dp5487
g82
I1
ssg83
g5481
sg76
(lp5488
g4863
asbasbasbag69
(g85
g71
NtRp5489
(dp5490
g74
(dp5491
sg83
g5449
sg76
(lp5492
g69
(g90
g71
NtRp5493
(dp5494
g74
(dp5495
sg83
g5489
sg76
(lp5496
g69
(g70
g71
NtRp5497
(dp5498
g74
(dp5499
g82
I1
ssg83
g5493
sg76
(lp5500
(lp5501
(g4879
I00
g4877
tp5502
a(g4889
I00
g4887
tp5503
a(g4899
I00
g4897
tp5504
a(g4909
I00
g4907
tp5505
a(g4919
I00
g4917
tp5506
a(g4929
I00
g4927
tp5507
a(g4939
I00
g4937
tp5508
a(g4949
I00
g4947
tp5509
a(g4959
I00
g4957
tp5510
aasbasbasbasbasbasbasbag69
(g85
g71
NtRp5511
(dp5512
g74
(dp5513
sg83
g5381
sg76
(lp5514
g69
(g90
g71
NtRp5515
(dp5516
g74
(dp5517
sg83
g5511
sg76
(lp5518
g69
(g70
g71
NtRp5519
(dp5520
g74
(dp5521
g82
I2
ssg83
g5515
sg76
(lp5522
g69
(g78
g71
NtRp5523
(dp5524
g74
(dp5525
g82
I1
ssg83
Nsg76
(lp5526
g69
(g85
g71
NtRp5527
(dp5528
g74
(dp5529
sg83
g5523
sg76
(lp5530
g69
(g90
g71
NtRp5531
(dp5532
g74
(dp5533
sg83
g5527
sg76
(lp5534
g69
(g70
g71
NtRp5535
(dp5536
g74
(dp5537
g82
I1
ssg83
g5531
sg76
(lp5538
g4969
asbasbasbag69
(g85
g71
NtRp5539
(dp5540
g74
(dp5541
sg83
g5523
sg76
(lp5542
g69
(g90
g71
NtRp5543
(dp5544
g74
(dp5545
sg83
g5539
sg76
(lp5546
g69
(g70
g71
NtRp5547
(dp5548
g74
(dp5549
g82
I1
ssg83
g5543
sg76
(lp5550
I00
asbasbasbag69
(g85
g71
NtRp5551
(dp5552
g74
(dp5553
sg83
g5523
sg76
(lp5554
g69
(g90
g71
NtRp5555
(dp5556
g74
(dp5557
sg83
g5551
sg76
(lp5558
g69
(g70
g71
NtRp5559
(dp5560
g74
(dp5561
g82
I1
ssg83
g5555
sg76
(lp5562
g4967
asbasbasbag69
(g85
g71
NtRp5563
(dp5564
g74
(dp5565
sg83
g5523
sg76
(lp5566
g69
(g90
g71
NtRp5567
(dp5568
g74
(dp5569
sg83
g5563
sg76
(lp5570
g69
(g70
g71
NtRp5571
(dp5572
g74
(dp5573
g82
I1
ssg83
g5567
sg76
(lp5574
(lp5575
(g4983
I00
g4981
tp5576
a(g4993
I00
g4991
tp5577
a(g5003
I00
g5001
tp5578
a(g5013
I00
g5011
tp5579
a(g5023
I00
g5021
tp5580
a(g5033
I00
g5031
tp5581
a(g5043
I00
g5041
tp5582
a(g5053
I00
g5051
tp5583
a(g5063
I00
g5061
tp5584
a(g5073
I00
g5071
tp5585
a(g5083
I00
g5081
tp5586
aasbasbasbasbasbasbasbag69
(g85
g71
NtRp5587
(dp5588
g74
(dp5589
sg83
g5381
sg76
(lp5590
g69
(g90
g71
NtRp5591
(dp5592
g74
(dp5593
sg83
g5587
sg76
(lp5594
g69
(g70
g71
NtRp5595
(dp5596
g74
(dp5597
g82
I2
ssg83
g5591
sg76
(lp5598
g69
(g78
g71
NtRp5599
(dp5600
g74
(dp5601
g82
I1
ssg83
Nsg76
(lp5602
g69
(g85
g71
NtRp5603
(dp5604
g74
(dp5605
sg83
g5599
sg76
(lp5606
g69
(g90
g71
NtRp5607
(dp5608
g74
(dp5609
sg83
g5603
sg76
(lp5610
g69
(g70
g71
NtRp5611
(dp5612
g74
(dp5613
g82
I1
ssg83
g5607
sg76
(lp5614
g5093
asbasbasbag69
(g85
g71
NtRp5615
(dp5616
g74
(dp5617
sg83
g5599
sg76
(lp5618
g69
(g90
g71
NtRp5619
(dp5620
g74
(dp5621
sg83
g5615
sg76
(lp5622
g69
(g70
g71
NtRp5623
(dp5624
g74
(dp5625
g82
I1
ssg83
g5619
sg76
(lp5626
I00
asbasbasbag69
(g85
g71
NtRp5627
(dp5628
g74
(dp5629
sg83
g5599
sg76
(lp5630
g69
(g90
g71
NtRp5631
(dp5632
g74
(dp5633
sg83
g5627
sg76
(lp5634
g69
(g70
g71
NtRp5635
(dp5636
g74
(dp5637
g82
I1
ssg83
g5631
sg76
(lp5638
g5091
asbasbasbag69
(g85
g71
NtRp5639
(dp5640
g74
(dp5641
sg83
g5599
sg76
(lp5642
g69
(g90
g71
NtRp5643
(dp5644
g74
(dp5645
sg83
g5639
sg76
(lp5646
g69
(g70
g71
NtRp5647
(dp5648
g74
(dp5649
g82
I1
ssg83
g5643
sg76
(lp5650
(lp5651
(g5107
I00
g5105
tp5652
a(g5117
I00
g5115
tp5653
a(g5127
I00
g5125
tp5654
a(g5137
I00
g5135
tp5655
a(g5147
I00
g5145
tp5656
a(g5157
I00
g5155
tp5657
a(g5167
I00
g5165
tp5658
a(g5177
I00
g5175
tp5659
a(g5187
I00
g5185
tp5660
a(g5197
I00
g5195
tp5661
a(g5207
I00
g5205
tp5662
a(g5217
I00
g5215
tp5663
a(g5227
I00
g5225
tp5664
a(g5237
I00
g5235
tp5665
a(g5247
I00
g5245
tp5666
a(g5257
I00
g5255
tp5667
aasbasbasbasbasbasbasbag69
(g85
g71
NtRp5668
(dp5669
g74
(dp5670
sg83
g5381
sg76
(lp5671
g69
(g90
g71
NtRp5672
(dp5673
g74
(dp5674
sg83
g5668
sg76
(lp5675
g69
(g70
g71
NtRp5676
(dp5677
g74
(dp5678
g82
I2
ssg83
g5672
sg76
(lp5679
g69
(g78
g71
NtRp5680
(dp5681
g74
(dp5682
g82
I1
ssg83
Nsg76
(lp5683
g69
(g85
g71
NtRp5684
(dp5685
g74
(dp5686
sg83
g5680
sg76
(lp5687
g69
(g90
g71
NtRp5688
(dp5689
g74
(dp5690
sg83
g5684
sg76
(lp5691
g69
(g70
g71
NtRp5692
(dp5693
g74
(dp5694
g82
I1
ssg83
g5688
sg76
(lp5695
g5266
asbasbasbag69
(g85
g71
NtRp5696
(dp5697
g74
(dp5698
sg83
g5680
sg76
(lp5699
g69
(g90
g71
NtRp5700
(dp5701
g74
(dp5702
sg83
g5696
sg76
(lp5703
g69
(g70
g71
NtRp5704
(dp5705
g74
(dp5706
g82
I1
ssg83
g5700
sg76
(lp5707
I00
asbasbasbag69
(g85
g71
NtRp5708
(dp5709
g74
(dp5710
sg83
g5680
sg76
(lp5711
g69
(g90
g71
NtRp5712
(dp5713
g74
(dp5714
sg83
g5708
sg76
(lp5715
g69
(g70
g71
NtRp5716
(dp5717
g74
(dp5718
g82
I1
ssg83
g5712
sg76
(lp5719
Nasbasbasbag69
(g85
g71
NtRp5720
(dp5721
g74
(dp5722
sg83
g5680
sg76
(lp5723
g69
(g90
g71
NtRp5724
(dp5725
g74
(dp5726
sg83
g5720
sg76
(lp5727
g69
(g70
g71
NtRp5728
(dp5729
g74
(dp5730
g82
I1
ssg83
g5724
sg76
(lp5731
(lp5732
(g5280
I00
g5278
tp5733
a(g5290
I00
g5288
tp5734
a(g5300
I00
g5298
tp5735
aasbasbasbasbasbasbasbag69
(g85
g71
NtRp5736
(dp5737
g74
(dp5738
sg83
g5381
sg76
(lp5739
g69
(g90
g71
NtRp5740
(dp5741
g74
(dp5742
sg83
g5736
sg76
(lp5743
g69
(g70
g71
NtRp5744
(dp5745
g74
(dp5746
g82
I2
ssg83
g5740
sg76
(lp5747
g69
(g78
g71
NtRp5748
(dp5749
g74
(dp5750
g82
I1
ssg83
Nsg76
(lp5751
g69
(g85
g71
NtRp5752
(dp5753
g74
(dp5754
sg83
g5748
sg76
(lp5755
g69
(g90
g71
NtRp5756
(dp5757
g74
(dp5758
sg83
g5752
sg76
(lp5759
g69
(g70
g71
NtRp5760
(dp5761
g74
(dp5762
g82
I1
ssg83
g5756
sg76
(lp5763
g5309
asbasbasbag69
(g85
g71
NtRp5764
(dp5765
g74
(dp5766
sg83
g5748
sg76
(lp5767
g69
(g90
g71
NtRp5768
(dp5769
g74
(dp5770
sg83
g5764
sg76
(lp5771
g69
(g70
g71
NtRp5772
(dp5773
g74
(dp5774
g82
I1
ssg83
g5768
sg76
(lp5775
I00
asbasbasbag69
(g85
g71
NtRp5776
(dp5777
g74
(dp5778
sg83
g5748
sg76
(lp5779
g69
(g90
g71
NtRp5780
(dp5781
g74
(dp5782
sg83
g5776
sg76
(lp5783
g69
(g70
g71
NtRp5784
(dp5785
g74
(dp5786
g82
I1
ssg83
g5780
sg76
(lp5787
Nasbasbasbag69
(g85
g71
NtRp5788
(dp5789
g74
(dp5790
sg83
g5748
sg76
(lp5791
g69
(g90
g71
NtRp5792
(dp5793
g74
(dp5794
sg83
g5788
sg76
(lp5795
g69
(g70
g71
NtRp5796
(dp5797
g74
(dp5798
g82
I1
ssg83
g5792
sg76
(lp5799
(lp5800
(g5323
I00
g5321
tp5801
a(g5332
I00
g5051
tp5802
a(g5341
I00
g5061
tp5803
aasbasbasbasbasbasbasbasbasbasbasbasbasbasbasbasbasbasbasbag69
(g85
g71
NtRp5804
(dp5805
g74
(dp5806
sg83
g4071
sg76
(lp5807
g69
(g90
g71
NtRp5808
(dp5809
g74
(dp5810
g94
g95
ssg83
g5804
sg76
(lp5811
S'meta'
p5812
asbag69
(g90
g71
NtRp5813
(dp5814
g74
(dp5815
g101
g102
ssg83
g5804
sg76
(lp5816
S':'
asbag69
(g90
g71
NtRp5817
(dp5818
g74
(dp5819
sg83
g5804
sg76
(lp5820
g69
(g70
g71
NtRp5821
(dp5822
g74
(dp5823
g82
I5
ssg83
g5817
sg76
(lp5824
g69
(g78
g71
NtRp5825
(dp5826
g74
(dp5827
g82
I4
ssg83
Nsg76
(lp5828
g69
(g85
g71
NtRp5829
(dp5830
g74
(dp5831
sg83
g5825
sg76
(lp5832
g69
(g90
g71
NtRp5833
(dp5834
g74
(dp5835
g94
g95
ssg83
g5829
sg76
(lp5836
S'author'
p5837
asbag69
(g90
g71
NtRp5838
(dp5839
g74
(dp5840
g101
g102
ssg83
g5829
sg76
(lp5841
S':'
asbag69
(g90
g71
NtRp5842
(dp5843
g74
(dp5844
sg83
g5829
sg76
(lp5845
g69
(g70
g71
NtRp5846
(dp5847
g74
(dp5848
g82
I4
ssg83
g5842
sg76
(lp5849
S'Your Name <you@example.com>'
p5850
asbasbasbag69
(g85
g71
NtRp5851
(dp5852
g74
(dp5853
sg83
g5825
sg76
(lp5854
g69
(g90
g71
NtRp5855
(dp5856
g74
(dp5857
g94
g95
ssg83
g5851
sg76
(lp5858
S'copyright'
p5859
asbag69
(g90
g71
NtRp5860
(dp5861
g74
(dp5862
g101
g102
ssg83
g5851
sg76
(lp5863
S':'
asbag69
(g90
g71
NtRp5864
(dp5865
g74
(dp5866
sg83
g5851
sg76
(lp5867
g69
(g70
g71
NtRp5868
(dp5869
g74
(dp5870
g82
I4
ssg83
g5864
sg76
(lp5871
S'Copyright 2011'
p5872
asbasbasbag69
(g85
g71
NtRp5873
(dp5874
g74
(dp5875
sg83
g5825
sg76
(lp5876
g69
(g90
g71
NtRp5877
(dp5878
g74
(dp5879
g94
g95
ssg83
g5873
sg76
(lp5880
S'description'
p5881
asbag69
(g90
g71
NtRp5882
(dp5883
g74
(dp5884
g101
g102
ssg83
g5873
sg76
(lp5885
S':'
asbag69
(g90
g71
NtRp5886
(dp5887
g74
(dp5888
sg83
g5873
sg76
(lp5889
g69
(g70
g71
NtRp5890
(dp5891
g74
(dp5892
g82
I4
ssg83
g5886
sg76
(lp5893
S'a cool new app'
p5894
asbasbasbag69
(g85
g71
NtRp5895
(dp5896
g74
(dp5897
sg83
g5825
sg76
(lp5898
g69
(g90
g71
NtRp5899
(dp5900
g74
(dp5901
g94
g95
ssg83
g5895
sg76
(lp5902
S'generator'
p5903
asbag69
(g90
g71
NtRp5904
(dp5905
g74
(dp5906
g101
g102
ssg83
g5895
sg76
(lp5907
S':'
asbag69
(g90
g71
NtRp5908
(dp5909
g74
(dp5910
sg83
g5895
sg76
(lp5911
g69
(g70
g71
NtRp5912
(dp5913
g74
(dp5914
g82
I4
ssg83
g5908
sg76
(lp5915
S'Web2py Web Framework'
p5916
asbasbasbag69
(g85
g71
NtRp5917
(dp5918
g74
(dp5919
sg83
g5825
sg76
(lp5920
g69
(g90
g71
NtRp5921
(dp5922
g74
(dp5923
g94
g95
ssg83
g5917
sg76
(lp5924
S'keywords'
p5925
asbag69
(g90
g71
NtRp5926
(dp5927
g74
(dp5928
g101
g102
ssg83
g5917
sg76
(lp5929
S':'
asbag69
(g90
g71
NtRp5930
(dp5931
g74
(dp5932
sg83
g5917
sg76
(lp5933
g69
(g70
g71
NtRp5934
(dp5935
g74
(dp5936
g82
I4
ssg83
g5930
sg76
(lp5937
S'web2py, python, framework'
p5938
asbasbasbasbasbasbasbag69
(g85
g71
NtRp5939
(dp5940
g74
(dp5941
sg83
g4071
sg76
(lp5942
g69
(g90
g71
NtRp5943
(dp5944
g74
(dp5945
g94
g95
ssg83
g5939
sg76
(lp5946
S'postprocessing'
p5947
asbag69
(g90
g71
NtRp5948
(dp5949
g74
(dp5950
g101
g102
ssg83
g5939
sg76
(lp5951
S':'
asbag69
(g90
g71
NtRp5952
(dp5953
g74
(dp5954
sg83
g5939
sg76
(lp5955
g69
(g70
g71
NtRp5956
(dp5957
g74
(dp5958
g82
I5
ssg83
g5952
sg76
(lp5959
g69
(g78
g71
NtRp5960
(dp5961
g74
(dp5962
g82
I4
ssg83
Nsg76
(lp5963
sbasbasbasbag69
(g85
g71
NtRp5964
(dp5965
g74
(dp5966
sg83
g4071
sg76
(lp5967
g69
(g90
g71
NtRp5968
(dp5969
g74
(dp5970
g94
g95
ssg83
g5964
sg76
(lp5971
S'session_file'
p5972
asbag69
(g90
g71
NtRp5973
(dp5974
g74
(dp5975
g101
g102
ssg83
g5964
sg76
(lp5976
S':'
asbag69
(g90
g71
NtRp5977
(dp5978
g74
(dp5979
sg83
g5964
sg76
(lp5980
g69
(g70
g71
NtRp5981
(dp5982
g74
(dp5983
g82
I5
ssg83
g5977
sg76
(lp5984
S"<open file '/home/vishrut/web2py/applications/astra1/sessions/127.0.0.1-6c6943ea-9e10-4b64-9f35-8611eb020dd8', mode 'rb+' at 0xb01bbd0>"
p5985
asbasbasbag69
(g85
g71
NtRp5986
(dp5987
g74
(dp5988
sg83
g4071
sg76
(lp5989
g69
(g90
g71
NtRp5990
(dp5991
g74
(dp5992
g94
g95
ssg83
g5986
sg76
(lp5993
S'session_filename'
p5994
asbag69
(g90
g71
NtRp5995
(dp5996
g74
(dp5997
g101
g102
ssg83
g5986
sg76
(lp5998
S':'
asbag69
(g90
g71
NtRp5999
(dp6000
g74
(dp6001
sg83
g5986
sg76
(lp6002
g69
(g70
g71
NtRp6003
(dp6004
g74
(dp6005
g82
I5
ssg83
g5999
sg76
(lp6006
S'/home/vishrut/web2py/applications/astra1/sessions/127.0.0.1-6c6943ea-9e10-4b64-9f35-8611eb020dd8'
p6007
asbasbasbag69
(g85
g71
NtRp6008
(dp6009
g74
(dp6010
sg83
g4071
sg76
(lp6011
g69
(g90
g71
NtRp6012
(dp6013
g74
(dp6014
g94
g95
ssg83
g6008
sg76
(lp6015
S'session_id'
p6016
asbag69
(g90
g71
NtRp6017
(dp6018
g74
(dp6019
g101
g102
ssg83
g6008
sg76
(lp6020
S':'
asbag69
(g90
g71
NtRp6021
(dp6022
g74
(dp6023
sg83
g6008
sg76
(lp6024
g69
(g70
g71
NtRp6025
(dp6026
g74
(dp6027
g82
I5
ssg83
g6021
sg76
(lp6028
S'127.0.0.1-6c6943ea-9e10-4b64-9f35-8611eb020dd8'
p6029
asbasbasbag69
(g85
g71
NtRp6030
(dp6031
g74
(dp6032
sg83
g4071
sg76
(lp6033
g69
(g90
g71
NtRp6034
(dp6035
g74
(dp6036
g94
g95
ssg83
g6030
sg76
(lp6037
S'session_id_name'
p6038
asbag69
(g90
g71
NtRp6039
(dp6040
g74
(dp6041
g101
g102
ssg83
g6030
sg76
(lp6042
S':'
asbag69
(g90
g71
NtRp6043
(dp6044
g74
(dp6045
sg83
g6030
sg76
(lp6046
g69
(g70
g71
NtRp6047
(dp6048
g74
(dp6049
g82
I5
ssg83
g6043
sg76
(lp6050
g4128
asbasbasbag69
(g85
g71
NtRp6051
(dp6052
g74
(dp6053
sg83
g4071
sg76
(lp6054
g69
(g90
g71
NtRp6055
(dp6056
g74
(dp6057
g94
g95
ssg83
g6051
sg76
(lp6058
S'session_locked'
p6059
asbag69
(g90
g71
NtRp6060
(dp6061
g74
(dp6062
g101
g102
ssg83
g6051
sg76
(lp6063
S':'
asbag69
(g90
g71
NtRp6064
(dp6065
g74
(dp6066
sg83
g6051
sg76
(lp6067
g69
(g70
g71
NtRp6068
(dp6069
g74
(dp6070
g82
I5
ssg83
g6064
sg76
(lp6071
g2593
asbasbasbag69
(g85
g71
NtRp6072
(dp6073
g74
(dp6074
sg83
g4071
sg76
(lp6075
g69
(g90
g71
NtRp6076
(dp6077
g74
(dp6078
g94
g95
ssg83
g6072
sg76
(lp6079
S'session_new'
p6080
asbag69
(g90
g71
NtRp6081
(dp6082
g74
(dp6083
g101
g102
ssg83
g6072
sg76
(lp6084
S':'
asbag69
(g90
g71
NtRp6085
(dp6086
g74
(dp6087
sg83
g6072
sg76
(lp6088
g69
(g70
g71
NtRp6089
(dp6090
g74
(dp6091
g82
I5
ssg83
g6085
sg76
(lp6092
g112
asbasbasbag69
(g85
g71
NtRp6093
(dp6094
g74
(dp6095
sg83
g4071
sg76
(lp6096
g69
(g90
g71
NtRp6097
(dp6098
g74
(dp6099
g94
g95
ssg83
g6093
sg76
(lp6100
S'status'
p6101
asbag69
(g90
g71
NtRp6102
(dp6103
g74
(dp6104
g101
g102
ssg83
g6093
sg76
(lp6105
S':'
asbag69
(g90
g71
NtRp6106
(dp6107
g74
(dp6108
sg83
g6093
sg76
(lp6109
g69
(g70
g71
NtRp6110
(dp6111
g74
(dp6112
g82
I5
ssg83
g6106
sg76
(lp6113
S'200'
p6114
asbasbasbag69
(g85
g71
NtRp6115
(dp6116
g74
(dp6117
sg83
g4071
sg76
(lp6118
g69
(g90
g71
NtRp6119
(dp6120
g74
(dp6121
g94
g95
ssg83
g6115
sg76
(lp6122
S'subtitle'
p6123
asbag69
(g90
g71
NtRp6124
(dp6125
g74
(dp6126
g101
g102
ssg83
g6115
sg76
(lp6127
S':'
asbag69
(g90
g71
NtRp6128
(dp6129
g74
(dp6130
sg83
g6115
sg76
(lp6131
g69
(g70
g71
NtRp6132
(dp6133
g74
(dp6134
g82
I5
ssg83
g6128
sg76
(lp6135
g4732
(S's\r\x00\x00\x00customize me!'
tRp6136
asbasbasbag69
(g85
g71
NtRp6137
(dp6138
g74
(dp6139
sg83
g4071
sg76
(lp6140
g69
(g90
g71
NtRp6141
(dp6142
g74
(dp6143
g94
g95
ssg83
g6137
sg76
(lp6144
S'title'
p6145
asbag69
(g90
g71
NtRp6146
(dp6147
g74
(dp6148
g101
g102
ssg83
g6137
sg76
(lp6149
S':'
asbag69
(g90
g71
NtRp6150
(dp6151
g74
(dp6152
sg83
g6137
sg76
(lp6153
g69
(g70
g71
NtRp6154
(dp6155
g74
(dp6156
g82
I5
ssg83
g6150
sg76
(lp6157
S'Astra1'
p6158
asbasbasbag69
(g85
g71
NtRp6159
(dp6160
g74
(dp6161
sg83
g4071
sg76
(lp6162
g69
(g90
g71
NtRp6163
(dp6164
g74
(dp6165
g94
g95
ssg83
g6159
sg76
(lp6166
g3257
asbag69
(g90
g71
NtRp6167
(dp6168
g74
(dp6169
g101
g102
ssg83
g6159
sg76
(lp6170
S':'
asbag69
(g90
g71
NtRp6171
(dp6172
g74
(dp6173
sg83
g6159
sg76
(lp6174
g69
(g70
g71
NtRp6175
(dp6176
g74
(dp6177
g82
I5
ssg83
g6171
sg76
(lp6178
g3270
asbasbasbag69
(g85
g71
NtRp6179
(dp6180
g74
(dp6181
sg83
g4071
sg76
(lp6182
g69
(g90
g71
NtRp6183
(dp6184
g74
(dp6185
g94
g95
ssg83
g6179
sg76
(lp6186
S'view'
p6187
asbag69
(g90
g71
NtRp6188
(dp6189
g74
(dp6190
g101
g102
ssg83
g6179
sg76
(lp6191
S':'
asbag69
(g90
g71
NtRp6192
(dp6193
g74
(dp6194
sg83
g6179
sg76
(lp6195
g69
(g70
g71
NtRp6196
(dp6197
g74
(dp6198
g82
I5
ssg83
g6192
sg76
(lp6199
S'default/show.html'
p6200
asbasbasbasbasbsS'locals'
p6201
(dp6202
g3279
g21
sS'hash_vars'
p6203
g2593
sS'port'
p6204
S'None'
p6205
sS'current'
p6206
S'<thread._local object>'
p6207
sg121
S"'astra1'"
p6208
sS'user_signature'
p6209
S'None'
p6210
sg1746
S"<Storage {'debugging': False, 'http_user_agent':...[]), 'query_string': '', 'wsgi_run_once': False}>"
p6211
sS'url_encode'
p6212
g2593
sS'scheme'
p6213
S'None'
p6214
sg2738
S"''"
p6215
sS'encode_embedded_slash'
p6216
g112
sg52
S"['astra1', 'static', 'apple.ogv']"
p6217
sg211
S"'default'"
p6218
sS'a'
S'None'
p6219
sS'c'
S'None'
p6220
sS'function2'
p6221
S"'.html'"
p6222
sg2694
S'None'
p6223
sS'f'
S"''"
p6224
sS'items'
p6225
S"['', 'astra1', 'static', 'apple.ogv']"
p6226
sS'host'
p6227
S'None'
p6228
sS'hmac_key'
p6229
S'None'
p6230
sS'r'
S"<Storage {'body': <cStringIO.StringO object at 0..._vars': <Storage {}>, 'post_vars': <Storage {}>}>"
p6231
sS'salt'
p6232
S'None'
p6233
sS'anchor'
p6234
S"''"
p6235
sssS'traceback'
p6236
S'Traceback (most recent call last):\n  File "/home/vishrut/web2py/gluon/restricted.py", line 205, in restricted\n    exec ccode in environment\n  File "/home/vishrut/web2py/applications/astra1/views/default/show.html", line 88, in <module>\n  File "/home/vishrut/web2py/gluon/html.py", line 274, in URL\n    raise SyntaxError, \'not enough information to build the url\'\nSyntaxError: not enough information to build the url\n'
p6237
s.