(dp1
S'output'
p2
S"<type 'exceptions.SyntaxError'> invalid syntax (show.html, line 13)"
p3
sS'layer'
p4
S'/home/vishrut/web2py/applications/astra2/views/default/show.html'
p5
sS'code'
p6
S'response.write(\'<!DOCTYPE html PUBLIC "-//W3C//DTD XHTML 1.0 Transitional//EN" "http://www.w3.org/TR/xhtml1/DTD/xhtml1-transitional.dtd">\\n<html xmlns="http://www.w3.org/1999/xhtml">\\n<head>\\n<meta http-equiv="Content-Type" content="text/html; charset=utf-8" />\\n<title>ASTRA</title>\\n<link href="/astra2/static/INTERACTIVE.CSS" rel="stylesheet" type="text/css" />\\n<script type="text/javascript" src="/astra2/static/jquery-1.8.2.min.js"></script>\\n<script type="text/javascript" src="/astra2/static/interactive.js"></script>\\n\\n\\n</head>\\n<div style="margin-left:1220px">\\n<button type="button" onclick="document.location=\\\'\', escape=False)\nresponse.write(URL("logout"))\nresponse.write(\'\\\'">Logout</button>\\n<body class="page-body">\\n\\n</div>\\n <!--img src="/astra2/static/bookworm.gif" width="640" height="400" style="left: 400px; top: 500px;"> </img> \\n<!--  <a class="Play" style="left: 320px; top: 100px;"></a>\\n<a class="Pause" style="left: 390px; top: 100px;"></a>\\n<a class="Stop" style="left: 470px; top: 100px;"></a> -->\\n\\n<a class="media_containers" >\\n\', escape=False)\nxxx=db(db.kids.username==session.username).select().first().rno\nresponse.write(\'\\n\', escape=False)\nif xxx==None:\n    response.write(\'\\n<img src="/astra2/static/bookworm.gif" width="640" height="400"> </img>\\n<!--<a class="home" style="left: 67px; top: 15px;"></a>\\n  <a class="duck" style="right: 126px; top: 207px;"></a>-->\\n  \\n<a class="poo" style="right:151px; top: 525px;"></a>\\n\', escape=False)\nelse:\n    response.write(\'\\n\', escape=False)\n    vid=db(db.rooms.rnum==xxx).select().first().flashfile\n    response.write(\'\\n\', escape=False)\n    response.write(URL(\'download\',vid)\n    response.write(\'\\n<!--<object width="640" height="400">\\n    <param name="movie" value="\', escape=False)\n    response.write(URL(\'static\', vid+\'.swf\'))\n    response.write(\'">\\n    <embed src="\', escape=False)\n    response.write(URL(\'download\', ))\n    response.write(\'" width="640" height="400">\\n    </embed>\\n</object>-->\\n<!--<video width="640" height="400" controls="controls">  \\n        <source src="\', escape=False)\n    response.write(URL(\'static\', vid+\'.ogv\'))\n    response.write(\'" type="video/ogg">\\n</video>-->\\n\', escape=False)\n    pass\nresponse.write(\'</a>\\n\\n<div class="members_containers" style="overflow:auto;"><b>Roommates</b>\\n\', escape=False)\nxxx=db(db.kids.username==session.username).select().first().rno\nresponse.write(\'\\n\', escape=False)\nif xxx==None:\n    response.write(\'\\n\\n\', escape=False)\nelse:\n    response.write(\'\\n\', escape=False)\n    for mate in db(db.kids.rno==xxx).select():\n        response.write(\'\\n\', escape=False)\n        if mate.username!=session.username:\n            response.write(\'\\n<p>\', escape=False)\n            response.write(mate.username)\n            response.write(\'</p>\\n\', escape=False)\n            pass\n        response.write(\'\\n\', escape=False)\n        pass\n    response.write(\'\\n\', escape=False)\n    pass\nresponse.write(\'\\n\\n</div>\\n\\n<div class="story_containers" style="overflow:auto;"><b>virtual rooms</b></br>\\n\\n\', escape=False)\nfor row in db(db.rooms.active==True).select(orderby=db.rooms.rnum):\n    response.write(\'\\n<a class="link" href=\', escape=False)\n    response.write(URL(\'enter\', args=row.rnum))\n    response.write(\'><img src="\', escape=False)\n    response.write("../appadmin/download/db/"+row.file)\n    response.write(\'"></img></a></br>\\n\', escape=False)\n    pass\nresponse.write(\'\\n</div>\\n\\n\\n\\n</div>\\n<!--<button onclick="hide()" class="play">Play</button> \\n<button onckick="unhide()" class="play1">Pause</button>-->\\n\\n</body>\\n\\n\', escape=False)\nresponse.write(BEAUTIFY(response._vars))\nresponse.write(\'\\n</html>\\n\', escape=False)'
p7
sS'snapshot'
p8
(dp9
S'exception'
p10
(dp11
S'__getslice__'
p12
S"<method-wrapper '__getslice__' of exceptions.SyntaxError object>"
p13
sS'text'
p14
S'\'    response.write(\\\'\\\\n<!--<object width="640" he...n    <param name="movie" value="\\\', escape=False)\\n\''
p15
sS'__str__'
p16
S"<method-wrapper '__str__' of exceptions.SyntaxError object>"
p17
sS'__reduce__'
p18
S'<built-in method __reduce__ of exceptions.SyntaxError object>'
p19
sS'__dict__'
p20
S'{}'
p21
sS'__sizeof__'
p22
S'<built-in method __sizeof__ of exceptions.SyntaxError object>'
p23
sS'__init__'
p24
S"<method-wrapper '__init__' of exceptions.SyntaxError object>"
p25
sS'__setattr__'
p26
S"<method-wrapper '__setattr__' of exceptions.SyntaxError object>"
p27
sS'__reduce_ex__'
p28
S'<built-in method __reduce_ex__ of exceptions.SyntaxError object>'
p29
sS'__new__'
p30
S'<built-in method __new__ of type object>'
p31
sS'__format__'
p32
S'<built-in method __format__ of exceptions.SyntaxError object>'
p33
sS'__class__'
p34
S"<type 'exceptions.SyntaxError'>"
p35
sS'filename'
p36
S"'/home/vishrut/web2py/applications/astra2/views/default/show.html'"
p37
sS'lineno'
p38
S'13'
p39
sS'msg'
p40
S"'invalid syntax'"
p41
sS'__doc__'
p42
S"'Invalid syntax.'"
p43
sS'__getitem__'
p44
S"<method-wrapper '__getitem__' of exceptions.SyntaxError object>"
p45
sS'__setstate__'
p46
S'<built-in method __setstate__ of exceptions.SyntaxError object>'
p47
sS'__getattribute__'
p48
S"<method-wrapper '__getattribute__' of exceptions.SyntaxError object>"
p49
sS'print_file_and_line'
p50
S'None'
p51
sS'args'
p52
S'(\'invalid syntax\', (\'/home/vishrut/web2py/applications/astra2/views/default/show.html\', 13, 12, \'    response.write(\\\'\\\\n<!--<object width="640" he...n    <param name="movie" value="\\\', escape=False)\\n\'))'
p53
sS'__subclasshook__'
p54
S'<built-in method __subclasshook__ of type object>'
p55
sS'offset'
p56
S'12'
p57
sS'__unicode__'
p58
S'<built-in method __unicode__ of exceptions.SyntaxError object>'
p59
sS'__delattr__'
p60
S"<method-wrapper '__delattr__' of exceptions.SyntaxError object>"
p61
sS'__repr__'
p62
S"<method-wrapper '__repr__' of exceptions.SyntaxError object>"
p63
sS'__hash__'
p64
S"<method-wrapper '__hash__' of exceptions.SyntaxError object>"
p65
ssS'evalue'
p66
S'invalid syntax (show.html, line 13)'
p67
sS'request'
p68
ccopy_reg
_reconstructor
p69
(cgluon.html
BEAUTIFY
p70
c__builtin__
object
p71
NtRp72
(dp73
S'attributes'
p74
(dp75
sS'components'
p76
(lp77
g69
(cgluon.html
TABLE
p78
g71
NtRp79
(dp80
g74
(dp81
S'level'
p82
I5
ssS'parent'
p83
Nsg76
(lp84
g69
(cgluon.html
TR
p85
g71
NtRp86
(dp87
g74
(dp88
sg83
g79
sg76
(lp89
g69
(cgluon.html
TD
p90
g71
NtRp91
(dp92
g74
(dp93
S'_style'
p94
S'font-weight:bold;vertical-align:top'
p95
ssg83
g86
sg76
(lp96
S'ajax'
p97
asbag69
(g90
g71
NtRp98
(dp99
g74
(dp100
S'_valign'
p101
S'top'
p102
ssg83
g86
sg76
(lp103
S':'
asbag69
(g90
g71
NtRp104
(dp105
g74
(dp106
sg83
g86
sg76
(lp107
g69
(g70
g71
NtRp108
(dp109
g74
(dp110
g82
I5
ssg83
g104
sg76
(lp111
S'False'
p112
asbasbasbag69
(g85
g71
NtRp113
(dp114
g74
(dp115
sg83
g79
sg76
(lp116
g69
(g90
g71
NtRp117
(dp118
g74
(dp119
g94
g95
ssg83
g113
sg76
(lp120
S'application'
p121
asbag69
(g90
g71
NtRp122
(dp123
g74
(dp124
g101
g102
ssg83
g113
sg76
(lp125
S':'
asbag69
(g90
g71
NtRp126
(dp127
g74
(dp128
sg83
g113
sg76
(lp129
g69
(g70
g71
NtRp130
(dp131
g74
(dp132
g82
I5
ssg83
g126
sg76
(lp133
S'astra2'
p134
asbasbasbag69
(g85
g71
NtRp135
(dp136
g74
(dp137
sg83
g79
sg76
(lp138
g69
(g90
g71
NtRp139
(dp140
g74
(dp141
g94
g95
ssg83
g135
sg76
(lp142
g52
asbag69
(g90
g71
NtRp143
(dp144
g74
(dp145
g101
g102
ssg83
g135
sg76
(lp146
S':'
asbag69
(g90
g71
NtRp147
(dp148
g74
(dp149
sg83
g135
sg76
(lp150
g69
(g70
g71
NtRp151
(dp152
g74
(dp153
g82
I5
ssg83
g147
sg76
(lp154
g69
(g78
g71
NtRp155
(dp156
g74
(dp157
g82
I4
ssg83
Nsg76
(lp158
sbasbasbasbag69
(g85
g71
NtRp159
(dp160
g74
(dp161
sg83
g79
sg76
(lp162
g69
(g90
g71
NtRp163
(dp164
g74
(dp165
g94
g95
ssg83
g159
sg76
(lp166
S'body'
p167
asbag69
(g90
g71
NtRp168
(dp169
g74
(dp170
g101
g102
ssg83
g159
sg76
(lp171
S':'
asbag69
(g90
g71
NtRp172
(dp173
g74
(dp174
sg83
g159
sg76
(lp175
g69
(g70
g71
NtRp176
(dp177
g74
(dp178
g82
I5
ssg83
g172
sg76
(lp179
S'<cStringIO.StringO object at 0xa7ef560>'
p180
asbasbasbag69
(g85
g71
NtRp181
(dp182
g74
(dp183
sg83
g79
sg76
(lp184
g69
(g90
g71
NtRp185
(dp186
g74
(dp187
g94
g95
ssg83
g181
sg76
(lp188
S'client'
p189
asbag69
(g90
g71
NtRp190
(dp191
g74
(dp192
g101
g102
ssg83
g181
sg76
(lp193
S':'
asbag69
(g90
g71
NtRp194
(dp195
g74
(dp196
sg83
g181
sg76
(lp197
g69
(g70
g71
NtRp198
(dp199
g74
(dp200
g82
I5
ssg83
g194
sg76
(lp201
S'127.0.0.1'
p202
asbasbasbag69
(g85
g71
NtRp203
(dp204
g74
(dp205
sg83
g79
sg76
(lp206
g69
(g90
g71
NtRp207
(dp208
g74
(dp209
g94
g95
ssg83
g203
sg76
(lp210
S'controller'
p211
asbag69
(g90
g71
NtRp212
(dp213
g74
(dp214
g101
g102
ssg83
g203
sg76
(lp215
S':'
asbag69
(g90
g71
NtRp216
(dp217
g74
(dp218
sg83
g203
sg76
(lp219
g69
(g70
g71
NtRp220
(dp221
g74
(dp222
g82
I5
ssg83
g216
sg76
(lp223
S'default'
p224
asbasbasbag69
(g85
g71
NtRp225
(dp226
g74
(dp227
sg83
g79
sg76
(lp228
g69
(g90
g71
NtRp229
(dp230
g74
(dp231
g94
g95
ssg83
g225
sg76
(lp232
S'cookies'
p233
asbag69
(g90
g71
NtRp234
(dp235
g74
(dp236
g101
g102
ssg83
g225
sg76
(lp237
S':'
asbag69
(g90
g71
NtRp238
(dp239
g74
(dp240
sg83
g225
sg76
(lp241
g69
(g70
g71
NtRp242
(dp243
g74
(dp244
g82
I5
ssg83
g238
sg76
(lp245
g69
(g78
g71
NtRp246
(dp247
g74
(dp248
g82
I4
ssg83
Nsg76
(lp249
g69
(g85
g71
NtRp250
(dp251
g74
(dp252
sg83
g246
sg76
(lp253
g69
(g90
g71
NtRp254
(dp255
g74
(dp256
g94
g95
ssg83
g250
sg76
(lp257
S'registered'
p258
asbag69
(g90
g71
NtRp259
(dp260
g74
(dp261
g101
g102
ssg83
g250
sg76
(lp262
S':'
asbag69
(g90
g71
NtRp263
(dp264
g74
(dp265
sg83
g250
sg76
(lp266
g69
(g70
g71
NtRp267
(dp268
g74
(dp269
g82
I4
ssg83
g263
sg76
(lp270
g69
(g78
g71
NtRp271
(dp272
g74
(dp273
g82
I3
ssg83
Nsg76
(lp274
g69
(g85
g71
NtRp275
(dp276
g74
(dp277
sg83
g271
sg76
(lp278
g69
(g90
g71
NtRp279
(dp280
g74
(dp281
g94
g95
ssg83
g275
sg76
(lp282
S'comment'
p283
asbag69
(g90
g71
NtRp284
(dp285
g74
(dp286
g101
g102
ssg83
g275
sg76
(lp287
S':'
asbag69
(g90
g71
NtRp288
(dp289
g74
(dp290
sg83
g275
sg76
(lp291
g69
(g70
g71
NtRp292
(dp293
g74
(dp294
g82
I3
ssg83
g288
sg76
(lp295
S''
asbasbasbag69
(g85
g71
NtRp296
(dp297
g74
(dp298
sg83
g271
sg76
(lp299
g69
(g90
g71
NtRp300
(dp301
g74
(dp302
g94
g95
ssg83
g296
sg76
(lp303
S'domain'
p304
asbag69
(g90
g71
NtRp305
(dp306
g74
(dp307
g101
g102
ssg83
g296
sg76
(lp308
S':'
asbag69
(g90
g71
NtRp309
(dp310
g74
(dp311
sg83
g296
sg76
(lp312
g69
(g70
g71
NtRp313
(dp314
g74
(dp315
g82
I3
ssg83
g309
sg76
(lp316
S''
asbasbasbag69
(g85
g71
NtRp317
(dp318
g74
(dp319
sg83
g271
sg76
(lp320
g69
(g90
g71
NtRp321
(dp322
g74
(dp323
g94
g95
ssg83
g317
sg76
(lp324
S'expires'
p325
asbag69
(g90
g71
NtRp326
(dp327
g74
(dp328
g101
g102
ssg83
g317
sg76
(lp329
S':'
asbag69
(g90
g71
NtRp330
(dp331
g74
(dp332
sg83
g317
sg76
(lp333
g69
(g70
g71
NtRp334
(dp335
g74
(dp336
g82
I3
ssg83
g330
sg76
(lp337
S''
asbasbasbag69
(g85
g71
NtRp338
(dp339
g74
(dp340
sg83
g271
sg76
(lp341
g69
(g90
g71
NtRp342
(dp343
g74
(dp344
g94
g95
ssg83
g338
sg76
(lp345
S'httponly'
p346
asbag69
(g90
g71
NtRp347
(dp348
g74
(dp349
g101
g102
ssg83
g338
sg76
(lp350
S':'
asbag69
(g90
g71
NtRp351
(dp352
g74
(dp353
sg83
g338
sg76
(lp354
g69
(g70
g71
NtRp355
(dp356
g74
(dp357
g82
I3
ssg83
g351
sg76
(lp358
S''
asbasbasbag69
(g85
g71
NtRp359
(dp360
g74
(dp361
sg83
g271
sg76
(lp362
g69
(g90
g71
NtRp363
(dp364
g74
(dp365
g94
g95
ssg83
g359
sg76
(lp366
S'max-age'
p367
asbag69
(g90
g71
NtRp368
(dp369
g74
(dp370
g101
g102
ssg83
g359
sg76
(lp371
S':'
asbag69
(g90
g71
NtRp372
(dp373
g74
(dp374
sg83
g359
sg76
(lp375
g69
(g70
g71
NtRp376
(dp377
g74
(dp378
g82
I3
ssg83
g372
sg76
(lp379
S''
asbasbasbag69
(g85
g71
NtRp380
(dp381
g74
(dp382
sg83
g271
sg76
(lp383
g69
(g90
g71
NtRp384
(dp385
g74
(dp386
g94
g95
ssg83
g380
sg76
(lp387
S'path'
p388
asbag69
(g90
g71
NtRp389
(dp390
g74
(dp391
g101
g102
ssg83
g380
sg76
(lp392
S':'
asbag69
(g90
g71
NtRp393
(dp394
g74
(dp395
sg83
g380
sg76
(lp396
g69
(g70
g71
NtRp397
(dp398
g74
(dp399
g82
I3
ssg83
g393
sg76
(lp400
S''
asbasbasbag69
(g85
g71
NtRp401
(dp402
g74
(dp403
sg83
g271
sg76
(lp404
g69
(g90
g71
NtRp405
(dp406
g74
(dp407
g94
g95
ssg83
g401
sg76
(lp408
S'secure'
p409
asbag69
(g90
g71
NtRp410
(dp411
g74
(dp412
g101
g102
ssg83
g401
sg76
(lp413
S':'
asbag69
(g90
g71
NtRp414
(dp415
g74
(dp416
sg83
g401
sg76
(lp417
g69
(g70
g71
NtRp418
(dp419
g74
(dp420
g82
I3
ssg83
g414
sg76
(lp421
S''
asbasbasbag69
(g85
g71
NtRp422
(dp423
g74
(dp424
sg83
g271
sg76
(lp425
g69
(g90
g71
NtRp426
(dp427
g74
(dp428
g94
g95
ssg83
g422
sg76
(lp429
S'version'
p430
asbag69
(g90
g71
NtRp431
(dp432
g74
(dp433
g101
g102
ssg83
g422
sg76
(lp434
S':'
asbag69
(g90
g71
NtRp435
(dp436
g74
(dp437
sg83
g422
sg76
(lp438
g69
(g70
g71
NtRp439
(dp440
g74
(dp441
g82
I3
ssg83
g435
sg76
(lp442
S''
asbasbasbasbasbasbasbag69
(g85
g71
NtRp443
(dp444
g74
(dp445
sg83
g246
sg76
(lp446
g69
(g90
g71
NtRp447
(dp448
g74
(dp449
g94
g95
ssg83
g443
sg76
(lp450
S'session_id_admin'
p451
asbag69
(g90
g71
NtRp452
(dp453
g74
(dp454
g101
g102
ssg83
g443
sg76
(lp455
S':'
asbag69
(g90
g71
NtRp456
(dp457
g74
(dp458
sg83
g443
sg76
(lp459
g69
(g70
g71
NtRp460
(dp461
g74
(dp462
g82
I4
ssg83
g456
sg76
(lp463
g69
(g78
g71
NtRp464
(dp465
g74
(dp466
g82
I3
ssg83
Nsg76
(lp467
g69
(g85
g71
NtRp468
(dp469
g74
(dp470
sg83
g464
sg76
(lp471
g69
(g90
g71
NtRp472
(dp473
g74
(dp474
g94
g95
ssg83
g468
sg76
(lp475
g283
asbag69
(g90
g71
NtRp476
(dp477
g74
(dp478
g101
g102
ssg83
g468
sg76
(lp479
S':'
asbag69
(g90
g71
NtRp480
(dp481
g74
(dp482
sg83
g468
sg76
(lp483
g69
(g70
g71
NtRp484
(dp485
g74
(dp486
g82
I3
ssg83
g480
sg76
(lp487
S''
asbasbasbag69
(g85
g71
NtRp488
(dp489
g74
(dp490
sg83
g464
sg76
(lp491
g69
(g90
g71
NtRp492
(dp493
g74
(dp494
g94
g95
ssg83
g488
sg76
(lp495
g304
asbag69
(g90
g71
NtRp496
(dp497
g74
(dp498
g101
g102
ssg83
g488
sg76
(lp499
S':'
asbag69
(g90
g71
NtRp500
(dp501
g74
(dp502
sg83
g488
sg76
(lp503
g69
(g70
g71
NtRp504
(dp505
g74
(dp506
g82
I3
ssg83
g500
sg76
(lp507
S''
asbasbasbag69
(g85
g71
NtRp508
(dp509
g74
(dp510
sg83
g464
sg76
(lp511
g69
(g90
g71
NtRp512
(dp513
g74
(dp514
g94
g95
ssg83
g508
sg76
(lp515
g325
asbag69
(g90
g71
NtRp516
(dp517
g74
(dp518
g101
g102
ssg83
g508
sg76
(lp519
S':'
asbag69
(g90
g71
NtRp520
(dp521
g74
(dp522
sg83
g508
sg76
(lp523
g69
(g70
g71
NtRp524
(dp525
g74
(dp526
g82
I3
ssg83
g520
sg76
(lp527
S''
asbasbasbag69
(g85
g71
NtRp528
(dp529
g74
(dp530
sg83
g464
sg76
(lp531
g69
(g90
g71
NtRp532
(dp533
g74
(dp534
g94
g95
ssg83
g528
sg76
(lp535
g346
asbag69
(g90
g71
NtRp536
(dp537
g74
(dp538
g101
g102
ssg83
g528
sg76
(lp539
S':'
asbag69
(g90
g71
NtRp540
(dp541
g74
(dp542
sg83
g528
sg76
(lp543
g69
(g70
g71
NtRp544
(dp545
g74
(dp546
g82
I3
ssg83
g540
sg76
(lp547
S''
asbasbasbag69
(g85
g71
NtRp548
(dp549
g74
(dp550
sg83
g464
sg76
(lp551
g69
(g90
g71
NtRp552
(dp553
g74
(dp554
g94
g95
ssg83
g548
sg76
(lp555
g367
asbag69
(g90
g71
NtRp556
(dp557
g74
(dp558
g101
g102
ssg83
g548
sg76
(lp559
S':'
asbag69
(g90
g71
NtRp560
(dp561
g74
(dp562
sg83
g548
sg76
(lp563
g69
(g70
g71
NtRp564
(dp565
g74
(dp566
g82
I3
ssg83
g560
sg76
(lp567
S''
asbasbasbag69
(g85
g71
NtRp568
(dp569
g74
(dp570
sg83
g464
sg76
(lp571
g69
(g90
g71
NtRp572
(dp573
g74
(dp574
g94
g95
ssg83
g568
sg76
(lp575
g388
asbag69
(g90
g71
NtRp576
(dp577
g74
(dp578
g101
g102
ssg83
g568
sg76
(lp579
S':'
asbag69
(g90
g71
NtRp580
(dp581
g74
(dp582
sg83
g568
sg76
(lp583
g69
(g70
g71
NtRp584
(dp585
g74
(dp586
g82
I3
ssg83
g580
sg76
(lp587
S''
asbasbasbag69
(g85
g71
NtRp588
(dp589
g74
(dp590
sg83
g464
sg76
(lp591
g69
(g90
g71
NtRp592
(dp593
g74
(dp594
g94
g95
ssg83
g588
sg76
(lp595
g409
asbag69
(g90
g71
NtRp596
(dp597
g74
(dp598
g101
g102
ssg83
g588
sg76
(lp599
S':'
asbag69
(g90
g71
NtRp600
(dp601
g74
(dp602
sg83
g588
sg76
(lp603
g69
(g70
g71
NtRp604
(dp605
g74
(dp606
g82
I3
ssg83
g600
sg76
(lp607
S''
asbasbasbag69
(g85
g71
NtRp608
(dp609
g74
(dp610
sg83
g464
sg76
(lp611
g69
(g90
g71
NtRp612
(dp613
g74
(dp614
g94
g95
ssg83
g608
sg76
(lp615
g430
asbag69
(g90
g71
NtRp616
(dp617
g74
(dp618
g101
g102
ssg83
g608
sg76
(lp619
S':'
asbag69
(g90
g71
NtRp620
(dp621
g74
(dp622
sg83
g608
sg76
(lp623
g69
(g70
g71
NtRp624
(dp625
g74
(dp626
g82
I3
ssg83
g620
sg76
(lp627
S''
asbasbasbasbasbasbasbag69
(g85
g71
NtRp628
(dp629
g74
(dp630
sg83
g246
sg76
(lp631
g69
(g90
g71
NtRp632
(dp633
g74
(dp634
g94
g95
ssg83
g628
sg76
(lp635
S'session_id_astra2'
p636
asbag69
(g90
g71
NtRp637
(dp638
g74
(dp639
g101
g102
ssg83
g628
sg76
(lp640
S':'
asbag69
(g90
g71
NtRp641
(dp642
g74
(dp643
sg83
g628
sg76
(lp644
g69
(g70
g71
NtRp645
(dp646
g74
(dp647
g82
I4
ssg83
g641
sg76
(lp648
g69
(g78
g71
NtRp649
(dp650
g74
(dp651
g82
I3
ssg83
Nsg76
(lp652
g69
(g85
g71
NtRp653
(dp654
g74
(dp655
sg83
g649
sg76
(lp656
g69
(g90
g71
NtRp657
(dp658
g74
(dp659
g94
g95
ssg83
g653
sg76
(lp660
g283
asbag69
(g90
g71
NtRp661
(dp662
g74
(dp663
g101
g102
ssg83
g653
sg76
(lp664
S':'
asbag69
(g90
g71
NtRp665
(dp666
g74
(dp667
sg83
g653
sg76
(lp668
g69
(g70
g71
NtRp669
(dp670
g74
(dp671
g82
I3
ssg83
g665
sg76
(lp672
S''
asbasbasbag69
(g85
g71
NtRp673
(dp674
g74
(dp675
sg83
g649
sg76
(lp676
g69
(g90
g71
NtRp677
(dp678
g74
(dp679
g94
g95
ssg83
g673
sg76
(lp680
g304
asbag69
(g90
g71
NtRp681
(dp682
g74
(dp683
g101
g102
ssg83
g673
sg76
(lp684
S':'
asbag69
(g90
g71
NtRp685
(dp686
g74
(dp687
sg83
g673
sg76
(lp688
g69
(g70
g71
NtRp689
(dp690
g74
(dp691
g82
I3
ssg83
g685
sg76
(lp692
S''
asbasbasbag69
(g85
g71
NtRp693
(dp694
g74
(dp695
sg83
g649
sg76
(lp696
g69
(g90
g71
NtRp697
(dp698
g74
(dp699
g94
g95
ssg83
g693
sg76
(lp700
g325
asbag69
(g90
g71
NtRp701
(dp702
g74
(dp703
g101
g102
ssg83
g693
sg76
(lp704
S':'
asbag69
(g90
g71
NtRp705
(dp706
g74
(dp707
sg83
g693
sg76
(lp708
g69
(g70
g71
NtRp709
(dp710
g74
(dp711
g82
I3
ssg83
g705
sg76
(lp712
S''
asbasbasbag69
(g85
g71
NtRp713
(dp714
g74
(dp715
sg83
g649
sg76
(lp716
g69
(g90
g71
NtRp717
(dp718
g74
(dp719
g94
g95
ssg83
g713
sg76
(lp720
g346
asbag69
(g90
g71
NtRp721
(dp722
g74
(dp723
g101
g102
ssg83
g713
sg76
(lp724
S':'
asbag69
(g90
g71
NtRp725
(dp726
g74
(dp727
sg83
g713
sg76
(lp728
g69
(g70
g71
NtRp729
(dp730
g74
(dp731
g82
I3
ssg83
g725
sg76
(lp732
S''
asbasbasbag69
(g85
g71
NtRp733
(dp734
g74
(dp735
sg83
g649
sg76
(lp736
g69
(g90
g71
NtRp737
(dp738
g74
(dp739
g94
g95
ssg83
g733
sg76
(lp740
g367
asbag69
(g90
g71
NtRp741
(dp742
g74
(dp743
g101
g102
ssg83
g733
sg76
(lp744
S':'
asbag69
(g90
g71
NtRp745
(dp746
g74
(dp747
sg83
g733
sg76
(lp748
g69
(g70
g71
NtRp749
(dp750
g74
(dp751
g82
I3
ssg83
g745
sg76
(lp752
S''
asbasbasbag69
(g85
g71
NtRp753
(dp754
g74
(dp755
sg83
g649
sg76
(lp756
g69
(g90
g71
NtRp757
(dp758
g74
(dp759
g94
g95
ssg83
g753
sg76
(lp760
g388
asbag69
(g90
g71
NtRp761
(dp762
g74
(dp763
g101
g102
ssg83
g753
sg76
(lp764
S':'
asbag69
(g90
g71
NtRp765
(dp766
g74
(dp767
sg83
g753
sg76
(lp768
g69
(g70
g71
NtRp769
(dp770
g74
(dp771
g82
I3
ssg83
g765
sg76
(lp772
S''
asbasbasbag69
(g85
g71
NtRp773
(dp774
g74
(dp775
sg83
g649
sg76
(lp776
g69
(g90
g71
NtRp777
(dp778
g74
(dp779
g94
g95
ssg83
g773
sg76
(lp780
g409
asbag69
(g90
g71
NtRp781
(dp782
g74
(dp783
g101
g102
ssg83
g773
sg76
(lp784
S':'
asbag69
(g90
g71
NtRp785
(dp786
g74
(dp787
sg83
g773
sg76
(lp788
g69
(g70
g71
NtRp789
(dp790
g74
(dp791
g82
I3
ssg83
g785
sg76
(lp792
S''
asbasbasbag69
(g85
g71
NtRp793
(dp794
g74
(dp795
sg83
g649
sg76
(lp796
g69
(g90
g71
NtRp797
(dp798
g74
(dp799
g94
g95
ssg83
g793
sg76
(lp800
g430
asbag69
(g90
g71
NtRp801
(dp802
g74
(dp803
g101
g102
ssg83
g793
sg76
(lp804
S':'
asbag69
(g90
g71
NtRp805
(dp806
g74
(dp807
sg83
g793
sg76
(lp808
g69
(g70
g71
NtRp809
(dp810
g74
(dp811
g82
I3
ssg83
g805
sg76
(lp812
S''
asbasbasbasbasbasbasbag69
(g85
g71
NtRp813
(dp814
g74
(dp815
sg83
g246
sg76
(lp816
g69
(g90
g71
NtRp817
(dp818
g74
(dp819
g94
g95
ssg83
g813
sg76
(lp820
S'session_id_astra3'
p821
asbag69
(g90
g71
NtRp822
(dp823
g74
(dp824
g101
g102
ssg83
g813
sg76
(lp825
S':'
asbag69
(g90
g71
NtRp826
(dp827
g74
(dp828
sg83
g813
sg76
(lp829
g69
(g70
g71
NtRp830
(dp831
g74
(dp832
g82
I4
ssg83
g826
sg76
(lp833
g69
(g78
g71
NtRp834
(dp835
g74
(dp836
g82
I3
ssg83
Nsg76
(lp837
g69
(g85
g71
NtRp838
(dp839
g74
(dp840
sg83
g834
sg76
(lp841
g69
(g90
g71
NtRp842
(dp843
g74
(dp844
g94
g95
ssg83
g838
sg76
(lp845
g283
asbag69
(g90
g71
NtRp846
(dp847
g74
(dp848
g101
g102
ssg83
g838
sg76
(lp849
S':'
asbag69
(g90
g71
NtRp850
(dp851
g74
(dp852
sg83
g838
sg76
(lp853
g69
(g70
g71
NtRp854
(dp855
g74
(dp856
g82
I3
ssg83
g850
sg76
(lp857
S''
asbasbasbag69
(g85
g71
NtRp858
(dp859
g74
(dp860
sg83
g834
sg76
(lp861
g69
(g90
g71
NtRp862
(dp863
g74
(dp864
g94
g95
ssg83
g858
sg76
(lp865
g304
asbag69
(g90
g71
NtRp866
(dp867
g74
(dp868
g101
g102
ssg83
g858
sg76
(lp869
S':'
asbag69
(g90
g71
NtRp870
(dp871
g74
(dp872
sg83
g858
sg76
(lp873
g69
(g70
g71
NtRp874
(dp875
g74
(dp876
g82
I3
ssg83
g870
sg76
(lp877
S''
asbasbasbag69
(g85
g71
NtRp878
(dp879
g74
(dp880
sg83
g834
sg76
(lp881
g69
(g90
g71
NtRp882
(dp883
g74
(dp884
g94
g95
ssg83
g878
sg76
(lp885
g325
asbag69
(g90
g71
NtRp886
(dp887
g74
(dp888
g101
g102
ssg83
g878
sg76
(lp889
S':'
asbag69
(g90
g71
NtRp890
(dp891
g74
(dp892
sg83
g878
sg76
(lp893
g69
(g70
g71
NtRp894
(dp895
g74
(dp896
g82
I3
ssg83
g890
sg76
(lp897
S''
asbasbasbag69
(g85
g71
NtRp898
(dp899
g74
(dp900
sg83
g834
sg76
(lp901
g69
(g90
g71
NtRp902
(dp903
g74
(dp904
g94
g95
ssg83
g898
sg76
(lp905
g346
asbag69
(g90
g71
NtRp906
(dp907
g74
(dp908
g101
g102
ssg83
g898
sg76
(lp909
S':'
asbag69
(g90
g71
NtRp910
(dp911
g74
(dp912
sg83
g898
sg76
(lp913
g69
(g70
g71
NtRp914
(dp915
g74
(dp916
g82
I3
ssg83
g910
sg76
(lp917
S''
asbasbasbag69
(g85
g71
NtRp918
(dp919
g74
(dp920
sg83
g834
sg76
(lp921
g69
(g90
g71
NtRp922
(dp923
g74
(dp924
g94
g95
ssg83
g918
sg76
(lp925
g367
asbag69
(g90
g71
NtRp926
(dp927
g74
(dp928
g101
g102
ssg83
g918
sg76
(lp929
S':'
asbag69
(g90
g71
NtRp930
(dp931
g74
(dp932
sg83
g918
sg76
(lp933
g69
(g70
g71
NtRp934
(dp935
g74
(dp936
g82
I3
ssg83
g930
sg76
(lp937
S''
asbasbasbag69
(g85
g71
NtRp938
(dp939
g74
(dp940
sg83
g834
sg76
(lp941
g69
(g90
g71
NtRp942
(dp943
g74
(dp944
g94
g95
ssg83
g938
sg76
(lp945
g388
asbag69
(g90
g71
NtRp946
(dp947
g74
(dp948
g101
g102
ssg83
g938
sg76
(lp949
S':'
asbag69
(g90
g71
NtRp950
(dp951
g74
(dp952
sg83
g938
sg76
(lp953
g69
(g70
g71
NtRp954
(dp955
g74
(dp956
g82
I3
ssg83
g950
sg76
(lp957
S''
asbasbasbag69
(g85
g71
NtRp958
(dp959
g74
(dp960
sg83
g834
sg76
(lp961
g69
(g90
g71
NtRp962
(dp963
g74
(dp964
g94
g95
ssg83
g958
sg76
(lp965
g409
asbag69
(g90
g71
NtRp966
(dp967
g74
(dp968
g101
g102
ssg83
g958
sg76
(lp969
S':'
asbag69
(g90
g71
NtRp970
(dp971
g74
(dp972
sg83
g958
sg76
(lp973
g69
(g70
g71
NtRp974
(dp975
g74
(dp976
g82
I3
ssg83
g970
sg76
(lp977
S''
asbasbasbag69
(g85
g71
NtRp978
(dp979
g74
(dp980
sg83
g834
sg76
(lp981
g69
(g90
g71
NtRp982
(dp983
g74
(dp984
g94
g95
ssg83
g978
sg76
(lp985
g430
asbag69
(g90
g71
NtRp986
(dp987
g74
(dp988
g101
g102
ssg83
g978
sg76
(lp989
S':'
asbag69
(g90
g71
NtRp990
(dp991
g74
(dp992
sg83
g978
sg76
(lp993
g69
(g70
g71
NtRp994
(dp995
g74
(dp996
g82
I3
ssg83
g990
sg76
(lp997
S''
asbasbasbasbasbasbasbag69
(g85
g71
NtRp998
(dp999
g74
(dp1000
sg83
g246
sg76
(lp1001
g69
(g90
g71
NtRp1002
(dp1003
g74
(dp1004
g94
g95
ssg83
g998
sg76
(lp1005
S'session_id_sastra2'
p1006
asbag69
(g90
g71
NtRp1007
(dp1008
g74
(dp1009
g101
g102
ssg83
g998
sg76
(lp1010
S':'
asbag69
(g90
g71
NtRp1011
(dp1012
g74
(dp1013
sg83
g998
sg76
(lp1014
g69
(g70
g71
NtRp1015
(dp1016
g74
(dp1017
g82
I4
ssg83
g1011
sg76
(lp1018
g69
(g78
g71
NtRp1019
(dp1020
g74
(dp1021
g82
I3
ssg83
Nsg76
(lp1022
g69
(g85
g71
NtRp1023
(dp1024
g74
(dp1025
sg83
g1019
sg76
(lp1026
g69
(g90
g71
NtRp1027
(dp1028
g74
(dp1029
g94
g95
ssg83
g1023
sg76
(lp1030
g283
asbag69
(g90
g71
NtRp1031
(dp1032
g74
(dp1033
g101
g102
ssg83
g1023
sg76
(lp1034
S':'
asbag69
(g90
g71
NtRp1035
(dp1036
g74
(dp1037
sg83
g1023
sg76
(lp1038
g69
(g70
g71
NtRp1039
(dp1040
g74
(dp1041
g82
I3
ssg83
g1035
sg76
(lp1042
S''
asbasbasbag69
(g85
g71
NtRp1043
(dp1044
g74
(dp1045
sg83
g1019
sg76
(lp1046
g69
(g90
g71
NtRp1047
(dp1048
g74
(dp1049
g94
g95
ssg83
g1043
sg76
(lp1050
g304
asbag69
(g90
g71
NtRp1051
(dp1052
g74
(dp1053
g101
g102
ssg83
g1043
sg76
(lp1054
S':'
asbag69
(g90
g71
NtRp1055
(dp1056
g74
(dp1057
sg83
g1043
sg76
(lp1058
g69
(g70
g71
NtRp1059
(dp1060
g74
(dp1061
g82
I3
ssg83
g1055
sg76
(lp1062
S''
asbasbasbag69
(g85
g71
NtRp1063
(dp1064
g74
(dp1065
sg83
g1019
sg76
(lp1066
g69
(g90
g71
NtRp1067
(dp1068
g74
(dp1069
g94
g95
ssg83
g1063
sg76
(lp1070
g325
asbag69
(g90
g71
NtRp1071
(dp1072
g74
(dp1073
g101
g102
ssg83
g1063
sg76
(lp1074
S':'
asbag69
(g90
g71
NtRp1075
(dp1076
g74
(dp1077
sg83
g1063
sg76
(lp1078
g69
(g70
g71
NtRp1079
(dp1080
g74
(dp1081
g82
I3
ssg83
g1075
sg76
(lp1082
S''
asbasbasbag69
(g85
g71
NtRp1083
(dp1084
g74
(dp1085
sg83
g1019
sg76
(lp1086
g69
(g90
g71
NtRp1087
(dp1088
g74
(dp1089
g94
g95
ssg83
g1083
sg76
(lp1090
g346
asbag69
(g90
g71
NtRp1091
(dp1092
g74
(dp1093
g101
g102
ssg83
g1083
sg76
(lp1094
S':'
asbag69
(g90
g71
NtRp1095
(dp1096
g74
(dp1097
sg83
g1083
sg76
(lp1098
g69
(g70
g71
NtRp1099
(dp1100
g74
(dp1101
g82
I3
ssg83
g1095
sg76
(lp1102
S''
asbasbasbag69
(g85
g71
NtRp1103
(dp1104
g74
(dp1105
sg83
g1019
sg76
(lp1106
g69
(g90
g71
NtRp1107
(dp1108
g74
(dp1109
g94
g95
ssg83
g1103
sg76
(lp1110
g367
asbag69
(g90
g71
NtRp1111
(dp1112
g74
(dp1113
g101
g102
ssg83
g1103
sg76
(lp1114
S':'
asbag69
(g90
g71
NtRp1115
(dp1116
g74
(dp1117
sg83
g1103
sg76
(lp1118
g69
(g70
g71
NtRp1119
(dp1120
g74
(dp1121
g82
I3
ssg83
g1115
sg76
(lp1122
S''
asbasbasbag69
(g85
g71
NtRp1123
(dp1124
g74
(dp1125
sg83
g1019
sg76
(lp1126
g69
(g90
g71
NtRp1127
(dp1128
g74
(dp1129
g94
g95
ssg83
g1123
sg76
(lp1130
g388
asbag69
(g90
g71
NtRp1131
(dp1132
g74
(dp1133
g101
g102
ssg83
g1123
sg76
(lp1134
S':'
asbag69
(g90
g71
NtRp1135
(dp1136
g74
(dp1137
sg83
g1123
sg76
(lp1138
g69
(g70
g71
NtRp1139
(dp1140
g74
(dp1141
g82
I3
ssg83
g1135
sg76
(lp1142
S''
asbasbasbag69
(g85
g71
NtRp1143
(dp1144
g74
(dp1145
sg83
g1019
sg76
(lp1146
g69
(g90
g71
NtRp1147
(dp1148
g74
(dp1149
g94
g95
ssg83
g1143
sg76
(lp1150
g409
asbag69
(g90
g71
NtRp1151
(dp1152
g74
(dp1153
g101
g102
ssg83
g1143
sg76
(lp1154
S':'
asbag69
(g90
g71
NtRp1155
(dp1156
g74
(dp1157
sg83
g1143
sg76
(lp1158
g69
(g70
g71
NtRp1159
(dp1160
g74
(dp1161
g82
I3
ssg83
g1155
sg76
(lp1162
S''
asbasbasbag69
(g85
g71
NtRp1163
(dp1164
g74
(dp1165
sg83
g1019
sg76
(lp1166
g69
(g90
g71
NtRp1167
(dp1168
g74
(dp1169
g94
g95
ssg83
g1163
sg76
(lp1170
g430
asbag69
(g90
g71
NtRp1171
(dp1172
g74
(dp1173
g101
g102
ssg83
g1163
sg76
(lp1174
S':'
asbag69
(g90
g71
NtRp1175
(dp1176
g74
(dp1177
sg83
g1163
sg76
(lp1178
g69
(g70
g71
NtRp1179
(dp1180
g74
(dp1181
g82
I3
ssg83
g1175
sg76
(lp1182
S''
asbasbasbasbasbasbasbag69
(g85
g71
NtRp1183
(dp1184
g74
(dp1185
sg83
g246
sg76
(lp1186
g69
(g90
g71
NtRp1187
(dp1188
g74
(dp1189
g94
g95
ssg83
g1183
sg76
(lp1190
S'session_id_welcome'
p1191
asbag69
(g90
g71
NtRp1192
(dp1193
g74
(dp1194
g101
g102
ssg83
g1183
sg76
(lp1195
S':'
asbag69
(g90
g71
NtRp1196
(dp1197
g74
(dp1198
sg83
g1183
sg76
(lp1199
g69
(g70
g71
NtRp1200
(dp1201
g74
(dp1202
g82
I4
ssg83
g1196
sg76
(lp1203
g69
(g78
g71
NtRp1204
(dp1205
g74
(dp1206
g82
I3
ssg83
Nsg76
(lp1207
g69
(g85
g71
NtRp1208
(dp1209
g74
(dp1210
sg83
g1204
sg76
(lp1211
g69
(g90
g71
NtRp1212
(dp1213
g74
(dp1214
g94
g95
ssg83
g1208
sg76
(lp1215
g283
asbag69
(g90
g71
NtRp1216
(dp1217
g74
(dp1218
g101
g102
ssg83
g1208
sg76
(lp1219
S':'
asbag69
(g90
g71
NtRp1220
(dp1221
g74
(dp1222
sg83
g1208
sg76
(lp1223
g69
(g70
g71
NtRp1224
(dp1225
g74
(dp1226
g82
I3
ssg83
g1220
sg76
(lp1227
S''
asbasbasbag69
(g85
g71
NtRp1228
(dp1229
g74
(dp1230
sg83
g1204
sg76
(lp1231
g69
(g90
g71
NtRp1232
(dp1233
g74
(dp1234
g94
g95
ssg83
g1228
sg76
(lp1235
g304
asbag69
(g90
g71
NtRp1236
(dp1237
g74
(dp1238
g101
g102
ssg83
g1228
sg76
(lp1239
S':'
asbag69
(g90
g71
NtRp1240
(dp1241
g74
(dp1242
sg83
g1228
sg76
(lp1243
g69
(g70
g71
NtRp1244
(dp1245
g74
(dp1246
g82
I3
ssg83
g1240
sg76
(lp1247
S''
asbasbasbag69
(g85
g71
NtRp1248
(dp1249
g74
(dp1250
sg83
g1204
sg76
(lp1251
g69
(g90
g71
NtRp1252
(dp1253
g74
(dp1254
g94
g95
ssg83
g1248
sg76
(lp1255
g325
asbag69
(g90
g71
NtRp1256
(dp1257
g74
(dp1258
g101
g102
ssg83
g1248
sg76
(lp1259
S':'
asbag69
(g90
g71
NtRp1260
(dp1261
g74
(dp1262
sg83
g1248
sg76
(lp1263
g69
(g70
g71
NtRp1264
(dp1265
g74
(dp1266
g82
I3
ssg83
g1260
sg76
(lp1267
S''
asbasbasbag69
(g85
g71
NtRp1268
(dp1269
g74
(dp1270
sg83
g1204
sg76
(lp1271
g69
(g90
g71
NtRp1272
(dp1273
g74
(dp1274
g94
g95
ssg83
g1268
sg76
(lp1275
g346
asbag69
(g90
g71
NtRp1276
(dp1277
g74
(dp1278
g101
g102
ssg83
g1268
sg76
(lp1279
S':'
asbag69
(g90
g71
NtRp1280
(dp1281
g74
(dp1282
sg83
g1268
sg76
(lp1283
g69
(g70
g71
NtRp1284
(dp1285
g74
(dp1286
g82
I3
ssg83
g1280
sg76
(lp1287
S''
asbasbasbag69
(g85
g71
NtRp1288
(dp1289
g74
(dp1290
sg83
g1204
sg76
(lp1291
g69
(g90
g71
NtRp1292
(dp1293
g74
(dp1294
g94
g95
ssg83
g1288
sg76
(lp1295
g367
asbag69
(g90
g71
NtRp1296
(dp1297
g74
(dp1298
g101
g102
ssg83
g1288
sg76
(lp1299
S':'
asbag69
(g90
g71
NtRp1300
(dp1301
g74
(dp1302
sg83
g1288
sg76
(lp1303
g69
(g70
g71
NtRp1304
(dp1305
g74
(dp1306
g82
I3
ssg83
g1300
sg76
(lp1307
S''
asbasbasbag69
(g85
g71
NtRp1308
(dp1309
g74
(dp1310
sg83
g1204
sg76
(lp1311
g69
(g90
g71
NtRp1312
(dp1313
g74
(dp1314
g94
g95
ssg83
g1308
sg76
(lp1315
g388
asbag69
(g90
g71
NtRp1316
(dp1317
g74
(dp1318
g101
g102
ssg83
g1308
sg76
(lp1319
S':'
asbag69
(g90
g71
NtRp1320
(dp1321
g74
(dp1322
sg83
g1308
sg76
(lp1323
g69
(g70
g71
NtRp1324
(dp1325
g74
(dp1326
g82
I3
ssg83
g1320
sg76
(lp1327
S''
asbasbasbag69
(g85
g71
NtRp1328
(dp1329
g74
(dp1330
sg83
g1204
sg76
(lp1331
g69
(g90
g71
NtRp1332
(dp1333
g74
(dp1334
g94
g95
ssg83
g1328
sg76
(lp1335
g409
asbag69
(g90
g71
NtRp1336
(dp1337
g74
(dp1338
g101
g102
ssg83
g1328
sg76
(lp1339
S':'
asbag69
(g90
g71
NtRp1340
(dp1341
g74
(dp1342
sg83
g1328
sg76
(lp1343
g69
(g70
g71
NtRp1344
(dp1345
g74
(dp1346
g82
I3
ssg83
g1340
sg76
(lp1347
S''
asbasbasbag69
(g85
g71
NtRp1348
(dp1349
g74
(dp1350
sg83
g1204
sg76
(lp1351
g69
(g90
g71
NtRp1352
(dp1353
g74
(dp1354
g94
g95
ssg83
g1348
sg76
(lp1355
g430
asbag69
(g90
g71
NtRp1356
(dp1357
g74
(dp1358
g101
g102
ssg83
g1348
sg76
(lp1359
S':'
asbag69
(g90
g71
NtRp1360
(dp1361
g74
(dp1362
sg83
g1348
sg76
(lp1363
g69
(g70
g71
NtRp1364
(dp1365
g74
(dp1366
g82
I3
ssg83
g1360
sg76
(lp1367
S''
asbasbasbasbasbasbasbasbasbasbasbag69
(g85
g71
NtRp1368
(dp1369
g74
(dp1370
sg83
g79
sg76
(lp1371
g69
(g90
g71
NtRp1372
(dp1373
g74
(dp1374
g94
g95
ssg83
g1368
sg76
(lp1375
S'env'
p1376
asbag69
(g90
g71
NtRp1377
(dp1378
g74
(dp1379
g101
g102
ssg83
g1368
sg76
(lp1380
S':'
asbag69
(g90
g71
NtRp1381
(dp1382
g74
(dp1383
sg83
g1368
sg76
(lp1384
g69
(g70
g71
NtRp1385
(dp1386
g74
(dp1387
g82
I5
ssg83
g1381
sg76
(lp1388
g69
(g78
g71
NtRp1389
(dp1390
g74
(dp1391
g82
I4
ssg83
Nsg76
(lp1392
g69
(g85
g71
NtRp1393
(dp1394
g74
(dp1395
sg83
g1389
sg76
(lp1396
g69
(g90
g71
NtRp1397
(dp1398
g74
(dp1399
g94
g95
ssg83
g1393
sg76
(lp1400
S'app_folders'
p1401
asbag69
(g90
g71
NtRp1402
(dp1403
g74
(dp1404
g101
g102
ssg83
g1393
sg76
(lp1405
S':'
asbag69
(g90
g71
NtRp1406
(dp1407
g74
(dp1408
sg83
g1393
sg76
(lp1409
g69
(g70
g71
NtRp1410
(dp1411
g74
(dp1412
g82
I4
ssg83
g1406
sg76
(lp1413
S"set(['/home/vishrut/web2py/applications/astra3/', '/home/vishrut/web2py/applications/astra2/', '/home/vishrut/web2py/applications/welcome/', '/home/vishrut/web2py/applications/PhotoUploader/', '/home/vishrut/web2py/applications/sastra2/', '/home/vishrut/web2py/applications/admin/'])"
p1414
asbasbasbag69
(g85
g71
NtRp1415
(dp1416
g74
(dp1417
sg83
g1389
sg76
(lp1418
g69
(g90
g71
NtRp1419
(dp1420
g74
(dp1421
g94
g95
ssg83
g1415
sg76
(lp1422
S'applications_parent'
p1423
asbag69
(g90
g71
NtRp1424
(dp1425
g74
(dp1426
g101
g102
ssg83
g1415
sg76
(lp1427
S':'
asbag69
(g90
g71
NtRp1428
(dp1429
g74
(dp1430
sg83
g1415
sg76
(lp1431
g69
(g70
g71
NtRp1432
(dp1433
g74
(dp1434
g82
I4
ssg83
g1428
sg76
(lp1435
S'/home/vishrut/web2py'
p1436
asbasbasbag69
(g85
g71
NtRp1437
(dp1438
g74
(dp1439
sg83
g1389
sg76
(lp1440
g69
(g90
g71
NtRp1441
(dp1442
g74
(dp1443
g94
g95
ssg83
g1437
sg76
(lp1444
S'cmd_args'
p1445
asbag69
(g90
g71
NtRp1446
(dp1447
g74
(dp1448
g101
g102
ssg83
g1437
sg76
(lp1449
S':'
asbag69
(g90
g71
NtRp1450
(dp1451
g74
(dp1452
sg83
g1437
sg76
(lp1453
g69
(g70
g71
NtRp1454
(dp1455
g74
(dp1456
g82
I4
ssg83
g1450
sg76
(lp1457
g69
(g78
g71
NtRp1458
(dp1459
g74
(dp1460
g82
I3
ssg83
Nsg76
(lp1461
sbasbasbasbag69
(g85
g71
NtRp1462
(dp1463
g74
(dp1464
sg83
g1389
sg76
(lp1465
g69
(g90
g71
NtRp1466
(dp1467
g74
(dp1468
g94
g95
ssg83
g1462
sg76
(lp1469
S'cmd_options'
p1470
asbag69
(g90
g71
NtRp1471
(dp1472
g74
(dp1473
g101
g102
ssg83
g1462
sg76
(lp1474
S':'
asbag69
(g90
g71
NtRp1475
(dp1476
g74
(dp1477
sg83
g1462
sg76
(lp1478
g69
(g70
g71
NtRp1479
(dp1480
g74
(dp1481
g82
I4
ssg83
g1475
sg76
(lp1482
S"<Values at 0x9ad6c6c: {'verbose': False, 'ip': '127.0.0.1', 'shutdown_timeout': 5, 'taskbar': False, 'nocron': False, 'pid_filename': 'httpserver.pid', 'maxthreads': None, 'softcron': False, 'server_name': 'vishrut-Vostro-1015', 'bpython': False, 'nogui': False, 'port': 8000, 'extcron': False, 'debuglevel': 30, 'test': None, 'folder': '/home/vishrut/web2py', 'config': '', 'import_models': False, 'winservice': '', 'shell': None, 'run': '', 'log_filename': 'httpserver.log', 'args': [''], 'socket_timeout': 5, 'ssl_ca_certificate': None, 'scheduler': None, 'profiler_filename': None, 'ssl_private_key': '', 'password': '<ask>', 'request_queue_size': 5, 'ssl_certificate': '', 'cronjob': False, 'numthreads': None, 'quiet': False, 'interfaces': None, 'minthreads': None, 'timeout': 10, 'plain': False, 'nobanner': False}>"
p1483
asbasbasbag69
(g85
g71
NtRp1484
(dp1485
g74
(dp1486
sg83
g1389
sg76
(lp1487
g69
(g90
g71
NtRp1488
(dp1489
g74
(dp1490
g94
g95
ssg83
g1484
sg76
(lp1491
S'db_sessions'
p1492
asbag69
(g90
g71
NtRp1493
(dp1494
g74
(dp1495
g101
g102
ssg83
g1484
sg76
(lp1496
S':'
asbag69
(g90
g71
NtRp1497
(dp1498
g74
(dp1499
sg83
g1484
sg76
(lp1500
g69
(g70
g71
NtRp1501
(dp1502
g74
(dp1503
g82
I4
ssg83
g1497
sg76
(lp1504
S'set([])'
p1505
asbasbasbag69
(g85
g71
NtRp1506
(dp1507
g74
(dp1508
sg83
g1389
sg76
(lp1509
g69
(g90
g71
NtRp1510
(dp1511
g74
(dp1512
g94
g95
ssg83
g1506
sg76
(lp1513
S'debugging'
p1514
asbag69
(g90
g71
NtRp1515
(dp1516
g74
(dp1517
g101
g102
ssg83
g1506
sg76
(lp1518
S':'
asbag69
(g90
g71
NtRp1519
(dp1520
g74
(dp1521
sg83
g1506
sg76
(lp1522
g69
(g70
g71
NtRp1523
(dp1524
g74
(dp1525
g82
I4
ssg83
g1519
sg76
(lp1526
g112
asbasbasbag69
(g85
g71
NtRp1527
(dp1528
g74
(dp1529
sg83
g1389
sg76
(lp1530
g69
(g90
g71
NtRp1531
(dp1532
g74
(dp1533
g94
g95
ssg83
g1527
sg76
(lp1534
S'gluon_parent'
p1535
asbag69
(g90
g71
NtRp1536
(dp1537
g74
(dp1538
g101
g102
ssg83
g1527
sg76
(lp1539
S':'
asbag69
(g90
g71
NtRp1540
(dp1541
g74
(dp1542
sg83
g1527
sg76
(lp1543
g69
(g70
g71
NtRp1544
(dp1545
g74
(dp1546
g82
I4
ssg83
g1540
sg76
(lp1547
S'/home/vishrut/web2py'
p1548
asbasbasbag69
(g85
g71
NtRp1549
(dp1550
g74
(dp1551
sg83
g1389
sg76
(lp1552
g69
(g90
g71
NtRp1553
(dp1554
g74
(dp1555
g94
g95
ssg83
g1549
sg76
(lp1556
S'http_accept'
p1557
asbag69
(g90
g71
NtRp1558
(dp1559
g74
(dp1560
g101
g102
ssg83
g1549
sg76
(lp1561
S':'
asbag69
(g90
g71
NtRp1562
(dp1563
g74
(dp1564
sg83
g1549
sg76
(lp1565
g69
(g70
g71
NtRp1566
(dp1567
g74
(dp1568
g82
I4
ssg83
g1562
sg76
(lp1569
S'text/html,application/xhtml+xml,application/xml;q=0.9,*/*;q=0.8'
p1570
asbasbasbag69
(g85
g71
NtRp1571
(dp1572
g74
(dp1573
sg83
g1389
sg76
(lp1574
g69
(g90
g71
NtRp1575
(dp1576
g74
(dp1577
g94
g95
ssg83
g1571
sg76
(lp1578
S'http_accept_encoding'
p1579
asbag69
(g90
g71
NtRp1580
(dp1581
g74
(dp1582
g101
g102
ssg83
g1571
sg76
(lp1583
S':'
asbag69
(g90
g71
NtRp1584
(dp1585
g74
(dp1586
sg83
g1571
sg76
(lp1587
g69
(g70
g71
NtRp1588
(dp1589
g74
(dp1590
g82
I4
ssg83
g1584
sg76
(lp1591
S'gzip, deflate'
p1592
asbasbasbag69
(g85
g71
NtRp1593
(dp1594
g74
(dp1595
sg83
g1389
sg76
(lp1596
g69
(g90
g71
NtRp1597
(dp1598
g74
(dp1599
g94
g95
ssg83
g1593
sg76
(lp1600
S'http_accept_language'
p1601
asbag69
(g90
g71
NtRp1602
(dp1603
g74
(dp1604
g101
g102
ssg83
g1593
sg76
(lp1605
S':'
asbag69
(g90
g71
NtRp1606
(dp1607
g74
(dp1608
sg83
g1593
sg76
(lp1609
g69
(g70
g71
NtRp1610
(dp1611
g74
(dp1612
g82
I4
ssg83
g1606
sg76
(lp1613
S'en-US,en;q=0.5'
p1614
asbasbasbag69
(g85
g71
NtRp1615
(dp1616
g74
(dp1617
sg83
g1389
sg76
(lp1618
g69
(g90
g71
NtRp1619
(dp1620
g74
(dp1621
g94
g95
ssg83
g1615
sg76
(lp1622
S'http_cache_control'
p1623
asbag69
(g90
g71
NtRp1624
(dp1625
g74
(dp1626
g101
g102
ssg83
g1615
sg76
(lp1627
S':'
asbag69
(g90
g71
NtRp1628
(dp1629
g74
(dp1630
sg83
g1615
sg76
(lp1631
g69
(g70
g71
NtRp1632
(dp1633
g74
(dp1634
g82
I4
ssg83
g1628
sg76
(lp1635
S'max-age=0'
p1636
asbasbasbag69
(g85
g71
NtRp1637
(dp1638
g74
(dp1639
sg83
g1389
sg76
(lp1640
g69
(g90
g71
NtRp1641
(dp1642
g74
(dp1643
g94
g95
ssg83
g1637
sg76
(lp1644
S'http_connection'
p1645
asbag69
(g90
g71
NtRp1646
(dp1647
g74
(dp1648
g101
g102
ssg83
g1637
sg76
(lp1649
S':'
asbag69
(g90
g71
NtRp1650
(dp1651
g74
(dp1652
sg83
g1637
sg76
(lp1653
g69
(g70
g71
NtRp1654
(dp1655
g74
(dp1656
g82
I4
ssg83
g1650
sg76
(lp1657
S'keep-alive'
p1658
asbasbasbag69
(g85
g71
NtRp1659
(dp1660
g74
(dp1661
sg83
g1389
sg76
(lp1662
g69
(g90
g71
NtRp1663
(dp1664
g74
(dp1665
g94
g95
ssg83
g1659
sg76
(lp1666
S'http_cookie'
p1667
asbag69
(g90
g71
NtRp1668
(dp1669
g74
(dp1670
g101
g102
ssg83
g1659
sg76
(lp1671
S':'
asbag69
(g90
g71
NtRp1672
(dp1673
g74
(dp1674
sg83
g1659
sg76
(lp1675
g69
(g70
g71
NtRp1676
(dp1677
g74
(dp1678
g82
I4
ssg83
g1672
sg76
(lp1679
S'registered=yes; session_id_welcome=127.0.0.1-39e9a790-f631-4068-84de-e63779ba6ef6; session_id_admin=127.0.0.1-dedb585e-9f5d-4958-8c1b-0a291719bcba; session_id_astra2=127.0.0.1-ad4222e7-34f3-45d6-99ac-318b82b69a73; session_id_sastra2=127.0.0.1-da018a68-be61-412b-a676-c12720a94c75; session_id_astra3=127.0.0.1-902cacfb-f29c-4a5d-8e99-acad1046f4ed'
p1680
asbasbasbag69
(g85
g71
NtRp1681
(dp1682
g74
(dp1683
sg83
g1389
sg76
(lp1684
g69
(g90
g71
NtRp1685
(dp1686
g74
(dp1687
g94
g95
ssg83
g1681
sg76
(lp1688
S'http_host'
p1689
asbag69
(g90
g71
NtRp1690
(dp1691
g74
(dp1692
g101
g102
ssg83
g1681
sg76
(lp1693
S':'
asbag69
(g90
g71
NtRp1694
(dp1695
g74
(dp1696
sg83
g1681
sg76
(lp1697
g69
(g70
g71
NtRp1698
(dp1699
g74
(dp1700
g82
I4
ssg83
g1694
sg76
(lp1701
S'127.0.0.1:8000'
p1702
asbasbasbag69
(g85
g71
NtRp1703
(dp1704
g74
(dp1705
sg83
g1389
sg76
(lp1706
g69
(g90
g71
NtRp1707
(dp1708
g74
(dp1709
g94
g95
ssg83
g1703
sg76
(lp1710
S'http_referer'
p1711
asbag69
(g90
g71
NtRp1712
(dp1713
g74
(dp1714
g101
g102
ssg83
g1703
sg76
(lp1715
S':'
asbag69
(g90
g71
NtRp1716
(dp1717
g74
(dp1718
sg83
g1703
sg76
(lp1719
g69
(g70
g71
NtRp1720
(dp1721
g74
(dp1722
g82
I4
ssg83
g1716
sg76
(lp1723
S'http://127.0.0.1:8000/astra2/default/show'
p1724
asbasbasbag69
(g85
g71
NtRp1725
(dp1726
g74
(dp1727
sg83
g1389
sg76
(lp1728
g69
(g90
g71
NtRp1729
(dp1730
g74
(dp1731
g94
g95
ssg83
g1725
sg76
(lp1732
S'http_user_agent'
p1733
asbag69
(g90
g71
NtRp1734
(dp1735
g74
(dp1736
g101
g102
ssg83
g1725
sg76
(lp1737
S':'
asbag69
(g90
g71
NtRp1738
(dp1739
g74
(dp1740
sg83
g1725
sg76
(lp1741
g69
(g70
g71
NtRp1742
(dp1743
g74
(dp1744
g82
I4
ssg83
g1738
sg76
(lp1745
S'Mozilla/5.0 (X11; Ubuntu; Linux i686; rv:16.0) Gecko/20100101 Firefox/16.0'
p1746
asbasbasbag69
(g85
g71
NtRp1747
(dp1748
g74
(dp1749
sg83
g1389
sg76
(lp1750
g69
(g90
g71
NtRp1751
(dp1752
g74
(dp1753
g94
g95
ssg83
g1747
sg76
(lp1754
S'is_jython'
p1755
asbag69
(g90
g71
NtRp1756
(dp1757
g74
(dp1758
g101
g102
ssg83
g1747
sg76
(lp1759
S':'
asbag69
(g90
g71
NtRp1760
(dp1761
g74
(dp1762
sg83
g1747
sg76
(lp1763
g69
(g70
g71
NtRp1764
(dp1765
g74
(dp1766
g82
I4
ssg83
g1760
sg76
(lp1767
g112
asbasbasbag69
(g85
g71
NtRp1768
(dp1769
g74
(dp1770
sg83
g1389
sg76
(lp1771
g69
(g90
g71
NtRp1772
(dp1773
g74
(dp1774
g94
g95
ssg83
g1768
sg76
(lp1775
S'is_pypy'
p1776
asbag69
(g90
g71
NtRp1777
(dp1778
g74
(dp1779
g101
g102
ssg83
g1768
sg76
(lp1780
S':'
asbag69
(g90
g71
NtRp1781
(dp1782
g74
(dp1783
sg83
g1768
sg76
(lp1784
g69
(g70
g71
NtRp1785
(dp1786
g74
(dp1787
g82
I4
ssg83
g1781
sg76
(lp1788
g112
asbasbasbag69
(g85
g71
NtRp1789
(dp1790
g74
(dp1791
sg83
g1389
sg76
(lp1792
g69
(g90
g71
NtRp1793
(dp1794
g74
(dp1795
g94
g95
ssg83
g1789
sg76
(lp1796
S'path_info'
p1797
asbag69
(g90
g71
NtRp1798
(dp1799
g74
(dp1800
g101
g102
ssg83
g1789
sg76
(lp1801
S':'
asbag69
(g90
g71
NtRp1802
(dp1803
g74
(dp1804
sg83
g1789
sg76
(lp1805
g69
(g70
g71
NtRp1806
(dp1807
g74
(dp1808
g82
I4
ssg83
g1802
sg76
(lp1809
S'/astra2/default/show'
p1810
asbasbasbag69
(g85
g71
NtRp1811
(dp1812
g74
(dp1813
sg83
g1389
sg76
(lp1814
g69
(g90
g71
NtRp1815
(dp1816
g74
(dp1817
g94
g95
ssg83
g1811
sg76
(lp1818
S'query_string'
p1819
asbag69
(g90
g71
NtRp1820
(dp1821
g74
(dp1822
g101
g102
ssg83
g1811
sg76
(lp1823
S':'
asbag69
(g90
g71
NtRp1824
(dp1825
g74
(dp1826
sg83
g1811
sg76
(lp1827
g69
(g70
g71
NtRp1828
(dp1829
g74
(dp1830
g82
I4
ssg83
g1824
sg76
(lp1831
S''
asbasbasbag69
(g85
g71
NtRp1832
(dp1833
g74
(dp1834
sg83
g1389
sg76
(lp1835
g69
(g90
g71
NtRp1836
(dp1837
g74
(dp1838
g94
g95
ssg83
g1832
sg76
(lp1839
S'remote_addr'
p1840
asbag69
(g90
g71
NtRp1841
(dp1842
g74
(dp1843
g101
g102
ssg83
g1832
sg76
(lp1844
S':'
asbag69
(g90
g71
NtRp1845
(dp1846
g74
(dp1847
sg83
g1832
sg76
(lp1848
g69
(g70
g71
NtRp1849
(dp1850
g74
(dp1851
g82
I4
ssg83
g1845
sg76
(lp1852
g202
asbasbasbag69
(g85
g71
NtRp1853
(dp1854
g74
(dp1855
sg83
g1389
sg76
(lp1856
g69
(g90
g71
NtRp1857
(dp1858
g74
(dp1859
g94
g95
ssg83
g1853
sg76
(lp1860
S'remote_port'
p1861
asbag69
(g90
g71
NtRp1862
(dp1863
g74
(dp1864
g101
g102
ssg83
g1853
sg76
(lp1865
S':'
asbag69
(g90
g71
NtRp1866
(dp1867
g74
(dp1868
sg83
g1853
sg76
(lp1869
g69
(g70
g71
NtRp1870
(dp1871
g74
(dp1872
g82
I4
ssg83
g1866
sg76
(lp1873
S'36740'
p1874
asbasbasbag69
(g85
g71
NtRp1875
(dp1876
g74
(dp1877
sg83
g1389
sg76
(lp1878
g69
(g90
g71
NtRp1879
(dp1880
g74
(dp1881
g94
g95
ssg83
g1875
sg76
(lp1882
S'request_method'
p1883
asbag69
(g90
g71
NtRp1884
(dp1885
g74
(dp1886
g101
g102
ssg83
g1875
sg76
(lp1887
S':'
asbag69
(g90
g71
NtRp1888
(dp1889
g74
(dp1890
sg83
g1875
sg76
(lp1891
g69
(g70
g71
NtRp1892
(dp1893
g74
(dp1894
g82
I4
ssg83
g1888
sg76
(lp1895
S'GET'
p1896
asbasbasbag69
(g85
g71
NtRp1897
(dp1898
g74
(dp1899
sg83
g1389
sg76
(lp1900
g69
(g90
g71
NtRp1901
(dp1902
g74
(dp1903
g94
g95
ssg83
g1897
sg76
(lp1904
S'script_name'
p1905
asbag69
(g90
g71
NtRp1906
(dp1907
g74
(dp1908
g101
g102
ssg83
g1897
sg76
(lp1909
S':'
asbag69
(g90
g71
NtRp1910
(dp1911
g74
(dp1912
sg83
g1897
sg76
(lp1913
g69
(g70
g71
NtRp1914
(dp1915
g74
(dp1916
g82
I4
ssg83
g1910
sg76
(lp1917
S''
asbasbasbag69
(g85
g71
NtRp1918
(dp1919
g74
(dp1920
sg83
g1389
sg76
(lp1921
g69
(g90
g71
NtRp1922
(dp1923
g74
(dp1924
g94
g95
ssg83
g1918
sg76
(lp1925
S'server_name'
p1926
asbag69
(g90
g71
NtRp1927
(dp1928
g74
(dp1929
g101
g102
ssg83
g1918
sg76
(lp1930
S':'
asbag69
(g90
g71
NtRp1931
(dp1932
g74
(dp1933
sg83
g1918
sg76
(lp1934
g69
(g70
g71
NtRp1935
(dp1936
g74
(dp1937
g82
I4
ssg83
g1931
sg76
(lp1938
S'vishrut-Vostro-1015'
p1939
asbasbasbag69
(g85
g71
NtRp1940
(dp1941
g74
(dp1942
sg83
g1389
sg76
(lp1943
g69
(g90
g71
NtRp1944
(dp1945
g74
(dp1946
g94
g95
ssg83
g1940
sg76
(lp1947
S'server_port'
p1948
asbag69
(g90
g71
NtRp1949
(dp1950
g74
(dp1951
g101
g102
ssg83
g1940
sg76
(lp1952
S':'
asbag69
(g90
g71
NtRp1953
(dp1954
g74
(dp1955
sg83
g1940
sg76
(lp1956
g69
(g70
g71
NtRp1957
(dp1958
g74
(dp1959
g82
I4
ssg83
g1953
sg76
(lp1960
S'8000'
p1961
asbasbasbag69
(g85
g71
NtRp1962
(dp1963
g74
(dp1964
sg83
g1389
sg76
(lp1965
g69
(g90
g71
NtRp1966
(dp1967
g74
(dp1968
g94
g95
ssg83
g1962
sg76
(lp1969
S'server_protocol'
p1970
asbag69
(g90
g71
NtRp1971
(dp1972
g74
(dp1973
g101
g102
ssg83
g1962
sg76
(lp1974
S':'
asbag69
(g90
g71
NtRp1975
(dp1976
g74
(dp1977
sg83
g1962
sg76
(lp1978
g69
(g70
g71
NtRp1979
(dp1980
g74
(dp1981
g82
I4
ssg83
g1975
sg76
(lp1982
S'HTTP/1.1'
p1983
asbasbasbag69
(g85
g71
NtRp1984
(dp1985
g74
(dp1986
sg83
g1389
sg76
(lp1987
g69
(g90
g71
NtRp1988
(dp1989
g74
(dp1990
g94
g95
ssg83
g1984
sg76
(lp1991
S'server_software'
p1992
asbag69
(g90
g71
NtRp1993
(dp1994
g74
(dp1995
g101
g102
ssg83
g1984
sg76
(lp1996
S':'
asbag69
(g90
g71
NtRp1997
(dp1998
g74
(dp1999
sg83
g1984
sg76
(lp2000
g69
(g70
g71
NtRp2001
(dp2002
g74
(dp2003
g82
I4
ssg83
g1997
sg76
(lp2004
S'Rocket 1.2.4'
p2005
asbasbasbag69
(g85
g71
NtRp2006
(dp2007
g74
(dp2008
sg83
g1389
sg76
(lp2009
g69
(g90
g71
NtRp2010
(dp2011
g74
(dp2012
g94
g95
ssg83
g2006
sg76
(lp2013
S'web2py_crontype'
p2014
asbag69
(g90
g71
NtRp2015
(dp2016
g74
(dp2017
g101
g102
ssg83
g2006
sg76
(lp2018
S':'
asbag69
(g90
g71
NtRp2019
(dp2020
g74
(dp2021
sg83
g2006
sg76
(lp2022
g69
(g70
g71
NtRp2023
(dp2024
g74
(dp2025
g82
I4
ssg83
g2019
sg76
(lp2026
S'hard'
p2027
asbasbasbag69
(g85
g71
NtRp2028
(dp2029
g74
(dp2030
sg83
g1389
sg76
(lp2031
g69
(g90
g71
NtRp2032
(dp2033
g74
(dp2034
g94
g95
ssg83
g2028
sg76
(lp2035
S'web2py_path'
p2036
asbag69
(g90
g71
NtRp2037
(dp2038
g74
(dp2039
g101
g102
ssg83
g2028
sg76
(lp2040
S':'
asbag69
(g90
g71
NtRp2041
(dp2042
g74
(dp2043
sg83
g2028
sg76
(lp2044
g69
(g70
g71
NtRp2045
(dp2046
g74
(dp2047
g82
I4
ssg83
g2041
sg76
(lp2048
g1436
asbasbasbag69
(g85
g71
NtRp2049
(dp2050
g74
(dp2051
sg83
g1389
sg76
(lp2052
g69
(g90
g71
NtRp2053
(dp2054
g74
(dp2055
g94
g95
ssg83
g2049
sg76
(lp2056
S'web2py_version'
p2057
asbag69
(g90
g71
NtRp2058
(dp2059
g74
(dp2060
g101
g102
ssg83
g2049
sg76
(lp2061
S':'
asbag69
(g90
g71
NtRp2062
(dp2063
g74
(dp2064
sg83
g2049
sg76
(lp2065
g69
(g70
g71
NtRp2066
(dp2067
g74
(dp2068
g82
I4
ssg83
g2062
sg76
(lp2069
g69
(g78
g71
NtRp2070
(dp2071
g74
(dp2072
g82
I3
ssg83
Nsg76
(lp2073
g69
(g85
g71
NtRp2074
(dp2075
g74
(dp2076
sg83
g2070
sg76
(lp2077
g69
(g90
g71
NtRp2078
(dp2079
g74
(dp2080
sg83
g2074
sg76
(lp2081
g69
(g70
g71
NtRp2082
(dp2083
g74
(dp2084
g82
I3
ssg83
g2078
sg76
(lp2085
S'1'
asbasbasbag69
(g85
g71
NtRp2086
(dp2087
g74
(dp2088
sg83
g2070
sg76
(lp2089
g69
(g90
g71
NtRp2090
(dp2091
g74
(dp2092
sg83
g2086
sg76
(lp2093
g69
(g70
g71
NtRp2094
(dp2095
g74
(dp2096
g82
I3
ssg83
g2090
sg76
(lp2097
S'99'
p2098
asbasbasbag69
(g85
g71
NtRp2099
(dp2100
g74
(dp2101
sg83
g2070
sg76
(lp2102
g69
(g90
g71
NtRp2103
(dp2104
g74
(dp2105
sg83
g2099
sg76
(lp2106
g69
(g70
g71
NtRp2107
(dp2108
g74
(dp2109
g82
I3
ssg83
g2103
sg76
(lp2110
S'7'
asbasbasbag69
(g85
g71
NtRp2111
(dp2112
g74
(dp2113
sg83
g2070
sg76
(lp2114
g69
(g90
g71
NtRp2115
(dp2116
g74
(dp2117
sg83
g2111
sg76
(lp2118
g69
(g70
g71
NtRp2119
(dp2120
g74
(dp2121
g82
I3
ssg83
g2115
sg76
(lp2122
S'datetime.datetime(2012, 3, 4, 22, 12, 8)'
p2123
asbasbasbag69
(g85
g71
NtRp2124
(dp2125
g74
(dp2126
sg83
g2070
sg76
(lp2127
g69
(g90
g71
NtRp2128
(dp2129
g74
(dp2130
sg83
g2124
sg76
(lp2131
g69
(g70
g71
NtRp2132
(dp2133
g74
(dp2134
g82
I3
ssg83
g2128
sg76
(lp2135
S'stable'
p2136
asbasbasbasbasbasbasbag69
(g85
g71
NtRp2137
(dp2138
g74
(dp2139
sg83
g1389
sg76
(lp2140
g69
(g90
g71
NtRp2141
(dp2142
g74
(dp2143
g94
g95
ssg83
g2137
sg76
(lp2144
S'wsgi_errors'
p2145
asbag69
(g90
g71
NtRp2146
(dp2147
g74
(dp2148
g101
g102
ssg83
g2137
sg76
(lp2149
S':'
asbag69
(g90
g71
NtRp2150
(dp2151
g74
(dp2152
sg83
g2137
sg76
(lp2153
g69
(g70
g71
NtRp2154
(dp2155
g74
(dp2156
g82
I4
ssg83
g2150
sg76
(lp2157
S"<open file '<stderr>', mode 'w' at 0xb774c0d0>"
p2158
asbasbasbag69
(g85
g71
NtRp2159
(dp2160
g74
(dp2161
sg83
g1389
sg76
(lp2162
g69
(g90
g71
NtRp2163
(dp2164
g74
(dp2165
g94
g95
ssg83
g2159
sg76
(lp2166
S'wsgi_file_wrapper'
p2167
asbag69
(g90
g71
NtRp2168
(dp2169
g74
(dp2170
g101
g102
ssg83
g2159
sg76
(lp2171
S':'
asbag69
(g90
g71
NtRp2172
(dp2173
g74
(dp2174
sg83
g2159
sg76
(lp2175
g69
(g70
g71
NtRp2176
(dp2177
g74
(dp2178
g82
I4
ssg83
g2172
sg76
(lp2179
S'<class wsgiref.util.FileWrapper at 0x99f5fbc>'
p2180
asbasbasbag69
(g85
g71
NtRp2181
(dp2182
g74
(dp2183
sg83
g1389
sg76
(lp2184
g69
(g90
g71
NtRp2185
(dp2186
g74
(dp2187
g94
g95
ssg83
g2181
sg76
(lp2188
S'wsgi_input'
p2189
asbag69
(g90
g71
NtRp2190
(dp2191
g74
(dp2192
g101
g102
ssg83
g2181
sg76
(lp2193
S':'
asbag69
(g90
g71
NtRp2194
(dp2195
g74
(dp2196
sg83
g2181
sg76
(lp2197
g69
(g70
g71
NtRp2198
(dp2199
g74
(dp2200
g82
I4
ssg83
g2194
sg76
(lp2201
S'<socket._fileobject object at 0xa18496c>'
p2202
asbasbasbag69
(g85
g71
NtRp2203
(dp2204
g74
(dp2205
sg83
g1389
sg76
(lp2206
g69
(g90
g71
NtRp2207
(dp2208
g74
(dp2209
g94
g95
ssg83
g2203
sg76
(lp2210
S'wsgi_multiprocess'
p2211
asbag69
(g90
g71
NtRp2212
(dp2213
g74
(dp2214
g101
g102
ssg83
g2203
sg76
(lp2215
S':'
asbag69
(g90
g71
NtRp2216
(dp2217
g74
(dp2218
sg83
g2203
sg76
(lp2219
g69
(g70
g71
NtRp2220
(dp2221
g74
(dp2222
g82
I4
ssg83
g2216
sg76
(lp2223
g112
asbasbasbag69
(g85
g71
NtRp2224
(dp2225
g74
(dp2226
sg83
g1389
sg76
(lp2227
g69
(g90
g71
NtRp2228
(dp2229
g74
(dp2230
g94
g95
ssg83
g2224
sg76
(lp2231
S'wsgi_multithread'
p2232
asbag69
(g90
g71
NtRp2233
(dp2234
g74
(dp2235
g101
g102
ssg83
g2224
sg76
(lp2236
S':'
asbag69
(g90
g71
NtRp2237
(dp2238
g74
(dp2239
sg83
g2224
sg76
(lp2240
g69
(g70
g71
NtRp2241
(dp2242
g74
(dp2243
g82
I4
ssg83
g2237
sg76
(lp2244
S'True'
p2245
asbasbasbag69
(g85
g71
NtRp2246
(dp2247
g74
(dp2248
sg83
g1389
sg76
(lp2249
g69
(g90
g71
NtRp2250
(dp2251
g74
(dp2252
g94
g95
ssg83
g2246
sg76
(lp2253
S'wsgi_run_once'
p2254
asbag69
(g90
g71
NtRp2255
(dp2256
g74
(dp2257
g101
g102
ssg83
g2246
sg76
(lp2258
S':'
asbag69
(g90
g71
NtRp2259
(dp2260
g74
(dp2261
sg83
g2246
sg76
(lp2262
g69
(g70
g71
NtRp2263
(dp2264
g74
(dp2265
g82
I4
ssg83
g2259
sg76
(lp2266
g112
asbasbasbag69
(g85
g71
NtRp2267
(dp2268
g74
(dp2269
sg83
g1389
sg76
(lp2270
g69
(g90
g71
NtRp2271
(dp2272
g74
(dp2273
g94
g95
ssg83
g2267
sg76
(lp2274
S'wsgi_url_scheme'
p2275
asbag69
(g90
g71
NtRp2276
(dp2277
g74
(dp2278
g101
g102
ssg83
g2267
sg76
(lp2279
S':'
asbag69
(g90
g71
NtRp2280
(dp2281
g74
(dp2282
sg83
g2267
sg76
(lp2283
g69
(g70
g71
NtRp2284
(dp2285
g74
(dp2286
g82
I4
ssg83
g2280
sg76
(lp2287
S'http'
p2288
asbasbasbag69
(g85
g71
NtRp2289
(dp2290
g74
(dp2291
sg83
g1389
sg76
(lp2292
g69
(g90
g71
NtRp2293
(dp2294
g74
(dp2295
g94
g95
ssg83
g2289
sg76
(lp2296
S'wsgi_version'
p2297
asbag69
(g90
g71
NtRp2298
(dp2299
g74
(dp2300
g101
g102
ssg83
g2289
sg76
(lp2301
S':'
asbag69
(g90
g71
NtRp2302
(dp2303
g74
(dp2304
sg83
g2289
sg76
(lp2305
g69
(g70
g71
NtRp2306
(dp2307
g74
(dp2308
g82
I4
ssg83
g2302
sg76
(lp2309
g69
(g78
g71
NtRp2310
(dp2311
g74
(dp2312
g82
I3
ssg83
Nsg76
(lp2313
g69
(g85
g71
NtRp2314
(dp2315
g74
(dp2316
sg83
g2310
sg76
(lp2317
g69
(g90
g71
NtRp2318
(dp2319
g74
(dp2320
sg83
g2314
sg76
(lp2321
g69
(g70
g71
NtRp2322
(dp2323
g74
(dp2324
g82
I3
ssg83
g2318
sg76
(lp2325
S'1'
asbasbasbag69
(g85
g71
NtRp2326
(dp2327
g74
(dp2328
sg83
g2310
sg76
(lp2329
g69
(g90
g71
NtRp2330
(dp2331
g74
(dp2332
sg83
g2326
sg76
(lp2333
g69
(g70
g71
NtRp2334
(dp2335
g74
(dp2336
g82
I3
ssg83
g2330
sg76
(lp2337
S'0'
asbasbasbasbasbasbasbasbasbasbasbag69
(g85
g71
NtRp2338
(dp2339
g74
(dp2340
sg83
g79
sg76
(lp2341
g69
(g90
g71
NtRp2342
(dp2343
g74
(dp2344
g94
g95
ssg83
g2338
sg76
(lp2345
S'extension'
p2346
asbag69
(g90
g71
NtRp2347
(dp2348
g74
(dp2349
g101
g102
ssg83
g2338
sg76
(lp2350
S':'
asbag69
(g90
g71
NtRp2351
(dp2352
g74
(dp2353
sg83
g2338
sg76
(lp2354
g69
(g70
g71
NtRp2355
(dp2356
g74
(dp2357
g82
I5
ssg83
g2351
sg76
(lp2358
S'html'
p2359
asbasbasbag69
(g85
g71
NtRp2360
(dp2361
g74
(dp2362
sg83
g79
sg76
(lp2363
g69
(g90
g71
NtRp2364
(dp2365
g74
(dp2366
g94
g95
ssg83
g2360
sg76
(lp2367
S'folder'
p2368
asbag69
(g90
g71
NtRp2369
(dp2370
g74
(dp2371
g101
g102
ssg83
g2360
sg76
(lp2372
S':'
asbag69
(g90
g71
NtRp2373
(dp2374
g74
(dp2375
sg83
g2360
sg76
(lp2376
g69
(g70
g71
NtRp2377
(dp2378
g74
(dp2379
g82
I5
ssg83
g2373
sg76
(lp2380
S'/home/vishrut/web2py/applications/astra2/'
p2381
asbasbasbag69
(g85
g71
NtRp2382
(dp2383
g74
(dp2384
sg83
g79
sg76
(lp2385
g69
(g90
g71
NtRp2386
(dp2387
g74
(dp2388
g94
g95
ssg83
g2382
sg76
(lp2389
S'function'
p2390
asbag69
(g90
g71
NtRp2391
(dp2392
g74
(dp2393
g101
g102
ssg83
g2382
sg76
(lp2394
S':'
asbag69
(g90
g71
NtRp2395
(dp2396
g74
(dp2397
sg83
g2382
sg76
(lp2398
g69
(g70
g71
NtRp2399
(dp2400
g74
(dp2401
g82
I5
ssg83
g2395
sg76
(lp2402
S'show'
p2403
asbasbasbag69
(g85
g71
NtRp2404
(dp2405
g74
(dp2406
sg83
g79
sg76
(lp2407
g69
(g90
g71
NtRp2408
(dp2409
g74
(dp2410
g94
g95
ssg83
g2404
sg76
(lp2411
S'get_vars'
p2412
asbag69
(g90
g71
NtRp2413
(dp2414
g74
(dp2415
g101
g102
ssg83
g2404
sg76
(lp2416
S':'
asbag69
(g90
g71
NtRp2417
(dp2418
g74
(dp2419
sg83
g2404
sg76
(lp2420
g69
(g70
g71
NtRp2421
(dp2422
g74
(dp2423
g82
I5
ssg83
g2417
sg76
(lp2424
g69
(g78
g71
NtRp2425
(dp2426
g74
(dp2427
g82
I4
ssg83
Nsg76
(lp2428
sbasbasbasbag69
(g85
g71
NtRp2429
(dp2430
g74
(dp2431
sg83
g79
sg76
(lp2432
g69
(g90
g71
NtRp2433
(dp2434
g74
(dp2435
g94
g95
ssg83
g2429
sg76
(lp2436
S'global_settings'
p2437
asbag69
(g90
g71
NtRp2438
(dp2439
g74
(dp2440
g101
g102
ssg83
g2429
sg76
(lp2441
S':'
asbag69
(g90
g71
NtRp2442
(dp2443
g74
(dp2444
sg83
g2429
sg76
(lp2445
g69
(g70
g71
NtRp2446
(dp2447
g74
(dp2448
g82
I5
ssg83
g2442
sg76
(lp2449
g69
(g78
g71
NtRp2450
(dp2451
g74
(dp2452
g82
I4
ssg83
Nsg76
(lp2453
g69
(g85
g71
NtRp2454
(dp2455
g74
(dp2456
sg83
g2450
sg76
(lp2457
g69
(g90
g71
NtRp2458
(dp2459
g74
(dp2460
g94
g95
ssg83
g2454
sg76
(lp2461
g1401
asbag69
(g90
g71
NtRp2462
(dp2463
g74
(dp2464
g101
g102
ssg83
g2454
sg76
(lp2465
S':'
asbag69
(g90
g71
NtRp2466
(dp2467
g74
(dp2468
sg83
g2454
sg76
(lp2469
g69
(g70
g71
NtRp2470
(dp2471
g74
(dp2472
g82
I4
ssg83
g2466
sg76
(lp2473
S"set(['/home/vishrut/web2py/applications/astra3/', '/home/vishrut/web2py/applications/astra2/', '/home/vishrut/web2py/applications/welcome/', '/home/vishrut/web2py/applications/PhotoUploader/', '/home/vishrut/web2py/applications/sastra2/', '/home/vishrut/web2py/applications/admin/'])"
p2474
asbasbasbag69
(g85
g71
NtRp2475
(dp2476
g74
(dp2477
sg83
g2450
sg76
(lp2478
g69
(g90
g71
NtRp2479
(dp2480
g74
(dp2481
g94
g95
ssg83
g2475
sg76
(lp2482
g1423
asbag69
(g90
g71
NtRp2483
(dp2484
g74
(dp2485
g101
g102
ssg83
g2475
sg76
(lp2486
S':'
asbag69
(g90
g71
NtRp2487
(dp2488
g74
(dp2489
sg83
g2475
sg76
(lp2490
g69
(g70
g71
NtRp2491
(dp2492
g74
(dp2493
g82
I4
ssg83
g2487
sg76
(lp2494
g1436
asbasbasbag69
(g85
g71
NtRp2495
(dp2496
g74
(dp2497
sg83
g2450
sg76
(lp2498
g69
(g90
g71
NtRp2499
(dp2500
g74
(dp2501
g94
g95
ssg83
g2495
sg76
(lp2502
g1445
asbag69
(g90
g71
NtRp2503
(dp2504
g74
(dp2505
g101
g102
ssg83
g2495
sg76
(lp2506
S':'
asbag69
(g90
g71
NtRp2507
(dp2508
g74
(dp2509
sg83
g2495
sg76
(lp2510
g69
(g70
g71
NtRp2511
(dp2512
g74
(dp2513
g82
I4
ssg83
g2507
sg76
(lp2514
g69
(g78
g71
NtRp2515
(dp2516
g74
(dp2517
g82
I3
ssg83
Nsg76
(lp2518
sbasbasbasbag69
(g85
g71
NtRp2519
(dp2520
g74
(dp2521
sg83
g2450
sg76
(lp2522
g69
(g90
g71
NtRp2523
(dp2524
g74
(dp2525
g94
g95
ssg83
g2519
sg76
(lp2526
g1470
asbag69
(g90
g71
NtRp2527
(dp2528
g74
(dp2529
g101
g102
ssg83
g2519
sg76
(lp2530
S':'
asbag69
(g90
g71
NtRp2531
(dp2532
g74
(dp2533
sg83
g2519
sg76
(lp2534
g69
(g70
g71
NtRp2535
(dp2536
g74
(dp2537
g82
I4
ssg83
g2531
sg76
(lp2538
S"<Values at 0x9ad6c6c: {'verbose': False, 'ip': '127.0.0.1', 'shutdown_timeout': 5, 'taskbar': False, 'nocron': False, 'pid_filename': 'httpserver.pid', 'maxthreads': None, 'softcron': False, 'server_name': 'vishrut-Vostro-1015', 'bpython': False, 'nogui': False, 'port': 8000, 'extcron': False, 'debuglevel': 30, 'test': None, 'folder': '/home/vishrut/web2py', 'config': '', 'import_models': False, 'winservice': '', 'shell': None, 'run': '', 'log_filename': 'httpserver.log', 'args': [''], 'socket_timeout': 5, 'ssl_ca_certificate': None, 'scheduler': None, 'profiler_filename': None, 'ssl_private_key': '', 'password': '<ask>', 'request_queue_size': 5, 'ssl_certificate': '', 'cronjob': False, 'numthreads': None, 'quiet': False, 'interfaces': None, 'minthreads': None, 'timeout': 10, 'plain': False, 'nobanner': False}>"
p2539
asbasbasbag69
(g85
g71
NtRp2540
(dp2541
g74
(dp2542
sg83
g2450
sg76
(lp2543
g69
(g90
g71
NtRp2544
(dp2545
g74
(dp2546
g94
g95
ssg83
g2540
sg76
(lp2547
g1492
asbag69
(g90
g71
NtRp2548
(dp2549
g74
(dp2550
g101
g102
ssg83
g2540
sg76
(lp2551
S':'
asbag69
(g90
g71
NtRp2552
(dp2553
g74
(dp2554
sg83
g2540
sg76
(lp2555
g69
(g70
g71
NtRp2556
(dp2557
g74
(dp2558
g82
I4
ssg83
g2552
sg76
(lp2559
S'set([])'
p2560
asbasbasbag69
(g85
g71
NtRp2561
(dp2562
g74
(dp2563
sg83
g2450
sg76
(lp2564
g69
(g90
g71
NtRp2565
(dp2566
g74
(dp2567
g94
g95
ssg83
g2561
sg76
(lp2568
g1514
asbag69
(g90
g71
NtRp2569
(dp2570
g74
(dp2571
g101
g102
ssg83
g2561
sg76
(lp2572
S':'
asbag69
(g90
g71
NtRp2573
(dp2574
g74
(dp2575
sg83
g2561
sg76
(lp2576
g69
(g70
g71
NtRp2577
(dp2578
g74
(dp2579
g82
I4
ssg83
g2573
sg76
(lp2580
g112
asbasbasbag69
(g85
g71
NtRp2581
(dp2582
g74
(dp2583
sg83
g2450
sg76
(lp2584
g69
(g90
g71
NtRp2585
(dp2586
g74
(dp2587
g94
g95
ssg83
g2581
sg76
(lp2588
g1535
asbag69
(g90
g71
NtRp2589
(dp2590
g74
(dp2591
g101
g102
ssg83
g2581
sg76
(lp2592
S':'
asbag69
(g90
g71
NtRp2593
(dp2594
g74
(dp2595
sg83
g2581
sg76
(lp2596
g69
(g70
g71
NtRp2597
(dp2598
g74
(dp2599
g82
I4
ssg83
g2593
sg76
(lp2600
g1548
asbasbasbag69
(g85
g71
NtRp2601
(dp2602
g74
(dp2603
sg83
g2450
sg76
(lp2604
g69
(g90
g71
NtRp2605
(dp2606
g74
(dp2607
g94
g95
ssg83
g2601
sg76
(lp2608
g1755
asbag69
(g90
g71
NtRp2609
(dp2610
g74
(dp2611
g101
g102
ssg83
g2601
sg76
(lp2612
S':'
asbag69
(g90
g71
NtRp2613
(dp2614
g74
(dp2615
sg83
g2601
sg76
(lp2616
g69
(g70
g71
NtRp2617
(dp2618
g74
(dp2619
g82
I4
ssg83
g2613
sg76
(lp2620
g112
asbasbasbag69
(g85
g71
NtRp2621
(dp2622
g74
(dp2623
sg83
g2450
sg76
(lp2624
g69
(g90
g71
NtRp2625
(dp2626
g74
(dp2627
g94
g95
ssg83
g2621
sg76
(lp2628
g1776
asbag69
(g90
g71
NtRp2629
(dp2630
g74
(dp2631
g101
g102
ssg83
g2621
sg76
(lp2632
S':'
asbag69
(g90
g71
NtRp2633
(dp2634
g74
(dp2635
sg83
g2621
sg76
(lp2636
g69
(g70
g71
NtRp2637
(dp2638
g74
(dp2639
g82
I4
ssg83
g2633
sg76
(lp2640
g112
asbasbasbag69
(g85
g71
NtRp2641
(dp2642
g74
(dp2643
sg83
g2450
sg76
(lp2644
g69
(g90
g71
NtRp2645
(dp2646
g74
(dp2647
g94
g95
ssg83
g2641
sg76
(lp2648
g2014
asbag69
(g90
g71
NtRp2649
(dp2650
g74
(dp2651
g101
g102
ssg83
g2641
sg76
(lp2652
S':'
asbag69
(g90
g71
NtRp2653
(dp2654
g74
(dp2655
sg83
g2641
sg76
(lp2656
g69
(g70
g71
NtRp2657
(dp2658
g74
(dp2659
g82
I4
ssg83
g2653
sg76
(lp2660
g2027
asbasbasbag69
(g85
g71
NtRp2661
(dp2662
g74
(dp2663
sg83
g2450
sg76
(lp2664
g69
(g90
g71
NtRp2665
(dp2666
g74
(dp2667
g94
g95
ssg83
g2661
sg76
(lp2668
g2057
asbag69
(g90
g71
NtRp2669
(dp2670
g74
(dp2671
g101
g102
ssg83
g2661
sg76
(lp2672
S':'
asbag69
(g90
g71
NtRp2673
(dp2674
g74
(dp2675
sg83
g2661
sg76
(lp2676
g69
(g70
g71
NtRp2677
(dp2678
g74
(dp2679
g82
I4
ssg83
g2673
sg76
(lp2680
g69
(g78
g71
NtRp2681
(dp2682
g74
(dp2683
g82
I3
ssg83
Nsg76
(lp2684
g69
(g85
g71
NtRp2685
(dp2686
g74
(dp2687
sg83
g2681
sg76
(lp2688
g69
(g90
g71
NtRp2689
(dp2690
g74
(dp2691
sg83
g2685
sg76
(lp2692
g69
(g70
g71
NtRp2693
(dp2694
g74
(dp2695
g82
I3
ssg83
g2689
sg76
(lp2696
S'1'
asbasbasbag69
(g85
g71
NtRp2697
(dp2698
g74
(dp2699
sg83
g2681
sg76
(lp2700
g69
(g90
g71
NtRp2701
(dp2702
g74
(dp2703
sg83
g2697
sg76
(lp2704
g69
(g70
g71
NtRp2705
(dp2706
g74
(dp2707
g82
I3
ssg83
g2701
sg76
(lp2708
S'99'
p2709
asbasbasbag69
(g85
g71
NtRp2710
(dp2711
g74
(dp2712
sg83
g2681
sg76
(lp2713
g69
(g90
g71
NtRp2714
(dp2715
g74
(dp2716
sg83
g2710
sg76
(lp2717
g69
(g70
g71
NtRp2718
(dp2719
g74
(dp2720
g82
I3
ssg83
g2714
sg76
(lp2721
S'7'
asbasbasbag69
(g85
g71
NtRp2722
(dp2723
g74
(dp2724
sg83
g2681
sg76
(lp2725
g69
(g90
g71
NtRp2726
(dp2727
g74
(dp2728
sg83
g2722
sg76
(lp2729
g69
(g70
g71
NtRp2730
(dp2731
g74
(dp2732
g82
I3
ssg83
g2726
sg76
(lp2733
S'datetime.datetime(2012, 3, 4, 22, 12, 8)'
p2734
asbasbasbag69
(g85
g71
NtRp2735
(dp2736
g74
(dp2737
sg83
g2681
sg76
(lp2738
g69
(g90
g71
NtRp2739
(dp2740
g74
(dp2741
sg83
g2735
sg76
(lp2742
g69
(g70
g71
NtRp2743
(dp2744
g74
(dp2745
g82
I3
ssg83
g2739
sg76
(lp2746
g2136
asbasbasbasbasbasbasbasbasbasbasbag69
(g85
g71
NtRp2747
(dp2748
g74
(dp2749
sg83
g79
sg76
(lp2750
g69
(g90
g71
NtRp2751
(dp2752
g74
(dp2753
g94
g95
ssg83
g2747
sg76
(lp2754
S'is_https'
p2755
asbag69
(g90
g71
NtRp2756
(dp2757
g74
(dp2758
g101
g102
ssg83
g2747
sg76
(lp2759
S':'
asbag69
(g90
g71
NtRp2760
(dp2761
g74
(dp2762
sg83
g2747
sg76
(lp2763
g69
(g70
g71
NtRp2764
(dp2765
g74
(dp2766
g82
I5
ssg83
g2760
sg76
(lp2767
g112
asbasbasbag69
(g85
g71
NtRp2768
(dp2769
g74
(dp2770
sg83
g79
sg76
(lp2771
g69
(g90
g71
NtRp2772
(dp2773
g74
(dp2774
g94
g95
ssg83
g2768
sg76
(lp2775
S'is_local'
p2776
asbag69
(g90
g71
NtRp2777
(dp2778
g74
(dp2779
g101
g102
ssg83
g2768
sg76
(lp2780
S':'
asbag69
(g90
g71
NtRp2781
(dp2782
g74
(dp2783
sg83
g2768
sg76
(lp2784
g69
(g70
g71
NtRp2785
(dp2786
g74
(dp2787
g82
I5
ssg83
g2781
sg76
(lp2788
g2245
asbasbasbag69
(g85
g71
NtRp2789
(dp2790
g74
(dp2791
sg83
g79
sg76
(lp2792
g69
(g90
g71
NtRp2793
(dp2794
g74
(dp2795
g94
g95
ssg83
g2789
sg76
(lp2796
S'is_restful'
p2797
asbag69
(g90
g71
NtRp2798
(dp2799
g74
(dp2800
g101
g102
ssg83
g2789
sg76
(lp2801
S':'
asbag69
(g90
g71
NtRp2802
(dp2803
g74
(dp2804
sg83
g2789
sg76
(lp2805
g69
(g70
g71
NtRp2806
(dp2807
g74
(dp2808
g82
I5
ssg83
g2802
sg76
(lp2809
g112
asbasbasbag69
(g85
g71
NtRp2810
(dp2811
g74
(dp2812
sg83
g79
sg76
(lp2813
g69
(g90
g71
NtRp2814
(dp2815
g74
(dp2816
g94
g95
ssg83
g2810
sg76
(lp2817
S'now'
p2818
asbag69
(g90
g71
NtRp2819
(dp2820
g74
(dp2821
g101
g102
ssg83
g2810
sg76
(lp2822
S':'
asbag69
(g90
g71
NtRp2823
(dp2824
g74
(dp2825
sg83
g2810
sg76
(lp2826
g69
(g70
g71
NtRp2827
(dp2828
g74
(dp2829
g82
I5
ssg83
g2823
sg76
(lp2830
S'datetime.datetime(2012, 11, 15, 14, 44, 37, 450157)'
p2831
asbasbasbag69
(g85
g71
NtRp2832
(dp2833
g74
(dp2834
sg83
g79
sg76
(lp2835
g69
(g90
g71
NtRp2836
(dp2837
g74
(dp2838
g94
g95
ssg83
g2832
sg76
(lp2839
S'post_vars'
p2840
asbag69
(g90
g71
NtRp2841
(dp2842
g74
(dp2843
g101
g102
ssg83
g2832
sg76
(lp2844
S':'
asbag69
(g90
g71
NtRp2845
(dp2846
g74
(dp2847
sg83
g2832
sg76
(lp2848
g69
(g70
g71
NtRp2849
(dp2850
g74
(dp2851
g82
I5
ssg83
g2845
sg76
(lp2852
g69
(g78
g71
NtRp2853
(dp2854
g74
(dp2855
g82
I4
ssg83
Nsg76
(lp2856
sbasbasbasbag69
(g85
g71
NtRp2857
(dp2858
g74
(dp2859
sg83
g79
sg76
(lp2860
g69
(g90
g71
NtRp2861
(dp2862
g74
(dp2863
g94
g95
ssg83
g2857
sg76
(lp2864
S'url'
p2865
asbag69
(g90
g71
NtRp2866
(dp2867
g74
(dp2868
g101
g102
ssg83
g2857
sg76
(lp2869
S':'
asbag69
(g90
g71
NtRp2870
(dp2871
g74
(dp2872
sg83
g2857
sg76
(lp2873
g69
(g70
g71
NtRp2874
(dp2875
g74
(dp2876
g82
I5
ssg83
g2870
sg76
(lp2877
S'/astra2/default/show'
p2878
asbasbasbag69
(g85
g71
NtRp2879
(dp2880
g74
(dp2881
sg83
g79
sg76
(lp2882
g69
(g90
g71
NtRp2883
(dp2884
g74
(dp2885
g94
g95
ssg83
g2879
sg76
(lp2886
S'utcnow'
p2887
asbag69
(g90
g71
NtRp2888
(dp2889
g74
(dp2890
g101
g102
ssg83
g2879
sg76
(lp2891
S':'
asbag69
(g90
g71
NtRp2892
(dp2893
g74
(dp2894
sg83
g2879
sg76
(lp2895
g69
(g70
g71
NtRp2896
(dp2897
g74
(dp2898
g82
I5
ssg83
g2892
sg76
(lp2899
S'datetime.datetime(2012, 11, 15, 9, 44, 37, 450219)'
p2900
asbasbasbag69
(g85
g71
NtRp2901
(dp2902
g74
(dp2903
sg83
g79
sg76
(lp2904
g69
(g90
g71
NtRp2905
(dp2906
g74
(dp2907
g94
g95
ssg83
g2901
sg76
(lp2908
S'uuid'
p2909
asbag69
(g90
g71
NtRp2910
(dp2911
g74
(dp2912
g101
g102
ssg83
g2901
sg76
(lp2913
S':'
asbag69
(g90
g71
NtRp2914
(dp2915
g74
(dp2916
sg83
g2901
sg76
(lp2917
g69
(g70
g71
NtRp2918
(dp2919
g74
(dp2920
g82
I5
ssg83
g2914
sg76
(lp2921
S'astra2/127.0.0.1.2012-11-15.14-44-37.0a8ad76a-0144-4f8b-8682-771c17d30c34'
p2922
asbasbasbag69
(g85
g71
NtRp2923
(dp2924
g74
(dp2925
sg83
g79
sg76
(lp2926
g69
(g90
g71
NtRp2927
(dp2928
g74
(dp2929
g94
g95
ssg83
g2923
sg76
(lp2930
S'vars'
p2931
asbag69
(g90
g71
NtRp2932
(dp2933
g74
(dp2934
g101
g102
ssg83
g2923
sg76
(lp2935
S':'
asbag69
(g90
g71
NtRp2936
(dp2937
g74
(dp2938
sg83
g2923
sg76
(lp2939
g69
(g70
g71
NtRp2940
(dp2941
g74
(dp2942
g82
I5
ssg83
g2936
sg76
(lp2943
g69
(g78
g71
NtRp2944
(dp2945
g74
(dp2946
g82
I4
ssg83
Nsg76
(lp2947
sbasbasbasbag69
(g85
g71
NtRp2948
(dp2949
g74
(dp2950
sg83
g79
sg76
(lp2951
g69
(g90
g71
NtRp2952
(dp2953
g74
(dp2954
g94
g95
ssg83
g2948
sg76
(lp2955
S'wsgi'
p2956
asbag69
(g90
g71
NtRp2957
(dp2958
g74
(dp2959
g101
g102
ssg83
g2948
sg76
(lp2960
S':'
asbag69
(g90
g71
NtRp2961
(dp2962
g74
(dp2963
sg83
g2948
sg76
(lp2964
g69
(g70
g71
NtRp2965
(dp2966
g74
(dp2967
g82
I5
ssg83
g2961
sg76
(lp2968
g69
(g78
g71
NtRp2969
(dp2970
g74
(dp2971
g82
I4
ssg83
Nsg76
(lp2972
g69
(g85
g71
NtRp2973
(dp2974
g74
(dp2975
sg83
g2969
sg76
(lp2976
g69
(g90
g71
NtRp2977
(dp2978
g74
(dp2979
g94
g95
ssg83
g2973
sg76
(lp2980
S'environ'
p2981
asbag69
(g90
g71
NtRp2982
(dp2983
g74
(dp2984
g101
g102
ssg83
g2973
sg76
(lp2985
S':'
asbag69
(g90
g71
NtRp2986
(dp2987
g74
(dp2988
sg83
g2973
sg76
(lp2989
g69
(g70
g71
NtRp2990
(dp2991
g74
(dp2992
g82
I4
ssg83
g2986
sg76
(lp2993
g69
(g78
g71
NtRp2994
(dp2995
g74
(dp2996
g82
I3
ssg83
Nsg76
(lp2997
g69
(g85
g71
NtRp2998
(dp2999
g74
(dp3000
sg83
g2994
sg76
(lp3001
g69
(g90
g71
NtRp3002
(dp3003
g74
(dp3004
g94
g95
ssg83
g2998
sg76
(lp3005
S'HTTP_ACCEPT'
p3006
asbag69
(g90
g71
NtRp3007
(dp3008
g74
(dp3009
g101
g102
ssg83
g2998
sg76
(lp3010
S':'
asbag69
(g90
g71
NtRp3011
(dp3012
g74
(dp3013
sg83
g2998
sg76
(lp3014
g69
(g70
g71
NtRp3015
(dp3016
g74
(dp3017
g82
I3
ssg83
g3011
sg76
(lp3018
g1570
asbasbasbag69
(g85
g71
NtRp3019
(dp3020
g74
(dp3021
sg83
g2994
sg76
(lp3022
g69
(g90
g71
NtRp3023
(dp3024
g74
(dp3025
g94
g95
ssg83
g3019
sg76
(lp3026
S'HTTP_ACCEPT_ENCODING'
p3027
asbag69
(g90
g71
NtRp3028
(dp3029
g74
(dp3030
g101
g102
ssg83
g3019
sg76
(lp3031
S':'
asbag69
(g90
g71
NtRp3032
(dp3033
g74
(dp3034
sg83
g3019
sg76
(lp3035
g69
(g70
g71
NtRp3036
(dp3037
g74
(dp3038
g82
I3
ssg83
g3032
sg76
(lp3039
g1592
asbasbasbag69
(g85
g71
NtRp3040
(dp3041
g74
(dp3042
sg83
g2994
sg76
(lp3043
g69
(g90
g71
NtRp3044
(dp3045
g74
(dp3046
g94
g95
ssg83
g3040
sg76
(lp3047
S'HTTP_ACCEPT_LANGUAGE'
p3048
asbag69
(g90
g71
NtRp3049
(dp3050
g74
(dp3051
g101
g102
ssg83
g3040
sg76
(lp3052
S':'
asbag69
(g90
g71
NtRp3053
(dp3054
g74
(dp3055
sg83
g3040
sg76
(lp3056
g69
(g70
g71
NtRp3057
(dp3058
g74
(dp3059
g82
I3
ssg83
g3053
sg76
(lp3060
g1614
asbasbasbag69
(g85
g71
NtRp3061
(dp3062
g74
(dp3063
sg83
g2994
sg76
(lp3064
g69
(g90
g71
NtRp3065
(dp3066
g74
(dp3067
g94
g95
ssg83
g3061
sg76
(lp3068
S'HTTP_CACHE_CONTROL'
p3069
asbag69
(g90
g71
NtRp3070
(dp3071
g74
(dp3072
g101
g102
ssg83
g3061
sg76
(lp3073
S':'
asbag69
(g90
g71
NtRp3074
(dp3075
g74
(dp3076
sg83
g3061
sg76
(lp3077
g69
(g70
g71
NtRp3078
(dp3079
g74
(dp3080
g82
I3
ssg83
g3074
sg76
(lp3081
g1636
asbasbasbag69
(g85
g71
NtRp3082
(dp3083
g74
(dp3084
sg83
g2994
sg76
(lp3085
g69
(g90
g71
NtRp3086
(dp3087
g74
(dp3088
g94
g95
ssg83
g3082
sg76
(lp3089
S'HTTP_CONNECTION'
p3090
asbag69
(g90
g71
NtRp3091
(dp3092
g74
(dp3093
g101
g102
ssg83
g3082
sg76
(lp3094
S':'
asbag69
(g90
g71
NtRp3095
(dp3096
g74
(dp3097
sg83
g3082
sg76
(lp3098
g69
(g70
g71
NtRp3099
(dp3100
g74
(dp3101
g82
I3
ssg83
g3095
sg76
(lp3102
g1658
asbasbasbag69
(g85
g71
NtRp3103
(dp3104
g74
(dp3105
sg83
g2994
sg76
(lp3106
g69
(g90
g71
NtRp3107
(dp3108
g74
(dp3109
g94
g95
ssg83
g3103
sg76
(lp3110
S'HTTP_COOKIE'
p3111
asbag69
(g90
g71
NtRp3112
(dp3113
g74
(dp3114
g101
g102
ssg83
g3103
sg76
(lp3115
S':'
asbag69
(g90
g71
NtRp3116
(dp3117
g74
(dp3118
sg83
g3103
sg76
(lp3119
g69
(g70
g71
NtRp3120
(dp3121
g74
(dp3122
g82
I3
ssg83
g3116
sg76
(lp3123
g1680
asbasbasbag69
(g85
g71
NtRp3124
(dp3125
g74
(dp3126
sg83
g2994
sg76
(lp3127
g69
(g90
g71
NtRp3128
(dp3129
g74
(dp3130
g94
g95
ssg83
g3124
sg76
(lp3131
S'HTTP_HOST'
p3132
asbag69
(g90
g71
NtRp3133
(dp3134
g74
(dp3135
g101
g102
ssg83
g3124
sg76
(lp3136
S':'
asbag69
(g90
g71
NtRp3137
(dp3138
g74
(dp3139
sg83
g3124
sg76
(lp3140
g69
(g70
g71
NtRp3141
(dp3142
g74
(dp3143
g82
I3
ssg83
g3137
sg76
(lp3144
g1702
asbasbasbag69
(g85
g71
NtRp3145
(dp3146
g74
(dp3147
sg83
g2994
sg76
(lp3148
g69
(g90
g71
NtRp3149
(dp3150
g74
(dp3151
g94
g95
ssg83
g3145
sg76
(lp3152
S'HTTP_REFERER'
p3153
asbag69
(g90
g71
NtRp3154
(dp3155
g74
(dp3156
g101
g102
ssg83
g3145
sg76
(lp3157
S':'
asbag69
(g90
g71
NtRp3158
(dp3159
g74
(dp3160
sg83
g3145
sg76
(lp3161
g69
(g70
g71
NtRp3162
(dp3163
g74
(dp3164
g82
I3
ssg83
g3158
sg76
(lp3165
g1724
asbasbasbag69
(g85
g71
NtRp3166
(dp3167
g74
(dp3168
sg83
g2994
sg76
(lp3169
g69
(g90
g71
NtRp3170
(dp3171
g74
(dp3172
g94
g95
ssg83
g3166
sg76
(lp3173
S'HTTP_USER_AGENT'
p3174
asbag69
(g90
g71
NtRp3175
(dp3176
g74
(dp3177
g101
g102
ssg83
g3166
sg76
(lp3178
S':'
asbag69
(g90
g71
NtRp3179
(dp3180
g74
(dp3181
sg83
g3166
sg76
(lp3182
g69
(g70
g71
NtRp3183
(dp3184
g74
(dp3185
g82
I3
ssg83
g3179
sg76
(lp3186
g1746
asbasbasbag69
(g85
g71
NtRp3187
(dp3188
g74
(dp3189
sg83
g2994
sg76
(lp3190
g69
(g90
g71
NtRp3191
(dp3192
g74
(dp3193
g94
g95
ssg83
g3187
sg76
(lp3194
S'PATH_INFO'
p3195
asbag69
(g90
g71
NtRp3196
(dp3197
g74
(dp3198
g101
g102
ssg83
g3187
sg76
(lp3199
S':'
asbag69
(g90
g71
NtRp3200
(dp3201
g74
(dp3202
sg83
g3187
sg76
(lp3203
g69
(g70
g71
NtRp3204
(dp3205
g74
(dp3206
g82
I3
ssg83
g3200
sg76
(lp3207
g1810
asbasbasbag69
(g85
g71
NtRp3208
(dp3209
g74
(dp3210
sg83
g2994
sg76
(lp3211
g69
(g90
g71
NtRp3212
(dp3213
g74
(dp3214
g94
g95
ssg83
g3208
sg76
(lp3215
S'QUERY_STRING'
p3216
asbag69
(g90
g71
NtRp3217
(dp3218
g74
(dp3219
g101
g102
ssg83
g3208
sg76
(lp3220
S':'
asbag69
(g90
g71
NtRp3221
(dp3222
g74
(dp3223
sg83
g3208
sg76
(lp3224
g69
(g70
g71
NtRp3225
(dp3226
g74
(dp3227
g82
I3
ssg83
g3221
sg76
(lp3228
S''
asbasbasbag69
(g85
g71
NtRp3229
(dp3230
g74
(dp3231
sg83
g2994
sg76
(lp3232
g69
(g90
g71
NtRp3233
(dp3234
g74
(dp3235
g94
g95
ssg83
g3229
sg76
(lp3236
S'REMOTE_ADDR'
p3237
asbag69
(g90
g71
NtRp3238
(dp3239
g74
(dp3240
g101
g102
ssg83
g3229
sg76
(lp3241
S':'
asbag69
(g90
g71
NtRp3242
(dp3243
g74
(dp3244
sg83
g3229
sg76
(lp3245
g69
(g70
g71
NtRp3246
(dp3247
g74
(dp3248
g82
I3
ssg83
g3242
sg76
(lp3249
g202
asbasbasbag69
(g85
g71
NtRp3250
(dp3251
g74
(dp3252
sg83
g2994
sg76
(lp3253
g69
(g90
g71
NtRp3254
(dp3255
g74
(dp3256
g94
g95
ssg83
g3250
sg76
(lp3257
S'REMOTE_PORT'
p3258
asbag69
(g90
g71
NtRp3259
(dp3260
g74
(dp3261
g101
g102
ssg83
g3250
sg76
(lp3262
S':'
asbag69
(g90
g71
NtRp3263
(dp3264
g74
(dp3265
sg83
g3250
sg76
(lp3266
g69
(g70
g71
NtRp3267
(dp3268
g74
(dp3269
g82
I3
ssg83
g3263
sg76
(lp3270
g1874
asbasbasbag69
(g85
g71
NtRp3271
(dp3272
g74
(dp3273
sg83
g2994
sg76
(lp3274
g69
(g90
g71
NtRp3275
(dp3276
g74
(dp3277
g94
g95
ssg83
g3271
sg76
(lp3278
S'REQUEST_METHOD'
p3279
asbag69
(g90
g71
NtRp3280
(dp3281
g74
(dp3282
g101
g102
ssg83
g3271
sg76
(lp3283
S':'
asbag69
(g90
g71
NtRp3284
(dp3285
g74
(dp3286
sg83
g3271
sg76
(lp3287
g69
(g70
g71
NtRp3288
(dp3289
g74
(dp3290
g82
I3
ssg83
g3284
sg76
(lp3291
g1896
asbasbasbag69
(g85
g71
NtRp3292
(dp3293
g74
(dp3294
sg83
g2994
sg76
(lp3295
g69
(g90
g71
NtRp3296
(dp3297
g74
(dp3298
g94
g95
ssg83
g3292
sg76
(lp3299
S'SCRIPT_NAME'
p3300
asbag69
(g90
g71
NtRp3301
(dp3302
g74
(dp3303
g101
g102
ssg83
g3292
sg76
(lp3304
S':'
asbag69
(g90
g71
NtRp3305
(dp3306
g74
(dp3307
sg83
g3292
sg76
(lp3308
g69
(g70
g71
NtRp3309
(dp3310
g74
(dp3311
g82
I3
ssg83
g3305
sg76
(lp3312
S''
asbasbasbag69
(g85
g71
NtRp3313
(dp3314
g74
(dp3315
sg83
g2994
sg76
(lp3316
g69
(g90
g71
NtRp3317
(dp3318
g74
(dp3319
g94
g95
ssg83
g3313
sg76
(lp3320
S'SERVER_NAME'
p3321
asbag69
(g90
g71
NtRp3322
(dp3323
g74
(dp3324
g101
g102
ssg83
g3313
sg76
(lp3325
S':'
asbag69
(g90
g71
NtRp3326
(dp3327
g74
(dp3328
sg83
g3313
sg76
(lp3329
g69
(g70
g71
NtRp3330
(dp3331
g74
(dp3332
g82
I3
ssg83
g3326
sg76
(lp3333
g1939
asbasbasbag69
(g85
g71
NtRp3334
(dp3335
g74
(dp3336
sg83
g2994
sg76
(lp3337
g69
(g90
g71
NtRp3338
(dp3339
g74
(dp3340
g94
g95
ssg83
g3334
sg76
(lp3341
S'SERVER_PORT'
p3342
asbag69
(g90
g71
NtRp3343
(dp3344
g74
(dp3345
g101
g102
ssg83
g3334
sg76
(lp3346
S':'
asbag69
(g90
g71
NtRp3347
(dp3348
g74
(dp3349
sg83
g3334
sg76
(lp3350
g69
(g70
g71
NtRp3351
(dp3352
g74
(dp3353
g82
I3
ssg83
g3347
sg76
(lp3354
g1961
asbasbasbag69
(g85
g71
NtRp3355
(dp3356
g74
(dp3357
sg83
g2994
sg76
(lp3358
g69
(g90
g71
NtRp3359
(dp3360
g74
(dp3361
g94
g95
ssg83
g3355
sg76
(lp3362
S'SERVER_PROTOCOL'
p3363
asbag69
(g90
g71
NtRp3364
(dp3365
g74
(dp3366
g101
g102
ssg83
g3355
sg76
(lp3367
S':'
asbag69
(g90
g71
NtRp3368
(dp3369
g74
(dp3370
sg83
g3355
sg76
(lp3371
g69
(g70
g71
NtRp3372
(dp3373
g74
(dp3374
g82
I3
ssg83
g3368
sg76
(lp3375
g1983
asbasbasbag69
(g85
g71
NtRp3376
(dp3377
g74
(dp3378
sg83
g2994
sg76
(lp3379
g69
(g90
g71
NtRp3380
(dp3381
g74
(dp3382
g94
g95
ssg83
g3376
sg76
(lp3383
S'SERVER_SOFTWARE'
p3384
asbag69
(g90
g71
NtRp3385
(dp3386
g74
(dp3387
g101
g102
ssg83
g3376
sg76
(lp3388
S':'
asbag69
(g90
g71
NtRp3389
(dp3390
g74
(dp3391
sg83
g3376
sg76
(lp3392
g69
(g70
g71
NtRp3393
(dp3394
g74
(dp3395
g82
I3
ssg83
g3389
sg76
(lp3396
g2005
asbasbasbag69
(g85
g71
NtRp3397
(dp3398
g74
(dp3399
sg83
g2994
sg76
(lp3400
g69
(g90
g71
NtRp3401
(dp3402
g74
(dp3403
g94
g95
ssg83
g3397
sg76
(lp3404
S'wsgi.errors'
p3405
asbag69
(g90
g71
NtRp3406
(dp3407
g74
(dp3408
g101
g102
ssg83
g3397
sg76
(lp3409
S':'
asbag69
(g90
g71
NtRp3410
(dp3411
g74
(dp3412
sg83
g3397
sg76
(lp3413
g69
(g70
g71
NtRp3414
(dp3415
g74
(dp3416
g82
I3
ssg83
g3410
sg76
(lp3417
S"<open file '<stderr>', mode 'w' at 0xb774c0d0>"
p3418
asbasbasbag69
(g85
g71
NtRp3419
(dp3420
g74
(dp3421
sg83
g2994
sg76
(lp3422
g69
(g90
g71
NtRp3423
(dp3424
g74
(dp3425
g94
g95
ssg83
g3419
sg76
(lp3426
S'wsgi.file_wrapper'
p3427
asbag69
(g90
g71
NtRp3428
(dp3429
g74
(dp3430
g101
g102
ssg83
g3419
sg76
(lp3431
S':'
asbag69
(g90
g71
NtRp3432
(dp3433
g74
(dp3434
sg83
g3419
sg76
(lp3435
g69
(g70
g71
NtRp3436
(dp3437
g74
(dp3438
g82
I3
ssg83
g3432
sg76
(lp3439
S'<class wsgiref.util.FileWrapper at 0x99f5fbc>'
p3440
asbasbasbag69
(g85
g71
NtRp3441
(dp3442
g74
(dp3443
sg83
g2994
sg76
(lp3444
g69
(g90
g71
NtRp3445
(dp3446
g74
(dp3447
g94
g95
ssg83
g3441
sg76
(lp3448
S'wsgi.input'
p3449
asbag69
(g90
g71
NtRp3450
(dp3451
g74
(dp3452
g101
g102
ssg83
g3441
sg76
(lp3453
S':'
asbag69
(g90
g71
NtRp3454
(dp3455
g74
(dp3456
sg83
g3441
sg76
(lp3457
g69
(g70
g71
NtRp3458
(dp3459
g74
(dp3460
g82
I3
ssg83
g3454
sg76
(lp3461
S'<cStringIO.StringO object at 0xa7ef560>'
p3462
asbasbasbag69
(g85
g71
NtRp3463
(dp3464
g74
(dp3465
sg83
g2994
sg76
(lp3466
g69
(g90
g71
NtRp3467
(dp3468
g74
(dp3469
g94
g95
ssg83
g3463
sg76
(lp3470
S'wsgi.multiprocess'
p3471
asbag69
(g90
g71
NtRp3472
(dp3473
g74
(dp3474
g101
g102
ssg83
g3463
sg76
(lp3475
S':'
asbag69
(g90
g71
NtRp3476
(dp3477
g74
(dp3478
sg83
g3463
sg76
(lp3479
g69
(g70
g71
NtRp3480
(dp3481
g74
(dp3482
g82
I3
ssg83
g3476
sg76
(lp3483
g112
asbasbasbag69
(g85
g71
NtRp3484
(dp3485
g74
(dp3486
sg83
g2994
sg76
(lp3487
g69
(g90
g71
NtRp3488
(dp3489
g74
(dp3490
g94
g95
ssg83
g3484
sg76
(lp3491
S'wsgi.multithread'
p3492
asbag69
(g90
g71
NtRp3493
(dp3494
g74
(dp3495
g101
g102
ssg83
g3484
sg76
(lp3496
S':'
asbag69
(g90
g71
NtRp3497
(dp3498
g74
(dp3499
sg83
g3484
sg76
(lp3500
g69
(g70
g71
NtRp3501
(dp3502
g74
(dp3503
g82
I3
ssg83
g3497
sg76
(lp3504
g2245
asbasbasbag69
(g85
g71
NtRp3505
(dp3506
g74
(dp3507
sg83
g2994
sg76
(lp3508
g69
(g90
g71
NtRp3509
(dp3510
g74
(dp3511
g94
g95
ssg83
g3505
sg76
(lp3512
S'wsgi.run_once'
p3513
asbag69
(g90
g71
NtRp3514
(dp3515
g74
(dp3516
g101
g102
ssg83
g3505
sg76
(lp3517
S':'
asbag69
(g90
g71
NtRp3518
(dp3519
g74
(dp3520
sg83
g3505
sg76
(lp3521
g69
(g70
g71
NtRp3522
(dp3523
g74
(dp3524
g82
I3
ssg83
g3518
sg76
(lp3525
g112
asbasbasbag69
(g85
g71
NtRp3526
(dp3527
g74
(dp3528
sg83
g2994
sg76
(lp3529
g69
(g90
g71
NtRp3530
(dp3531
g74
(dp3532
g94
g95
ssg83
g3526
sg76
(lp3533
S'wsgi.url_scheme'
p3534
asbag69
(g90
g71
NtRp3535
(dp3536
g74
(dp3537
g101
g102
ssg83
g3526
sg76
(lp3538
S':'
asbag69
(g90
g71
NtRp3539
(dp3540
g74
(dp3541
sg83
g3526
sg76
(lp3542
g69
(g70
g71
NtRp3543
(dp3544
g74
(dp3545
g82
I3
ssg83
g3539
sg76
(lp3546
g2288
asbasbasbag69
(g85
g71
NtRp3547
(dp3548
g74
(dp3549
sg83
g2994
sg76
(lp3550
g69
(g90
g71
NtRp3551
(dp3552
g74
(dp3553
g94
g95
ssg83
g3547
sg76
(lp3554
S'wsgi.version'
p3555
asbag69
(g90
g71
NtRp3556
(dp3557
g74
(dp3558
g101
g102
ssg83
g3547
sg76
(lp3559
S':'
asbag69
(g90
g71
NtRp3560
(dp3561
g74
(dp3562
sg83
g3547
sg76
(lp3563
g69
(g70
g71
NtRp3564
(dp3565
g74
(dp3566
g82
I3
ssg83
g3560
sg76
(lp3567
S'1'
asbasbasbasbasbasbasbasbasbasbasbasbasbsS'frames'
p3568
(lp3569
(dp3570
S'file'
p3571
S'/home/vishrut/web2py/gluon/restricted.py'
p3572
sS'dump'
p3573
(dp3574
S'code'
p3575
S'\'response.write(\\\'<!DOCTYPE html PUBLIC "-//W3C//D...ars))\\nresponse.write(\\\'\\\\n</html>\\\\n\\\', escape=False)\''
p3576
sS'layer'
p3577
S"'/home/vishrut/web2py/applications/astra2/views/default/show.html'"
p3578
sS'global compile2'
p3579
S'<function compile2>'
p3580
sS'ccode'
p3581
S'undefined'
p3582
ssS'lnum'
p3583
I204
sS'lines'
p3584
(dp3585
I199
S"    environment['__name__'] = '__restricted__'"
p3586
sI200
S'    try:'
p3587
sI201
S'        if type(code) == types.CodeType:'
p3588
sI202
S'            ccode = code'
p3589
sI203
S'        else:'
p3590
sI204
S'            ccode = compile2(code,layer)'
p3591
sI205
S'        exec ccode in environment'
p3592
sI206
S'    except HTTP:'
p3593
sI207
S'        raise'
p3594
sI208
S'    except RestrictedError:'
p3595
ssS'call'
p3596
S'(code=\'response.write(\\\'<!DOCTYPE html PUBLIC "-//W3C//D...ars))\\nresponse.write(\\\'\\\\n</html>\\\\n\\\', escape=False)\', environment={\'A\': <class \'gluon.html.A\'>, \'Auth\': <class \'gluon.tools.Auth\'>, \'B\': <class \'gluon.html.B\'>, \'BEAUTIFY\': <class \'gluon.html.BEAUTIFY\'>, \'BODY\': <class \'gluon.html.BODY\'>, \'BR\': <class \'gluon.html.BR\'>, \'BUTTON\': <class \'gluon.html.BUTTON\'>, \'CAT\': <class \'gluon.html.CAT\'>, \'CENTER\': <class \'gluon.html.CENTER\'>, \'CLEANUP\': <class \'gluon.validators.CLEANUP\'>, ...}, layer=\'/home/vishrut/web2py/applications/astra2/views/default/show.html\')'
p3597
sS'func'
p3598
S'restricted'
p3599
sa(dp3600
g3571
S'/home/vishrut/web2py/gluon/restricted.py'
p3601
sg3573
(dp3602
S'builtincompile'
p3603
S'<built-in function compile>'
p3604
sS'code'
p3605
S'\'response.write(\\\'<!DOCTYPE html PUBLIC "-//W3C//D...ars))\\nresponse.write(\\\'\\\\n</html>\\\\n\\\', escape=False)\''
p3606
sS'code.rstrip'
p3607
S'<built-in method rstrip of str object>'
p3608
sS').replace'
p3609
g3582
sS'layer'
p3610
S"'/home/vishrut/web2py/applications/astra2/views/default/show.html'"
p3611
ssg3583
I189
sg3584
(dp3612
I192
S'    """'
p3613
sI193
S'    runs code in environment and returns the output. if an exception occurs'
p3614
sI184
S''
sI185
S'def compile2(code,layer):'
p3615
sI186
S'    """'
p3616
sI187
S"    The +'\\n' is necessary else compile fails when code ends in a comment."
p3617
sI188
S'    """'
p3618
sI189
S"    return compile(code.rstrip().replace('\\r\\n','\\n')+'\\n', layer, 'exec')"
p3619
sI190
S''
sI191
S"def restricted(code, environment=None, layer='Unknown'):"
p3620
ssg3596
S'(code=\'response.write(\\\'<!DOCTYPE html PUBLIC "-//W3C//D...ars))\\nresponse.write(\\\'\\\\n</html>\\\\n\\\', escape=False)\', layer=\'/home/vishrut/web2py/applications/astra2/views/default/show.html\')'
p3621
sg3598
S'compile2'
p3622
sasS'pyver'
p3623
S'Python 2.7.2+: /usr/bin/python'
p3624
sS'session'
p3625
g69
(g70
g71
NtRp3626
(dp3627
g74
(dp3628
sg76
(lp3629
g69
(g78
g71
NtRp3630
(dp3631
g74
(dp3632
g82
I5
ssg83
Nsg76
(lp3633
g69
(g85
g71
NtRp3634
(dp3635
g74
(dp3636
sg83
g3630
sg76
(lp3637
g69
(g90
g71
NtRp3638
(dp3639
g74
(dp3640
g94
g95
ssg83
g3634
sg76
(lp3641
S'last_query'
p3642
asbag69
(g90
g71
NtRp3643
(dp3644
g74
(dp3645
g101
g102
ssg83
g3634
sg76
(lp3646
S':'
asbag69
(g90
g71
NtRp3647
(dp3648
g74
(dp3649
sg83
g3634
sg76
(lp3650
g69
(g70
g71
NtRp3651
(dp3652
g74
(dp3653
g82
I5
ssg83
g3647
sg76
(lp3654
S'db.kids.id>0'
p3655
asbasbasbag69
(g85
g71
NtRp3656
(dp3657
g74
(dp3658
sg83
g3630
sg76
(lp3659
g69
(g90
g71
NtRp3660
(dp3661
g74
(dp3662
g94
g95
ssg83
g3656
sg76
(lp3663
S'logged'
p3664
asbag69
(g90
g71
NtRp3665
(dp3666
g74
(dp3667
g101
g102
ssg83
g3656
sg76
(lp3668
S':'
asbag69
(g90
g71
NtRp3669
(dp3670
g74
(dp3671
sg83
g3656
sg76
(lp3672
g69
(g70
g71
NtRp3673
(dp3674
g74
(dp3675
g82
I5
ssg83
g3669
sg76
(lp3676
S'0'
asbasbasbag69
(g85
g71
NtRp3677
(dp3678
g74
(dp3679
sg83
g3630
sg76
(lp3680
g69
(g90
g71
NtRp3681
(dp3682
g74
(dp3683
g94
g95
ssg83
g3677
sg76
(lp3684
S'username'
p3685
asbag69
(g90
g71
NtRp3686
(dp3687
g74
(dp3688
g101
g102
ssg83
g3677
sg76
(lp3689
S':'
asbag69
(g90
g71
NtRp3690
(dp3691
g74
(dp3692
sg83
g3677
sg76
(lp3693
g69
(g70
g71
NtRp3694
(dp3695
g74
(dp3696
g82
I5
ssg83
g3690
sg76
(lp3697
S'dvm'
p3698
asbasbasbasbasbsS'etype'
p3699
S"<type 'exceptions.SyntaxError'>"
p3700
sS'date'
p3701
S'Thu Nov 15 14:44:37 2012'
p3702
sS'response'
p3703
g69
(g70
g71
NtRp3704
(dp3705
g74
(dp3706
sg76
(lp3707
g69
(g78
g71
NtRp3708
(dp3709
g74
(dp3710
g82
I5
ssg83
Nsg76
(lp3711
g69
(g85
g71
NtRp3712
(dp3713
g74
(dp3714
sg83
g3708
sg76
(lp3715
g69
(g90
g71
NtRp3716
(dp3717
g74
(dp3718
g94
g95
ssg83
g3712
sg76
(lp3719
g167
asbag69
(g90
g71
NtRp3720
(dp3721
g74
(dp3722
g101
g102
ssg83
g3712
sg76
(lp3723
S':'
asbag69
(g90
g71
NtRp3724
(dp3725
g74
(dp3726
sg83
g3712
sg76
(lp3727
g69
(g70
g71
NtRp3728
(dp3729
g74
(dp3730
g82
I5
ssg83
g3724
sg76
(lp3731
S'<cStringIO.StringO object at 0xa8239e0>'
p3732
asbasbasbag69
(g85
g71
NtRp3733
(dp3734
g74
(dp3735
sg83
g3708
sg76
(lp3736
g69
(g90
g71
NtRp3737
(dp3738
g74
(dp3739
g94
g95
ssg83
g3733
sg76
(lp3740
g233
asbag69
(g90
g71
NtRp3741
(dp3742
g74
(dp3743
g101
g102
ssg83
g3733
sg76
(lp3744
S':'
asbag69
(g90
g71
NtRp3745
(dp3746
g74
(dp3747
sg83
g3733
sg76
(lp3748
g69
(g70
g71
NtRp3749
(dp3750
g74
(dp3751
g82
I5
ssg83
g3745
sg76
(lp3752
g69
(g78
g71
NtRp3753
(dp3754
g74
(dp3755
g82
I4
ssg83
Nsg76
(lp3756
g69
(g85
g71
NtRp3757
(dp3758
g74
(dp3759
sg83
g3753
sg76
(lp3760
g69
(g90
g71
NtRp3761
(dp3762
g74
(dp3763
g94
g95
ssg83
g3757
sg76
(lp3764
S'session_id_astra2'
p3765
asbag69
(g90
g71
NtRp3766
(dp3767
g74
(dp3768
g101
g102
ssg83
g3757
sg76
(lp3769
S':'
asbag69
(g90
g71
NtRp3770
(dp3771
g74
(dp3772
sg83
g3757
sg76
(lp3773
g69
(g70
g71
NtRp3774
(dp3775
g74
(dp3776
g82
I4
ssg83
g3770
sg76
(lp3777
g69
(g78
g71
NtRp3778
(dp3779
g74
(dp3780
g82
I3
ssg83
Nsg76
(lp3781
g69
(g85
g71
NtRp3782
(dp3783
g74
(dp3784
sg83
g3778
sg76
(lp3785
g69
(g90
g71
NtRp3786
(dp3787
g74
(dp3788
g94
g95
ssg83
g3782
sg76
(lp3789
g283
asbag69
(g90
g71
NtRp3790
(dp3791
g74
(dp3792
g101
g102
ssg83
g3782
sg76
(lp3793
S':'
asbag69
(g90
g71
NtRp3794
(dp3795
g74
(dp3796
sg83
g3782
sg76
(lp3797
g69
(g70
g71
NtRp3798
(dp3799
g74
(dp3800
g82
I3
ssg83
g3794
sg76
(lp3801
S''
asbasbasbag69
(g85
g71
NtRp3802
(dp3803
g74
(dp3804
sg83
g3778
sg76
(lp3805
g69
(g90
g71
NtRp3806
(dp3807
g74
(dp3808
g94
g95
ssg83
g3802
sg76
(lp3809
g304
asbag69
(g90
g71
NtRp3810
(dp3811
g74
(dp3812
g101
g102
ssg83
g3802
sg76
(lp3813
S':'
asbag69
(g90
g71
NtRp3814
(dp3815
g74
(dp3816
sg83
g3802
sg76
(lp3817
g69
(g70
g71
NtRp3818
(dp3819
g74
(dp3820
g82
I3
ssg83
g3814
sg76
(lp3821
S''
asbasbasbag69
(g85
g71
NtRp3822
(dp3823
g74
(dp3824
sg83
g3778
sg76
(lp3825
g69
(g90
g71
NtRp3826
(dp3827
g74
(dp3828
g94
g95
ssg83
g3822
sg76
(lp3829
g325
asbag69
(g90
g71
NtRp3830
(dp3831
g74
(dp3832
g101
g102
ssg83
g3822
sg76
(lp3833
S':'
asbag69
(g90
g71
NtRp3834
(dp3835
g74
(dp3836
sg83
g3822
sg76
(lp3837
g69
(g70
g71
NtRp3838
(dp3839
g74
(dp3840
g82
I3
ssg83
g3834
sg76
(lp3841
S''
asbasbasbag69
(g85
g71
NtRp3842
(dp3843
g74
(dp3844
sg83
g3778
sg76
(lp3845
g69
(g90
g71
NtRp3846
(dp3847
g74
(dp3848
g94
g95
ssg83
g3842
sg76
(lp3849
g346
asbag69
(g90
g71
NtRp3850
(dp3851
g74
(dp3852
g101
g102
ssg83
g3842
sg76
(lp3853
S':'
asbag69
(g90
g71
NtRp3854
(dp3855
g74
(dp3856
sg83
g3842
sg76
(lp3857
g69
(g70
g71
NtRp3858
(dp3859
g74
(dp3860
g82
I3
ssg83
g3854
sg76
(lp3861
S''
asbasbasbag69
(g85
g71
NtRp3862
(dp3863
g74
(dp3864
sg83
g3778
sg76
(lp3865
g69
(g90
g71
NtRp3866
(dp3867
g74
(dp3868
g94
g95
ssg83
g3862
sg76
(lp3869
g367
asbag69
(g90
g71
NtRp3870
(dp3871
g74
(dp3872
g101
g102
ssg83
g3862
sg76
(lp3873
S':'
asbag69
(g90
g71
NtRp3874
(dp3875
g74
(dp3876
sg83
g3862
sg76
(lp3877
g69
(g70
g71
NtRp3878
(dp3879
g74
(dp3880
g82
I3
ssg83
g3874
sg76
(lp3881
S''
asbasbasbag69
(g85
g71
NtRp3882
(dp3883
g74
(dp3884
sg83
g3778
sg76
(lp3885
g69
(g90
g71
NtRp3886
(dp3887
g74
(dp3888
g94
g95
ssg83
g3882
sg76
(lp3889
g388
asbag69
(g90
g71
NtRp3890
(dp3891
g74
(dp3892
g101
g102
ssg83
g3882
sg76
(lp3893
S':'
asbag69
(g90
g71
NtRp3894
(dp3895
g74
(dp3896
sg83
g3882
sg76
(lp3897
g69
(g70
g71
NtRp3898
(dp3899
g74
(dp3900
g82
I3
ssg83
g3894
sg76
(lp3901
S'/'
asbasbasbag69
(g85
g71
NtRp3902
(dp3903
g74
(dp3904
sg83
g3778
sg76
(lp3905
g69
(g90
g71
NtRp3906
(dp3907
g74
(dp3908
g94
g95
ssg83
g3902
sg76
(lp3909
g409
asbag69
(g90
g71
NtRp3910
(dp3911
g74
(dp3912
g101
g102
ssg83
g3902
sg76
(lp3913
S':'
asbag69
(g90
g71
NtRp3914
(dp3915
g74
(dp3916
sg83
g3902
sg76
(lp3917
g69
(g70
g71
NtRp3918
(dp3919
g74
(dp3920
g82
I3
ssg83
g3914
sg76
(lp3921
S''
asbasbasbag69
(g85
g71
NtRp3922
(dp3923
g74
(dp3924
sg83
g3778
sg76
(lp3925
g69
(g90
g71
NtRp3926
(dp3927
g74
(dp3928
g94
g95
ssg83
g3922
sg76
(lp3929
g430
asbag69
(g90
g71
NtRp3930
(dp3931
g74
(dp3932
g101
g102
ssg83
g3922
sg76
(lp3933
S':'
asbag69
(g90
g71
NtRp3934
(dp3935
g74
(dp3936
sg83
g3922
sg76
(lp3937
g69
(g70
g71
NtRp3938
(dp3939
g74
(dp3940
g82
I3
ssg83
g3934
sg76
(lp3941
S''
asbasbasbasbasbasbasbasbasbasbasbag69
(g85
g71
NtRp3942
(dp3943
g74
(dp3944
sg83
g3708
sg76
(lp3945
g69
(g90
g71
NtRp3946
(dp3947
g74
(dp3948
g94
g95
ssg83
g3942
sg76
(lp3949
S'delimiters'
p3950
asbag69
(g90
g71
NtRp3951
(dp3952
g74
(dp3953
g101
g102
ssg83
g3942
sg76
(lp3954
S':'
asbag69
(g90
g71
NtRp3955
(dp3956
g74
(dp3957
sg83
g3942
sg76
(lp3958
g69
(g70
g71
NtRp3959
(dp3960
g74
(dp3961
g82
I5
ssg83
g3955
sg76
(lp3962
g69
(g78
g71
NtRp3963
(dp3964
g74
(dp3965
g82
I4
ssg83
Nsg76
(lp3966
g69
(g85
g71
NtRp3967
(dp3968
g74
(dp3969
sg83
g3963
sg76
(lp3970
g69
(g90
g71
NtRp3971
(dp3972
g74
(dp3973
sg83
g3967
sg76
(lp3974
g69
(g70
g71
NtRp3975
(dp3976
g74
(dp3977
g82
I4
ssg83
g3971
sg76
(lp3978
S'{{'
p3979
asbasbasbag69
(g85
g71
NtRp3980
(dp3981
g74
(dp3982
sg83
g3963
sg76
(lp3983
g69
(g90
g71
NtRp3984
(dp3985
g74
(dp3986
sg83
g3980
sg76
(lp3987
g69
(g70
g71
NtRp3988
(dp3989
g74
(dp3990
g82
I4
ssg83
g3984
sg76
(lp3991
S'}}'
p3992
asbasbasbasbasbasbasbag69
(g85
g71
NtRp3993
(dp3994
g74
(dp3995
sg83
g3708
sg76
(lp3996
g69
(g90
g71
NtRp3997
(dp3998
g74
(dp3999
g94
g95
ssg83
g3993
sg76
(lp4000
S'files'
p4001
asbag69
(g90
g71
NtRp4002
(dp4003
g74
(dp4004
g101
g102
ssg83
g3993
sg76
(lp4005
S':'
asbag69
(g90
g71
NtRp4006
(dp4007
g74
(dp4008
sg83
g3993
sg76
(lp4009
g69
(g70
g71
NtRp4010
(dp4011
g74
(dp4012
g82
I5
ssg83
g4006
sg76
(lp4013
g69
(g78
g71
NtRp4014
(dp4015
g74
(dp4016
g82
I4
ssg83
Nsg76
(lp4017
sbasbasbasbag69
(g85
g71
NtRp4018
(dp4019
g74
(dp4020
sg83
g3708
sg76
(lp4021
g69
(g90
g71
NtRp4022
(dp4023
g74
(dp4024
g94
g95
ssg83
g4018
sg76
(lp4025
S'flash'
p4026
asbag69
(g90
g71
NtRp4027
(dp4028
g74
(dp4029
g101
g102
ssg83
g4018
sg76
(lp4030
S':'
asbag69
(g90
g71
NtRp4031
(dp4032
g74
(dp4033
sg83
g4018
sg76
(lp4034
g69
(g70
g71
NtRp4035
(dp4036
g74
(dp4037
g82
I5
ssg83
g4031
sg76
(lp4038
S'Welcome dvm'
p4039
asbasbasbag69
(g85
g71
NtRp4040
(dp4041
g74
(dp4042
sg83
g3708
sg76
(lp4043
g69
(g90
g71
NtRp4044
(dp4045
g74
(dp4046
g94
g95
ssg83
g4040
sg76
(lp4047
S'generic_patterns'
p4048
asbag69
(g90
g71
NtRp4049
(dp4050
g74
(dp4051
g101
g102
ssg83
g4040
sg76
(lp4052
S':'
asbag69
(g90
g71
NtRp4053
(dp4054
g74
(dp4055
sg83
g4040
sg76
(lp4056
g69
(g70
g71
NtRp4057
(dp4058
g74
(dp4059
g82
I5
ssg83
g4053
sg76
(lp4060
g69
(g78
g71
NtRp4061
(dp4062
g74
(dp4063
g82
I4
ssg83
Nsg76
(lp4064
g69
(g85
g71
NtRp4065
(dp4066
g74
(dp4067
sg83
g4061
sg76
(lp4068
g69
(g90
g71
NtRp4069
(dp4070
g74
(dp4071
sg83
g4065
sg76
(lp4072
g69
(g70
g71
NtRp4073
(dp4074
g74
(dp4075
g82
I4
ssg83
g4069
sg76
(lp4076
S'*'
asbasbasbasbasbasbasbag69
(g85
g71
NtRp4077
(dp4078
g74
(dp4079
sg83
g3708
sg76
(lp4080
g69
(g90
g71
NtRp4081
(dp4082
g74
(dp4083
g94
g95
ssg83
g4077
sg76
(lp4084
S'headers'
p4085
asbag69
(g90
g71
NtRp4086
(dp4087
g74
(dp4088
g101
g102
ssg83
g4077
sg76
(lp4089
S':'
asbag69
(g90
g71
NtRp4090
(dp4091
g74
(dp4092
sg83
g4077
sg76
(lp4093
g69
(g70
g71
NtRp4094
(dp4095
g74
(dp4096
g82
I5
ssg83
g4090
sg76
(lp4097
g69
(g78
g71
NtRp4098
(dp4099
g74
(dp4100
g82
I4
ssg83
Nsg76
(lp4101
g69
(g85
g71
NtRp4102
(dp4103
g74
(dp4104
sg83
g4098
sg76
(lp4105
g69
(g90
g71
NtRp4106
(dp4107
g74
(dp4108
g94
g95
ssg83
g4102
sg76
(lp4109
S'Cache-Control'
p4110
asbag69
(g90
g71
NtRp4111
(dp4112
g74
(dp4113
g101
g102
ssg83
g4102
sg76
(lp4114
S':'
asbag69
(g90
g71
NtRp4115
(dp4116
g74
(dp4117
sg83
g4102
sg76
(lp4118
g69
(g70
g71
NtRp4119
(dp4120
g74
(dp4121
g82
I4
ssg83
g4115
sg76
(lp4122
S'no-store, no-cache, must-revalidate, post-check=0, pre-check=0'
p4123
asbasbasbag69
(g85
g71
NtRp4124
(dp4125
g74
(dp4126
sg83
g4098
sg76
(lp4127
g69
(g90
g71
NtRp4128
(dp4129
g74
(dp4130
g94
g95
ssg83
g4124
sg76
(lp4131
S'Content-Type'
p4132
asbag69
(g90
g71
NtRp4133
(dp4134
g74
(dp4135
g101
g102
ssg83
g4124
sg76
(lp4136
S':'
asbag69
(g90
g71
NtRp4137
(dp4138
g74
(dp4139
sg83
g4124
sg76
(lp4140
g69
(g70
g71
NtRp4141
(dp4142
g74
(dp4143
g82
I4
ssg83
g4137
sg76
(lp4144
S'text/html; charset=utf-8'
p4145
asbasbasbag69
(g85
g71
NtRp4146
(dp4147
g74
(dp4148
sg83
g4098
sg76
(lp4149
g69
(g90
g71
NtRp4150
(dp4151
g74
(dp4152
g94
g95
ssg83
g4146
sg76
(lp4153
S'Expires'
p4154
asbag69
(g90
g71
NtRp4155
(dp4156
g74
(dp4157
g101
g102
ssg83
g4146
sg76
(lp4158
S':'
asbag69
(g90
g71
NtRp4159
(dp4160
g74
(dp4161
sg83
g4146
sg76
(lp4162
g69
(g70
g71
NtRp4163
(dp4164
g74
(dp4165
g82
I4
ssg83
g4159
sg76
(lp4166
S'Thu, 15 Nov 2012 09:44:37 GMT'
p4167
asbasbasbag69
(g85
g71
NtRp4168
(dp4169
g74
(dp4170
sg83
g4098
sg76
(lp4171
g69
(g90
g71
NtRp4172
(dp4173
g74
(dp4174
g94
g95
ssg83
g4168
sg76
(lp4175
S'Pragma'
p4176
asbag69
(g90
g71
NtRp4177
(dp4178
g74
(dp4179
g101
g102
ssg83
g4168
sg76
(lp4180
S':'
asbag69
(g90
g71
NtRp4181
(dp4182
g74
(dp4183
sg83
g4168
sg76
(lp4184
g69
(g70
g71
NtRp4185
(dp4186
g74
(dp4187
g82
I4
ssg83
g4181
sg76
(lp4188
S'no-cache'
p4189
asbasbasbag69
(g85
g71
NtRp4190
(dp4191
g74
(dp4192
sg83
g4098
sg76
(lp4193
g69
(g90
g71
NtRp4194
(dp4195
g74
(dp4196
g94
g95
ssg83
g4190
sg76
(lp4197
S'X-Powered-By'
p4198
asbag69
(g90
g71
NtRp4199
(dp4200
g74
(dp4201
g101
g102
ssg83
g4190
sg76
(lp4202
S':'
asbag69
(g90
g71
NtRp4203
(dp4204
g74
(dp4205
sg83
g4190
sg76
(lp4206
g69
(g70
g71
NtRp4207
(dp4208
g74
(dp4209
g82
I4
ssg83
g4203
sg76
(lp4210
S'web2py'
p4211
asbasbasbasbasbasbasbag69
(g85
g71
NtRp4212
(dp4213
g74
(dp4214
sg83
g3708
sg76
(lp4215
g69
(g90
g71
NtRp4216
(dp4217
g74
(dp4218
g94
g95
ssg83
g4212
sg76
(lp4219
S'menu'
p4220
asbag69
(g90
g71
NtRp4221
(dp4222
g74
(dp4223
g101
g102
ssg83
g4212
sg76
(lp4224
S':'
asbag69
(g90
g71
NtRp4225
(dp4226
g74
(dp4227
sg83
g4212
sg76
(lp4228
g69
(g70
g71
NtRp4229
(dp4230
g74
(dp4231
g82
I5
ssg83
g4225
sg76
(lp4232
g69
(g78
g71
NtRp4233
(dp4234
g74
(dp4235
g82
I4
ssg83
Nsg76
(lp4236
sbasbasbasbag69
(g85
g71
NtRp4237
(dp4238
g74
(dp4239
sg83
g3708
sg76
(lp4240
g69
(g90
g71
NtRp4241
(dp4242
g74
(dp4243
g94
g95
ssg83
g4237
sg76
(lp4244
S'meta'
p4245
asbag69
(g90
g71
NtRp4246
(dp4247
g74
(dp4248
g101
g102
ssg83
g4237
sg76
(lp4249
S':'
asbag69
(g90
g71
NtRp4250
(dp4251
g74
(dp4252
sg83
g4237
sg76
(lp4253
g69
(g70
g71
NtRp4254
(dp4255
g74
(dp4256
g82
I5
ssg83
g4250
sg76
(lp4257
g69
(g78
g71
NtRp4258
(dp4259
g74
(dp4260
g82
I4
ssg83
Nsg76
(lp4261
sbasbasbasbag69
(g85
g71
NtRp4262
(dp4263
g74
(dp4264
sg83
g3708
sg76
(lp4265
g69
(g90
g71
NtRp4266
(dp4267
g74
(dp4268
g94
g95
ssg83
g4262
sg76
(lp4269
S'postprocessing'
p4270
asbag69
(g90
g71
NtRp4271
(dp4272
g74
(dp4273
g101
g102
ssg83
g4262
sg76
(lp4274
S':'
asbag69
(g90
g71
NtRp4275
(dp4276
g74
(dp4277
sg83
g4262
sg76
(lp4278
g69
(g70
g71
NtRp4279
(dp4280
g74
(dp4281
g82
I5
ssg83
g4275
sg76
(lp4282
g69
(g78
g71
NtRp4283
(dp4284
g74
(dp4285
g82
I4
ssg83
Nsg76
(lp4286
sbasbasbasbag69
(g85
g71
NtRp4287
(dp4288
g74
(dp4289
sg83
g3708
sg76
(lp4290
g69
(g90
g71
NtRp4291
(dp4292
g74
(dp4293
g94
g95
ssg83
g4287
sg76
(lp4294
S'session_file'
p4295
asbag69
(g90
g71
NtRp4296
(dp4297
g74
(dp4298
g101
g102
ssg83
g4287
sg76
(lp4299
S':'
asbag69
(g90
g71
NtRp4300
(dp4301
g74
(dp4302
sg83
g4287
sg76
(lp4303
g69
(g70
g71
NtRp4304
(dp4305
g74
(dp4306
g82
I5
ssg83
g4300
sg76
(lp4307
S"<open file '/home/vishrut/web2py/applications/astra2/sessions/127.0.0.1-ad4222e7-34f3-45d6-99ac-318b82b69a73', mode 'rb+' at 0xa15fb78>"
p4308
asbasbasbag69
(g85
g71
NtRp4309
(dp4310
g74
(dp4311
sg83
g3708
sg76
(lp4312
g69
(g90
g71
NtRp4313
(dp4314
g74
(dp4315
g94
g95
ssg83
g4309
sg76
(lp4316
S'session_filename'
p4317
asbag69
(g90
g71
NtRp4318
(dp4319
g74
(dp4320
g101
g102
ssg83
g4309
sg76
(lp4321
S':'
asbag69
(g90
g71
NtRp4322
(dp4323
g74
(dp4324
sg83
g4309
sg76
(lp4325
g69
(g70
g71
NtRp4326
(dp4327
g74
(dp4328
g82
I5
ssg83
g4322
sg76
(lp4329
S'/home/vishrut/web2py/applications/astra2/sessions/127.0.0.1-ad4222e7-34f3-45d6-99ac-318b82b69a73'
p4330
asbasbasbag69
(g85
g71
NtRp4331
(dp4332
g74
(dp4333
sg83
g3708
sg76
(lp4334
g69
(g90
g71
NtRp4335
(dp4336
g74
(dp4337
g94
g95
ssg83
g4331
sg76
(lp4338
S'session_id'
p4339
asbag69
(g90
g71
NtRp4340
(dp4341
g74
(dp4342
g101
g102
ssg83
g4331
sg76
(lp4343
S':'
asbag69
(g90
g71
NtRp4344
(dp4345
g74
(dp4346
sg83
g4331
sg76
(lp4347
g69
(g70
g71
NtRp4348
(dp4349
g74
(dp4350
g82
I5
ssg83
g4344
sg76
(lp4351
S'127.0.0.1-ad4222e7-34f3-45d6-99ac-318b82b69a73'
p4352
asbasbasbag69
(g85
g71
NtRp4353
(dp4354
g74
(dp4355
sg83
g3708
sg76
(lp4356
g69
(g90
g71
NtRp4357
(dp4358
g74
(dp4359
g94
g95
ssg83
g4353
sg76
(lp4360
S'session_id_name'
p4361
asbag69
(g90
g71
NtRp4362
(dp4363
g74
(dp4364
g101
g102
ssg83
g4353
sg76
(lp4365
S':'
asbag69
(g90
g71
NtRp4366
(dp4367
g74
(dp4368
sg83
g4353
sg76
(lp4369
g69
(g70
g71
NtRp4370
(dp4371
g74
(dp4372
g82
I5
ssg83
g4366
sg76
(lp4373
g3765
asbasbasbag69
(g85
g71
NtRp4374
(dp4375
g74
(dp4376
sg83
g3708
sg76
(lp4377
g69
(g90
g71
NtRp4378
(dp4379
g74
(dp4380
g94
g95
ssg83
g4374
sg76
(lp4381
S'session_locked'
p4382
asbag69
(g90
g71
NtRp4383
(dp4384
g74
(dp4385
g101
g102
ssg83
g4374
sg76
(lp4386
S':'
asbag69
(g90
g71
NtRp4387
(dp4388
g74
(dp4389
sg83
g4374
sg76
(lp4390
g69
(g70
g71
NtRp4391
(dp4392
g74
(dp4393
g82
I5
ssg83
g4387
sg76
(lp4394
g2245
asbasbasbag69
(g85
g71
NtRp4395
(dp4396
g74
(dp4397
sg83
g3708
sg76
(lp4398
g69
(g90
g71
NtRp4399
(dp4400
g74
(dp4401
g94
g95
ssg83
g4395
sg76
(lp4402
S'session_new'
p4403
asbag69
(g90
g71
NtRp4404
(dp4405
g74
(dp4406
g101
g102
ssg83
g4395
sg76
(lp4407
S':'
asbag69
(g90
g71
NtRp4408
(dp4409
g74
(dp4410
sg83
g4395
sg76
(lp4411
g69
(g70
g71
NtRp4412
(dp4413
g74
(dp4414
g82
I5
ssg83
g4408
sg76
(lp4415
g112
asbasbasbag69
(g85
g71
NtRp4416
(dp4417
g74
(dp4418
sg83
g3708
sg76
(lp4419
g69
(g90
g71
NtRp4420
(dp4421
g74
(dp4422
g94
g95
ssg83
g4416
sg76
(lp4423
S'status'
p4424
asbag69
(g90
g71
NtRp4425
(dp4426
g74
(dp4427
g101
g102
ssg83
g4416
sg76
(lp4428
S':'
asbag69
(g90
g71
NtRp4429
(dp4430
g74
(dp4431
sg83
g4416
sg76
(lp4432
g69
(g70
g71
NtRp4433
(dp4434
g74
(dp4435
g82
I5
ssg83
g4429
sg76
(lp4436
S'200'
p4437
asbasbasbag69
(g85
g71
NtRp4438
(dp4439
g74
(dp4440
sg83
g3708
sg76
(lp4441
g69
(g90
g71
NtRp4442
(dp4443
g74
(dp4444
g94
g95
ssg83
g4438
sg76
(lp4445
g2909
asbag69
(g90
g71
NtRp4446
(dp4447
g74
(dp4448
g101
g102
ssg83
g4438
sg76
(lp4449
S':'
asbag69
(g90
g71
NtRp4450
(dp4451
g74
(dp4452
sg83
g4438
sg76
(lp4453
g69
(g70
g71
NtRp4454
(dp4455
g74
(dp4456
g82
I5
ssg83
g4450
sg76
(lp4457
g2922
asbasbasbag69
(g85
g71
NtRp4458
(dp4459
g74
(dp4460
sg83
g3708
sg76
(lp4461
g69
(g90
g71
NtRp4462
(dp4463
g74
(dp4464
g94
g95
ssg83
g4458
sg76
(lp4465
S'view'
p4466
asbag69
(g90
g71
NtRp4467
(dp4468
g74
(dp4469
g101
g102
ssg83
g4458
sg76
(lp4470
S':'
asbag69
(g90
g71
NtRp4471
(dp4472
g74
(dp4473
sg83
g4458
sg76
(lp4474
g69
(g70
g71
NtRp4475
(dp4476
g74
(dp4477
g82
I5
ssg83
g4471
sg76
(lp4478
S'default/show.html'
p4479
asbasbasbasbasbsS'locals'
p4480
(dp4481
g4
S"'/home/vishrut/web2py/applications/astra2/views/default/show.html'"
p4482
sg6
S'\'response.write(\\\'<!DOCTYPE html PUBLIC "-//W3C//D...ars))\\nresponse.write(\\\'\\\\n</html>\\\\n\\\', escape=False)\''
p4483
sssS'traceback'
p4484
S'Traceback (most recent call last):\n  File "/home/vishrut/web2py/gluon/restricted.py", line 204, in restricted\n    ccode = compile2(code,layer)\n  File "/home/vishrut/web2py/gluon/restricted.py", line 189, in compile2\n    return compile(code.rstrip().replace(\'\\r\\n\',\'\\n\')+\'\\n\', layer, \'exec\')\n  File "/home/vishrut/web2py/applications/astra2/views/default/show.html", line 13\n    response.write(\'\\n<!--<object width="640" height="400">\\n    <param name="movie" value="\', escape=False)\n           ^\nSyntaxError: invalid syntax\n'
p4485
s.