(dp1
S'output'
p2
S"<type 'exceptions.SyntaxError'> invalid syntax (show.html, line 88)"
p3
sS'layer'
p4
S'/home/vishrut/web2py/applications/astra1/views/default/show.html'
p5
sS'code'
p6
S'response.write(\'<!DOCTYPE html>\\n<!-- paulirish.com/2008/conditional-stylesheets-vs-css-hacks-answer-neither/ -->\\n<!--[if lt IE 7]><html class="ie ie6 ie-lte9 ie-lte8 ie-lte7 no-js" lang="\', escape=False)\nresponse.write(T.accepted_language or \'en\')\nresponse.write(\'"> <![endif]-->\\n<!--[if IE 7]><html class="ie ie7 ie-lte9 ie-lte8 ie-lte7 no-js" lang="\', escape=False)\nresponse.write(T.accepted_language or \'en\')\nresponse.write(\'"> <![endif]-->\\n<!--[if IE 8]><html class="ie ie8 ie-lte9 ie-lte8 no-js" lang="\', escape=False)\nresponse.write(T.accepted_language or \'en\')\nresponse.write(\'"> <![endif]-->\\n<!--[if IE 9]><html class="ie9 ie-lte9 no-js" lang="\', escape=False)\nresponse.write(T.accepted_language or \'en\')\nresponse.write(\'"> <![endif]-->\\n<!--[if (gt IE 9)|!(IE)]><!--> <html class="no-js" lang="\', escape=False)\nresponse.write(T.accepted_language or \'en\')\nresponse.write(\'"> <!--<![endif]-->\\n<head>\\n  <meta charset="utf-8" />\\n  <!-- www.phpied.com/conditional-comments-block-downloads/ -->\\n  <!-- Always force latest IE rendering engine\\n\\t   (even in intranet) & Chrome Frame\\n\\t   Remove this if you use the .htaccess -->\\n  <!--[if IE]>\\n    <meta http-equiv="X-UA-Compatible" content="IE=edge\', escape=False)\nresponse.write(not request.is_local and \',chrome=1\' or \'\')\nresponse.write(\'">\\n  <![endif]-->\\n  \\n  <title>\', escape=False)\nresponse.write(response.title or request.application)\nresponse.write(\'</title>\\n  \\n  <!-- http://dev.w3.org/html5/markup/meta.name.html -->\\n  <meta name="application-name" content="\', escape=False)\nresponse.write(request.application)\nresponse.write(\'" />\\n  \\n  <!-- Speaking of Google, don\\\'t forget to set your site up:\\n\\t   http://google.com/webmasters -->\\n  <meta name="google-site-verification" content="" />\\n\\n  <!--  Mobile Viewport Fix\\n\\t  j.mp/mobileviewport & davidbcalhoun.com/2010/viewport-metatag\\n\\t  device-width: Occupy full width of the screen in its current orientation\\n\\t  initial-scale = 1.0 retains dimensions instead of zooming out if page height > device height\\n\\t  user-scalable = yes allows the user to zoom in -->\\n  <meta name="viewport" content="width=device-width, initial-scale=1.0, user-scalable=yes">\\n  \\n  <!-- Place favicon.ico and apple-touch-icon.png in the root of your domain and delete these references -->\\n  <link rel="shortcut icon" href="\', escape=False)\nresponse.write(URL(\'static\',\'favicon.ico\'))\nresponse.write(\'" type="image/x-icon">\\n  <link rel="apple-touch-icon" href="\', escape=False)\nresponse.write(URL(\'static\',\'favicon.png\'))\nresponse.write(\'">\\n\\n  <!-- All JavaScript at the bottom, except for Modernizr which enables \\n\\t   HTML5 elements & feature detects -->\\n  <script src="\', escape=False)\nresponse.write(URL(\'static\',\'js/modernizr.custom.js\'))\nresponse.write(\'"></script>  \\n\\n  <!-- include stylesheets -->\\n  \', escape=False)\nresponse.files.append(URL(\'static\',\'css/skeleton.css\'))\nresponse.files.append(URL(\'static\',\'css/web2py.css\'))\nif response.menu:\n    response.files.append(URL(\'static\',\'css/superfish.css\'))\n    response.files.append(URL(\'static\',\'js/superfish.js\'))\n    pass\nresponse.write(\'\\n\\n  \', escape=False)\nresponse.write(\'<script type="text/javascript"><!--\\n    // These variables are used by the web2py_ajax_init function in web2py_ajax.js (which is loaded below).\\n    var w2p_ajax_confirm_message = "\', escape=False)\nresponse.write(T(\'Are you sure you want to delete this object?\'))\nresponse.write(\'";\\n    var w2p_ajax_date_format = "\', escape=False)\nresponse.write(T(\'%Y-%m-%d\'))\nresponse.write(\'";\\n    var w2p_ajax_datetime_format = "\', escape=False)\nresponse.write(T(\'%Y-%m-%d %H:%M:%S\'))\nresponse.write(\'";\\n    //--></script>\\n\', escape=False)\nresponse.files.insert(0,URL(\'static\',\'js/jquery.js\'))\nresponse.files.insert(1,URL(\'static\',\'css/calendar.css\'))\nresponse.files.insert(2,URL(\'static\',\'js/calendar.js\'))\nresponse.files.insert(3,URL(\'static\',\'js/web2py.js\'))\nresponse.include_meta()\nresponse.include_files()\nresponse.write(\'\\n\', escape=False)\nresponse.write(\'\\n\\n  \', escape=False)\nif response.menu:\n    response.write(\'\\n  <script type="text/javascript">\\n    jQuery(function(){ jQuery(\\\'ul.sf-menu\\\').supersubs({minWidth:12,maxWidth:30,extraWidth:3}).superfish(); });\\n  </script>\\n  \', escape=False)\n    pass\nresponse.write(\'\\n\\n  \', escape=False)\n# using sidebars need to know what sidebar you want to use\nleft_sidebar_enabled = globals().get(\'left_sidebar_enabled\',False)\nright_sidebar_enabled = globals().get(\'right_sidebar_enabled\',False)\nmiddle_columns = {0:\'sixteen\',1:\'twelve\',2:\'eight\'}[\n(left_sidebar_enabled and 1 or 0)+(right_sidebar_enabled and 1 or 0)]\nresponse.write(\'\\n\\n  <!-- uncomment here to load jquery-ui\\n  <link rel="stylesheet" href="http://ajax.googleapis.com/ajax/libs/jqueryui/1.8.16/themes/base/jquery-ui.css" type="text/css" media="all" />\\n  <script src="http://ajax.googleapis.com/ajax/libs/jqueryui/1.8.16/jquery-ui.min.js" type="text/javascript"></script>\\n  uncomment to load jquery-ui //-->\\n</head>\\n<body>\\n  <div class="wrapper"><!-- for sticky footer -->\\n  \\n    <div class="topbar">\\n      <div class="container">    \\n        <div class="sixteen columns">\\n          <div id="navbar">\', escape=False)\nresponse.write(\'auth\' in globals() and auth.navbar(separators=(\' \',\' | \',\'\')))\nresponse.write(\'</div>\\n          \', escape=False)\nis_mobile=request.user_agent().is_mobile\nresponse.write(\'\\n\\t  \', escape=False)\nif response.menu:\n    response.write(\'\\n          <div id="menu">\\n             \', escape=False)\n    response.write(MENU(response.menu, _class=\'mobile-menu\' if is_mobile else \'sf-menu\',mobile=is_mobile))\n    response.write(\'\\n          </div>\\n          \', escape=False)\n    pass\nresponse.write(\'\\n        </div>\\n      </div>\\n    </div><!-- topbar -->\\n    \\n    <div class="flash">\', escape=False)\nresponse.write(response.flash or \'\')\nresponse.write(\'</div>\\n    \\n    <div class="header">\\n      <div class="container">         \\n        <div class="sixteen columns">\\n          <h1 class="remove-bottom" style="margin-top: .5em;">\\n          \', escape=False)\nresponse.write(response.title or request.application)\nresponse.write(\'\\n          </h1>\\n          <h5>\', escape=False)\nresponse.write(response.subtitle or \'\')\nresponse.write(\'</h5>\\n        </div>\\n        <div class="sixteen columns">\\n          <div class="statusbar clearfix">\\n            \', escape=False)\nresponse.write(\'\\n            <div class="breadcrumbs">\', escape=False)\nresponse.write(request.function.replace(\'_\', \' \').title())\nresponse.write(\'</div>\\n            \', escape=False)\nresponse.write(\'\\n            <!-- AddToAny BEGIN -->\\n            <div style="float:right; padding-top: .25em;" class="a2a_kit a2a_default_style">\\n            <a class="a2a_dd" href="http://www.addtoany.com/share_save">Share</a></div>\\n            <script type="text/javascript" src="http://static.addtoany.com/menu/page.js"></script>\\n            <!-- AddToAny END -->\\n          </div>\\n        </div>\\n      </div>\\n    </div>\\n\\n    <div class="main">\\n      <div class="container">                 \\n        \', escape=False)\nif left_sidebar_enabled:\n    response.write(\'\\n        <div class="four columns left-sidebar">\\n          \', escape=False)\n    response.write(\'\\n          <h3>Left Sidebar</h3>\\n          <p></p>\\n          \', escape=False)\n    response.write(\'\\n        </div>\\n        \', escape=False)\n    pass\nresponse.write(\'\\n        \\n        <div class="\', escape=False)\nresponse.write(middle_columns)\nresponse.write(\' columns center">\\n          \', escape=False)\nresponse.write(\'\\n          \', escape=False)\nresponse.write(\'\\n<h1>This is the default/show.html template</h1>\\n\', escape=False)\nxxx="apple"\nresponse.write(\'\\n<video width="320" height="240" controls="controls">  \\n        <source src="\', escape=False)\nresponse.write(URL(\'/static/\'+apple+movie.\'ogg\'))\nresponse.write(\'" type="video/ogg">\\n</video>\\n<button type="button" onclick="document.location=\\\'\', escape=False)\nresponse.write(URL("logout"))\nresponse.write(\'\\\'">Logout</button>\\n\', escape=False)\npass\nresponse.write(\'\\n\', escape=False)\npass\nresponse.write(\'\\n\', escape=False)\nresponse.write(BEAUTIFY(response._vars))\nresponse.write(\'\\n\', escape=False)\nresponse.write(\'\\n          \', escape=False)\nresponse.write(\'\\n        </div>\\n        \\n        \', escape=False)\nif right_sidebar_enabled:\n    response.write(\'\\n        <div class="four columns">\\n          \', escape=False)\n    response.write(\'\\n          <h3>Right Sidebar</h3>\\n          <p></p>\\n          \', escape=False)\n    response.write(\'\\n        </div>    \\n        \', escape=False)\n    pass\nresponse.write(\'\\n        \\n      </div><!-- container -->\\n    </div><!-- main -->\\n    \\n    <div class="push"></div>\\n  </div><!-- wrapper -->\\n\\n  <div class="footer">\\n    <div class="container">    \\n      <div class="sixteen columns">\\n        \', escape=False)\nresponse.write(\' <!-- this is default footer -->\\n        <div class="footer-content clearfix">\\n          <div class="copyright">\', escape=False)\nresponse.write(T(\'Copyright\'))\nresponse.write(\' &#169; 2011</div>\\n          <div style="float: right;">\\n            <a href="http://www.web2py.com/">\\n            <img style="padding-bottom: 0;" src="\', escape=False)\nresponse.write(URL(\'static\',\'images/poweredby.png\'))\nresponse.write(\'"/>\\n            </a>\\n          </div>\\n        </div>\\n        \', escape=False)\nresponse.write(\'\\t\\n      </div>\\n    </div><!-- container -->\\n  </div><!-- footer -->\\n  \\n  <!--[if lt IE 7 ]>\\n\\t<script src="\', escape=False)\nresponse.write(URL(\'static\',\'js/dd_belatedpng.js\'))\nresponse.write(\'"></script>\\n\\t<script> DD_belatedPNG.fix(\\\'img, .png_bg\\\'); //fix any <img> or .png_bg background-images </script>\\n\\t<![endif]-->\\n  \', escape=False)\nif response.google_analytics_id:\n    response.write(\'<script type="text/javascript"> var _gaq = _gaq || []; _gaq.push([\\\'_setAccount\\\', \\\'\', escape=False)\n    response.write(response.google_analytics_id)\n    response.write("\']); _gaq.push([\'_trackPageview\']); (function() { var ga = document.createElement(\'script\'); ga.type = \'text/javascript\'; ga.async = true; ga.src = (\'https:\' == document.location.protocol ? \'https://ssl\' : \'http://www\') + \'.google-analytics.com/ga.js\'; var s = document.getElementsByTagName(\'script\')[0]; s.parentNode.insertBefore(ga, s); })(); </script> ", escape=False)\n    pass\nresponse.write(\'\\n</body>\\n</html>\\n\', escape=False)'
p7
sS'snapshot'
p8
(dp9
S'exception'
p10
(dp11
S'__getslice__'
p12
S"<method-wrapper '__getslice__' of exceptions.SyntaxError object>"
p13
sS'text'
p14
S'"response.write(URL(\'/static/\'+apple+movie.\'ogg\'))\\n"'
p15
sS'__str__'
p16
S"<method-wrapper '__str__' of exceptions.SyntaxError object>"
p17
sS'__reduce__'
p18
S'<built-in method __reduce__ of exceptions.SyntaxError object>'
p19
sS'__dict__'
p20
S'{}'
p21
sS'__sizeof__'
p22
S'<built-in method __sizeof__ of exceptions.SyntaxError object>'
p23
sS'__init__'
p24
S"<method-wrapper '__init__' of exceptions.SyntaxError object>"
p25
sS'__setattr__'
p26
S"<method-wrapper '__setattr__' of exceptions.SyntaxError object>"
p27
sS'__reduce_ex__'
p28
S'<built-in method __reduce_ex__ of exceptions.SyntaxError object>'
p29
sS'__new__'
p30
S'<built-in method __new__ of type object>'
p31
sS'__format__'
p32
S'<built-in method __format__ of exceptions.SyntaxError object>'
p33
sS'__class__'
p34
S"<type 'exceptions.SyntaxError'>"
p35
sS'filename'
p36
S"'/home/vishrut/web2py/applications/astra1/views/default/show.html'"
p37
sS'lineno'
p38
S'88'
p39
sS'msg'
p40
S"'invalid syntax'"
p41
sS'__doc__'
p42
S"'Invalid syntax.'"
p43
sS'__getitem__'
p44
S"<method-wrapper '__getitem__' of exceptions.SyntaxError object>"
p45
sS'__setstate__'
p46
S'<built-in method __setstate__ of exceptions.SyntaxError object>'
p47
sS'__getattribute__'
p48
S"<method-wrapper '__getattribute__' of exceptions.SyntaxError object>"
p49
sS'print_file_and_line'
p50
S'None'
p51
sS'args'
p52
S'(\'invalid syntax\', (\'/home/vishrut/web2py/applications/astra1/views/default/show.html\', 88, 47, "response.write(URL(\'/static/\'+apple+movie.\'ogg\'))\\n"))'
p53
sS'__subclasshook__'
p54
S'<built-in method __subclasshook__ of type object>'
p55
sS'offset'
p56
S'47'
p57
sS'__unicode__'
p58
S'<built-in method __unicode__ of exceptions.SyntaxError object>'
p59
sS'__delattr__'
p60
S"<method-wrapper '__delattr__' of exceptions.SyntaxError object>"
p61
sS'__repr__'
p62
S"<method-wrapper '__repr__' of exceptions.SyntaxError object>"
p63
sS'__hash__'
p64
S"<method-wrapper '__hash__' of exceptions.SyntaxError object>"
p65
ssS'evalue'
p66
S'invalid syntax (show.html, line 88)'
p67
sS'request'
p68
ccopy_reg
_reconstructor
p69
(cgluon.html
BEAUTIFY
p70
c__builtin__
object
p71
NtRp72
(dp73
S'attributes'
p74
(dp75
sS'components'
p76
(lp77
g69
(cgluon.html
TABLE
p78
g71
NtRp79
(dp80
g74
(dp81
S'level'
p82
I5
ssS'parent'
p83
Nsg76
(lp84
g69
(cgluon.html
TR
p85
g71
NtRp86
(dp87
g74
(dp88
sg83
g79
sg76
(lp89
g69
(cgluon.html
TD
p90
g71
NtRp91
(dp92
g74
(dp93
S'_style'
p94
S'font-weight:bold;vertical-align:top'
p95
ssg83
g86
sg76
(lp96
S'ajax'
p97
asbag69
(g90
g71
NtRp98
(dp99
g74
(dp100
S'_valign'
p101
S'top'
p102
ssg83
g86
sg76
(lp103
S':'
asbag69
(g90
g71
NtRp104
(dp105
g74
(dp106
sg83
g86
sg76
(lp107
g69
(g70
g71
NtRp108
(dp109
g74
(dp110
g82
I5
ssg83
g104
sg76
(lp111
S'False'
p112
asbasbasbag69
(g85
g71
NtRp113
(dp114
g74
(dp115
sg83
g79
sg76
(lp116
g69
(g90
g71
NtRp117
(dp118
g74
(dp119
g94
g95
ssg83
g113
sg76
(lp120
S'application'
p121
asbag69
(g90
g71
NtRp122
(dp123
g74
(dp124
g101
g102
ssg83
g113
sg76
(lp125
S':'
asbag69
(g90
g71
NtRp126
(dp127
g74
(dp128
sg83
g113
sg76
(lp129
g69
(g70
g71
NtRp130
(dp131
g74
(dp132
g82
I5
ssg83
g126
sg76
(lp133
S'astra1'
p134
asbasbasbag69
(g85
g71
NtRp135
(dp136
g74
(dp137
sg83
g79
sg76
(lp138
g69
(g90
g71
NtRp139
(dp140
g74
(dp141
g94
g95
ssg83
g135
sg76
(lp142
g52
asbag69
(g90
g71
NtRp143
(dp144
g74
(dp145
g101
g102
ssg83
g135
sg76
(lp146
S':'
asbag69
(g90
g71
NtRp147
(dp148
g74
(dp149
sg83
g135
sg76
(lp150
g69
(g70
g71
NtRp151
(dp152
g74
(dp153
g82
I5
ssg83
g147
sg76
(lp154
g69
(g78
g71
NtRp155
(dp156
g74
(dp157
g82
I4
ssg83
Nsg76
(lp158
sbasbasbasbag69
(g85
g71
NtRp159
(dp160
g74
(dp161
sg83
g79
sg76
(lp162
g69
(g90
g71
NtRp163
(dp164
g74
(dp165
g94
g95
ssg83
g159
sg76
(lp166
S'body'
p167
asbag69
(g90
g71
NtRp168
(dp169
g74
(dp170
g101
g102
ssg83
g159
sg76
(lp171
S':'
asbag69
(g90
g71
NtRp172
(dp173
g74
(dp174
sg83
g159
sg76
(lp175
g69
(g70
g71
NtRp176
(dp177
g74
(dp178
g82
I5
ssg83
g172
sg76
(lp179
S'<cStringIO.StringO object at 0xa2cdaa0>'
p180
asbasbasbag69
(g85
g71
NtRp181
(dp182
g74
(dp183
sg83
g79
sg76
(lp184
g69
(g90
g71
NtRp185
(dp186
g74
(dp187
g94
g95
ssg83
g181
sg76
(lp188
S'client'
p189
asbag69
(g90
g71
NtRp190
(dp191
g74
(dp192
g101
g102
ssg83
g181
sg76
(lp193
S':'
asbag69
(g90
g71
NtRp194
(dp195
g74
(dp196
sg83
g181
sg76
(lp197
g69
(g70
g71
NtRp198
(dp199
g74
(dp200
g82
I5
ssg83
g194
sg76
(lp201
S'127.0.0.1'
p202
asbasbasbag69
(g85
g71
NtRp203
(dp204
g74
(dp205
sg83
g79
sg76
(lp206
g69
(g90
g71
NtRp207
(dp208
g74
(dp209
g94
g95
ssg83
g203
sg76
(lp210
S'controller'
p211
asbag69
(g90
g71
NtRp212
(dp213
g74
(dp214
g101
g102
ssg83
g203
sg76
(lp215
S':'
asbag69
(g90
g71
NtRp216
(dp217
g74
(dp218
sg83
g203
sg76
(lp219
g69
(g70
g71
NtRp220
(dp221
g74
(dp222
g82
I5
ssg83
g216
sg76
(lp223
S'default'
p224
asbasbasbag69
(g85
g71
NtRp225
(dp226
g74
(dp227
sg83
g79
sg76
(lp228
g69
(g90
g71
NtRp229
(dp230
g74
(dp231
g94
g95
ssg83
g225
sg76
(lp232
S'cookies'
p233
asbag69
(g90
g71
NtRp234
(dp235
g74
(dp236
g101
g102
ssg83
g225
sg76
(lp237
S':'
asbag69
(g90
g71
NtRp238
(dp239
g74
(dp240
sg83
g225
sg76
(lp241
g69
(g70
g71
NtRp242
(dp243
g74
(dp244
g82
I5
ssg83
g238
sg76
(lp245
g69
(g78
g71
NtRp246
(dp247
g74
(dp248
g82
I4
ssg83
Nsg76
(lp249
g69
(g85
g71
NtRp250
(dp251
g74
(dp252
sg83
g246
sg76
(lp253
g69
(g90
g71
NtRp254
(dp255
g74
(dp256
g94
g95
ssg83
g250
sg76
(lp257
S'session_id_admin'
p258
asbag69
(g90
g71
NtRp259
(dp260
g74
(dp261
g101
g102
ssg83
g250
sg76
(lp262
S':'
asbag69
(g90
g71
NtRp263
(dp264
g74
(dp265
sg83
g250
sg76
(lp266
g69
(g70
g71
NtRp267
(dp268
g74
(dp269
g82
I4
ssg83
g263
sg76
(lp270
g69
(g78
g71
NtRp271
(dp272
g74
(dp273
g82
I3
ssg83
Nsg76
(lp274
g69
(g85
g71
NtRp275
(dp276
g74
(dp277
sg83
g271
sg76
(lp278
g69
(g90
g71
NtRp279
(dp280
g74
(dp281
g94
g95
ssg83
g275
sg76
(lp282
S'comment'
p283
asbag69
(g90
g71
NtRp284
(dp285
g74
(dp286
g101
g102
ssg83
g275
sg76
(lp287
S':'
asbag69
(g90
g71
NtRp288
(dp289
g74
(dp290
sg83
g275
sg76
(lp291
g69
(g70
g71
NtRp292
(dp293
g74
(dp294
g82
I3
ssg83
g288
sg76
(lp295
S''
asbasbasbag69
(g85
g71
NtRp296
(dp297
g74
(dp298
sg83
g271
sg76
(lp299
g69
(g90
g71
NtRp300
(dp301
g74
(dp302
g94
g95
ssg83
g296
sg76
(lp303
S'domain'
p304
asbag69
(g90
g71
NtRp305
(dp306
g74
(dp307
g101
g102
ssg83
g296
sg76
(lp308
S':'
asbag69
(g90
g71
NtRp309
(dp310
g74
(dp311
sg83
g296
sg76
(lp312
g69
(g70
g71
NtRp313
(dp314
g74
(dp315
g82
I3
ssg83
g309
sg76
(lp316
S''
asbasbasbag69
(g85
g71
NtRp317
(dp318
g74
(dp319
sg83
g271
sg76
(lp320
g69
(g90
g71
NtRp321
(dp322
g74
(dp323
g94
g95
ssg83
g317
sg76
(lp324
S'expires'
p325
asbag69
(g90
g71
NtRp326
(dp327
g74
(dp328
g101
g102
ssg83
g317
sg76
(lp329
S':'
asbag69
(g90
g71
NtRp330
(dp331
g74
(dp332
sg83
g317
sg76
(lp333
g69
(g70
g71
NtRp334
(dp335
g74
(dp336
g82
I3
ssg83
g330
sg76
(lp337
S''
asbasbasbag69
(g85
g71
NtRp338
(dp339
g74
(dp340
sg83
g271
sg76
(lp341
g69
(g90
g71
NtRp342
(dp343
g74
(dp344
g94
g95
ssg83
g338
sg76
(lp345
S'httponly'
p346
asbag69
(g90
g71
NtRp347
(dp348
g74
(dp349
g101
g102
ssg83
g338
sg76
(lp350
S':'
asbag69
(g90
g71
NtRp351
(dp352
g74
(dp353
sg83
g338
sg76
(lp354
g69
(g70
g71
NtRp355
(dp356
g74
(dp357
g82
I3
ssg83
g351
sg76
(lp358
S''
asbasbasbag69
(g85
g71
NtRp359
(dp360
g74
(dp361
sg83
g271
sg76
(lp362
g69
(g90
g71
NtRp363
(dp364
g74
(dp365
g94
g95
ssg83
g359
sg76
(lp366
S'max-age'
p367
asbag69
(g90
g71
NtRp368
(dp369
g74
(dp370
g101
g102
ssg83
g359
sg76
(lp371
S':'
asbag69
(g90
g71
NtRp372
(dp373
g74
(dp374
sg83
g359
sg76
(lp375
g69
(g70
g71
NtRp376
(dp377
g74
(dp378
g82
I3
ssg83
g372
sg76
(lp379
S''
asbasbasbag69
(g85
g71
NtRp380
(dp381
g74
(dp382
sg83
g271
sg76
(lp383
g69
(g90
g71
NtRp384
(dp385
g74
(dp386
g94
g95
ssg83
g380
sg76
(lp387
S'path'
p388
asbag69
(g90
g71
NtRp389
(dp390
g74
(dp391
g101
g102
ssg83
g380
sg76
(lp392
S':'
asbag69
(g90
g71
NtRp393
(dp394
g74
(dp395
sg83
g380
sg76
(lp396
g69
(g70
g71
NtRp397
(dp398
g74
(dp399
g82
I3
ssg83
g393
sg76
(lp400
S''
asbasbasbag69
(g85
g71
NtRp401
(dp402
g74
(dp403
sg83
g271
sg76
(lp404
g69
(g90
g71
NtRp405
(dp406
g74
(dp407
g94
g95
ssg83
g401
sg76
(lp408
S'secure'
p409
asbag69
(g90
g71
NtRp410
(dp411
g74
(dp412
g101
g102
ssg83
g401
sg76
(lp413
S':'
asbag69
(g90
g71
NtRp414
(dp415
g74
(dp416
sg83
g401
sg76
(lp417
g69
(g70
g71
NtRp418
(dp419
g74
(dp420
g82
I3
ssg83
g414
sg76
(lp421
S''
asbasbasbag69
(g85
g71
NtRp422
(dp423
g74
(dp424
sg83
g271
sg76
(lp425
g69
(g90
g71
NtRp426
(dp427
g74
(dp428
g94
g95
ssg83
g422
sg76
(lp429
S'version'
p430
asbag69
(g90
g71
NtRp431
(dp432
g74
(dp433
g101
g102
ssg83
g422
sg76
(lp434
S':'
asbag69
(g90
g71
NtRp435
(dp436
g74
(dp437
sg83
g422
sg76
(lp438
g69
(g70
g71
NtRp439
(dp440
g74
(dp441
g82
I3
ssg83
g435
sg76
(lp442
S''
asbasbasbasbasbasbasbag69
(g85
g71
NtRp443
(dp444
g74
(dp445
sg83
g246
sg76
(lp446
g69
(g90
g71
NtRp447
(dp448
g74
(dp449
g94
g95
ssg83
g443
sg76
(lp450
S'session_id_astra1'
p451
asbag69
(g90
g71
NtRp452
(dp453
g74
(dp454
g101
g102
ssg83
g443
sg76
(lp455
S':'
asbag69
(g90
g71
NtRp456
(dp457
g74
(dp458
sg83
g443
sg76
(lp459
g69
(g70
g71
NtRp460
(dp461
g74
(dp462
g82
I4
ssg83
g456
sg76
(lp463
g69
(g78
g71
NtRp464
(dp465
g74
(dp466
g82
I3
ssg83
Nsg76
(lp467
g69
(g85
g71
NtRp468
(dp469
g74
(dp470
sg83
g464
sg76
(lp471
g69
(g90
g71
NtRp472
(dp473
g74
(dp474
g94
g95
ssg83
g468
sg76
(lp475
g283
asbag69
(g90
g71
NtRp476
(dp477
g74
(dp478
g101
g102
ssg83
g468
sg76
(lp479
S':'
asbag69
(g90
g71
NtRp480
(dp481
g74
(dp482
sg83
g468
sg76
(lp483
g69
(g70
g71
NtRp484
(dp485
g74
(dp486
g82
I3
ssg83
g480
sg76
(lp487
S''
asbasbasbag69
(g85
g71
NtRp488
(dp489
g74
(dp490
sg83
g464
sg76
(lp491
g69
(g90
g71
NtRp492
(dp493
g74
(dp494
g94
g95
ssg83
g488
sg76
(lp495
g304
asbag69
(g90
g71
NtRp496
(dp497
g74
(dp498
g101
g102
ssg83
g488
sg76
(lp499
S':'
asbag69
(g90
g71
NtRp500
(dp501
g74
(dp502
sg83
g488
sg76
(lp503
g69
(g70
g71
NtRp504
(dp505
g74
(dp506
g82
I3
ssg83
g500
sg76
(lp507
S''
asbasbasbag69
(g85
g71
NtRp508
(dp509
g74
(dp510
sg83
g464
sg76
(lp511
g69
(g90
g71
NtRp512
(dp513
g74
(dp514
g94
g95
ssg83
g508
sg76
(lp515
g325
asbag69
(g90
g71
NtRp516
(dp517
g74
(dp518
g101
g102
ssg83
g508
sg76
(lp519
S':'
asbag69
(g90
g71
NtRp520
(dp521
g74
(dp522
sg83
g508
sg76
(lp523
g69
(g70
g71
NtRp524
(dp525
g74
(dp526
g82
I3
ssg83
g520
sg76
(lp527
S''
asbasbasbag69
(g85
g71
NtRp528
(dp529
g74
(dp530
sg83
g464
sg76
(lp531
g69
(g90
g71
NtRp532
(dp533
g74
(dp534
g94
g95
ssg83
g528
sg76
(lp535
g346
asbag69
(g90
g71
NtRp536
(dp537
g74
(dp538
g101
g102
ssg83
g528
sg76
(lp539
S':'
asbag69
(g90
g71
NtRp540
(dp541
g74
(dp542
sg83
g528
sg76
(lp543
g69
(g70
g71
NtRp544
(dp545
g74
(dp546
g82
I3
ssg83
g540
sg76
(lp547
S''
asbasbasbag69
(g85
g71
NtRp548
(dp549
g74
(dp550
sg83
g464
sg76
(lp551
g69
(g90
g71
NtRp552
(dp553
g74
(dp554
g94
g95
ssg83
g548
sg76
(lp555
g367
asbag69
(g90
g71
NtRp556
(dp557
g74
(dp558
g101
g102
ssg83
g548
sg76
(lp559
S':'
asbag69
(g90
g71
NtRp560
(dp561
g74
(dp562
sg83
g548
sg76
(lp563
g69
(g70
g71
NtRp564
(dp565
g74
(dp566
g82
I3
ssg83
g560
sg76
(lp567
S''
asbasbasbag69
(g85
g71
NtRp568
(dp569
g74
(dp570
sg83
g464
sg76
(lp571
g69
(g90
g71
NtRp572
(dp573
g74
(dp574
g94
g95
ssg83
g568
sg76
(lp575
g388
asbag69
(g90
g71
NtRp576
(dp577
g74
(dp578
g101
g102
ssg83
g568
sg76
(lp579
S':'
asbag69
(g90
g71
NtRp580
(dp581
g74
(dp582
sg83
g568
sg76
(lp583
g69
(g70
g71
NtRp584
(dp585
g74
(dp586
g82
I3
ssg83
g580
sg76
(lp587
S''
asbasbasbag69
(g85
g71
NtRp588
(dp589
g74
(dp590
sg83
g464
sg76
(lp591
g69
(g90
g71
NtRp592
(dp593
g74
(dp594
g94
g95
ssg83
g588
sg76
(lp595
g409
asbag69
(g90
g71
NtRp596
(dp597
g74
(dp598
g101
g102
ssg83
g588
sg76
(lp599
S':'
asbag69
(g90
g71
NtRp600
(dp601
g74
(dp602
sg83
g588
sg76
(lp603
g69
(g70
g71
NtRp604
(dp605
g74
(dp606
g82
I3
ssg83
g600
sg76
(lp607
S''
asbasbasbag69
(g85
g71
NtRp608
(dp609
g74
(dp610
sg83
g464
sg76
(lp611
g69
(g90
g71
NtRp612
(dp613
g74
(dp614
g94
g95
ssg83
g608
sg76
(lp615
g430
asbag69
(g90
g71
NtRp616
(dp617
g74
(dp618
g101
g102
ssg83
g608
sg76
(lp619
S':'
asbag69
(g90
g71
NtRp620
(dp621
g74
(dp622
sg83
g608
sg76
(lp623
g69
(g70
g71
NtRp624
(dp625
g74
(dp626
g82
I3
ssg83
g620
sg76
(lp627
S''
asbasbasbasbasbasbasbag69
(g85
g71
NtRp628
(dp629
g74
(dp630
sg83
g246
sg76
(lp631
g69
(g90
g71
NtRp632
(dp633
g74
(dp634
g94
g95
ssg83
g628
sg76
(lp635
S'session_id_music'
p636
asbag69
(g90
g71
NtRp637
(dp638
g74
(dp639
g101
g102
ssg83
g628
sg76
(lp640
S':'
asbag69
(g90
g71
NtRp641
(dp642
g74
(dp643
sg83
g628
sg76
(lp644
g69
(g70
g71
NtRp645
(dp646
g74
(dp647
g82
I4
ssg83
g641
sg76
(lp648
g69
(g78
g71
NtRp649
(dp650
g74
(dp651
g82
I3
ssg83
Nsg76
(lp652
g69
(g85
g71
NtRp653
(dp654
g74
(dp655
sg83
g649
sg76
(lp656
g69
(g90
g71
NtRp657
(dp658
g74
(dp659
g94
g95
ssg83
g653
sg76
(lp660
g283
asbag69
(g90
g71
NtRp661
(dp662
g74
(dp663
g101
g102
ssg83
g653
sg76
(lp664
S':'
asbag69
(g90
g71
NtRp665
(dp666
g74
(dp667
sg83
g653
sg76
(lp668
g69
(g70
g71
NtRp669
(dp670
g74
(dp671
g82
I3
ssg83
g665
sg76
(lp672
S''
asbasbasbag69
(g85
g71
NtRp673
(dp674
g74
(dp675
sg83
g649
sg76
(lp676
g69
(g90
g71
NtRp677
(dp678
g74
(dp679
g94
g95
ssg83
g673
sg76
(lp680
g304
asbag69
(g90
g71
NtRp681
(dp682
g74
(dp683
g101
g102
ssg83
g673
sg76
(lp684
S':'
asbag69
(g90
g71
NtRp685
(dp686
g74
(dp687
sg83
g673
sg76
(lp688
g69
(g70
g71
NtRp689
(dp690
g74
(dp691
g82
I3
ssg83
g685
sg76
(lp692
S''
asbasbasbag69
(g85
g71
NtRp693
(dp694
g74
(dp695
sg83
g649
sg76
(lp696
g69
(g90
g71
NtRp697
(dp698
g74
(dp699
g94
g95
ssg83
g693
sg76
(lp700
g325
asbag69
(g90
g71
NtRp701
(dp702
g74
(dp703
g101
g102
ssg83
g693
sg76
(lp704
S':'
asbag69
(g90
g71
NtRp705
(dp706
g74
(dp707
sg83
g693
sg76
(lp708
g69
(g70
g71
NtRp709
(dp710
g74
(dp711
g82
I3
ssg83
g705
sg76
(lp712
S''
asbasbasbag69
(g85
g71
NtRp713
(dp714
g74
(dp715
sg83
g649
sg76
(lp716
g69
(g90
g71
NtRp717
(dp718
g74
(dp719
g94
g95
ssg83
g713
sg76
(lp720
g346
asbag69
(g90
g71
NtRp721
(dp722
g74
(dp723
g101
g102
ssg83
g713
sg76
(lp724
S':'
asbag69
(g90
g71
NtRp725
(dp726
g74
(dp727
sg83
g713
sg76
(lp728
g69
(g70
g71
NtRp729
(dp730
g74
(dp731
g82
I3
ssg83
g725
sg76
(lp732
S''
asbasbasbag69
(g85
g71
NtRp733
(dp734
g74
(dp735
sg83
g649
sg76
(lp736
g69
(g90
g71
NtRp737
(dp738
g74
(dp739
g94
g95
ssg83
g733
sg76
(lp740
g367
asbag69
(g90
g71
NtRp741
(dp742
g74
(dp743
g101
g102
ssg83
g733
sg76
(lp744
S':'
asbag69
(g90
g71
NtRp745
(dp746
g74
(dp747
sg83
g733
sg76
(lp748
g69
(g70
g71
NtRp749
(dp750
g74
(dp751
g82
I3
ssg83
g745
sg76
(lp752
S''
asbasbasbag69
(g85
g71
NtRp753
(dp754
g74
(dp755
sg83
g649
sg76
(lp756
g69
(g90
g71
NtRp757
(dp758
g74
(dp759
g94
g95
ssg83
g753
sg76
(lp760
g388
asbag69
(g90
g71
NtRp761
(dp762
g74
(dp763
g101
g102
ssg83
g753
sg76
(lp764
S':'
asbag69
(g90
g71
NtRp765
(dp766
g74
(dp767
sg83
g753
sg76
(lp768
g69
(g70
g71
NtRp769
(dp770
g74
(dp771
g82
I3
ssg83
g765
sg76
(lp772
S''
asbasbasbag69
(g85
g71
NtRp773
(dp774
g74
(dp775
sg83
g649
sg76
(lp776
g69
(g90
g71
NtRp777
(dp778
g74
(dp779
g94
g95
ssg83
g773
sg76
(lp780
g409
asbag69
(g90
g71
NtRp781
(dp782
g74
(dp783
g101
g102
ssg83
g773
sg76
(lp784
S':'
asbag69
(g90
g71
NtRp785
(dp786
g74
(dp787
sg83
g773
sg76
(lp788
g69
(g70
g71
NtRp789
(dp790
g74
(dp791
g82
I3
ssg83
g785
sg76
(lp792
S''
asbasbasbag69
(g85
g71
NtRp793
(dp794
g74
(dp795
sg83
g649
sg76
(lp796
g69
(g90
g71
NtRp797
(dp798
g74
(dp799
g94
g95
ssg83
g793
sg76
(lp800
g430
asbag69
(g90
g71
NtRp801
(dp802
g74
(dp803
g101
g102
ssg83
g793
sg76
(lp804
S':'
asbag69
(g90
g71
NtRp805
(dp806
g74
(dp807
sg83
g793
sg76
(lp808
g69
(g70
g71
NtRp809
(dp810
g74
(dp811
g82
I3
ssg83
g805
sg76
(lp812
S''
asbasbasbasbasbasbasbag69
(g85
g71
NtRp813
(dp814
g74
(dp815
sg83
g246
sg76
(lp816
g69
(g90
g71
NtRp817
(dp818
g74
(dp819
g94
g95
ssg83
g813
sg76
(lp820
S'session_id_music_library'
p821
asbag69
(g90
g71
NtRp822
(dp823
g74
(dp824
g101
g102
ssg83
g813
sg76
(lp825
S':'
asbag69
(g90
g71
NtRp826
(dp827
g74
(dp828
sg83
g813
sg76
(lp829
g69
(g70
g71
NtRp830
(dp831
g74
(dp832
g82
I4
ssg83
g826
sg76
(lp833
g69
(g78
g71
NtRp834
(dp835
g74
(dp836
g82
I3
ssg83
Nsg76
(lp837
g69
(g85
g71
NtRp838
(dp839
g74
(dp840
sg83
g834
sg76
(lp841
g69
(g90
g71
NtRp842
(dp843
g74
(dp844
g94
g95
ssg83
g838
sg76
(lp845
g283
asbag69
(g90
g71
NtRp846
(dp847
g74
(dp848
g101
g102
ssg83
g838
sg76
(lp849
S':'
asbag69
(g90
g71
NtRp850
(dp851
g74
(dp852
sg83
g838
sg76
(lp853
g69
(g70
g71
NtRp854
(dp855
g74
(dp856
g82
I3
ssg83
g850
sg76
(lp857
S''
asbasbasbag69
(g85
g71
NtRp858
(dp859
g74
(dp860
sg83
g834
sg76
(lp861
g69
(g90
g71
NtRp862
(dp863
g74
(dp864
g94
g95
ssg83
g858
sg76
(lp865
g304
asbag69
(g90
g71
NtRp866
(dp867
g74
(dp868
g101
g102
ssg83
g858
sg76
(lp869
S':'
asbag69
(g90
g71
NtRp870
(dp871
g74
(dp872
sg83
g858
sg76
(lp873
g69
(g70
g71
NtRp874
(dp875
g74
(dp876
g82
I3
ssg83
g870
sg76
(lp877
S''
asbasbasbag69
(g85
g71
NtRp878
(dp879
g74
(dp880
sg83
g834
sg76
(lp881
g69
(g90
g71
NtRp882
(dp883
g74
(dp884
g94
g95
ssg83
g878
sg76
(lp885
g325
asbag69
(g90
g71
NtRp886
(dp887
g74
(dp888
g101
g102
ssg83
g878
sg76
(lp889
S':'
asbag69
(g90
g71
NtRp890
(dp891
g74
(dp892
sg83
g878
sg76
(lp893
g69
(g70
g71
NtRp894
(dp895
g74
(dp896
g82
I3
ssg83
g890
sg76
(lp897
S''
asbasbasbag69
(g85
g71
NtRp898
(dp899
g74
(dp900
sg83
g834
sg76
(lp901
g69
(g90
g71
NtRp902
(dp903
g74
(dp904
g94
g95
ssg83
g898
sg76
(lp905
g346
asbag69
(g90
g71
NtRp906
(dp907
g74
(dp908
g101
g102
ssg83
g898
sg76
(lp909
S':'
asbag69
(g90
g71
NtRp910
(dp911
g74
(dp912
sg83
g898
sg76
(lp913
g69
(g70
g71
NtRp914
(dp915
g74
(dp916
g82
I3
ssg83
g910
sg76
(lp917
S''
asbasbasbag69
(g85
g71
NtRp918
(dp919
g74
(dp920
sg83
g834
sg76
(lp921
g69
(g90
g71
NtRp922
(dp923
g74
(dp924
g94
g95
ssg83
g918
sg76
(lp925
g367
asbag69
(g90
g71
NtRp926
(dp927
g74
(dp928
g101
g102
ssg83
g918
sg76
(lp929
S':'
asbag69
(g90
g71
NtRp930
(dp931
g74
(dp932
sg83
g918
sg76
(lp933
g69
(g70
g71
NtRp934
(dp935
g74
(dp936
g82
I3
ssg83
g930
sg76
(lp937
S''
asbasbasbag69
(g85
g71
NtRp938
(dp939
g74
(dp940
sg83
g834
sg76
(lp941
g69
(g90
g71
NtRp942
(dp943
g74
(dp944
g94
g95
ssg83
g938
sg76
(lp945
g388
asbag69
(g90
g71
NtRp946
(dp947
g74
(dp948
g101
g102
ssg83
g938
sg76
(lp949
S':'
asbag69
(g90
g71
NtRp950
(dp951
g74
(dp952
sg83
g938
sg76
(lp953
g69
(g70
g71
NtRp954
(dp955
g74
(dp956
g82
I3
ssg83
g950
sg76
(lp957
S''
asbasbasbag69
(g85
g71
NtRp958
(dp959
g74
(dp960
sg83
g834
sg76
(lp961
g69
(g90
g71
NtRp962
(dp963
g74
(dp964
g94
g95
ssg83
g958
sg76
(lp965
g409
asbag69
(g90
g71
NtRp966
(dp967
g74
(dp968
g101
g102
ssg83
g958
sg76
(lp969
S':'
asbag69
(g90
g71
NtRp970
(dp971
g74
(dp972
sg83
g958
sg76
(lp973
g69
(g70
g71
NtRp974
(dp975
g74
(dp976
g82
I3
ssg83
g970
sg76
(lp977
S''
asbasbasbag69
(g85
g71
NtRp978
(dp979
g74
(dp980
sg83
g834
sg76
(lp981
g69
(g90
g71
NtRp982
(dp983
g74
(dp984
g94
g95
ssg83
g978
sg76
(lp985
g430
asbag69
(g90
g71
NtRp986
(dp987
g74
(dp988
g101
g102
ssg83
g978
sg76
(lp989
S':'
asbag69
(g90
g71
NtRp990
(dp991
g74
(dp992
sg83
g978
sg76
(lp993
g69
(g70
g71
NtRp994
(dp995
g74
(dp996
g82
I3
ssg83
g990
sg76
(lp997
S''
asbasbasbasbasbasbasbag69
(g85
g71
NtRp998
(dp999
g74
(dp1000
sg83
g246
sg76
(lp1001
g69
(g90
g71
NtRp1002
(dp1003
g74
(dp1004
g94
g95
ssg83
g998
sg76
(lp1005
S'session_id_photouploader'
p1006
asbag69
(g90
g71
NtRp1007
(dp1008
g74
(dp1009
g101
g102
ssg83
g998
sg76
(lp1010
S':'
asbag69
(g90
g71
NtRp1011
(dp1012
g74
(dp1013
sg83
g998
sg76
(lp1014
g69
(g70
g71
NtRp1015
(dp1016
g74
(dp1017
g82
I4
ssg83
g1011
sg76
(lp1018
g69
(g78
g71
NtRp1019
(dp1020
g74
(dp1021
g82
I3
ssg83
Nsg76
(lp1022
g69
(g85
g71
NtRp1023
(dp1024
g74
(dp1025
sg83
g1019
sg76
(lp1026
g69
(g90
g71
NtRp1027
(dp1028
g74
(dp1029
g94
g95
ssg83
g1023
sg76
(lp1030
g283
asbag69
(g90
g71
NtRp1031
(dp1032
g74
(dp1033
g101
g102
ssg83
g1023
sg76
(lp1034
S':'
asbag69
(g90
g71
NtRp1035
(dp1036
g74
(dp1037
sg83
g1023
sg76
(lp1038
g69
(g70
g71
NtRp1039
(dp1040
g74
(dp1041
g82
I3
ssg83
g1035
sg76
(lp1042
S''
asbasbasbag69
(g85
g71
NtRp1043
(dp1044
g74
(dp1045
sg83
g1019
sg76
(lp1046
g69
(g90
g71
NtRp1047
(dp1048
g74
(dp1049
g94
g95
ssg83
g1043
sg76
(lp1050
g304
asbag69
(g90
g71
NtRp1051
(dp1052
g74
(dp1053
g101
g102
ssg83
g1043
sg76
(lp1054
S':'
asbag69
(g90
g71
NtRp1055
(dp1056
g74
(dp1057
sg83
g1043
sg76
(lp1058
g69
(g70
g71
NtRp1059
(dp1060
g74
(dp1061
g82
I3
ssg83
g1055
sg76
(lp1062
S''
asbasbasbag69
(g85
g71
NtRp1063
(dp1064
g74
(dp1065
sg83
g1019
sg76
(lp1066
g69
(g90
g71
NtRp1067
(dp1068
g74
(dp1069
g94
g95
ssg83
g1063
sg76
(lp1070
g325
asbag69
(g90
g71
NtRp1071
(dp1072
g74
(dp1073
g101
g102
ssg83
g1063
sg76
(lp1074
S':'
asbag69
(g90
g71
NtRp1075
(dp1076
g74
(dp1077
sg83
g1063
sg76
(lp1078
g69
(g70
g71
NtRp1079
(dp1080
g74
(dp1081
g82
I3
ssg83
g1075
sg76
(lp1082
S''
asbasbasbag69
(g85
g71
NtRp1083
(dp1084
g74
(dp1085
sg83
g1019
sg76
(lp1086
g69
(g90
g71
NtRp1087
(dp1088
g74
(dp1089
g94
g95
ssg83
g1083
sg76
(lp1090
g346
asbag69
(g90
g71
NtRp1091
(dp1092
g74
(dp1093
g101
g102
ssg83
g1083
sg76
(lp1094
S':'
asbag69
(g90
g71
NtRp1095
(dp1096
g74
(dp1097
sg83
g1083
sg76
(lp1098
g69
(g70
g71
NtRp1099
(dp1100
g74
(dp1101
g82
I3
ssg83
g1095
sg76
(lp1102
S''
asbasbasbag69
(g85
g71
NtRp1103
(dp1104
g74
(dp1105
sg83
g1019
sg76
(lp1106
g69
(g90
g71
NtRp1107
(dp1108
g74
(dp1109
g94
g95
ssg83
g1103
sg76
(lp1110
g367
asbag69
(g90
g71
NtRp1111
(dp1112
g74
(dp1113
g101
g102
ssg83
g1103
sg76
(lp1114
S':'
asbag69
(g90
g71
NtRp1115
(dp1116
g74
(dp1117
sg83
g1103
sg76
(lp1118
g69
(g70
g71
NtRp1119
(dp1120
g74
(dp1121
g82
I3
ssg83
g1115
sg76
(lp1122
S''
asbasbasbag69
(g85
g71
NtRp1123
(dp1124
g74
(dp1125
sg83
g1019
sg76
(lp1126
g69
(g90
g71
NtRp1127
(dp1128
g74
(dp1129
g94
g95
ssg83
g1123
sg76
(lp1130
g388
asbag69
(g90
g71
NtRp1131
(dp1132
g74
(dp1133
g101
g102
ssg83
g1123
sg76
(lp1134
S':'
asbag69
(g90
g71
NtRp1135
(dp1136
g74
(dp1137
sg83
g1123
sg76
(lp1138
g69
(g70
g71
NtRp1139
(dp1140
g74
(dp1141
g82
I3
ssg83
g1135
sg76
(lp1142
S''
asbasbasbag69
(g85
g71
NtRp1143
(dp1144
g74
(dp1145
sg83
g1019
sg76
(lp1146
g69
(g90
g71
NtRp1147
(dp1148
g74
(dp1149
g94
g95
ssg83
g1143
sg76
(lp1150
g409
asbag69
(g90
g71
NtRp1151
(dp1152
g74
(dp1153
g101
g102
ssg83
g1143
sg76
(lp1154
S':'
asbag69
(g90
g71
NtRp1155
(dp1156
g74
(dp1157
sg83
g1143
sg76
(lp1158
g69
(g70
g71
NtRp1159
(dp1160
g74
(dp1161
g82
I3
ssg83
g1155
sg76
(lp1162
S''
asbasbasbag69
(g85
g71
NtRp1163
(dp1164
g74
(dp1165
sg83
g1019
sg76
(lp1166
g69
(g90
g71
NtRp1167
(dp1168
g74
(dp1169
g94
g95
ssg83
g1163
sg76
(lp1170
g430
asbag69
(g90
g71
NtRp1171
(dp1172
g74
(dp1173
g101
g102
ssg83
g1163
sg76
(lp1174
S':'
asbag69
(g90
g71
NtRp1175
(dp1176
g74
(dp1177
sg83
g1163
sg76
(lp1178
g69
(g70
g71
NtRp1179
(dp1180
g74
(dp1181
g82
I3
ssg83
g1175
sg76
(lp1182
S''
asbasbasbasbasbasbasbag69
(g85
g71
NtRp1183
(dp1184
g74
(dp1185
sg83
g246
sg76
(lp1186
g69
(g90
g71
NtRp1187
(dp1188
g74
(dp1189
g94
g95
ssg83
g1183
sg76
(lp1190
S'session_id_sudoku'
p1191
asbag69
(g90
g71
NtRp1192
(dp1193
g74
(dp1194
g101
g102
ssg83
g1183
sg76
(lp1195
S':'
asbag69
(g90
g71
NtRp1196
(dp1197
g74
(dp1198
sg83
g1183
sg76
(lp1199
g69
(g70
g71
NtRp1200
(dp1201
g74
(dp1202
g82
I4
ssg83
g1196
sg76
(lp1203
g69
(g78
g71
NtRp1204
(dp1205
g74
(dp1206
g82
I3
ssg83
Nsg76
(lp1207
g69
(g85
g71
NtRp1208
(dp1209
g74
(dp1210
sg83
g1204
sg76
(lp1211
g69
(g90
g71
NtRp1212
(dp1213
g74
(dp1214
g94
g95
ssg83
g1208
sg76
(lp1215
g283
asbag69
(g90
g71
NtRp1216
(dp1217
g74
(dp1218
g101
g102
ssg83
g1208
sg76
(lp1219
S':'
asbag69
(g90
g71
NtRp1220
(dp1221
g74
(dp1222
sg83
g1208
sg76
(lp1223
g69
(g70
g71
NtRp1224
(dp1225
g74
(dp1226
g82
I3
ssg83
g1220
sg76
(lp1227
S''
asbasbasbag69
(g85
g71
NtRp1228
(dp1229
g74
(dp1230
sg83
g1204
sg76
(lp1231
g69
(g90
g71
NtRp1232
(dp1233
g74
(dp1234
g94
g95
ssg83
g1228
sg76
(lp1235
g304
asbag69
(g90
g71
NtRp1236
(dp1237
g74
(dp1238
g101
g102
ssg83
g1228
sg76
(lp1239
S':'
asbag69
(g90
g71
NtRp1240
(dp1241
g74
(dp1242
sg83
g1228
sg76
(lp1243
g69
(g70
g71
NtRp1244
(dp1245
g74
(dp1246
g82
I3
ssg83
g1240
sg76
(lp1247
S''
asbasbasbag69
(g85
g71
NtRp1248
(dp1249
g74
(dp1250
sg83
g1204
sg76
(lp1251
g69
(g90
g71
NtRp1252
(dp1253
g74
(dp1254
g94
g95
ssg83
g1248
sg76
(lp1255
g325
asbag69
(g90
g71
NtRp1256
(dp1257
g74
(dp1258
g101
g102
ssg83
g1248
sg76
(lp1259
S':'
asbag69
(g90
g71
NtRp1260
(dp1261
g74
(dp1262
sg83
g1248
sg76
(lp1263
g69
(g70
g71
NtRp1264
(dp1265
g74
(dp1266
g82
I3
ssg83
g1260
sg76
(lp1267
S''
asbasbasbag69
(g85
g71
NtRp1268
(dp1269
g74
(dp1270
sg83
g1204
sg76
(lp1271
g69
(g90
g71
NtRp1272
(dp1273
g74
(dp1274
g94
g95
ssg83
g1268
sg76
(lp1275
g346
asbag69
(g90
g71
NtRp1276
(dp1277
g74
(dp1278
g101
g102
ssg83
g1268
sg76
(lp1279
S':'
asbag69
(g90
g71
NtRp1280
(dp1281
g74
(dp1282
sg83
g1268
sg76
(lp1283
g69
(g70
g71
NtRp1284
(dp1285
g74
(dp1286
g82
I3
ssg83
g1280
sg76
(lp1287
S''
asbasbasbag69
(g85
g71
NtRp1288
(dp1289
g74
(dp1290
sg83
g1204
sg76
(lp1291
g69
(g90
g71
NtRp1292
(dp1293
g74
(dp1294
g94
g95
ssg83
g1288
sg76
(lp1295
g367
asbag69
(g90
g71
NtRp1296
(dp1297
g74
(dp1298
g101
g102
ssg83
g1288
sg76
(lp1299
S':'
asbag69
(g90
g71
NtRp1300
(dp1301
g74
(dp1302
sg83
g1288
sg76
(lp1303
g69
(g70
g71
NtRp1304
(dp1305
g74
(dp1306
g82
I3
ssg83
g1300
sg76
(lp1307
S''
asbasbasbag69
(g85
g71
NtRp1308
(dp1309
g74
(dp1310
sg83
g1204
sg76
(lp1311
g69
(g90
g71
NtRp1312
(dp1313
g74
(dp1314
g94
g95
ssg83
g1308
sg76
(lp1315
g388
asbag69
(g90
g71
NtRp1316
(dp1317
g74
(dp1318
g101
g102
ssg83
g1308
sg76
(lp1319
S':'
asbag69
(g90
g71
NtRp1320
(dp1321
g74
(dp1322
sg83
g1308
sg76
(lp1323
g69
(g70
g71
NtRp1324
(dp1325
g74
(dp1326
g82
I3
ssg83
g1320
sg76
(lp1327
S''
asbasbasbag69
(g85
g71
NtRp1328
(dp1329
g74
(dp1330
sg83
g1204
sg76
(lp1331
g69
(g90
g71
NtRp1332
(dp1333
g74
(dp1334
g94
g95
ssg83
g1328
sg76
(lp1335
g409
asbag69
(g90
g71
NtRp1336
(dp1337
g74
(dp1338
g101
g102
ssg83
g1328
sg76
(lp1339
S':'
asbag69
(g90
g71
NtRp1340
(dp1341
g74
(dp1342
sg83
g1328
sg76
(lp1343
g69
(g70
g71
NtRp1344
(dp1345
g74
(dp1346
g82
I3
ssg83
g1340
sg76
(lp1347
S''
asbasbasbag69
(g85
g71
NtRp1348
(dp1349
g74
(dp1350
sg83
g1204
sg76
(lp1351
g69
(g90
g71
NtRp1352
(dp1353
g74
(dp1354
g94
g95
ssg83
g1348
sg76
(lp1355
g430
asbag69
(g90
g71
NtRp1356
(dp1357
g74
(dp1358
g101
g102
ssg83
g1348
sg76
(lp1359
S':'
asbag69
(g90
g71
NtRp1360
(dp1361
g74
(dp1362
sg83
g1348
sg76
(lp1363
g69
(g70
g71
NtRp1364
(dp1365
g74
(dp1366
g82
I3
ssg83
g1360
sg76
(lp1367
S''
asbasbasbasbasbasbasbag69
(g85
g71
NtRp1368
(dp1369
g74
(dp1370
sg83
g246
sg76
(lp1371
g69
(g90
g71
NtRp1372
(dp1373
g74
(dp1374
g94
g95
ssg83
g1368
sg76
(lp1375
S'session_id_vish'
p1376
asbag69
(g90
g71
NtRp1377
(dp1378
g74
(dp1379
g101
g102
ssg83
g1368
sg76
(lp1380
S':'
asbag69
(g90
g71
NtRp1381
(dp1382
g74
(dp1383
sg83
g1368
sg76
(lp1384
g69
(g70
g71
NtRp1385
(dp1386
g74
(dp1387
g82
I4
ssg83
g1381
sg76
(lp1388
g69
(g78
g71
NtRp1389
(dp1390
g74
(dp1391
g82
I3
ssg83
Nsg76
(lp1392
g69
(g85
g71
NtRp1393
(dp1394
g74
(dp1395
sg83
g1389
sg76
(lp1396
g69
(g90
g71
NtRp1397
(dp1398
g74
(dp1399
g94
g95
ssg83
g1393
sg76
(lp1400
g283
asbag69
(g90
g71
NtRp1401
(dp1402
g74
(dp1403
g101
g102
ssg83
g1393
sg76
(lp1404
S':'
asbag69
(g90
g71
NtRp1405
(dp1406
g74
(dp1407
sg83
g1393
sg76
(lp1408
g69
(g70
g71
NtRp1409
(dp1410
g74
(dp1411
g82
I3
ssg83
g1405
sg76
(lp1412
S''
asbasbasbag69
(g85
g71
NtRp1413
(dp1414
g74
(dp1415
sg83
g1389
sg76
(lp1416
g69
(g90
g71
NtRp1417
(dp1418
g74
(dp1419
g94
g95
ssg83
g1413
sg76
(lp1420
g304
asbag69
(g90
g71
NtRp1421
(dp1422
g74
(dp1423
g101
g102
ssg83
g1413
sg76
(lp1424
S':'
asbag69
(g90
g71
NtRp1425
(dp1426
g74
(dp1427
sg83
g1413
sg76
(lp1428
g69
(g70
g71
NtRp1429
(dp1430
g74
(dp1431
g82
I3
ssg83
g1425
sg76
(lp1432
S''
asbasbasbag69
(g85
g71
NtRp1433
(dp1434
g74
(dp1435
sg83
g1389
sg76
(lp1436
g69
(g90
g71
NtRp1437
(dp1438
g74
(dp1439
g94
g95
ssg83
g1433
sg76
(lp1440
g325
asbag69
(g90
g71
NtRp1441
(dp1442
g74
(dp1443
g101
g102
ssg83
g1433
sg76
(lp1444
S':'
asbag69
(g90
g71
NtRp1445
(dp1446
g74
(dp1447
sg83
g1433
sg76
(lp1448
g69
(g70
g71
NtRp1449
(dp1450
g74
(dp1451
g82
I3
ssg83
g1445
sg76
(lp1452
S''
asbasbasbag69
(g85
g71
NtRp1453
(dp1454
g74
(dp1455
sg83
g1389
sg76
(lp1456
g69
(g90
g71
NtRp1457
(dp1458
g74
(dp1459
g94
g95
ssg83
g1453
sg76
(lp1460
g346
asbag69
(g90
g71
NtRp1461
(dp1462
g74
(dp1463
g101
g102
ssg83
g1453
sg76
(lp1464
S':'
asbag69
(g90
g71
NtRp1465
(dp1466
g74
(dp1467
sg83
g1453
sg76
(lp1468
g69
(g70
g71
NtRp1469
(dp1470
g74
(dp1471
g82
I3
ssg83
g1465
sg76
(lp1472
S''
asbasbasbag69
(g85
g71
NtRp1473
(dp1474
g74
(dp1475
sg83
g1389
sg76
(lp1476
g69
(g90
g71
NtRp1477
(dp1478
g74
(dp1479
g94
g95
ssg83
g1473
sg76
(lp1480
g367
asbag69
(g90
g71
NtRp1481
(dp1482
g74
(dp1483
g101
g102
ssg83
g1473
sg76
(lp1484
S':'
asbag69
(g90
g71
NtRp1485
(dp1486
g74
(dp1487
sg83
g1473
sg76
(lp1488
g69
(g70
g71
NtRp1489
(dp1490
g74
(dp1491
g82
I3
ssg83
g1485
sg76
(lp1492
S''
asbasbasbag69
(g85
g71
NtRp1493
(dp1494
g74
(dp1495
sg83
g1389
sg76
(lp1496
g69
(g90
g71
NtRp1497
(dp1498
g74
(dp1499
g94
g95
ssg83
g1493
sg76
(lp1500
g388
asbag69
(g90
g71
NtRp1501
(dp1502
g74
(dp1503
g101
g102
ssg83
g1493
sg76
(lp1504
S':'
asbag69
(g90
g71
NtRp1505
(dp1506
g74
(dp1507
sg83
g1493
sg76
(lp1508
g69
(g70
g71
NtRp1509
(dp1510
g74
(dp1511
g82
I3
ssg83
g1505
sg76
(lp1512
S''
asbasbasbag69
(g85
g71
NtRp1513
(dp1514
g74
(dp1515
sg83
g1389
sg76
(lp1516
g69
(g90
g71
NtRp1517
(dp1518
g74
(dp1519
g94
g95
ssg83
g1513
sg76
(lp1520
g409
asbag69
(g90
g71
NtRp1521
(dp1522
g74
(dp1523
g101
g102
ssg83
g1513
sg76
(lp1524
S':'
asbag69
(g90
g71
NtRp1525
(dp1526
g74
(dp1527
sg83
g1513
sg76
(lp1528
g69
(g70
g71
NtRp1529
(dp1530
g74
(dp1531
g82
I3
ssg83
g1525
sg76
(lp1532
S''
asbasbasbag69
(g85
g71
NtRp1533
(dp1534
g74
(dp1535
sg83
g1389
sg76
(lp1536
g69
(g90
g71
NtRp1537
(dp1538
g74
(dp1539
g94
g95
ssg83
g1533
sg76
(lp1540
g430
asbag69
(g90
g71
NtRp1541
(dp1542
g74
(dp1543
g101
g102
ssg83
g1533
sg76
(lp1544
S':'
asbag69
(g90
g71
NtRp1545
(dp1546
g74
(dp1547
sg83
g1533
sg76
(lp1548
g69
(g70
g71
NtRp1549
(dp1550
g74
(dp1551
g82
I3
ssg83
g1545
sg76
(lp1552
S''
asbasbasbasbasbasbasbag69
(g85
g71
NtRp1553
(dp1554
g74
(dp1555
sg83
g246
sg76
(lp1556
g69
(g90
g71
NtRp1557
(dp1558
g74
(dp1559
g94
g95
ssg83
g1553
sg76
(lp1560
S'session_id_welcome'
p1561
asbag69
(g90
g71
NtRp1562
(dp1563
g74
(dp1564
g101
g102
ssg83
g1553
sg76
(lp1565
S':'
asbag69
(g90
g71
NtRp1566
(dp1567
g74
(dp1568
sg83
g1553
sg76
(lp1569
g69
(g70
g71
NtRp1570
(dp1571
g74
(dp1572
g82
I4
ssg83
g1566
sg76
(lp1573
g69
(g78
g71
NtRp1574
(dp1575
g74
(dp1576
g82
I3
ssg83
Nsg76
(lp1577
g69
(g85
g71
NtRp1578
(dp1579
g74
(dp1580
sg83
g1574
sg76
(lp1581
g69
(g90
g71
NtRp1582
(dp1583
g74
(dp1584
g94
g95
ssg83
g1578
sg76
(lp1585
g283
asbag69
(g90
g71
NtRp1586
(dp1587
g74
(dp1588
g101
g102
ssg83
g1578
sg76
(lp1589
S':'
asbag69
(g90
g71
NtRp1590
(dp1591
g74
(dp1592
sg83
g1578
sg76
(lp1593
g69
(g70
g71
NtRp1594
(dp1595
g74
(dp1596
g82
I3
ssg83
g1590
sg76
(lp1597
S''
asbasbasbag69
(g85
g71
NtRp1598
(dp1599
g74
(dp1600
sg83
g1574
sg76
(lp1601
g69
(g90
g71
NtRp1602
(dp1603
g74
(dp1604
g94
g95
ssg83
g1598
sg76
(lp1605
g304
asbag69
(g90
g71
NtRp1606
(dp1607
g74
(dp1608
g101
g102
ssg83
g1598
sg76
(lp1609
S':'
asbag69
(g90
g71
NtRp1610
(dp1611
g74
(dp1612
sg83
g1598
sg76
(lp1613
g69
(g70
g71
NtRp1614
(dp1615
g74
(dp1616
g82
I3
ssg83
g1610
sg76
(lp1617
S''
asbasbasbag69
(g85
g71
NtRp1618
(dp1619
g74
(dp1620
sg83
g1574
sg76
(lp1621
g69
(g90
g71
NtRp1622
(dp1623
g74
(dp1624
g94
g95
ssg83
g1618
sg76
(lp1625
g325
asbag69
(g90
g71
NtRp1626
(dp1627
g74
(dp1628
g101
g102
ssg83
g1618
sg76
(lp1629
S':'
asbag69
(g90
g71
NtRp1630
(dp1631
g74
(dp1632
sg83
g1618
sg76
(lp1633
g69
(g70
g71
NtRp1634
(dp1635
g74
(dp1636
g82
I3
ssg83
g1630
sg76
(lp1637
S''
asbasbasbag69
(g85
g71
NtRp1638
(dp1639
g74
(dp1640
sg83
g1574
sg76
(lp1641
g69
(g90
g71
NtRp1642
(dp1643
g74
(dp1644
g94
g95
ssg83
g1638
sg76
(lp1645
g346
asbag69
(g90
g71
NtRp1646
(dp1647
g74
(dp1648
g101
g102
ssg83
g1638
sg76
(lp1649
S':'
asbag69
(g90
g71
NtRp1650
(dp1651
g74
(dp1652
sg83
g1638
sg76
(lp1653
g69
(g70
g71
NtRp1654
(dp1655
g74
(dp1656
g82
I3
ssg83
g1650
sg76
(lp1657
S''
asbasbasbag69
(g85
g71
NtRp1658
(dp1659
g74
(dp1660
sg83
g1574
sg76
(lp1661
g69
(g90
g71
NtRp1662
(dp1663
g74
(dp1664
g94
g95
ssg83
g1658
sg76
(lp1665
g367
asbag69
(g90
g71
NtRp1666
(dp1667
g74
(dp1668
g101
g102
ssg83
g1658
sg76
(lp1669
S':'
asbag69
(g90
g71
NtRp1670
(dp1671
g74
(dp1672
sg83
g1658
sg76
(lp1673
g69
(g70
g71
NtRp1674
(dp1675
g74
(dp1676
g82
I3
ssg83
g1670
sg76
(lp1677
S''
asbasbasbag69
(g85
g71
NtRp1678
(dp1679
g74
(dp1680
sg83
g1574
sg76
(lp1681
g69
(g90
g71
NtRp1682
(dp1683
g74
(dp1684
g94
g95
ssg83
g1678
sg76
(lp1685
g388
asbag69
(g90
g71
NtRp1686
(dp1687
g74
(dp1688
g101
g102
ssg83
g1678
sg76
(lp1689
S':'
asbag69
(g90
g71
NtRp1690
(dp1691
g74
(dp1692
sg83
g1678
sg76
(lp1693
g69
(g70
g71
NtRp1694
(dp1695
g74
(dp1696
g82
I3
ssg83
g1690
sg76
(lp1697
S''
asbasbasbag69
(g85
g71
NtRp1698
(dp1699
g74
(dp1700
sg83
g1574
sg76
(lp1701
g69
(g90
g71
NtRp1702
(dp1703
g74
(dp1704
g94
g95
ssg83
g1698
sg76
(lp1705
g409
asbag69
(g90
g71
NtRp1706
(dp1707
g74
(dp1708
g101
g102
ssg83
g1698
sg76
(lp1709
S':'
asbag69
(g90
g71
NtRp1710
(dp1711
g74
(dp1712
sg83
g1698
sg76
(lp1713
g69
(g70
g71
NtRp1714
(dp1715
g74
(dp1716
g82
I3
ssg83
g1710
sg76
(lp1717
S''
asbasbasbag69
(g85
g71
NtRp1718
(dp1719
g74
(dp1720
sg83
g1574
sg76
(lp1721
g69
(g90
g71
NtRp1722
(dp1723
g74
(dp1724
g94
g95
ssg83
g1718
sg76
(lp1725
g430
asbag69
(g90
g71
NtRp1726
(dp1727
g74
(dp1728
g101
g102
ssg83
g1718
sg76
(lp1729
S':'
asbag69
(g90
g71
NtRp1730
(dp1731
g74
(dp1732
sg83
g1718
sg76
(lp1733
g69
(g70
g71
NtRp1734
(dp1735
g74
(dp1736
g82
I3
ssg83
g1730
sg76
(lp1737
S''
asbasbasbasbasbasbasbasbasbasbasbag69
(g85
g71
NtRp1738
(dp1739
g74
(dp1740
sg83
g79
sg76
(lp1741
g69
(g90
g71
NtRp1742
(dp1743
g74
(dp1744
g94
g95
ssg83
g1738
sg76
(lp1745
S'env'
p1746
asbag69
(g90
g71
NtRp1747
(dp1748
g74
(dp1749
g101
g102
ssg83
g1738
sg76
(lp1750
S':'
asbag69
(g90
g71
NtRp1751
(dp1752
g74
(dp1753
sg83
g1738
sg76
(lp1754
g69
(g70
g71
NtRp1755
(dp1756
g74
(dp1757
g82
I5
ssg83
g1751
sg76
(lp1758
g69
(g78
g71
NtRp1759
(dp1760
g74
(dp1761
g82
I4
ssg83
Nsg76
(lp1762
g69
(g85
g71
NtRp1763
(dp1764
g74
(dp1765
sg83
g1759
sg76
(lp1766
g69
(g90
g71
NtRp1767
(dp1768
g74
(dp1769
g94
g95
ssg83
g1763
sg76
(lp1770
S'app_folders'
p1771
asbag69
(g90
g71
NtRp1772
(dp1773
g74
(dp1774
g101
g102
ssg83
g1763
sg76
(lp1775
S':'
asbag69
(g90
g71
NtRp1776
(dp1777
g74
(dp1778
sg83
g1763
sg76
(lp1779
g69
(g70
g71
NtRp1780
(dp1781
g74
(dp1782
g82
I4
ssg83
g1776
sg76
(lp1783
S"set(['/home/vishrut/web2py/applications/astra1/', '/home/vishrut/web2py/applications/admin/', '/home/vishrut/web2py/applications/PhotoUploader/', '/home/vishrut/web2py/applications/welcome/'])"
p1784
asbasbasbag69
(g85
g71
NtRp1785
(dp1786
g74
(dp1787
sg83
g1759
sg76
(lp1788
g69
(g90
g71
NtRp1789
(dp1790
g74
(dp1791
g94
g95
ssg83
g1785
sg76
(lp1792
S'applications_parent'
p1793
asbag69
(g90
g71
NtRp1794
(dp1795
g74
(dp1796
g101
g102
ssg83
g1785
sg76
(lp1797
S':'
asbag69
(g90
g71
NtRp1798
(dp1799
g74
(dp1800
sg83
g1785
sg76
(lp1801
g69
(g70
g71
NtRp1802
(dp1803
g74
(dp1804
g82
I4
ssg83
g1798
sg76
(lp1805
S'/home/vishrut/web2py'
p1806
asbasbasbag69
(g85
g71
NtRp1807
(dp1808
g74
(dp1809
sg83
g1759
sg76
(lp1810
g69
(g90
g71
NtRp1811
(dp1812
g74
(dp1813
g94
g95
ssg83
g1807
sg76
(lp1814
S'cmd_args'
p1815
asbag69
(g90
g71
NtRp1816
(dp1817
g74
(dp1818
g101
g102
ssg83
g1807
sg76
(lp1819
S':'
asbag69
(g90
g71
NtRp1820
(dp1821
g74
(dp1822
sg83
g1807
sg76
(lp1823
g69
(g70
g71
NtRp1824
(dp1825
g74
(dp1826
g82
I4
ssg83
g1820
sg76
(lp1827
g69
(g78
g71
NtRp1828
(dp1829
g74
(dp1830
g82
I3
ssg83
Nsg76
(lp1831
sbasbasbasbag69
(g85
g71
NtRp1832
(dp1833
g74
(dp1834
sg83
g1759
sg76
(lp1835
g69
(g90
g71
NtRp1836
(dp1837
g74
(dp1838
g94
g95
ssg83
g1832
sg76
(lp1839
S'cmd_options'
p1840
asbag69
(g90
g71
NtRp1841
(dp1842
g74
(dp1843
g101
g102
ssg83
g1832
sg76
(lp1844
S':'
asbag69
(g90
g71
NtRp1845
(dp1846
g74
(dp1847
sg83
g1832
sg76
(lp1848
g69
(g70
g71
NtRp1849
(dp1850
g74
(dp1851
g82
I4
ssg83
g1845
sg76
(lp1852
S"<Values at 0x9d363cc: {'verbose': False, 'ip': '127.0.0.1', 'shutdown_timeout': 5, 'taskbar': False, 'nocron': False, 'pid_filename': 'httpserver.pid', 'maxthreads': None, 'softcron': False, 'server_name': 'vishrut-Vostro-1015', 'bpython': False, 'nogui': False, 'port': 8000, 'extcron': False, 'debuglevel': 30, 'test': None, 'folder': '/home/vishrut/web2py', 'config': '', 'import_models': False, 'winservice': '', 'shell': None, 'run': '', 'log_filename': 'httpserver.log', 'args': [''], 'socket_timeout': 5, 'ssl_ca_certificate': None, 'scheduler': None, 'profiler_filename': None, 'ssl_private_key': '', 'password': '<ask>', 'request_queue_size': 5, 'ssl_certificate': '', 'cronjob': False, 'numthreads': None, 'quiet': False, 'interfaces': None, 'minthreads': None, 'timeout': 10, 'plain': False, 'nobanner': False}>"
p1853
asbasbasbag69
(g85
g71
NtRp1854
(dp1855
g74
(dp1856
sg83
g1759
sg76
(lp1857
g69
(g90
g71
NtRp1858
(dp1859
g74
(dp1860
g94
g95
ssg83
g1854
sg76
(lp1861
S'db_sessions'
p1862
asbag69
(g90
g71
NtRp1863
(dp1864
g74
(dp1865
g101
g102
ssg83
g1854
sg76
(lp1866
S':'
asbag69
(g90
g71
NtRp1867
(dp1868
g74
(dp1869
sg83
g1854
sg76
(lp1870
g69
(g70
g71
NtRp1871
(dp1872
g74
(dp1873
g82
I4
ssg83
g1867
sg76
(lp1874
S'set([])'
p1875
asbasbasbag69
(g85
g71
NtRp1876
(dp1877
g74
(dp1878
sg83
g1759
sg76
(lp1879
g69
(g90
g71
NtRp1880
(dp1881
g74
(dp1882
g94
g95
ssg83
g1876
sg76
(lp1883
S'debugging'
p1884
asbag69
(g90
g71
NtRp1885
(dp1886
g74
(dp1887
g101
g102
ssg83
g1876
sg76
(lp1888
S':'
asbag69
(g90
g71
NtRp1889
(dp1890
g74
(dp1891
sg83
g1876
sg76
(lp1892
g69
(g70
g71
NtRp1893
(dp1894
g74
(dp1895
g82
I4
ssg83
g1889
sg76
(lp1896
g112
asbasbasbag69
(g85
g71
NtRp1897
(dp1898
g74
(dp1899
sg83
g1759
sg76
(lp1900
g69
(g90
g71
NtRp1901
(dp1902
g74
(dp1903
g94
g95
ssg83
g1897
sg76
(lp1904
S'gluon_parent'
p1905
asbag69
(g90
g71
NtRp1906
(dp1907
g74
(dp1908
g101
g102
ssg83
g1897
sg76
(lp1909
S':'
asbag69
(g90
g71
NtRp1910
(dp1911
g74
(dp1912
sg83
g1897
sg76
(lp1913
g69
(g70
g71
NtRp1914
(dp1915
g74
(dp1916
g82
I4
ssg83
g1910
sg76
(lp1917
S'/home/vishrut/web2py'
p1918
asbasbasbag69
(g85
g71
NtRp1919
(dp1920
g74
(dp1921
sg83
g1759
sg76
(lp1922
g69
(g90
g71
NtRp1923
(dp1924
g74
(dp1925
g94
g95
ssg83
g1919
sg76
(lp1926
S'http_accept'
p1927
asbag69
(g90
g71
NtRp1928
(dp1929
g74
(dp1930
g101
g102
ssg83
g1919
sg76
(lp1931
S':'
asbag69
(g90
g71
NtRp1932
(dp1933
g74
(dp1934
sg83
g1919
sg76
(lp1935
g69
(g70
g71
NtRp1936
(dp1937
g74
(dp1938
g82
I4
ssg83
g1932
sg76
(lp1939
S'text/html,application/xhtml+xml,application/xml;q=0.9,*/*;q=0.8'
p1940
asbasbasbag69
(g85
g71
NtRp1941
(dp1942
g74
(dp1943
sg83
g1759
sg76
(lp1944
g69
(g90
g71
NtRp1945
(dp1946
g74
(dp1947
g94
g95
ssg83
g1941
sg76
(lp1948
S'http_accept_encoding'
p1949
asbag69
(g90
g71
NtRp1950
(dp1951
g74
(dp1952
g101
g102
ssg83
g1941
sg76
(lp1953
S':'
asbag69
(g90
g71
NtRp1954
(dp1955
g74
(dp1956
sg83
g1941
sg76
(lp1957
g69
(g70
g71
NtRp1958
(dp1959
g74
(dp1960
g82
I4
ssg83
g1954
sg76
(lp1961
S'gzip, deflate'
p1962
asbasbasbag69
(g85
g71
NtRp1963
(dp1964
g74
(dp1965
sg83
g1759
sg76
(lp1966
g69
(g90
g71
NtRp1967
(dp1968
g74
(dp1969
g94
g95
ssg83
g1963
sg76
(lp1970
S'http_accept_language'
p1971
asbag69
(g90
g71
NtRp1972
(dp1973
g74
(dp1974
g101
g102
ssg83
g1963
sg76
(lp1975
S':'
asbag69
(g90
g71
NtRp1976
(dp1977
g74
(dp1978
sg83
g1963
sg76
(lp1979
g69
(g70
g71
NtRp1980
(dp1981
g74
(dp1982
g82
I4
ssg83
g1976
sg76
(lp1983
S'en-US,en;q=0.5'
p1984
asbasbasbag69
(g85
g71
NtRp1985
(dp1986
g74
(dp1987
sg83
g1759
sg76
(lp1988
g69
(g90
g71
NtRp1989
(dp1990
g74
(dp1991
g94
g95
ssg83
g1985
sg76
(lp1992
S'http_cache_control'
p1993
asbag69
(g90
g71
NtRp1994
(dp1995
g74
(dp1996
g101
g102
ssg83
g1985
sg76
(lp1997
S':'
asbag69
(g90
g71
NtRp1998
(dp1999
g74
(dp2000
sg83
g1985
sg76
(lp2001
g69
(g70
g71
NtRp2002
(dp2003
g74
(dp2004
g82
I4
ssg83
g1998
sg76
(lp2005
S'max-age=0'
p2006
asbasbasbag69
(g85
g71
NtRp2007
(dp2008
g74
(dp2009
sg83
g1759
sg76
(lp2010
g69
(g90
g71
NtRp2011
(dp2012
g74
(dp2013
g94
g95
ssg83
g2007
sg76
(lp2014
S'http_connection'
p2015
asbag69
(g90
g71
NtRp2016
(dp2017
g74
(dp2018
g101
g102
ssg83
g2007
sg76
(lp2019
S':'
asbag69
(g90
g71
NtRp2020
(dp2021
g74
(dp2022
sg83
g2007
sg76
(lp2023
g69
(g70
g71
NtRp2024
(dp2025
g74
(dp2026
g82
I4
ssg83
g2020
sg76
(lp2027
S'keep-alive'
p2028
asbasbasbag69
(g85
g71
NtRp2029
(dp2030
g74
(dp2031
sg83
g1759
sg76
(lp2032
g69
(g90
g71
NtRp2033
(dp2034
g74
(dp2035
g94
g95
ssg83
g2029
sg76
(lp2036
S'http_cookie'
p2037
asbag69
(g90
g71
NtRp2038
(dp2039
g74
(dp2040
g101
g102
ssg83
g2029
sg76
(lp2041
S':'
asbag69
(g90
g71
NtRp2042
(dp2043
g74
(dp2044
sg83
g2029
sg76
(lp2045
g69
(g70
g71
NtRp2046
(dp2047
g74
(dp2048
g82
I4
ssg83
g2042
sg76
(lp2049
S'session_id_photouploader=127.0.0.1-83bacd5e-b575-49a8-9b6e-fdc698e775f9; session_id_astra1=127.0.0.1-6c6943ea-9e10-4b64-9f35-8611eb020dd8; session_id_sudoku=127.0.0.1-a38f9f54-52d0-4767-a55e-9a1db318fe95; session_id_music=127.0.0.1-5772fb54-09d1-429f-9de0-d5ccdcb57f3a; session_id_welcome=127.0.0.1-ce947a26-bb3e-43d4-9cd9-87c4abcec933; session_id_admin=127.0.0.1-6c67b90d-3883-4b37-ba21-eef2525d3981; session_id_vish=127.0.0.1-bfddb273-c13f-44aa-9345-6c2c33dcf2db; session_id_music_library=127.0.0.1-868801ee-bee6-4d4d-8081-d21e25945ab6'
p2050
asbasbasbag69
(g85
g71
NtRp2051
(dp2052
g74
(dp2053
sg83
g1759
sg76
(lp2054
g69
(g90
g71
NtRp2055
(dp2056
g74
(dp2057
g94
g95
ssg83
g2051
sg76
(lp2058
S'http_host'
p2059
asbag69
(g90
g71
NtRp2060
(dp2061
g74
(dp2062
g101
g102
ssg83
g2051
sg76
(lp2063
S':'
asbag69
(g90
g71
NtRp2064
(dp2065
g74
(dp2066
sg83
g2051
sg76
(lp2067
g69
(g70
g71
NtRp2068
(dp2069
g74
(dp2070
g82
I4
ssg83
g2064
sg76
(lp2071
S'127.0.0.1:8000'
p2072
asbasbasbag69
(g85
g71
NtRp2073
(dp2074
g74
(dp2075
sg83
g1759
sg76
(lp2076
g69
(g90
g71
NtRp2077
(dp2078
g74
(dp2079
g94
g95
ssg83
g2073
sg76
(lp2080
S'http_user_agent'
p2081
asbag69
(g90
g71
NtRp2082
(dp2083
g74
(dp2084
g101
g102
ssg83
g2073
sg76
(lp2085
S':'
asbag69
(g90
g71
NtRp2086
(dp2087
g74
(dp2088
sg83
g2073
sg76
(lp2089
g69
(g70
g71
NtRp2090
(dp2091
g74
(dp2092
g82
I4
ssg83
g2086
sg76
(lp2093
S'Mozilla/5.0 (X11; Ubuntu; Linux i686; rv:16.0) Gecko/20100101 Firefox/16.0'
p2094
asbasbasbag69
(g85
g71
NtRp2095
(dp2096
g74
(dp2097
sg83
g1759
sg76
(lp2098
g69
(g90
g71
NtRp2099
(dp2100
g74
(dp2101
g94
g95
ssg83
g2095
sg76
(lp2102
S'is_jython'
p2103
asbag69
(g90
g71
NtRp2104
(dp2105
g74
(dp2106
g101
g102
ssg83
g2095
sg76
(lp2107
S':'
asbag69
(g90
g71
NtRp2108
(dp2109
g74
(dp2110
sg83
g2095
sg76
(lp2111
g69
(g70
g71
NtRp2112
(dp2113
g74
(dp2114
g82
I4
ssg83
g2108
sg76
(lp2115
g112
asbasbasbag69
(g85
g71
NtRp2116
(dp2117
g74
(dp2118
sg83
g1759
sg76
(lp2119
g69
(g90
g71
NtRp2120
(dp2121
g74
(dp2122
g94
g95
ssg83
g2116
sg76
(lp2123
S'is_pypy'
p2124
asbag69
(g90
g71
NtRp2125
(dp2126
g74
(dp2127
g101
g102
ssg83
g2116
sg76
(lp2128
S':'
asbag69
(g90
g71
NtRp2129
(dp2130
g74
(dp2131
sg83
g2116
sg76
(lp2132
g69
(g70
g71
NtRp2133
(dp2134
g74
(dp2135
g82
I4
ssg83
g2129
sg76
(lp2136
g112
asbasbasbag69
(g85
g71
NtRp2137
(dp2138
g74
(dp2139
sg83
g1759
sg76
(lp2140
g69
(g90
g71
NtRp2141
(dp2142
g74
(dp2143
g94
g95
ssg83
g2137
sg76
(lp2144
S'path_info'
p2145
asbag69
(g90
g71
NtRp2146
(dp2147
g74
(dp2148
g101
g102
ssg83
g2137
sg76
(lp2149
S':'
asbag69
(g90
g71
NtRp2150
(dp2151
g74
(dp2152
sg83
g2137
sg76
(lp2153
g69
(g70
g71
NtRp2154
(dp2155
g74
(dp2156
g82
I4
ssg83
g2150
sg76
(lp2157
S'/astra1/default/show'
p2158
asbasbasbag69
(g85
g71
NtRp2159
(dp2160
g74
(dp2161
sg83
g1759
sg76
(lp2162
g69
(g90
g71
NtRp2163
(dp2164
g74
(dp2165
g94
g95
ssg83
g2159
sg76
(lp2166
S'query_string'
p2167
asbag69
(g90
g71
NtRp2168
(dp2169
g74
(dp2170
g101
g102
ssg83
g2159
sg76
(lp2171
S':'
asbag69
(g90
g71
NtRp2172
(dp2173
g74
(dp2174
sg83
g2159
sg76
(lp2175
g69
(g70
g71
NtRp2176
(dp2177
g74
(dp2178
g82
I4
ssg83
g2172
sg76
(lp2179
S''
asbasbasbag69
(g85
g71
NtRp2180
(dp2181
g74
(dp2182
sg83
g1759
sg76
(lp2183
g69
(g90
g71
NtRp2184
(dp2185
g74
(dp2186
g94
g95
ssg83
g2180
sg76
(lp2187
S'remote_addr'
p2188
asbag69
(g90
g71
NtRp2189
(dp2190
g74
(dp2191
g101
g102
ssg83
g2180
sg76
(lp2192
S':'
asbag69
(g90
g71
NtRp2193
(dp2194
g74
(dp2195
sg83
g2180
sg76
(lp2196
g69
(g70
g71
NtRp2197
(dp2198
g74
(dp2199
g82
I4
ssg83
g2193
sg76
(lp2200
g202
asbasbasbag69
(g85
g71
NtRp2201
(dp2202
g74
(dp2203
sg83
g1759
sg76
(lp2204
g69
(g90
g71
NtRp2205
(dp2206
g74
(dp2207
g94
g95
ssg83
g2201
sg76
(lp2208
S'remote_port'
p2209
asbag69
(g90
g71
NtRp2210
(dp2211
g74
(dp2212
g101
g102
ssg83
g2201
sg76
(lp2213
S':'
asbag69
(g90
g71
NtRp2214
(dp2215
g74
(dp2216
sg83
g2201
sg76
(lp2217
g69
(g70
g71
NtRp2218
(dp2219
g74
(dp2220
g82
I4
ssg83
g2214
sg76
(lp2221
S'45295'
p2222
asbasbasbag69
(g85
g71
NtRp2223
(dp2224
g74
(dp2225
sg83
g1759
sg76
(lp2226
g69
(g90
g71
NtRp2227
(dp2228
g74
(dp2229
g94
g95
ssg83
g2223
sg76
(lp2230
S'request_method'
p2231
asbag69
(g90
g71
NtRp2232
(dp2233
g74
(dp2234
g101
g102
ssg83
g2223
sg76
(lp2235
S':'
asbag69
(g90
g71
NtRp2236
(dp2237
g74
(dp2238
sg83
g2223
sg76
(lp2239
g69
(g70
g71
NtRp2240
(dp2241
g74
(dp2242
g82
I4
ssg83
g2236
sg76
(lp2243
S'GET'
p2244
asbasbasbag69
(g85
g71
NtRp2245
(dp2246
g74
(dp2247
sg83
g1759
sg76
(lp2248
g69
(g90
g71
NtRp2249
(dp2250
g74
(dp2251
g94
g95
ssg83
g2245
sg76
(lp2252
S'script_name'
p2253
asbag69
(g90
g71
NtRp2254
(dp2255
g74
(dp2256
g101
g102
ssg83
g2245
sg76
(lp2257
S':'
asbag69
(g90
g71
NtRp2258
(dp2259
g74
(dp2260
sg83
g2245
sg76
(lp2261
g69
(g70
g71
NtRp2262
(dp2263
g74
(dp2264
g82
I4
ssg83
g2258
sg76
(lp2265
S''
asbasbasbag69
(g85
g71
NtRp2266
(dp2267
g74
(dp2268
sg83
g1759
sg76
(lp2269
g69
(g90
g71
NtRp2270
(dp2271
g74
(dp2272
g94
g95
ssg83
g2266
sg76
(lp2273
S'server_name'
p2274
asbag69
(g90
g71
NtRp2275
(dp2276
g74
(dp2277
g101
g102
ssg83
g2266
sg76
(lp2278
S':'
asbag69
(g90
g71
NtRp2279
(dp2280
g74
(dp2281
sg83
g2266
sg76
(lp2282
g69
(g70
g71
NtRp2283
(dp2284
g74
(dp2285
g82
I4
ssg83
g2279
sg76
(lp2286
S'vishrut-Vostro-1015'
p2287
asbasbasbag69
(g85
g71
NtRp2288
(dp2289
g74
(dp2290
sg83
g1759
sg76
(lp2291
g69
(g90
g71
NtRp2292
(dp2293
g74
(dp2294
g94
g95
ssg83
g2288
sg76
(lp2295
S'server_port'
p2296
asbag69
(g90
g71
NtRp2297
(dp2298
g74
(dp2299
g101
g102
ssg83
g2288
sg76
(lp2300
S':'
asbag69
(g90
g71
NtRp2301
(dp2302
g74
(dp2303
sg83
g2288
sg76
(lp2304
g69
(g70
g71
NtRp2305
(dp2306
g74
(dp2307
g82
I4
ssg83
g2301
sg76
(lp2308
S'8000'
p2309
asbasbasbag69
(g85
g71
NtRp2310
(dp2311
g74
(dp2312
sg83
g1759
sg76
(lp2313
g69
(g90
g71
NtRp2314
(dp2315
g74
(dp2316
g94
g95
ssg83
g2310
sg76
(lp2317
S'server_protocol'
p2318
asbag69
(g90
g71
NtRp2319
(dp2320
g74
(dp2321
g101
g102
ssg83
g2310
sg76
(lp2322
S':'
asbag69
(g90
g71
NtRp2323
(dp2324
g74
(dp2325
sg83
g2310
sg76
(lp2326
g69
(g70
g71
NtRp2327
(dp2328
g74
(dp2329
g82
I4
ssg83
g2323
sg76
(lp2330
S'HTTP/1.1'
p2331
asbasbasbag69
(g85
g71
NtRp2332
(dp2333
g74
(dp2334
sg83
g1759
sg76
(lp2335
g69
(g90
g71
NtRp2336
(dp2337
g74
(dp2338
g94
g95
ssg83
g2332
sg76
(lp2339
S'server_software'
p2340
asbag69
(g90
g71
NtRp2341
(dp2342
g74
(dp2343
g101
g102
ssg83
g2332
sg76
(lp2344
S':'
asbag69
(g90
g71
NtRp2345
(dp2346
g74
(dp2347
sg83
g2332
sg76
(lp2348
g69
(g70
g71
NtRp2349
(dp2350
g74
(dp2351
g82
I4
ssg83
g2345
sg76
(lp2352
S'Rocket 1.2.4'
p2353
asbasbasbag69
(g85
g71
NtRp2354
(dp2355
g74
(dp2356
sg83
g1759
sg76
(lp2357
g69
(g90
g71
NtRp2358
(dp2359
g74
(dp2360
g94
g95
ssg83
g2354
sg76
(lp2361
S'web2py_crontype'
p2362
asbag69
(g90
g71
NtRp2363
(dp2364
g74
(dp2365
g101
g102
ssg83
g2354
sg76
(lp2366
S':'
asbag69
(g90
g71
NtRp2367
(dp2368
g74
(dp2369
sg83
g2354
sg76
(lp2370
g69
(g70
g71
NtRp2371
(dp2372
g74
(dp2373
g82
I4
ssg83
g2367
sg76
(lp2374
S'hard'
p2375
asbasbasbag69
(g85
g71
NtRp2376
(dp2377
g74
(dp2378
sg83
g1759
sg76
(lp2379
g69
(g90
g71
NtRp2380
(dp2381
g74
(dp2382
g94
g95
ssg83
g2376
sg76
(lp2383
S'web2py_path'
p2384
asbag69
(g90
g71
NtRp2385
(dp2386
g74
(dp2387
g101
g102
ssg83
g2376
sg76
(lp2388
S':'
asbag69
(g90
g71
NtRp2389
(dp2390
g74
(dp2391
sg83
g2376
sg76
(lp2392
g69
(g70
g71
NtRp2393
(dp2394
g74
(dp2395
g82
I4
ssg83
g2389
sg76
(lp2396
g1806
asbasbasbag69
(g85
g71
NtRp2397
(dp2398
g74
(dp2399
sg83
g1759
sg76
(lp2400
g69
(g90
g71
NtRp2401
(dp2402
g74
(dp2403
g94
g95
ssg83
g2397
sg76
(lp2404
S'web2py_version'
p2405
asbag69
(g90
g71
NtRp2406
(dp2407
g74
(dp2408
g101
g102
ssg83
g2397
sg76
(lp2409
S':'
asbag69
(g90
g71
NtRp2410
(dp2411
g74
(dp2412
sg83
g2397
sg76
(lp2413
g69
(g70
g71
NtRp2414
(dp2415
g74
(dp2416
g82
I4
ssg83
g2410
sg76
(lp2417
g69
(g78
g71
NtRp2418
(dp2419
g74
(dp2420
g82
I3
ssg83
Nsg76
(lp2421
g69
(g85
g71
NtRp2422
(dp2423
g74
(dp2424
sg83
g2418
sg76
(lp2425
g69
(g90
g71
NtRp2426
(dp2427
g74
(dp2428
sg83
g2422
sg76
(lp2429
g69
(g70
g71
NtRp2430
(dp2431
g74
(dp2432
g82
I3
ssg83
g2426
sg76
(lp2433
S'1'
asbasbasbag69
(g85
g71
NtRp2434
(dp2435
g74
(dp2436
sg83
g2418
sg76
(lp2437
g69
(g90
g71
NtRp2438
(dp2439
g74
(dp2440
sg83
g2434
sg76
(lp2441
g69
(g70
g71
NtRp2442
(dp2443
g74
(dp2444
g82
I3
ssg83
g2438
sg76
(lp2445
S'99'
p2446
asbasbasbag69
(g85
g71
NtRp2447
(dp2448
g74
(dp2449
sg83
g2418
sg76
(lp2450
g69
(g90
g71
NtRp2451
(dp2452
g74
(dp2453
sg83
g2447
sg76
(lp2454
g69
(g70
g71
NtRp2455
(dp2456
g74
(dp2457
g82
I3
ssg83
g2451
sg76
(lp2458
S'7'
asbasbasbag69
(g85
g71
NtRp2459
(dp2460
g74
(dp2461
sg83
g2418
sg76
(lp2462
g69
(g90
g71
NtRp2463
(dp2464
g74
(dp2465
sg83
g2459
sg76
(lp2466
g69
(g70
g71
NtRp2467
(dp2468
g74
(dp2469
g82
I3
ssg83
g2463
sg76
(lp2470
S'datetime.datetime(2012, 3, 4, 22, 12, 8)'
p2471
asbasbasbag69
(g85
g71
NtRp2472
(dp2473
g74
(dp2474
sg83
g2418
sg76
(lp2475
g69
(g90
g71
NtRp2476
(dp2477
g74
(dp2478
sg83
g2472
sg76
(lp2479
g69
(g70
g71
NtRp2480
(dp2481
g74
(dp2482
g82
I3
ssg83
g2476
sg76
(lp2483
S'stable'
p2484
asbasbasbasbasbasbasbag69
(g85
g71
NtRp2485
(dp2486
g74
(dp2487
sg83
g1759
sg76
(lp2488
g69
(g90
g71
NtRp2489
(dp2490
g74
(dp2491
g94
g95
ssg83
g2485
sg76
(lp2492
S'wsgi_errors'
p2493
asbag69
(g90
g71
NtRp2494
(dp2495
g74
(dp2496
g101
g102
ssg83
g2485
sg76
(lp2497
S':'
asbag69
(g90
g71
NtRp2498
(dp2499
g74
(dp2500
sg83
g2485
sg76
(lp2501
g69
(g70
g71
NtRp2502
(dp2503
g74
(dp2504
g82
I4
ssg83
g2498
sg76
(lp2505
S"<open file '<stderr>', mode 'w' at 0xb77bc0d0>"
p2506
asbasbasbag69
(g85
g71
NtRp2507
(dp2508
g74
(dp2509
sg83
g1759
sg76
(lp2510
g69
(g90
g71
NtRp2511
(dp2512
g74
(dp2513
g94
g95
ssg83
g2507
sg76
(lp2514
S'wsgi_file_wrapper'
p2515
asbag69
(g90
g71
NtRp2516
(dp2517
g74
(dp2518
g101
g102
ssg83
g2507
sg76
(lp2519
S':'
asbag69
(g90
g71
NtRp2520
(dp2521
g74
(dp2522
sg83
g2507
sg76
(lp2523
g69
(g70
g71
NtRp2524
(dp2525
g74
(dp2526
g82
I4
ssg83
g2520
sg76
(lp2527
S'<class wsgiref.util.FileWrapper at 0x9c55aac>'
p2528
asbasbasbag69
(g85
g71
NtRp2529
(dp2530
g74
(dp2531
sg83
g1759
sg76
(lp2532
g69
(g90
g71
NtRp2533
(dp2534
g74
(dp2535
g94
g95
ssg83
g2529
sg76
(lp2536
S'wsgi_input'
p2537
asbag69
(g90
g71
NtRp2538
(dp2539
g74
(dp2540
g101
g102
ssg83
g2529
sg76
(lp2541
S':'
asbag69
(g90
g71
NtRp2542
(dp2543
g74
(dp2544
sg83
g2529
sg76
(lp2545
g69
(g70
g71
NtRp2546
(dp2547
g74
(dp2548
g82
I4
ssg83
g2542
sg76
(lp2549
S'<socket._fileobject object at 0xac4dbec>'
p2550
asbasbasbag69
(g85
g71
NtRp2551
(dp2552
g74
(dp2553
sg83
g1759
sg76
(lp2554
g69
(g90
g71
NtRp2555
(dp2556
g74
(dp2557
g94
g95
ssg83
g2551
sg76
(lp2558
S'wsgi_multiprocess'
p2559
asbag69
(g90
g71
NtRp2560
(dp2561
g74
(dp2562
g101
g102
ssg83
g2551
sg76
(lp2563
S':'
asbag69
(g90
g71
NtRp2564
(dp2565
g74
(dp2566
sg83
g2551
sg76
(lp2567
g69
(g70
g71
NtRp2568
(dp2569
g74
(dp2570
g82
I4
ssg83
g2564
sg76
(lp2571
g112
asbasbasbag69
(g85
g71
NtRp2572
(dp2573
g74
(dp2574
sg83
g1759
sg76
(lp2575
g69
(g90
g71
NtRp2576
(dp2577
g74
(dp2578
g94
g95
ssg83
g2572
sg76
(lp2579
S'wsgi_multithread'
p2580
asbag69
(g90
g71
NtRp2581
(dp2582
g74
(dp2583
g101
g102
ssg83
g2572
sg76
(lp2584
S':'
asbag69
(g90
g71
NtRp2585
(dp2586
g74
(dp2587
sg83
g2572
sg76
(lp2588
g69
(g70
g71
NtRp2589
(dp2590
g74
(dp2591
g82
I4
ssg83
g2585
sg76
(lp2592
S'True'
p2593
asbasbasbag69
(g85
g71
NtRp2594
(dp2595
g74
(dp2596
sg83
g1759
sg76
(lp2597
g69
(g90
g71
NtRp2598
(dp2599
g74
(dp2600
g94
g95
ssg83
g2594
sg76
(lp2601
S'wsgi_run_once'
p2602
asbag69
(g90
g71
NtRp2603
(dp2604
g74
(dp2605
g101
g102
ssg83
g2594
sg76
(lp2606
S':'
asbag69
(g90
g71
NtRp2607
(dp2608
g74
(dp2609
sg83
g2594
sg76
(lp2610
g69
(g70
g71
NtRp2611
(dp2612
g74
(dp2613
g82
I4
ssg83
g2607
sg76
(lp2614
g112
asbasbasbag69
(g85
g71
NtRp2615
(dp2616
g74
(dp2617
sg83
g1759
sg76
(lp2618
g69
(g90
g71
NtRp2619
(dp2620
g74
(dp2621
g94
g95
ssg83
g2615
sg76
(lp2622
S'wsgi_url_scheme'
p2623
asbag69
(g90
g71
NtRp2624
(dp2625
g74
(dp2626
g101
g102
ssg83
g2615
sg76
(lp2627
S':'
asbag69
(g90
g71
NtRp2628
(dp2629
g74
(dp2630
sg83
g2615
sg76
(lp2631
g69
(g70
g71
NtRp2632
(dp2633
g74
(dp2634
g82
I4
ssg83
g2628
sg76
(lp2635
S'http'
p2636
asbasbasbag69
(g85
g71
NtRp2637
(dp2638
g74
(dp2639
sg83
g1759
sg76
(lp2640
g69
(g90
g71
NtRp2641
(dp2642
g74
(dp2643
g94
g95
ssg83
g2637
sg76
(lp2644
S'wsgi_version'
p2645
asbag69
(g90
g71
NtRp2646
(dp2647
g74
(dp2648
g101
g102
ssg83
g2637
sg76
(lp2649
S':'
asbag69
(g90
g71
NtRp2650
(dp2651
g74
(dp2652
sg83
g2637
sg76
(lp2653
g69
(g70
g71
NtRp2654
(dp2655
g74
(dp2656
g82
I4
ssg83
g2650
sg76
(lp2657
g69
(g78
g71
NtRp2658
(dp2659
g74
(dp2660
g82
I3
ssg83
Nsg76
(lp2661
g69
(g85
g71
NtRp2662
(dp2663
g74
(dp2664
sg83
g2658
sg76
(lp2665
g69
(g90
g71
NtRp2666
(dp2667
g74
(dp2668
sg83
g2662
sg76
(lp2669
g69
(g70
g71
NtRp2670
(dp2671
g74
(dp2672
g82
I3
ssg83
g2666
sg76
(lp2673
S'1'
asbasbasbag69
(g85
g71
NtRp2674
(dp2675
g74
(dp2676
sg83
g2658
sg76
(lp2677
g69
(g90
g71
NtRp2678
(dp2679
g74
(dp2680
sg83
g2674
sg76
(lp2681
g69
(g70
g71
NtRp2682
(dp2683
g74
(dp2684
g82
I3
ssg83
g2678
sg76
(lp2685
S'0'
asbasbasbasbasbasbasbasbasbasbasbag69
(g85
g71
NtRp2686
(dp2687
g74
(dp2688
sg83
g79
sg76
(lp2689
g69
(g90
g71
NtRp2690
(dp2691
g74
(dp2692
g94
g95
ssg83
g2686
sg76
(lp2693
S'extension'
p2694
asbag69
(g90
g71
NtRp2695
(dp2696
g74
(dp2697
g101
g102
ssg83
g2686
sg76
(lp2698
S':'
asbag69
(g90
g71
NtRp2699
(dp2700
g74
(dp2701
sg83
g2686
sg76
(lp2702
g69
(g70
g71
NtRp2703
(dp2704
g74
(dp2705
g82
I5
ssg83
g2699
sg76
(lp2706
S'html'
p2707
asbasbasbag69
(g85
g71
NtRp2708
(dp2709
g74
(dp2710
sg83
g79
sg76
(lp2711
g69
(g90
g71
NtRp2712
(dp2713
g74
(dp2714
g94
g95
ssg83
g2708
sg76
(lp2715
S'folder'
p2716
asbag69
(g90
g71
NtRp2717
(dp2718
g74
(dp2719
g101
g102
ssg83
g2708
sg76
(lp2720
S':'
asbag69
(g90
g71
NtRp2721
(dp2722
g74
(dp2723
sg83
g2708
sg76
(lp2724
g69
(g70
g71
NtRp2725
(dp2726
g74
(dp2727
g82
I5
ssg83
g2721
sg76
(lp2728
S'/home/vishrut/web2py/applications/astra1/'
p2729
asbasbasbag69
(g85
g71
NtRp2730
(dp2731
g74
(dp2732
sg83
g79
sg76
(lp2733
g69
(g90
g71
NtRp2734
(dp2735
g74
(dp2736
g94
g95
ssg83
g2730
sg76
(lp2737
S'function'
p2738
asbag69
(g90
g71
NtRp2739
(dp2740
g74
(dp2741
g101
g102
ssg83
g2730
sg76
(lp2742
S':'
asbag69
(g90
g71
NtRp2743
(dp2744
g74
(dp2745
sg83
g2730
sg76
(lp2746
g69
(g70
g71
NtRp2747
(dp2748
g74
(dp2749
g82
I5
ssg83
g2743
sg76
(lp2750
S'show'
p2751
asbasbasbag69
(g85
g71
NtRp2752
(dp2753
g74
(dp2754
sg83
g79
sg76
(lp2755
g69
(g90
g71
NtRp2756
(dp2757
g74
(dp2758
g94
g95
ssg83
g2752
sg76
(lp2759
S'get_vars'
p2760
asbag69
(g90
g71
NtRp2761
(dp2762
g74
(dp2763
g101
g102
ssg83
g2752
sg76
(lp2764
S':'
asbag69
(g90
g71
NtRp2765
(dp2766
g74
(dp2767
sg83
g2752
sg76
(lp2768
g69
(g70
g71
NtRp2769
(dp2770
g74
(dp2771
g82
I5
ssg83
g2765
sg76
(lp2772
g69
(g78
g71
NtRp2773
(dp2774
g74
(dp2775
g82
I4
ssg83
Nsg76
(lp2776
sbasbasbasbag69
(g85
g71
NtRp2777
(dp2778
g74
(dp2779
sg83
g79
sg76
(lp2780
g69
(g90
g71
NtRp2781
(dp2782
g74
(dp2783
g94
g95
ssg83
g2777
sg76
(lp2784
S'global_settings'
p2785
asbag69
(g90
g71
NtRp2786
(dp2787
g74
(dp2788
g101
g102
ssg83
g2777
sg76
(lp2789
S':'
asbag69
(g90
g71
NtRp2790
(dp2791
g74
(dp2792
sg83
g2777
sg76
(lp2793
g69
(g70
g71
NtRp2794
(dp2795
g74
(dp2796
g82
I5
ssg83
g2790
sg76
(lp2797
g69
(g78
g71
NtRp2798
(dp2799
g74
(dp2800
g82
I4
ssg83
Nsg76
(lp2801
g69
(g85
g71
NtRp2802
(dp2803
g74
(dp2804
sg83
g2798
sg76
(lp2805
g69
(g90
g71
NtRp2806
(dp2807
g74
(dp2808
g94
g95
ssg83
g2802
sg76
(lp2809
g1771
asbag69
(g90
g71
NtRp2810
(dp2811
g74
(dp2812
g101
g102
ssg83
g2802
sg76
(lp2813
S':'
asbag69
(g90
g71
NtRp2814
(dp2815
g74
(dp2816
sg83
g2802
sg76
(lp2817
g69
(g70
g71
NtRp2818
(dp2819
g74
(dp2820
g82
I4
ssg83
g2814
sg76
(lp2821
S"set(['/home/vishrut/web2py/applications/astra1/', '/home/vishrut/web2py/applications/admin/', '/home/vishrut/web2py/applications/PhotoUploader/', '/home/vishrut/web2py/applications/welcome/'])"
p2822
asbasbasbag69
(g85
g71
NtRp2823
(dp2824
g74
(dp2825
sg83
g2798
sg76
(lp2826
g69
(g90
g71
NtRp2827
(dp2828
g74
(dp2829
g94
g95
ssg83
g2823
sg76
(lp2830
g1793
asbag69
(g90
g71
NtRp2831
(dp2832
g74
(dp2833
g101
g102
ssg83
g2823
sg76
(lp2834
S':'
asbag69
(g90
g71
NtRp2835
(dp2836
g74
(dp2837
sg83
g2823
sg76
(lp2838
g69
(g70
g71
NtRp2839
(dp2840
g74
(dp2841
g82
I4
ssg83
g2835
sg76
(lp2842
g1806
asbasbasbag69
(g85
g71
NtRp2843
(dp2844
g74
(dp2845
sg83
g2798
sg76
(lp2846
g69
(g90
g71
NtRp2847
(dp2848
g74
(dp2849
g94
g95
ssg83
g2843
sg76
(lp2850
g1815
asbag69
(g90
g71
NtRp2851
(dp2852
g74
(dp2853
g101
g102
ssg83
g2843
sg76
(lp2854
S':'
asbag69
(g90
g71
NtRp2855
(dp2856
g74
(dp2857
sg83
g2843
sg76
(lp2858
g69
(g70
g71
NtRp2859
(dp2860
g74
(dp2861
g82
I4
ssg83
g2855
sg76
(lp2862
g69
(g78
g71
NtRp2863
(dp2864
g74
(dp2865
g82
I3
ssg83
Nsg76
(lp2866
sbasbasbasbag69
(g85
g71
NtRp2867
(dp2868
g74
(dp2869
sg83
g2798
sg76
(lp2870
g69
(g90
g71
NtRp2871
(dp2872
g74
(dp2873
g94
g95
ssg83
g2867
sg76
(lp2874
g1840
asbag69
(g90
g71
NtRp2875
(dp2876
g74
(dp2877
g101
g102
ssg83
g2867
sg76
(lp2878
S':'
asbag69
(g90
g71
NtRp2879
(dp2880
g74
(dp2881
sg83
g2867
sg76
(lp2882
g69
(g70
g71
NtRp2883
(dp2884
g74
(dp2885
g82
I4
ssg83
g2879
sg76
(lp2886
S"<Values at 0x9d363cc: {'verbose': False, 'ip': '127.0.0.1', 'shutdown_timeout': 5, 'taskbar': False, 'nocron': False, 'pid_filename': 'httpserver.pid', 'maxthreads': None, 'softcron': False, 'server_name': 'vishrut-Vostro-1015', 'bpython': False, 'nogui': False, 'port': 8000, 'extcron': False, 'debuglevel': 30, 'test': None, 'folder': '/home/vishrut/web2py', 'config': '', 'import_models': False, 'winservice': '', 'shell': None, 'run': '', 'log_filename': 'httpserver.log', 'args': [''], 'socket_timeout': 5, 'ssl_ca_certificate': None, 'scheduler': None, 'profiler_filename': None, 'ssl_private_key': '', 'password': '<ask>', 'request_queue_size': 5, 'ssl_certificate': '', 'cronjob': False, 'numthreads': None, 'quiet': False, 'interfaces': None, 'minthreads': None, 'timeout': 10, 'plain': False, 'nobanner': False}>"
p2887
asbasbasbag69
(g85
g71
NtRp2888
(dp2889
g74
(dp2890
sg83
g2798
sg76
(lp2891
g69
(g90
g71
NtRp2892
(dp2893
g74
(dp2894
g94
g95
ssg83
g2888
sg76
(lp2895
g1862
asbag69
(g90
g71
NtRp2896
(dp2897
g74
(dp2898
g101
g102
ssg83
g2888
sg76
(lp2899
S':'
asbag69
(g90
g71
NtRp2900
(dp2901
g74
(dp2902
sg83
g2888
sg76
(lp2903
g69
(g70
g71
NtRp2904
(dp2905
g74
(dp2906
g82
I4
ssg83
g2900
sg76
(lp2907
S'set([])'
p2908
asbasbasbag69
(g85
g71
NtRp2909
(dp2910
g74
(dp2911
sg83
g2798
sg76
(lp2912
g69
(g90
g71
NtRp2913
(dp2914
g74
(dp2915
g94
g95
ssg83
g2909
sg76
(lp2916
g1884
asbag69
(g90
g71
NtRp2917
(dp2918
g74
(dp2919
g101
g102
ssg83
g2909
sg76
(lp2920
S':'
asbag69
(g90
g71
NtRp2921
(dp2922
g74
(dp2923
sg83
g2909
sg76
(lp2924
g69
(g70
g71
NtRp2925
(dp2926
g74
(dp2927
g82
I4
ssg83
g2921
sg76
(lp2928
g112
asbasbasbag69
(g85
g71
NtRp2929
(dp2930
g74
(dp2931
sg83
g2798
sg76
(lp2932
g69
(g90
g71
NtRp2933
(dp2934
g74
(dp2935
g94
g95
ssg83
g2929
sg76
(lp2936
g1905
asbag69
(g90
g71
NtRp2937
(dp2938
g74
(dp2939
g101
g102
ssg83
g2929
sg76
(lp2940
S':'
asbag69
(g90
g71
NtRp2941
(dp2942
g74
(dp2943
sg83
g2929
sg76
(lp2944
g69
(g70
g71
NtRp2945
(dp2946
g74
(dp2947
g82
I4
ssg83
g2941
sg76
(lp2948
g1918
asbasbasbag69
(g85
g71
NtRp2949
(dp2950
g74
(dp2951
sg83
g2798
sg76
(lp2952
g69
(g90
g71
NtRp2953
(dp2954
g74
(dp2955
g94
g95
ssg83
g2949
sg76
(lp2956
g2103
asbag69
(g90
g71
NtRp2957
(dp2958
g74
(dp2959
g101
g102
ssg83
g2949
sg76
(lp2960
S':'
asbag69
(g90
g71
NtRp2961
(dp2962
g74
(dp2963
sg83
g2949
sg76
(lp2964
g69
(g70
g71
NtRp2965
(dp2966
g74
(dp2967
g82
I4
ssg83
g2961
sg76
(lp2968
g112
asbasbasbag69
(g85
g71
NtRp2969
(dp2970
g74
(dp2971
sg83
g2798
sg76
(lp2972
g69
(g90
g71
NtRp2973
(dp2974
g74
(dp2975
g94
g95
ssg83
g2969
sg76
(lp2976
g2124
asbag69
(g90
g71
NtRp2977
(dp2978
g74
(dp2979
g101
g102
ssg83
g2969
sg76
(lp2980
S':'
asbag69
(g90
g71
NtRp2981
(dp2982
g74
(dp2983
sg83
g2969
sg76
(lp2984
g69
(g70
g71
NtRp2985
(dp2986
g74
(dp2987
g82
I4
ssg83
g2981
sg76
(lp2988
g112
asbasbasbag69
(g85
g71
NtRp2989
(dp2990
g74
(dp2991
sg83
g2798
sg76
(lp2992
g69
(g90
g71
NtRp2993
(dp2994
g74
(dp2995
g94
g95
ssg83
g2989
sg76
(lp2996
g2362
asbag69
(g90
g71
NtRp2997
(dp2998
g74
(dp2999
g101
g102
ssg83
g2989
sg76
(lp3000
S':'
asbag69
(g90
g71
NtRp3001
(dp3002
g74
(dp3003
sg83
g2989
sg76
(lp3004
g69
(g70
g71
NtRp3005
(dp3006
g74
(dp3007
g82
I4
ssg83
g3001
sg76
(lp3008
g2375
asbasbasbag69
(g85
g71
NtRp3009
(dp3010
g74
(dp3011
sg83
g2798
sg76
(lp3012
g69
(g90
g71
NtRp3013
(dp3014
g74
(dp3015
g94
g95
ssg83
g3009
sg76
(lp3016
g2405
asbag69
(g90
g71
NtRp3017
(dp3018
g74
(dp3019
g101
g102
ssg83
g3009
sg76
(lp3020
S':'
asbag69
(g90
g71
NtRp3021
(dp3022
g74
(dp3023
sg83
g3009
sg76
(lp3024
g69
(g70
g71
NtRp3025
(dp3026
g74
(dp3027
g82
I4
ssg83
g3021
sg76
(lp3028
g69
(g78
g71
NtRp3029
(dp3030
g74
(dp3031
g82
I3
ssg83
Nsg76
(lp3032
g69
(g85
g71
NtRp3033
(dp3034
g74
(dp3035
sg83
g3029
sg76
(lp3036
g69
(g90
g71
NtRp3037
(dp3038
g74
(dp3039
sg83
g3033
sg76
(lp3040
g69
(g70
g71
NtRp3041
(dp3042
g74
(dp3043
g82
I3
ssg83
g3037
sg76
(lp3044
S'1'
asbasbasbag69
(g85
g71
NtRp3045
(dp3046
g74
(dp3047
sg83
g3029
sg76
(lp3048
g69
(g90
g71
NtRp3049
(dp3050
g74
(dp3051
sg83
g3045
sg76
(lp3052
g69
(g70
g71
NtRp3053
(dp3054
g74
(dp3055
g82
I3
ssg83
g3049
sg76
(lp3056
S'99'
p3057
asbasbasbag69
(g85
g71
NtRp3058
(dp3059
g74
(dp3060
sg83
g3029
sg76
(lp3061
g69
(g90
g71
NtRp3062
(dp3063
g74
(dp3064
sg83
g3058
sg76
(lp3065
g69
(g70
g71
NtRp3066
(dp3067
g74
(dp3068
g82
I3
ssg83
g3062
sg76
(lp3069
S'7'
asbasbasbag69
(g85
g71
NtRp3070
(dp3071
g74
(dp3072
sg83
g3029
sg76
(lp3073
g69
(g90
g71
NtRp3074
(dp3075
g74
(dp3076
sg83
g3070
sg76
(lp3077
g69
(g70
g71
NtRp3078
(dp3079
g74
(dp3080
g82
I3
ssg83
g3074
sg76
(lp3081
S'datetime.datetime(2012, 3, 4, 22, 12, 8)'
p3082
asbasbasbag69
(g85
g71
NtRp3083
(dp3084
g74
(dp3085
sg83
g3029
sg76
(lp3086
g69
(g90
g71
NtRp3087
(dp3088
g74
(dp3089
sg83
g3083
sg76
(lp3090
g69
(g70
g71
NtRp3091
(dp3092
g74
(dp3093
g82
I3
ssg83
g3087
sg76
(lp3094
g2484
asbasbasbasbasbasbasbasbasbasbasbag69
(g85
g71
NtRp3095
(dp3096
g74
(dp3097
sg83
g79
sg76
(lp3098
g69
(g90
g71
NtRp3099
(dp3100
g74
(dp3101
g94
g95
ssg83
g3095
sg76
(lp3102
S'is_https'
p3103
asbag69
(g90
g71
NtRp3104
(dp3105
g74
(dp3106
g101
g102
ssg83
g3095
sg76
(lp3107
S':'
asbag69
(g90
g71
NtRp3108
(dp3109
g74
(dp3110
sg83
g3095
sg76
(lp3111
g69
(g70
g71
NtRp3112
(dp3113
g74
(dp3114
g82
I5
ssg83
g3108
sg76
(lp3115
g112
asbasbasbag69
(g85
g71
NtRp3116
(dp3117
g74
(dp3118
sg83
g79
sg76
(lp3119
g69
(g90
g71
NtRp3120
(dp3121
g74
(dp3122
g94
g95
ssg83
g3116
sg76
(lp3123
S'is_local'
p3124
asbag69
(g90
g71
NtRp3125
(dp3126
g74
(dp3127
g101
g102
ssg83
g3116
sg76
(lp3128
S':'
asbag69
(g90
g71
NtRp3129
(dp3130
g74
(dp3131
sg83
g3116
sg76
(lp3132
g69
(g70
g71
NtRp3133
(dp3134
g74
(dp3135
g82
I5
ssg83
g3129
sg76
(lp3136
g2593
asbasbasbag69
(g85
g71
NtRp3137
(dp3138
g74
(dp3139
sg83
g79
sg76
(lp3140
g69
(g90
g71
NtRp3141
(dp3142
g74
(dp3143
g94
g95
ssg83
g3137
sg76
(lp3144
S'is_restful'
p3145
asbag69
(g90
g71
NtRp3146
(dp3147
g74
(dp3148
g101
g102
ssg83
g3137
sg76
(lp3149
S':'
asbag69
(g90
g71
NtRp3150
(dp3151
g74
(dp3152
sg83
g3137
sg76
(lp3153
g69
(g70
g71
NtRp3154
(dp3155
g74
(dp3156
g82
I5
ssg83
g3150
sg76
(lp3157
g112
asbasbasbag69
(g85
g71
NtRp3158
(dp3159
g74
(dp3160
sg83
g79
sg76
(lp3161
g69
(g90
g71
NtRp3162
(dp3163
g74
(dp3164
g94
g95
ssg83
g3158
sg76
(lp3165
S'now'
p3166
asbag69
(g90
g71
NtRp3167
(dp3168
g74
(dp3169
g101
g102
ssg83
g3158
sg76
(lp3170
S':'
asbag69
(g90
g71
NtRp3171
(dp3172
g74
(dp3173
sg83
g3158
sg76
(lp3174
g69
(g70
g71
NtRp3175
(dp3176
g74
(dp3177
g82
I5
ssg83
g3171
sg76
(lp3178
S'datetime.datetime(2012, 10, 15, 0, 55, 53, 175148)'
p3179
asbasbasbag69
(g85
g71
NtRp3180
(dp3181
g74
(dp3182
sg83
g79
sg76
(lp3183
g69
(g90
g71
NtRp3184
(dp3185
g74
(dp3186
g94
g95
ssg83
g3180
sg76
(lp3187
S'post_vars'
p3188
asbag69
(g90
g71
NtRp3189
(dp3190
g74
(dp3191
g101
g102
ssg83
g3180
sg76
(lp3192
S':'
asbag69
(g90
g71
NtRp3193
(dp3194
g74
(dp3195
sg83
g3180
sg76
(lp3196
g69
(g70
g71
NtRp3197
(dp3198
g74
(dp3199
g82
I5
ssg83
g3193
sg76
(lp3200
g69
(g78
g71
NtRp3201
(dp3202
g74
(dp3203
g82
I4
ssg83
Nsg76
(lp3204
sbasbasbasbag69
(g85
g71
NtRp3205
(dp3206
g74
(dp3207
sg83
g79
sg76
(lp3208
g69
(g90
g71
NtRp3209
(dp3210
g74
(dp3211
g94
g95
ssg83
g3205
sg76
(lp3212
S'url'
p3213
asbag69
(g90
g71
NtRp3214
(dp3215
g74
(dp3216
g101
g102
ssg83
g3205
sg76
(lp3217
S':'
asbag69
(g90
g71
NtRp3218
(dp3219
g74
(dp3220
sg83
g3205
sg76
(lp3221
g69
(g70
g71
NtRp3222
(dp3223
g74
(dp3224
g82
I5
ssg83
g3218
sg76
(lp3225
S'/astra1/default/show'
p3226
asbasbasbag69
(g85
g71
NtRp3227
(dp3228
g74
(dp3229
sg83
g79
sg76
(lp3230
g69
(g90
g71
NtRp3231
(dp3232
g74
(dp3233
g94
g95
ssg83
g3227
sg76
(lp3234
S'utcnow'
p3235
asbag69
(g90
g71
NtRp3236
(dp3237
g74
(dp3238
g101
g102
ssg83
g3227
sg76
(lp3239
S':'
asbag69
(g90
g71
NtRp3240
(dp3241
g74
(dp3242
sg83
g3227
sg76
(lp3243
g69
(g70
g71
NtRp3244
(dp3245
g74
(dp3246
g82
I5
ssg83
g3240
sg76
(lp3247
S'datetime.datetime(2012, 10, 14, 19, 55, 53, 175182)'
p3248
asbasbasbag69
(g85
g71
NtRp3249
(dp3250
g74
(dp3251
sg83
g79
sg76
(lp3252
g69
(g90
g71
NtRp3253
(dp3254
g74
(dp3255
g94
g95
ssg83
g3249
sg76
(lp3256
S'uuid'
p3257
asbag69
(g90
g71
NtRp3258
(dp3259
g74
(dp3260
g101
g102
ssg83
g3249
sg76
(lp3261
S':'
asbag69
(g90
g71
NtRp3262
(dp3263
g74
(dp3264
sg83
g3249
sg76
(lp3265
g69
(g70
g71
NtRp3266
(dp3267
g74
(dp3268
g82
I5
ssg83
g3262
sg76
(lp3269
S'astra1/127.0.0.1.2012-10-15.00-55-53.b3c93531-63ea-48a5-a682-19470db9f776'
p3270
asbasbasbag69
(g85
g71
NtRp3271
(dp3272
g74
(dp3273
sg83
g79
sg76
(lp3274
g69
(g90
g71
NtRp3275
(dp3276
g74
(dp3277
g94
g95
ssg83
g3271
sg76
(lp3278
S'vars'
p3279
asbag69
(g90
g71
NtRp3280
(dp3281
g74
(dp3282
g101
g102
ssg83
g3271
sg76
(lp3283
S':'
asbag69
(g90
g71
NtRp3284
(dp3285
g74
(dp3286
sg83
g3271
sg76
(lp3287
g69
(g70
g71
NtRp3288
(dp3289
g74
(dp3290
g82
I5
ssg83
g3284
sg76
(lp3291
g69
(g78
g71
NtRp3292
(dp3293
g74
(dp3294
g82
I4
ssg83
Nsg76
(lp3295
sbasbasbasbag69
(g85
g71
NtRp3296
(dp3297
g74
(dp3298
sg83
g79
sg76
(lp3299
g69
(g90
g71
NtRp3300
(dp3301
g74
(dp3302
g94
g95
ssg83
g3296
sg76
(lp3303
S'wsgi'
p3304
asbag69
(g90
g71
NtRp3305
(dp3306
g74
(dp3307
g101
g102
ssg83
g3296
sg76
(lp3308
S':'
asbag69
(g90
g71
NtRp3309
(dp3310
g74
(dp3311
sg83
g3296
sg76
(lp3312
g69
(g70
g71
NtRp3313
(dp3314
g74
(dp3315
g82
I5
ssg83
g3309
sg76
(lp3316
g69
(g78
g71
NtRp3317
(dp3318
g74
(dp3319
g82
I4
ssg83
Nsg76
(lp3320
g69
(g85
g71
NtRp3321
(dp3322
g74
(dp3323
sg83
g3317
sg76
(lp3324
g69
(g90
g71
NtRp3325
(dp3326
g74
(dp3327
g94
g95
ssg83
g3321
sg76
(lp3328
S'environ'
p3329
asbag69
(g90
g71
NtRp3330
(dp3331
g74
(dp3332
g101
g102
ssg83
g3321
sg76
(lp3333
S':'
asbag69
(g90
g71
NtRp3334
(dp3335
g74
(dp3336
sg83
g3321
sg76
(lp3337
g69
(g70
g71
NtRp3338
(dp3339
g74
(dp3340
g82
I4
ssg83
g3334
sg76
(lp3341
g69
(g78
g71
NtRp3342
(dp3343
g74
(dp3344
g82
I3
ssg83
Nsg76
(lp3345
g69
(g85
g71
NtRp3346
(dp3347
g74
(dp3348
sg83
g3342
sg76
(lp3349
g69
(g90
g71
NtRp3350
(dp3351
g74
(dp3352
g94
g95
ssg83
g3346
sg76
(lp3353
S'HTTP_ACCEPT'
p3354
asbag69
(g90
g71
NtRp3355
(dp3356
g74
(dp3357
g101
g102
ssg83
g3346
sg76
(lp3358
S':'
asbag69
(g90
g71
NtRp3359
(dp3360
g74
(dp3361
sg83
g3346
sg76
(lp3362
g69
(g70
g71
NtRp3363
(dp3364
g74
(dp3365
g82
I3
ssg83
g3359
sg76
(lp3366
g1940
asbasbasbag69
(g85
g71
NtRp3367
(dp3368
g74
(dp3369
sg83
g3342
sg76
(lp3370
g69
(g90
g71
NtRp3371
(dp3372
g74
(dp3373
g94
g95
ssg83
g3367
sg76
(lp3374
S'HTTP_ACCEPT_ENCODING'
p3375
asbag69
(g90
g71
NtRp3376
(dp3377
g74
(dp3378
g101
g102
ssg83
g3367
sg76
(lp3379
S':'
asbag69
(g90
g71
NtRp3380
(dp3381
g74
(dp3382
sg83
g3367
sg76
(lp3383
g69
(g70
g71
NtRp3384
(dp3385
g74
(dp3386
g82
I3
ssg83
g3380
sg76
(lp3387
g1962
asbasbasbag69
(g85
g71
NtRp3388
(dp3389
g74
(dp3390
sg83
g3342
sg76
(lp3391
g69
(g90
g71
NtRp3392
(dp3393
g74
(dp3394
g94
g95
ssg83
g3388
sg76
(lp3395
S'HTTP_ACCEPT_LANGUAGE'
p3396
asbag69
(g90
g71
NtRp3397
(dp3398
g74
(dp3399
g101
g102
ssg83
g3388
sg76
(lp3400
S':'
asbag69
(g90
g71
NtRp3401
(dp3402
g74
(dp3403
sg83
g3388
sg76
(lp3404
g69
(g70
g71
NtRp3405
(dp3406
g74
(dp3407
g82
I3
ssg83
g3401
sg76
(lp3408
g1984
asbasbasbag69
(g85
g71
NtRp3409
(dp3410
g74
(dp3411
sg83
g3342
sg76
(lp3412
g69
(g90
g71
NtRp3413
(dp3414
g74
(dp3415
g94
g95
ssg83
g3409
sg76
(lp3416
S'HTTP_CACHE_CONTROL'
p3417
asbag69
(g90
g71
NtRp3418
(dp3419
g74
(dp3420
g101
g102
ssg83
g3409
sg76
(lp3421
S':'
asbag69
(g90
g71
NtRp3422
(dp3423
g74
(dp3424
sg83
g3409
sg76
(lp3425
g69
(g70
g71
NtRp3426
(dp3427
g74
(dp3428
g82
I3
ssg83
g3422
sg76
(lp3429
g2006
asbasbasbag69
(g85
g71
NtRp3430
(dp3431
g74
(dp3432
sg83
g3342
sg76
(lp3433
g69
(g90
g71
NtRp3434
(dp3435
g74
(dp3436
g94
g95
ssg83
g3430
sg76
(lp3437
S'HTTP_CONNECTION'
p3438
asbag69
(g90
g71
NtRp3439
(dp3440
g74
(dp3441
g101
g102
ssg83
g3430
sg76
(lp3442
S':'
asbag69
(g90
g71
NtRp3443
(dp3444
g74
(dp3445
sg83
g3430
sg76
(lp3446
g69
(g70
g71
NtRp3447
(dp3448
g74
(dp3449
g82
I3
ssg83
g3443
sg76
(lp3450
g2028
asbasbasbag69
(g85
g71
NtRp3451
(dp3452
g74
(dp3453
sg83
g3342
sg76
(lp3454
g69
(g90
g71
NtRp3455
(dp3456
g74
(dp3457
g94
g95
ssg83
g3451
sg76
(lp3458
S'HTTP_COOKIE'
p3459
asbag69
(g90
g71
NtRp3460
(dp3461
g74
(dp3462
g101
g102
ssg83
g3451
sg76
(lp3463
S':'
asbag69
(g90
g71
NtRp3464
(dp3465
g74
(dp3466
sg83
g3451
sg76
(lp3467
g69
(g70
g71
NtRp3468
(dp3469
g74
(dp3470
g82
I3
ssg83
g3464
sg76
(lp3471
g2050
asbasbasbag69
(g85
g71
NtRp3472
(dp3473
g74
(dp3474
sg83
g3342
sg76
(lp3475
g69
(g90
g71
NtRp3476
(dp3477
g74
(dp3478
g94
g95
ssg83
g3472
sg76
(lp3479
S'HTTP_HOST'
p3480
asbag69
(g90
g71
NtRp3481
(dp3482
g74
(dp3483
g101
g102
ssg83
g3472
sg76
(lp3484
S':'
asbag69
(g90
g71
NtRp3485
(dp3486
g74
(dp3487
sg83
g3472
sg76
(lp3488
g69
(g70
g71
NtRp3489
(dp3490
g74
(dp3491
g82
I3
ssg83
g3485
sg76
(lp3492
g2072
asbasbasbag69
(g85
g71
NtRp3493
(dp3494
g74
(dp3495
sg83
g3342
sg76
(lp3496
g69
(g90
g71
NtRp3497
(dp3498
g74
(dp3499
g94
g95
ssg83
g3493
sg76
(lp3500
S'HTTP_USER_AGENT'
p3501
asbag69
(g90
g71
NtRp3502
(dp3503
g74
(dp3504
g101
g102
ssg83
g3493
sg76
(lp3505
S':'
asbag69
(g90
g71
NtRp3506
(dp3507
g74
(dp3508
sg83
g3493
sg76
(lp3509
g69
(g70
g71
NtRp3510
(dp3511
g74
(dp3512
g82
I3
ssg83
g3506
sg76
(lp3513
g2094
asbasbasbag69
(g85
g71
NtRp3514
(dp3515
g74
(dp3516
sg83
g3342
sg76
(lp3517
g69
(g90
g71
NtRp3518
(dp3519
g74
(dp3520
g94
g95
ssg83
g3514
sg76
(lp3521
S'PATH_INFO'
p3522
asbag69
(g90
g71
NtRp3523
(dp3524
g74
(dp3525
g101
g102
ssg83
g3514
sg76
(lp3526
S':'
asbag69
(g90
g71
NtRp3527
(dp3528
g74
(dp3529
sg83
g3514
sg76
(lp3530
g69
(g70
g71
NtRp3531
(dp3532
g74
(dp3533
g82
I3
ssg83
g3527
sg76
(lp3534
g2158
asbasbasbag69
(g85
g71
NtRp3535
(dp3536
g74
(dp3537
sg83
g3342
sg76
(lp3538
g69
(g90
g71
NtRp3539
(dp3540
g74
(dp3541
g94
g95
ssg83
g3535
sg76
(lp3542
S'QUERY_STRING'
p3543
asbag69
(g90
g71
NtRp3544
(dp3545
g74
(dp3546
g101
g102
ssg83
g3535
sg76
(lp3547
S':'
asbag69
(g90
g71
NtRp3548
(dp3549
g74
(dp3550
sg83
g3535
sg76
(lp3551
g69
(g70
g71
NtRp3552
(dp3553
g74
(dp3554
g82
I3
ssg83
g3548
sg76
(lp3555
S''
asbasbasbag69
(g85
g71
NtRp3556
(dp3557
g74
(dp3558
sg83
g3342
sg76
(lp3559
g69
(g90
g71
NtRp3560
(dp3561
g74
(dp3562
g94
g95
ssg83
g3556
sg76
(lp3563
S'REMOTE_ADDR'
p3564
asbag69
(g90
g71
NtRp3565
(dp3566
g74
(dp3567
g101
g102
ssg83
g3556
sg76
(lp3568
S':'
asbag69
(g90
g71
NtRp3569
(dp3570
g74
(dp3571
sg83
g3556
sg76
(lp3572
g69
(g70
g71
NtRp3573
(dp3574
g74
(dp3575
g82
I3
ssg83
g3569
sg76
(lp3576
g202
asbasbasbag69
(g85
g71
NtRp3577
(dp3578
g74
(dp3579
sg83
g3342
sg76
(lp3580
g69
(g90
g71
NtRp3581
(dp3582
g74
(dp3583
g94
g95
ssg83
g3577
sg76
(lp3584
S'REMOTE_PORT'
p3585
asbag69
(g90
g71
NtRp3586
(dp3587
g74
(dp3588
g101
g102
ssg83
g3577
sg76
(lp3589
S':'
asbag69
(g90
g71
NtRp3590
(dp3591
g74
(dp3592
sg83
g3577
sg76
(lp3593
g69
(g70
g71
NtRp3594
(dp3595
g74
(dp3596
g82
I3
ssg83
g3590
sg76
(lp3597
g2222
asbasbasbag69
(g85
g71
NtRp3598
(dp3599
g74
(dp3600
sg83
g3342
sg76
(lp3601
g69
(g90
g71
NtRp3602
(dp3603
g74
(dp3604
g94
g95
ssg83
g3598
sg76
(lp3605
S'REQUEST_METHOD'
p3606
asbag69
(g90
g71
NtRp3607
(dp3608
g74
(dp3609
g101
g102
ssg83
g3598
sg76
(lp3610
S':'
asbag69
(g90
g71
NtRp3611
(dp3612
g74
(dp3613
sg83
g3598
sg76
(lp3614
g69
(g70
g71
NtRp3615
(dp3616
g74
(dp3617
g82
I3
ssg83
g3611
sg76
(lp3618
g2244
asbasbasbag69
(g85
g71
NtRp3619
(dp3620
g74
(dp3621
sg83
g3342
sg76
(lp3622
g69
(g90
g71
NtRp3623
(dp3624
g74
(dp3625
g94
g95
ssg83
g3619
sg76
(lp3626
S'SCRIPT_NAME'
p3627
asbag69
(g90
g71
NtRp3628
(dp3629
g74
(dp3630
g101
g102
ssg83
g3619
sg76
(lp3631
S':'
asbag69
(g90
g71
NtRp3632
(dp3633
g74
(dp3634
sg83
g3619
sg76
(lp3635
g69
(g70
g71
NtRp3636
(dp3637
g74
(dp3638
g82
I3
ssg83
g3632
sg76
(lp3639
S''
asbasbasbag69
(g85
g71
NtRp3640
(dp3641
g74
(dp3642
sg83
g3342
sg76
(lp3643
g69
(g90
g71
NtRp3644
(dp3645
g74
(dp3646
g94
g95
ssg83
g3640
sg76
(lp3647
S'SERVER_NAME'
p3648
asbag69
(g90
g71
NtRp3649
(dp3650
g74
(dp3651
g101
g102
ssg83
g3640
sg76
(lp3652
S':'
asbag69
(g90
g71
NtRp3653
(dp3654
g74
(dp3655
sg83
g3640
sg76
(lp3656
g69
(g70
g71
NtRp3657
(dp3658
g74
(dp3659
g82
I3
ssg83
g3653
sg76
(lp3660
g2287
asbasbasbag69
(g85
g71
NtRp3661
(dp3662
g74
(dp3663
sg83
g3342
sg76
(lp3664
g69
(g90
g71
NtRp3665
(dp3666
g74
(dp3667
g94
g95
ssg83
g3661
sg76
(lp3668
S'SERVER_PORT'
p3669
asbag69
(g90
g71
NtRp3670
(dp3671
g74
(dp3672
g101
g102
ssg83
g3661
sg76
(lp3673
S':'
asbag69
(g90
g71
NtRp3674
(dp3675
g74
(dp3676
sg83
g3661
sg76
(lp3677
g69
(g70
g71
NtRp3678
(dp3679
g74
(dp3680
g82
I3
ssg83
g3674
sg76
(lp3681
g2309
asbasbasbag69
(g85
g71
NtRp3682
(dp3683
g74
(dp3684
sg83
g3342
sg76
(lp3685
g69
(g90
g71
NtRp3686
(dp3687
g74
(dp3688
g94
g95
ssg83
g3682
sg76
(lp3689
S'SERVER_PROTOCOL'
p3690
asbag69
(g90
g71
NtRp3691
(dp3692
g74
(dp3693
g101
g102
ssg83
g3682
sg76
(lp3694
S':'
asbag69
(g90
g71
NtRp3695
(dp3696
g74
(dp3697
sg83
g3682
sg76
(lp3698
g69
(g70
g71
NtRp3699
(dp3700
g74
(dp3701
g82
I3
ssg83
g3695
sg76
(lp3702
g2331
asbasbasbag69
(g85
g71
NtRp3703
(dp3704
g74
(dp3705
sg83
g3342
sg76
(lp3706
g69
(g90
g71
NtRp3707
(dp3708
g74
(dp3709
g94
g95
ssg83
g3703
sg76
(lp3710
S'SERVER_SOFTWARE'
p3711
asbag69
(g90
g71
NtRp3712
(dp3713
g74
(dp3714
g101
g102
ssg83
g3703
sg76
(lp3715
S':'
asbag69
(g90
g71
NtRp3716
(dp3717
g74
(dp3718
sg83
g3703
sg76
(lp3719
g69
(g70
g71
NtRp3720
(dp3721
g74
(dp3722
g82
I3
ssg83
g3716
sg76
(lp3723
g2353
asbasbasbag69
(g85
g71
NtRp3724
(dp3725
g74
(dp3726
sg83
g3342
sg76
(lp3727
g69
(g90
g71
NtRp3728
(dp3729
g74
(dp3730
g94
g95
ssg83
g3724
sg76
(lp3731
S'wsgi.errors'
p3732
asbag69
(g90
g71
NtRp3733
(dp3734
g74
(dp3735
g101
g102
ssg83
g3724
sg76
(lp3736
S':'
asbag69
(g90
g71
NtRp3737
(dp3738
g74
(dp3739
sg83
g3724
sg76
(lp3740
g69
(g70
g71
NtRp3741
(dp3742
g74
(dp3743
g82
I3
ssg83
g3737
sg76
(lp3744
S"<open file '<stderr>', mode 'w' at 0xb77bc0d0>"
p3745
asbasbasbag69
(g85
g71
NtRp3746
(dp3747
g74
(dp3748
sg83
g3342
sg76
(lp3749
g69
(g90
g71
NtRp3750
(dp3751
g74
(dp3752
g94
g95
ssg83
g3746
sg76
(lp3753
S'wsgi.file_wrapper'
p3754
asbag69
(g90
g71
NtRp3755
(dp3756
g74
(dp3757
g101
g102
ssg83
g3746
sg76
(lp3758
S':'
asbag69
(g90
g71
NtRp3759
(dp3760
g74
(dp3761
sg83
g3746
sg76
(lp3762
g69
(g70
g71
NtRp3763
(dp3764
g74
(dp3765
g82
I3
ssg83
g3759
sg76
(lp3766
S'<class wsgiref.util.FileWrapper at 0x9c55aac>'
p3767
asbasbasbag69
(g85
g71
NtRp3768
(dp3769
g74
(dp3770
sg83
g3342
sg76
(lp3771
g69
(g90
g71
NtRp3772
(dp3773
g74
(dp3774
g94
g95
ssg83
g3768
sg76
(lp3775
S'wsgi.input'
p3776
asbag69
(g90
g71
NtRp3777
(dp3778
g74
(dp3779
g101
g102
ssg83
g3768
sg76
(lp3780
S':'
asbag69
(g90
g71
NtRp3781
(dp3782
g74
(dp3783
sg83
g3768
sg76
(lp3784
g69
(g70
g71
NtRp3785
(dp3786
g74
(dp3787
g82
I3
ssg83
g3781
sg76
(lp3788
S'<cStringIO.StringO object at 0xa2cdaa0>'
p3789
asbasbasbag69
(g85
g71
NtRp3790
(dp3791
g74
(dp3792
sg83
g3342
sg76
(lp3793
g69
(g90
g71
NtRp3794
(dp3795
g74
(dp3796
g94
g95
ssg83
g3790
sg76
(lp3797
S'wsgi.multiprocess'
p3798
asbag69
(g90
g71
NtRp3799
(dp3800
g74
(dp3801
g101
g102
ssg83
g3790
sg76
(lp3802
S':'
asbag69
(g90
g71
NtRp3803
(dp3804
g74
(dp3805
sg83
g3790
sg76
(lp3806
g69
(g70
g71
NtRp3807
(dp3808
g74
(dp3809
g82
I3
ssg83
g3803
sg76
(lp3810
g112
asbasbasbag69
(g85
g71
NtRp3811
(dp3812
g74
(dp3813
sg83
g3342
sg76
(lp3814
g69
(g90
g71
NtRp3815
(dp3816
g74
(dp3817
g94
g95
ssg83
g3811
sg76
(lp3818
S'wsgi.multithread'
p3819
asbag69
(g90
g71
NtRp3820
(dp3821
g74
(dp3822
g101
g102
ssg83
g3811
sg76
(lp3823
S':'
asbag69
(g90
g71
NtRp3824
(dp3825
g74
(dp3826
sg83
g3811
sg76
(lp3827
g69
(g70
g71
NtRp3828
(dp3829
g74
(dp3830
g82
I3
ssg83
g3824
sg76
(lp3831
g2593
asbasbasbag69
(g85
g71
NtRp3832
(dp3833
g74
(dp3834
sg83
g3342
sg76
(lp3835
g69
(g90
g71
NtRp3836
(dp3837
g74
(dp3838
g94
g95
ssg83
g3832
sg76
(lp3839
S'wsgi.run_once'
p3840
asbag69
(g90
g71
NtRp3841
(dp3842
g74
(dp3843
g101
g102
ssg83
g3832
sg76
(lp3844
S':'
asbag69
(g90
g71
NtRp3845
(dp3846
g74
(dp3847
sg83
g3832
sg76
(lp3848
g69
(g70
g71
NtRp3849
(dp3850
g74
(dp3851
g82
I3
ssg83
g3845
sg76
(lp3852
g112
asbasbasbag69
(g85
g71
NtRp3853
(dp3854
g74
(dp3855
sg83
g3342
sg76
(lp3856
g69
(g90
g71
NtRp3857
(dp3858
g74
(dp3859
g94
g95
ssg83
g3853
sg76
(lp3860
S'wsgi.url_scheme'
p3861
asbag69
(g90
g71
NtRp3862
(dp3863
g74
(dp3864
g101
g102
ssg83
g3853
sg76
(lp3865
S':'
asbag69
(g90
g71
NtRp3866
(dp3867
g74
(dp3868
sg83
g3853
sg76
(lp3869
g69
(g70
g71
NtRp3870
(dp3871
g74
(dp3872
g82
I3
ssg83
g3866
sg76
(lp3873
g2636
asbasbasbag69
(g85
g71
NtRp3874
(dp3875
g74
(dp3876
sg83
g3342
sg76
(lp3877
g69
(g90
g71
NtRp3878
(dp3879
g74
(dp3880
g94
g95
ssg83
g3874
sg76
(lp3881
S'wsgi.version'
p3882
asbag69
(g90
g71
NtRp3883
(dp3884
g74
(dp3885
g101
g102
ssg83
g3874
sg76
(lp3886
S':'
asbag69
(g90
g71
NtRp3887
(dp3888
g74
(dp3889
sg83
g3874
sg76
(lp3890
g69
(g70
g71
NtRp3891
(dp3892
g74
(dp3893
g82
I3
ssg83
g3887
sg76
(lp3894
S'1'
asbasbasbasbasbasbasbasbasbasbasbasbasbsS'frames'
p3895
(lp3896
(dp3897
S'file'
p3898
S'/home/vishrut/web2py/gluon/restricted.py'
p3899
sS'dump'
p3900
(dp3901
S'code'
p3902
S'r"response.write(\'<!DOCTYPE html>\\n<!-- paulirish....ponse.write(\'\\n</body>\\n</html>\\n\', escape=False)"'
p3903
sS'layer'
p3904
S"'/home/vishrut/web2py/applications/astra1/views/default/show.html'"
p3905
sS'global compile2'
p3906
S'<function compile2>'
p3907
sS'ccode'
p3908
S'undefined'
p3909
ssS'lnum'
p3910
I204
sS'lines'
p3911
(dp3912
I199
S"    environment['__name__'] = '__restricted__'"
p3913
sI200
S'    try:'
p3914
sI201
S'        if type(code) == types.CodeType:'
p3915
sI202
S'            ccode = code'
p3916
sI203
S'        else:'
p3917
sI204
S'            ccode = compile2(code,layer)'
p3918
sI205
S'        exec ccode in environment'
p3919
sI206
S'    except HTTP:'
p3920
sI207
S'        raise'
p3921
sI208
S'    except RestrictedError:'
p3922
ssS'call'
p3923
S'(code=r"response.write(\'<!DOCTYPE html>\\n<!-- paulirish....ponse.write(\'\\n</body>\\n</html>\\n\', escape=False)", environment={\'A\': <class \'gluon.html.A\'>, \'Auth\': <class \'gluon.tools.Auth\'>, \'B\': <class \'gluon.html.B\'>, \'BEAUTIFY\': <class \'gluon.html.BEAUTIFY\'>, \'BODY\': <class \'gluon.html.BODY\'>, \'BR\': <class \'gluon.html.BR\'>, \'BUTTON\': <class \'gluon.html.BUTTON\'>, \'CAT\': <class \'gluon.html.CAT\'>, \'CENTER\': <class \'gluon.html.CENTER\'>, \'CLEANUP\': <class \'gluon.validators.CLEANUP\'>, ...}, layer=\'/home/vishrut/web2py/applications/astra1/views/default/show.html\')'
p3924
sS'func'
p3925
S'restricted'
p3926
sa(dp3927
g3898
S'/home/vishrut/web2py/gluon/restricted.py'
p3928
sg3900
(dp3929
S'builtincompile'
p3930
S'<built-in function compile>'
p3931
sS'code'
p3932
S'r"response.write(\'<!DOCTYPE html>\\n<!-- paulirish....ponse.write(\'\\n</body>\\n</html>\\n\', escape=False)"'
p3933
sS'code.rstrip'
p3934
S'<built-in method rstrip of str object>'
p3935
sS').replace'
p3936
g3909
sS'layer'
p3937
S"'/home/vishrut/web2py/applications/astra1/views/default/show.html'"
p3938
ssg3910
I189
sg3911
(dp3939
I192
S'    """'
p3940
sI193
S'    runs code in environment and returns the output. if an exception occurs'
p3941
sI184
S''
sI185
S'def compile2(code,layer):'
p3942
sI186
S'    """'
p3943
sI187
S"    The +'\\n' is necessary else compile fails when code ends in a comment."
p3944
sI188
S'    """'
p3945
sI189
S"    return compile(code.rstrip().replace('\\r\\n','\\n')+'\\n', layer, 'exec')"
p3946
sI190
S''
sI191
S"def restricted(code, environment=None, layer='Unknown'):"
p3947
ssg3923
S'(code=r"response.write(\'<!DOCTYPE html>\\n<!-- paulirish....ponse.write(\'\\n</body>\\n</html>\\n\', escape=False)", layer=\'/home/vishrut/web2py/applications/astra1/views/default/show.html\')'
p3948
sg3925
S'compile2'
p3949
sasS'pyver'
p3950
S'Python 2.7.2+: /usr/bin/python'
p3951
sS'session'
p3952
g69
(g70
g71
NtRp3953
(dp3954
g74
(dp3955
sg76
(lp3956
g69
(g78
g71
NtRp3957
(dp3958
g74
(dp3959
g82
I5
ssg83
Nsg76
(lp3960
g69
(g85
g71
NtRp3961
(dp3962
g74
(dp3963
sg83
g3957
sg76
(lp3964
g69
(g90
g71
NtRp3965
(dp3966
g74
(dp3967
g94
g95
ssg83
g3961
sg76
(lp3968
S'last_query'
p3969
asbag69
(g90
g71
NtRp3970
(dp3971
g74
(dp3972
g101
g102
ssg83
g3961
sg76
(lp3973
S':'
asbag69
(g90
g71
NtRp3974
(dp3975
g74
(dp3976
sg83
g3961
sg76
(lp3977
g69
(g70
g71
NtRp3978
(dp3979
g74
(dp3980
g82
I5
ssg83
g3974
sg76
(lp3981
S'db.rooms.id>0'
p3982
asbasbasbag69
(g85
g71
NtRp3983
(dp3984
g74
(dp3985
sg83
g3957
sg76
(lp3986
g69
(g90
g71
NtRp3987
(dp3988
g74
(dp3989
g94
g95
ssg83
g3983
sg76
(lp3990
S'logged'
p3991
asbag69
(g90
g71
NtRp3992
(dp3993
g74
(dp3994
g101
g102
ssg83
g3983
sg76
(lp3995
S':'
asbag69
(g90
g71
NtRp3996
(dp3997
g74
(dp3998
sg83
g3983
sg76
(lp3999
g69
(g70
g71
NtRp4000
(dp4001
g74
(dp4002
g82
I5
ssg83
g3996
sg76
(lp4003
S'0'
asbasbasbag69
(g85
g71
NtRp4004
(dp4005
g74
(dp4006
sg83
g3957
sg76
(lp4007
g69
(g90
g71
NtRp4008
(dp4009
g74
(dp4010
g94
g95
ssg83
g4004
sg76
(lp4011
S'name'
p4012
asbag69
(g90
g71
NtRp4013
(dp4014
g74
(dp4015
g101
g102
ssg83
g4004
sg76
(lp4016
S':'
asbag69
(g90
g71
NtRp4017
(dp4018
g74
(dp4019
sg83
g4004
sg76
(lp4020
g69
(g70
g71
NtRp4021
(dp4022
g74
(dp4023
g82
I5
ssg83
g4017
sg76
(lp4024
S'Hist'
p4025
asbasbasbag69
(g85
g71
NtRp4026
(dp4027
g74
(dp4028
sg83
g3957
sg76
(lp4029
g69
(g90
g71
NtRp4030
(dp4031
g74
(dp4032
g94
g95
ssg83
g4026
sg76
(lp4033
S'username'
p4034
asbag69
(g90
g71
NtRp4035
(dp4036
g74
(dp4037
g101
g102
ssg83
g4026
sg76
(lp4038
S':'
asbag69
(g90
g71
NtRp4039
(dp4040
g74
(dp4041
sg83
g4026
sg76
(lp4042
g69
(g70
g71
NtRp4043
(dp4044
g74
(dp4045
g82
I5
ssg83
g4039
sg76
(lp4046
S'Tan'
p4047
asbasbasbasbasbsS'etype'
p4048
S"<type 'exceptions.SyntaxError'>"
p4049
sS'date'
p4050
S'Mon Oct 15 00:55:53 2012'
p4051
sS'response'
p4052
g69
(g70
g71
NtRp4053
(dp4054
g74
(dp4055
sg76
(lp4056
g69
(g78
g71
NtRp4057
(dp4058
g74
(dp4059
g82
I5
ssg83
Nsg76
(lp4060
g69
(g85
g71
NtRp4061
(dp4062
g74
(dp4063
sg83
g4057
sg76
(lp4064
g69
(g90
g71
NtRp4065
(dp4066
g74
(dp4067
g94
g95
ssg83
g4061
sg76
(lp4068
g167
asbag69
(g90
g71
NtRp4069
(dp4070
g74
(dp4071
g101
g102
ssg83
g4061
sg76
(lp4072
S':'
asbag69
(g90
g71
NtRp4073
(dp4074
g74
(dp4075
sg83
g4061
sg76
(lp4076
g69
(g70
g71
NtRp4077
(dp4078
g74
(dp4079
g82
I5
ssg83
g4073
sg76
(lp4080
S'<cStringIO.StringO object at 0xab64c80>'
p4081
asbasbasbag69
(g85
g71
NtRp4082
(dp4083
g74
(dp4084
sg83
g4057
sg76
(lp4085
g69
(g90
g71
NtRp4086
(dp4087
g74
(dp4088
g94
g95
ssg83
g4082
sg76
(lp4089
g233
asbag69
(g90
g71
NtRp4090
(dp4091
g74
(dp4092
g101
g102
ssg83
g4082
sg76
(lp4093
S':'
asbag69
(g90
g71
NtRp4094
(dp4095
g74
(dp4096
sg83
g4082
sg76
(lp4097
g69
(g70
g71
NtRp4098
(dp4099
g74
(dp4100
g82
I5
ssg83
g4094
sg76
(lp4101
g69
(g78
g71
NtRp4102
(dp4103
g74
(dp4104
g82
I4
ssg83
Nsg76
(lp4105
g69
(g85
g71
NtRp4106
(dp4107
g74
(dp4108
sg83
g4102
sg76
(lp4109
g69
(g90
g71
NtRp4110
(dp4111
g74
(dp4112
g94
g95
ssg83
g4106
sg76
(lp4113
S'session_id_astra1'
p4114
asbag69
(g90
g71
NtRp4115
(dp4116
g74
(dp4117
g101
g102
ssg83
g4106
sg76
(lp4118
S':'
asbag69
(g90
g71
NtRp4119
(dp4120
g74
(dp4121
sg83
g4106
sg76
(lp4122
g69
(g70
g71
NtRp4123
(dp4124
g74
(dp4125
g82
I4
ssg83
g4119
sg76
(lp4126
g69
(g78
g71
NtRp4127
(dp4128
g74
(dp4129
g82
I3
ssg83
Nsg76
(lp4130
g69
(g85
g71
NtRp4131
(dp4132
g74
(dp4133
sg83
g4127
sg76
(lp4134
g69
(g90
g71
NtRp4135
(dp4136
g74
(dp4137
g94
g95
ssg83
g4131
sg76
(lp4138
g283
asbag69
(g90
g71
NtRp4139
(dp4140
g74
(dp4141
g101
g102
ssg83
g4131
sg76
(lp4142
S':'
asbag69
(g90
g71
NtRp4143
(dp4144
g74
(dp4145
sg83
g4131
sg76
(lp4146
g69
(g70
g71
NtRp4147
(dp4148
g74
(dp4149
g82
I3
ssg83
g4143
sg76
(lp4150
S''
asbasbasbag69
(g85
g71
NtRp4151
(dp4152
g74
(dp4153
sg83
g4127
sg76
(lp4154
g69
(g90
g71
NtRp4155
(dp4156
g74
(dp4157
g94
g95
ssg83
g4151
sg76
(lp4158
g304
asbag69
(g90
g71
NtRp4159
(dp4160
g74
(dp4161
g101
g102
ssg83
g4151
sg76
(lp4162
S':'
asbag69
(g90
g71
NtRp4163
(dp4164
g74
(dp4165
sg83
g4151
sg76
(lp4166
g69
(g70
g71
NtRp4167
(dp4168
g74
(dp4169
g82
I3
ssg83
g4163
sg76
(lp4170
S''
asbasbasbag69
(g85
g71
NtRp4171
(dp4172
g74
(dp4173
sg83
g4127
sg76
(lp4174
g69
(g90
g71
NtRp4175
(dp4176
g74
(dp4177
g94
g95
ssg83
g4171
sg76
(lp4178
g325
asbag69
(g90
g71
NtRp4179
(dp4180
g74
(dp4181
g101
g102
ssg83
g4171
sg76
(lp4182
S':'
asbag69
(g90
g71
NtRp4183
(dp4184
g74
(dp4185
sg83
g4171
sg76
(lp4186
g69
(g70
g71
NtRp4187
(dp4188
g74
(dp4189
g82
I3
ssg83
g4183
sg76
(lp4190
S''
asbasbasbag69
(g85
g71
NtRp4191
(dp4192
g74
(dp4193
sg83
g4127
sg76
(lp4194
g69
(g90
g71
NtRp4195
(dp4196
g74
(dp4197
g94
g95
ssg83
g4191
sg76
(lp4198
g346
asbag69
(g90
g71
NtRp4199
(dp4200
g74
(dp4201
g101
g102
ssg83
g4191
sg76
(lp4202
S':'
asbag69
(g90
g71
NtRp4203
(dp4204
g74
(dp4205
sg83
g4191
sg76
(lp4206
g69
(g70
g71
NtRp4207
(dp4208
g74
(dp4209
g82
I3
ssg83
g4203
sg76
(lp4210
S''
asbasbasbag69
(g85
g71
NtRp4211
(dp4212
g74
(dp4213
sg83
g4127
sg76
(lp4214
g69
(g90
g71
NtRp4215
(dp4216
g74
(dp4217
g94
g95
ssg83
g4211
sg76
(lp4218
g367
asbag69
(g90
g71
NtRp4219
(dp4220
g74
(dp4221
g101
g102
ssg83
g4211
sg76
(lp4222
S':'
asbag69
(g90
g71
NtRp4223
(dp4224
g74
(dp4225
sg83
g4211
sg76
(lp4226
g69
(g70
g71
NtRp4227
(dp4228
g74
(dp4229
g82
I3
ssg83
g4223
sg76
(lp4230
S''
asbasbasbag69
(g85
g71
NtRp4231
(dp4232
g74
(dp4233
sg83
g4127
sg76
(lp4234
g69
(g90
g71
NtRp4235
(dp4236
g74
(dp4237
g94
g95
ssg83
g4231
sg76
(lp4238
g388
asbag69
(g90
g71
NtRp4239
(dp4240
g74
(dp4241
g101
g102
ssg83
g4231
sg76
(lp4242
S':'
asbag69
(g90
g71
NtRp4243
(dp4244
g74
(dp4245
sg83
g4231
sg76
(lp4246
g69
(g70
g71
NtRp4247
(dp4248
g74
(dp4249
g82
I3
ssg83
g4243
sg76
(lp4250
S'/'
asbasbasbag69
(g85
g71
NtRp4251
(dp4252
g74
(dp4253
sg83
g4127
sg76
(lp4254
g69
(g90
g71
NtRp4255
(dp4256
g74
(dp4257
g94
g95
ssg83
g4251
sg76
(lp4258
g409
asbag69
(g90
g71
NtRp4259
(dp4260
g74
(dp4261
g101
g102
ssg83
g4251
sg76
(lp4262
S':'
asbag69
(g90
g71
NtRp4263
(dp4264
g74
(dp4265
sg83
g4251
sg76
(lp4266
g69
(g70
g71
NtRp4267
(dp4268
g74
(dp4269
g82
I3
ssg83
g4263
sg76
(lp4270
S''
asbasbasbag69
(g85
g71
NtRp4271
(dp4272
g74
(dp4273
sg83
g4127
sg76
(lp4274
g69
(g90
g71
NtRp4275
(dp4276
g74
(dp4277
g94
g95
ssg83
g4271
sg76
(lp4278
g430
asbag69
(g90
g71
NtRp4279
(dp4280
g74
(dp4281
g101
g102
ssg83
g4271
sg76
(lp4282
S':'
asbag69
(g90
g71
NtRp4283
(dp4284
g74
(dp4285
sg83
g4271
sg76
(lp4286
g69
(g70
g71
NtRp4287
(dp4288
g74
(dp4289
g82
I3
ssg83
g4283
sg76
(lp4290
S''
asbasbasbasbasbasbasbasbasbasbasbag69
(g85
g71
NtRp4291
(dp4292
g74
(dp4293
sg83
g4057
sg76
(lp4294
g69
(g90
g71
NtRp4295
(dp4296
g74
(dp4297
g94
g95
ssg83
g4291
sg76
(lp4298
S'delimiters'
p4299
asbag69
(g90
g71
NtRp4300
(dp4301
g74
(dp4302
g101
g102
ssg83
g4291
sg76
(lp4303
S':'
asbag69
(g90
g71
NtRp4304
(dp4305
g74
(dp4306
sg83
g4291
sg76
(lp4307
g69
(g70
g71
NtRp4308
(dp4309
g74
(dp4310
g82
I5
ssg83
g4304
sg76
(lp4311
g69
(g78
g71
NtRp4312
(dp4313
g74
(dp4314
g82
I4
ssg83
Nsg76
(lp4315
g69
(g85
g71
NtRp4316
(dp4317
g74
(dp4318
sg83
g4312
sg76
(lp4319
g69
(g90
g71
NtRp4320
(dp4321
g74
(dp4322
sg83
g4316
sg76
(lp4323
g69
(g70
g71
NtRp4324
(dp4325
g74
(dp4326
g82
I4
ssg83
g4320
sg76
(lp4327
S'{{'
p4328
asbasbasbag69
(g85
g71
NtRp4329
(dp4330
g74
(dp4331
sg83
g4312
sg76
(lp4332
g69
(g90
g71
NtRp4333
(dp4334
g74
(dp4335
sg83
g4329
sg76
(lp4336
g69
(g70
g71
NtRp4337
(dp4338
g74
(dp4339
g82
I4
ssg83
g4333
sg76
(lp4340
S'}}'
p4341
asbasbasbasbasbasbasbag69
(g85
g71
NtRp4342
(dp4343
g74
(dp4344
sg83
g4057
sg76
(lp4345
g69
(g90
g71
NtRp4346
(dp4347
g74
(dp4348
g94
g95
ssg83
g4342
sg76
(lp4349
S'files'
p4350
asbag69
(g90
g71
NtRp4351
(dp4352
g74
(dp4353
g101
g102
ssg83
g4342
sg76
(lp4354
S':'
asbag69
(g90
g71
NtRp4355
(dp4356
g74
(dp4357
sg83
g4342
sg76
(lp4358
g69
(g70
g71
NtRp4359
(dp4360
g74
(dp4361
g82
I5
ssg83
g4355
sg76
(lp4362
g69
(g78
g71
NtRp4363
(dp4364
g74
(dp4365
g82
I4
ssg83
Nsg76
(lp4366
sbasbasbasbag69
(g85
g71
NtRp4367
(dp4368
g74
(dp4369
sg83
g4057
sg76
(lp4370
g69
(g90
g71
NtRp4371
(dp4372
g74
(dp4373
g94
g95
ssg83
g4367
sg76
(lp4374
S'flash'
p4375
asbag69
(g90
g71
NtRp4376
(dp4377
g74
(dp4378
g101
g102
ssg83
g4367
sg76
(lp4379
S':'
asbag69
(g90
g71
NtRp4380
(dp4381
g74
(dp4382
sg83
g4367
sg76
(lp4383
g69
(g70
g71
NtRp4384
(dp4385
g74
(dp4386
g82
I5
ssg83
g4380
sg76
(lp4387
S'Welcome Tan'
p4388
asbasbasbag69
(g85
g71
NtRp4389
(dp4390
g74
(dp4391
sg83
g4057
sg76
(lp4392
g69
(g90
g71
NtRp4393
(dp4394
g74
(dp4395
g94
g95
ssg83
g4389
sg76
(lp4396
S'generic_patterns'
p4397
asbag69
(g90
g71
NtRp4398
(dp4399
g74
(dp4400
g101
g102
ssg83
g4389
sg76
(lp4401
S':'
asbag69
(g90
g71
NtRp4402
(dp4403
g74
(dp4404
sg83
g4389
sg76
(lp4405
g69
(g70
g71
NtRp4406
(dp4407
g74
(dp4408
g82
I5
ssg83
g4402
sg76
(lp4409
g69
(g78
g71
NtRp4410
(dp4411
g74
(dp4412
g82
I4
ssg83
Nsg76
(lp4413
g69
(g85
g71
NtRp4414
(dp4415
g74
(dp4416
sg83
g4410
sg76
(lp4417
g69
(g90
g71
NtRp4418
(dp4419
g74
(dp4420
sg83
g4414
sg76
(lp4421
g69
(g70
g71
NtRp4422
(dp4423
g74
(dp4424
g82
I4
ssg83
g4418
sg76
(lp4425
S'*'
asbasbasbasbasbasbasbag69
(g85
g71
NtRp4426
(dp4427
g74
(dp4428
sg83
g4057
sg76
(lp4429
g69
(g90
g71
NtRp4430
(dp4431
g74
(dp4432
g94
g95
ssg83
g4426
sg76
(lp4433
S'headers'
p4434
asbag69
(g90
g71
NtRp4435
(dp4436
g74
(dp4437
g101
g102
ssg83
g4426
sg76
(lp4438
S':'
asbag69
(g90
g71
NtRp4439
(dp4440
g74
(dp4441
sg83
g4426
sg76
(lp4442
g69
(g70
g71
NtRp4443
(dp4444
g74
(dp4445
g82
I5
ssg83
g4439
sg76
(lp4446
g69
(g78
g71
NtRp4447
(dp4448
g74
(dp4449
g82
I4
ssg83
Nsg76
(lp4450
g69
(g85
g71
NtRp4451
(dp4452
g74
(dp4453
sg83
g4447
sg76
(lp4454
g69
(g90
g71
NtRp4455
(dp4456
g74
(dp4457
g94
g95
ssg83
g4451
sg76
(lp4458
S'Cache-Control'
p4459
asbag69
(g90
g71
NtRp4460
(dp4461
g74
(dp4462
g101
g102
ssg83
g4451
sg76
(lp4463
S':'
asbag69
(g90
g71
NtRp4464
(dp4465
g74
(dp4466
sg83
g4451
sg76
(lp4467
g69
(g70
g71
NtRp4468
(dp4469
g74
(dp4470
g82
I4
ssg83
g4464
sg76
(lp4471
S'no-store, no-cache, must-revalidate, post-check=0, pre-check=0'
p4472
asbasbasbag69
(g85
g71
NtRp4473
(dp4474
g74
(dp4475
sg83
g4447
sg76
(lp4476
g69
(g90
g71
NtRp4477
(dp4478
g74
(dp4479
g94
g95
ssg83
g4473
sg76
(lp4480
S'Content-Type'
p4481
asbag69
(g90
g71
NtRp4482
(dp4483
g74
(dp4484
g101
g102
ssg83
g4473
sg76
(lp4485
S':'
asbag69
(g90
g71
NtRp4486
(dp4487
g74
(dp4488
sg83
g4473
sg76
(lp4489
g69
(g70
g71
NtRp4490
(dp4491
g74
(dp4492
g82
I4
ssg83
g4486
sg76
(lp4493
S'text/html; charset=utf-8'
p4494
asbasbasbag69
(g85
g71
NtRp4495
(dp4496
g74
(dp4497
sg83
g4447
sg76
(lp4498
g69
(g90
g71
NtRp4499
(dp4500
g74
(dp4501
g94
g95
ssg83
g4495
sg76
(lp4502
S'Expires'
p4503
asbag69
(g90
g71
NtRp4504
(dp4505
g74
(dp4506
g101
g102
ssg83
g4495
sg76
(lp4507
S':'
asbag69
(g90
g71
NtRp4508
(dp4509
g74
(dp4510
sg83
g4495
sg76
(lp4511
g69
(g70
g71
NtRp4512
(dp4513
g74
(dp4514
g82
I4
ssg83
g4508
sg76
(lp4515
S'Sun, 14 Oct 2012 19:55:53 GMT'
p4516
asbasbasbag69
(g85
g71
NtRp4517
(dp4518
g74
(dp4519
sg83
g4447
sg76
(lp4520
g69
(g90
g71
NtRp4521
(dp4522
g74
(dp4523
g94
g95
ssg83
g4517
sg76
(lp4524
S'Pragma'
p4525
asbag69
(g90
g71
NtRp4526
(dp4527
g74
(dp4528
g101
g102
ssg83
g4517
sg76
(lp4529
S':'
asbag69
(g90
g71
NtRp4530
(dp4531
g74
(dp4532
sg83
g4517
sg76
(lp4533
g69
(g70
g71
NtRp4534
(dp4535
g74
(dp4536
g82
I4
ssg83
g4530
sg76
(lp4537
S'no-cache'
p4538
asbasbasbag69
(g85
g71
NtRp4539
(dp4540
g74
(dp4541
sg83
g4447
sg76
(lp4542
g69
(g90
g71
NtRp4543
(dp4544
g74
(dp4545
g94
g95
ssg83
g4539
sg76
(lp4546
S'X-Powered-By'
p4547
asbag69
(g90
g71
NtRp4548
(dp4549
g74
(dp4550
g101
g102
ssg83
g4539
sg76
(lp4551
S':'
asbag69
(g90
g71
NtRp4552
(dp4553
g74
(dp4554
sg83
g4539
sg76
(lp4555
g69
(g70
g71
NtRp4556
(dp4557
g74
(dp4558
g82
I4
ssg83
g4552
sg76
(lp4559
S'web2py'
p4560
asbasbasbasbasbasbasbag69
(g85
g71
NtRp4561
(dp4562
g74
(dp4563
sg83
g4057
sg76
(lp4564
g69
(g90
g71
NtRp4565
(dp4566
g74
(dp4567
g94
g95
ssg83
g4561
sg76
(lp4568
S'menu'
p4569
asbag69
(g90
g71
NtRp4570
(dp4571
g74
(dp4572
g101
g102
ssg83
g4561
sg76
(lp4573
S':'
asbag69
(g90
g71
NtRp4574
(dp4575
g74
(dp4576
sg83
g4561
sg76
(lp4577
g69
(g70
g71
NtRp4578
(dp4579
g74
(dp4580
g82
I5
ssg83
g4574
sg76
(lp4581
g69
(g78
g71
NtRp4582
(dp4583
g74
(dp4584
g82
I4
ssg83
Nsg76
(lp4585
g69
(g85
g71
NtRp4586
(dp4587
g74
(dp4588
sg83
g4582
sg76
(lp4589
g69
(g90
g71
NtRp4590
(dp4591
g74
(dp4592
sg83
g4586
sg76
(lp4593
g69
(g70
g71
NtRp4594
(dp4595
g74
(dp4596
g82
I4
ssg83
g4590
sg76
(lp4597
g69
(g78
g71
NtRp4598
(dp4599
g74
(dp4600
g82
I3
ssg83
Nsg76
(lp4601
g69
(g85
g71
NtRp4602
(dp4603
g74
(dp4604
sg83
g4598
sg76
(lp4605
g69
(g90
g71
NtRp4606
(dp4607
g74
(dp4608
sg83
g4602
sg76
(lp4609
g69
(g70
g71
NtRp4610
(dp4611
g74
(dp4612
g82
I3
ssg83
g4606
sg76
(lp4613
cgluon.languages
lazyT_unpickle
p4614
(S't\x04\x00\x00\x00Home'
tRp4615
asbasbasbag69
(g85
g71
NtRp4616
(dp4617
g74
(dp4618
sg83
g4598
sg76
(lp4619
g69
(g90
g71
NtRp4620
(dp4621
g74
(dp4622
sg83
g4616
sg76
(lp4623
g69
(g70
g71
NtRp4624
(dp4625
g74
(dp4626
g82
I3
ssg83
g4620
sg76
(lp4627
g112
asbasbasbag69
(g85
g71
NtRp4628
(dp4629
g74
(dp4630
sg83
g4598
sg76
(lp4631
g69
(g90
g71
NtRp4632
(dp4633
g74
(dp4634
sg83
g4628
sg76
(lp4635
g69
(g70
g71
NtRp4636
(dp4637
g74
(dp4638
g82
I3
ssg83
g4632
sg76
(lp4639
S'/astra1/default/index'
p4640
asbasbasbag69
(g85
g71
NtRp4641
(dp4642
g74
(dp4643
sg83
g4598
sg76
(lp4644
g69
(g90
g71
NtRp4645
(dp4646
g74
(dp4647
sg83
g4641
sg76
(lp4648
g69
(g70
g71
NtRp4649
(dp4650
g74
(dp4651
g82
I3
ssg83
g4645
sg76
(lp4652
g69
(g78
g71
NtRp4653
(dp4654
g74
(dp4655
g82
I2
ssg83
Nsg76
(lp4656
sbasbasbasbasbasbasbasbag69
(g85
g71
NtRp4657
(dp4658
g74
(dp4659
sg83
g4582
sg76
(lp4660
g69
(g90
g71
NtRp4661
(dp4662
g74
(dp4663
sg83
g4657
sg76
(lp4664
g69
(g70
g71
NtRp4665
(dp4666
g74
(dp4667
g82
I4
ssg83
g4661
sg76
(lp4668
g69
(g78
g71
NtRp4669
(dp4670
g74
(dp4671
g82
I3
ssg83
Nsg76
(lp4672
g69
(g85
g71
NtRp4673
(dp4674
g74
(dp4675
sg83
g4669
sg76
(lp4676
g69
(g90
g71
NtRp4677
(dp4678
g74
(dp4679
sg83
g4673
sg76
(lp4680
g69
(g70
g71
NtRp4681
(dp4682
g74
(dp4683
g82
I3
ssg83
g4677
sg76
(lp4684
g69
(cgluon.html
SPAN
p4685
g71
NtRp4686
(dp4687
g74
(dp4688
g94
S'color:yellow'
p4689
ssg83
Nsg76
(lp4690
g4560
asbasbasbasbag69
(g85
g71
NtRp4691
(dp4692
g74
(dp4693
sg83
g4669
sg76
(lp4694
g69
(g90
g71
NtRp4695
(dp4696
g74
(dp4697
sg83
g4691
sg76
(lp4698
g69
(g70
g71
NtRp4699
(dp4700
g74
(dp4701
g82
I3
ssg83
g4695
sg76
(lp4702
g112
asbasbasbag69
(g85
g71
NtRp4703
(dp4704
g74
(dp4705
sg83
g4669
sg76
(lp4706
g69
(g90
g71
NtRp4707
(dp4708
g74
(dp4709
sg83
g4703
sg76
(lp4710
g69
(g70
g71
NtRp4711
(dp4712
g74
(dp4713
g82
I3
ssg83
g4707
sg76
(lp4714
S'None'
p4715
asbasbasbag69
(g85
g71
NtRp4716
(dp4717
g74
(dp4718
sg83
g4669
sg76
(lp4719
g69
(g90
g71
NtRp4720
(dp4721
g74
(dp4722
sg83
g4716
sg76
(lp4723
g69
(g70
g71
NtRp4724
(dp4725
g74
(dp4726
g82
I3
ssg83
g4720
sg76
(lp4727
g69
(g78
g71
NtRp4728
(dp4729
g74
(dp4730
g82
I2
ssg83
Nsg76
(lp4731
g69
(g85
g71
NtRp4732
(dp4733
g74
(dp4734
sg83
g4728
sg76
(lp4735
g69
(g90
g71
NtRp4736
(dp4737
g74
(dp4738
sg83
g4732
sg76
(lp4739
g69
(g70
g71
NtRp4740
(dp4741
g74
(dp4742
g82
I2
ssg83
g4736
sg76
(lp4743
g69
(g78
g71
NtRp4744
(dp4745
g74
(dp4746
g82
I1
ssg83
Nsg76
(lp4747
g69
(g85
g71
NtRp4748
(dp4749
g74
(dp4750
sg83
g4744
sg76
(lp4751
g69
(g90
g71
NtRp4752
(dp4753
g74
(dp4754
sg83
g4748
sg76
(lp4755
g69
(g70
g71
NtRp4756
(dp4757
g74
(dp4758
g82
I1
ssg83
g4752
sg76
(lp4759
g4614
(S's\x08\x00\x00\x00My Sites'
tRp4760
asbasbasbag69
(g85
g71
NtRp4761
(dp4762
g74
(dp4763
sg83
g4744
sg76
(lp4764
g69
(g90
g71
NtRp4765
(dp4766
g74
(dp4767
sg83
g4761
sg76
(lp4768
g69
(g70
g71
NtRp4769
(dp4770
g74
(dp4771
g82
I1
ssg83
g4765
sg76
(lp4772
I00
asbasbasbag69
(g85
g71
NtRp4773
(dp4774
g74
(dp4775
sg83
g4744
sg76
(lp4776
g69
(g90
g71
NtRp4777
(dp4778
g74
(dp4779
sg83
g4773
sg76
(lp4780
g69
(g70
g71
NtRp4781
(dp4782
g74
(dp4783
g82
I1
ssg83
g4777
sg76
(lp4784
S'/admin/default/site'
p4785
asbasbasbasbasbasbasbag69
(g85
g71
NtRp4786
(dp4787
g74
(dp4788
sg83
g4728
sg76
(lp4789
g69
(g90
g71
NtRp4790
(dp4791
g74
(dp4792
sg83
g4786
sg76
(lp4793
g69
(g70
g71
NtRp4794
(dp4795
g74
(dp4796
g82
I2
ssg83
g4790
sg76
(lp4797
g69
(g78
g71
NtRp4798
(dp4799
g74
(dp4800
g82
I1
ssg83
Nsg76
(lp4801
g69
(g85
g71
NtRp4802
(dp4803
g74
(dp4804
sg83
g4798
sg76
(lp4805
g69
(g90
g71
NtRp4806
(dp4807
g74
(dp4808
sg83
g4802
sg76
(lp4809
g69
(g70
g71
NtRp4810
(dp4811
g74
(dp4812
g82
I1
ssg83
g4806
sg76
(lp4813
g4614
(S's\x08\x00\x00\x00This App'
tRp4814
asbasbasbag69
(g85
g71
NtRp4815
(dp4816
g74
(dp4817
sg83
g4798
sg76
(lp4818
g69
(g90
g71
NtRp4819
(dp4820
g74
(dp4821
sg83
g4815
sg76
(lp4822
g69
(g70
g71
NtRp4823
(dp4824
g74
(dp4825
g82
I1
ssg83
g4819
sg76
(lp4826
I00
asbasbasbag69
(g85
g71
NtRp4827
(dp4828
g74
(dp4829
sg83
g4798
sg76
(lp4830
g69
(g90
g71
NtRp4831
(dp4832
g74
(dp4833
sg83
g4827
sg76
(lp4834
g69
(g70
g71
NtRp4835
(dp4836
g74
(dp4837
g82
I1
ssg83
g4831
sg76
(lp4838
S'/admin/default/design/astra1'
p4839
asbasbasbag69
(g85
g71
NtRp4840
(dp4841
g74
(dp4842
sg83
g4798
sg76
(lp4843
g69
(g90
g71
NtRp4844
(dp4845
g74
(dp4846
sg83
g4840
sg76
(lp4847
g69
(g70
g71
NtRp4848
(dp4849
g74
(dp4850
g82
I1
ssg83
g4844
sg76
(lp4851
(lp4852
(g4614
(S't\n\x00\x00\x00Controller'
tRp4853
I00
S'/admin/default/edit/astra1/controllers/default.py'
tp4854
a(g4614
(S't\x04\x00\x00\x00View'
tRp4855
I00
S'/admin/default/edit/astra1/views/default/show.html'
tp4856
a(g4614
(S't\x06\x00\x00\x00Layout'
tRp4857
I00
S'/admin/default/edit/astra1/views/layout.html'
tp4858
a(g4614
(S't\n\x00\x00\x00Stylesheet'
tRp4859
I00
S'/admin/default/edit/astra1/static/css/web2py.css'
tp4860
a(g4614
(S's\x08\x00\x00\x00DB Model'
tRp4861
I00
S'/admin/default/edit/astra1/models/db.py'
tp4862
a(g4614
(S's\n\x00\x00\x00Menu Model'
tRp4863
I00
S'/admin/default/edit/astra1/models/menu.py'
tp4864
a(g4614
(S't\x08\x00\x00\x00Database'
tRp4865
I00
S'/astra1/appadmin/index'
tp4866
a(g4614
(S't\x06\x00\x00\x00Errors'
tRp4867
I00
S'/admin/default/errors/astra1'
tp4868
a(g4614
(S't\x05\x00\x00\x00About'
tRp4869
I00
S'/admin/default/about/astra1'
tp4870
aasbasbasbasbasbasbasbag69
(g85
g71
NtRp4871
(dp4872
g74
(dp4873
sg83
g4728
sg76
(lp4874
g69
(g90
g71
NtRp4875
(dp4876
g74
(dp4877
sg83
g4871
sg76
(lp4878
g69
(g70
g71
NtRp4879
(dp4880
g74
(dp4881
g82
I2
ssg83
g4875
sg76
(lp4882
g69
(g78
g71
NtRp4883
(dp4884
g74
(dp4885
g82
I1
ssg83
Nsg76
(lp4886
g69
(g85
g71
NtRp4887
(dp4888
g74
(dp4889
sg83
g4883
sg76
(lp4890
g69
(g90
g71
NtRp4891
(dp4892
g74
(dp4893
sg83
g4887
sg76
(lp4894
g69
(g70
g71
NtRp4895
(dp4896
g74
(dp4897
g82
I1
ssg83
g4891
sg76
(lp4898
S'web2py.com'
p4899
asbasbasbag69
(g85
g71
NtRp4900
(dp4901
g74
(dp4902
sg83
g4883
sg76
(lp4903
g69
(g90
g71
NtRp4904
(dp4905
g74
(dp4906
sg83
g4900
sg76
(lp4907
g69
(g70
g71
NtRp4908
(dp4909
g74
(dp4910
g82
I1
ssg83
g4904
sg76
(lp4911
I00
asbasbasbag69
(g85
g71
NtRp4912
(dp4913
g74
(dp4914
sg83
g4883
sg76
(lp4915
g69
(g90
g71
NtRp4916
(dp4917
g74
(dp4918
sg83
g4912
sg76
(lp4919
g69
(g70
g71
NtRp4920
(dp4921
g74
(dp4922
g82
I1
ssg83
g4916
sg76
(lp4923
S'http://www.web2py.com'
p4924
asbasbasbag69
(g85
g71
NtRp4925
(dp4926
g74
(dp4927
sg83
g4883
sg76
(lp4928
g69
(g90
g71
NtRp4929
(dp4930
g74
(dp4931
sg83
g4925
sg76
(lp4932
g69
(g70
g71
NtRp4933
(dp4934
g74
(dp4935
g82
I1
ssg83
g4929
sg76
(lp4936
(lp4937
(g4614
(S't\x08\x00\x00\x00Download'
tRp4938
I00
S'http://www.web2py.com/examples/default/download'
p4939
tp4940
a(g4614
(S't\x07\x00\x00\x00Support'
tRp4941
I00
S'http://www.web2py.com/examples/default/support'
p4942
tp4943
a(g4614
(S't\x04\x00\x00\x00Demo'
tRp4944
I00
S'http://web2py.com/demo_admin'
p4945
tp4946
a(g4614
(S's\x0e\x00\x00\x00Quick Examples'
tRp4947
I00
S'http://web2py.com/examples/default/examples'
p4948
tp4949
a(g4614
(S't\x03\x00\x00\x00FAQ'
tRp4950
I00
S'http://web2py.com/AlterEgo'
p4951
tp4952
a(g4614
(S't\x06\x00\x00\x00Videos'
tRp4953
I00
S'http://www.web2py.com/examples/default/videos/'
p4954
tp4955
a(g4614
(S's\x11\x00\x00\x00Free Applications'
tRp4956
I00
S'http://web2py.com/appliances'
p4957
tp4958
a(g4614
(S't\x07\x00\x00\x00Plugins'
tRp4959
I00
S'http://web2py.com/plugins'
p4960
tp4961
a(g4614
(S't\x07\x00\x00\x00Layouts'
tRp4962
I00
S'http://web2py.com/layouts'
p4963
tp4964
a(g4614
(S't\x07\x00\x00\x00Recipes'
tRp4965
I00
S'http://web2pyslices.com/'
p4966
tp4967
a(g4614
(S't\x08\x00\x00\x00Semantic'
tRp4968
I00
S'http://web2py.com/semantic'
p4969
tp4970
aasbasbasbasbasbasbasbag69
(g85
g71
NtRp4971
(dp4972
g74
(dp4973
sg83
g4728
sg76
(lp4974
g69
(g90
g71
NtRp4975
(dp4976
g74
(dp4977
sg83
g4971
sg76
(lp4978
g69
(g70
g71
NtRp4979
(dp4980
g74
(dp4981
g82
I2
ssg83
g4975
sg76
(lp4982
g69
(g78
g71
NtRp4983
(dp4984
g74
(dp4985
g82
I1
ssg83
Nsg76
(lp4986
g69
(g85
g71
NtRp4987
(dp4988
g74
(dp4989
sg83
g4983
sg76
(lp4990
g69
(g90
g71
NtRp4991
(dp4992
g74
(dp4993
sg83
g4987
sg76
(lp4994
g69
(g70
g71
NtRp4995
(dp4996
g74
(dp4997
g82
I1
ssg83
g4991
sg76
(lp4998
g4614
(S't\r\x00\x00\x00Documentation'
tRp4999
asbasbasbag69
(g85
g71
NtRp5000
(dp5001
g74
(dp5002
sg83
g4983
sg76
(lp5003
g69
(g90
g71
NtRp5004
(dp5005
g74
(dp5006
sg83
g5000
sg76
(lp5007
g69
(g70
g71
NtRp5008
(dp5009
g74
(dp5010
g82
I1
ssg83
g5004
sg76
(lp5011
I00
asbasbasbag69
(g85
g71
NtRp5012
(dp5013
g74
(dp5014
sg83
g4983
sg76
(lp5015
g69
(g90
g71
NtRp5016
(dp5017
g74
(dp5018
sg83
g5012
sg76
(lp5019
g69
(g70
g71
NtRp5020
(dp5021
g74
(dp5022
g82
I1
ssg83
g5016
sg76
(lp5023
S'http://www.web2py.com/book'
p5024
asbasbasbag69
(g85
g71
NtRp5025
(dp5026
g74
(dp5027
sg83
g4983
sg76
(lp5028
g69
(g90
g71
NtRp5029
(dp5030
g74
(dp5031
sg83
g5025
sg76
(lp5032
g69
(g70
g71
NtRp5033
(dp5034
g74
(dp5035
g82
I1
ssg83
g5029
sg76
(lp5036
(lp5037
(g4614
(S't\x07\x00\x00\x00Preface'
tRp5038
I00
S'http://www.web2py.com/book/default/chapter/00'
p5039
tp5040
a(g4614
(S't\x0c\x00\x00\x00Introduction'
tRp5041
I00
S'http://www.web2py.com/book/default/chapter/01'
p5042
tp5043
a(g4614
(S't\x06\x00\x00\x00Python'
tRp5044
I00
S'http://www.web2py.com/book/default/chapter/02'
p5045
tp5046
a(g4614
(S't\x08\x00\x00\x00Overview'
tRp5047
I00
S'http://www.web2py.com/book/default/chapter/03'
p5048
tp5049
a(g4614
(S's\x08\x00\x00\x00The Core'
tRp5050
I00
S'http://www.web2py.com/book/default/chapter/04'
p5051
tp5052
a(g4614
(S's\t\x00\x00\x00The Views'
tRp5053
I00
S'http://www.web2py.com/book/default/chapter/05'
p5054
tp5055
a(g4614
(S't\x08\x00\x00\x00Database'
tRp5056
I00
S'http://www.web2py.com/book/default/chapter/06'
p5057
tp5058
a(g4614
(S's\x14\x00\x00\x00Forms and Validators'
tRp5059
I00
S'http://www.web2py.com/book/default/chapter/07'
p5060
tp5061
a(g4614
(S's\r\x00\x00\x00Email and SMS'
tRp5062
I00
S'http://www.web2py.com/book/default/chapter/08'
p5063
tp5064
a(g4614
(S's\x0e\x00\x00\x00Access Control'
tRp5065
I00
S'http://www.web2py.com/book/default/chapter/09'
p5066
tp5067
a(g4614
(S't\x08\x00\x00\x00Services'
tRp5068
I00
S'http://www.web2py.com/book/default/chapter/10'
p5069
tp5070
a(g4614
(S's\x0c\x00\x00\x00Ajax Recipes'
tRp5071
I00
S'http://www.web2py.com/book/default/chapter/11'
p5072
tp5073
a(g4614
(S's\x16\x00\x00\x00Components and Plugins'
tRp5074
I00
S'http://www.web2py.com/book/default/chapter/12'
p5075
tp5076
a(g4614
(S's\x12\x00\x00\x00Deployment Recipes'
tRp5077
I00
S'http://www.web2py.com/book/default/chapter/13'
p5078
tp5079
a(g4614
(S's\r\x00\x00\x00Other Recipes'
tRp5080
I00
S'http://www.web2py.com/book/default/chapter/14'
p5081
tp5082
a(g4614
(S's\r\x00\x00\x00Buy this book'
tRp5083
I00
S'http://stores.lulu.com/web2py'
p5084
tp5085
aasbasbasbasbasbasbasbag69
(g85
g71
NtRp5086
(dp5087
g74
(dp5088
sg83
g4728
sg76
(lp5089
g69
(g90
g71
NtRp5090
(dp5091
g74
(dp5092
sg83
g5086
sg76
(lp5093
g69
(g70
g71
NtRp5094
(dp5095
g74
(dp5096
g82
I2
ssg83
g5090
sg76
(lp5097
g69
(g78
g71
NtRp5098
(dp5099
g74
(dp5100
g82
I1
ssg83
Nsg76
(lp5101
g69
(g85
g71
NtRp5102
(dp5103
g74
(dp5104
sg83
g5098
sg76
(lp5105
g69
(g90
g71
NtRp5106
(dp5107
g74
(dp5108
sg83
g5102
sg76
(lp5109
g69
(g70
g71
NtRp5110
(dp5111
g74
(dp5112
g82
I1
ssg83
g5106
sg76
(lp5113
g4614
(S't\t\x00\x00\x00Community'
tRp5114
asbasbasbag69
(g85
g71
NtRp5115
(dp5116
g74
(dp5117
sg83
g5098
sg76
(lp5118
g69
(g90
g71
NtRp5119
(dp5120
g74
(dp5121
sg83
g5115
sg76
(lp5122
g69
(g70
g71
NtRp5123
(dp5124
g74
(dp5125
g82
I1
ssg83
g5119
sg76
(lp5126
I00
asbasbasbag69
(g85
g71
NtRp5127
(dp5128
g74
(dp5129
sg83
g5098
sg76
(lp5130
g69
(g90
g71
NtRp5131
(dp5132
g74
(dp5133
sg83
g5127
sg76
(lp5134
g69
(g70
g71
NtRp5135
(dp5136
g74
(dp5137
g82
I1
ssg83
g5131
sg76
(lp5138
Nasbasbasbag69
(g85
g71
NtRp5139
(dp5140
g74
(dp5141
sg83
g5098
sg76
(lp5142
g69
(g90
g71
NtRp5143
(dp5144
g74
(dp5145
sg83
g5139
sg76
(lp5146
g69
(g70
g71
NtRp5147
(dp5148
g74
(dp5149
g82
I1
ssg83
g5143
sg76
(lp5150
(lp5151
(g4614
(S't\x06\x00\x00\x00Groups'
tRp5152
I00
S'http://www.web2py.com/examples/default/usergroups'
p5153
tp5154
a(g4614
(S't\x07\x00\x00\x00Twitter'
tRp5155
I00
S'http://twitter.com/web2py'
p5156
tp5157
a(g4614
(S's\t\x00\x00\x00Live Chat'
tRp5158
I00
S'http://webchat.freenode.net/?channels=web2py'
p5159
tp5160
aasbasbasbasbasbasbasbag69
(g85
g71
NtRp5161
(dp5162
g74
(dp5163
sg83
g4728
sg76
(lp5164
g69
(g90
g71
NtRp5165
(dp5166
g74
(dp5167
sg83
g5161
sg76
(lp5168
g69
(g70
g71
NtRp5169
(dp5170
g74
(dp5171
g82
I2
ssg83
g5165
sg76
(lp5172
g69
(g78
g71
NtRp5173
(dp5174
g74
(dp5175
g82
I1
ssg83
Nsg76
(lp5176
g69
(g85
g71
NtRp5177
(dp5178
g74
(dp5179
sg83
g5173
sg76
(lp5180
g69
(g90
g71
NtRp5181
(dp5182
g74
(dp5183
sg83
g5177
sg76
(lp5184
g69
(g70
g71
NtRp5185
(dp5186
g74
(dp5187
g82
I1
ssg83
g5181
sg76
(lp5188
g4614
(S't\x07\x00\x00\x00Plugins'
tRp5189
asbasbasbag69
(g85
g71
NtRp5190
(dp5191
g74
(dp5192
sg83
g5173
sg76
(lp5193
g69
(g90
g71
NtRp5194
(dp5195
g74
(dp5196
sg83
g5190
sg76
(lp5197
g69
(g70
g71
NtRp5198
(dp5199
g74
(dp5200
g82
I1
ssg83
g5194
sg76
(lp5201
I00
asbasbasbag69
(g85
g71
NtRp5202
(dp5203
g74
(dp5204
sg83
g5173
sg76
(lp5205
g69
(g90
g71
NtRp5206
(dp5207
g74
(dp5208
sg83
g5202
sg76
(lp5209
g69
(g70
g71
NtRp5210
(dp5211
g74
(dp5212
g82
I1
ssg83
g5206
sg76
(lp5213
Nasbasbasbag69
(g85
g71
NtRp5214
(dp5215
g74
(dp5216
sg83
g5173
sg76
(lp5217
g69
(g90
g71
NtRp5218
(dp5219
g74
(dp5220
sg83
g5214
sg76
(lp5221
g69
(g70
g71
NtRp5222
(dp5223
g74
(dp5224
g82
I1
ssg83
g5218
sg76
(lp5225
(lp5226
(S'plugin_wiki'
p5227
I00
S'http://web2py.com/examples/default/download'
p5228
tp5229
a(g4614
(S's\r\x00\x00\x00Other Plugins'
tRp5230
I00
g4960
tp5231
a(g4614
(S's\x0e\x00\x00\x00Layout Plugins'
tRp5232
I00
g4963
tp5233
aasbasbasbasbasbasbasbasbasbasbasbasbasbasbasbasbasbasbasbag69
(g85
g71
NtRp5234
(dp5235
g74
(dp5236
sg83
g4057
sg76
(lp5237
g69
(g90
g71
NtRp5238
(dp5239
g74
(dp5240
g94
g95
ssg83
g5234
sg76
(lp5241
S'meta'
p5242
asbag69
(g90
g71
NtRp5243
(dp5244
g74
(dp5245
g101
g102
ssg83
g5234
sg76
(lp5246
S':'
asbag69
(g90
g71
NtRp5247
(dp5248
g74
(dp5249
sg83
g5234
sg76
(lp5250
g69
(g70
g71
NtRp5251
(dp5252
g74
(dp5253
g82
I5
ssg83
g5247
sg76
(lp5254
g69
(g78
g71
NtRp5255
(dp5256
g74
(dp5257
g82
I4
ssg83
Nsg76
(lp5258
g69
(g85
g71
NtRp5259
(dp5260
g74
(dp5261
sg83
g5255
sg76
(lp5262
g69
(g90
g71
NtRp5263
(dp5264
g74
(dp5265
g94
g95
ssg83
g5259
sg76
(lp5266
S'author'
p5267
asbag69
(g90
g71
NtRp5268
(dp5269
g74
(dp5270
g101
g102
ssg83
g5259
sg76
(lp5271
S':'
asbag69
(g90
g71
NtRp5272
(dp5273
g74
(dp5274
sg83
g5259
sg76
(lp5275
g69
(g70
g71
NtRp5276
(dp5277
g74
(dp5278
g82
I4
ssg83
g5272
sg76
(lp5279
S'Your Name <you@example.com>'
p5280
asbasbasbag69
(g85
g71
NtRp5281
(dp5282
g74
(dp5283
sg83
g5255
sg76
(lp5284
g69
(g90
g71
NtRp5285
(dp5286
g74
(dp5287
g94
g95
ssg83
g5281
sg76
(lp5288
S'copyright'
p5289
asbag69
(g90
g71
NtRp5290
(dp5291
g74
(dp5292
g101
g102
ssg83
g5281
sg76
(lp5293
S':'
asbag69
(g90
g71
NtRp5294
(dp5295
g74
(dp5296
sg83
g5281
sg76
(lp5297
g69
(g70
g71
NtRp5298
(dp5299
g74
(dp5300
g82
I4
ssg83
g5294
sg76
(lp5301
S'Copyright 2011'
p5302
asbasbasbag69
(g85
g71
NtRp5303
(dp5304
g74
(dp5305
sg83
g5255
sg76
(lp5306
g69
(g90
g71
NtRp5307
(dp5308
g74
(dp5309
g94
g95
ssg83
g5303
sg76
(lp5310
S'description'
p5311
asbag69
(g90
g71
NtRp5312
(dp5313
g74
(dp5314
g101
g102
ssg83
g5303
sg76
(lp5315
S':'
asbag69
(g90
g71
NtRp5316
(dp5317
g74
(dp5318
sg83
g5303
sg76
(lp5319
g69
(g70
g71
NtRp5320
(dp5321
g74
(dp5322
g82
I4
ssg83
g5316
sg76
(lp5323
S'a cool new app'
p5324
asbasbasbag69
(g85
g71
NtRp5325
(dp5326
g74
(dp5327
sg83
g5255
sg76
(lp5328
g69
(g90
g71
NtRp5329
(dp5330
g74
(dp5331
g94
g95
ssg83
g5325
sg76
(lp5332
S'generator'
p5333
asbag69
(g90
g71
NtRp5334
(dp5335
g74
(dp5336
g101
g102
ssg83
g5325
sg76
(lp5337
S':'
asbag69
(g90
g71
NtRp5338
(dp5339
g74
(dp5340
sg83
g5325
sg76
(lp5341
g69
(g70
g71
NtRp5342
(dp5343
g74
(dp5344
g82
I4
ssg83
g5338
sg76
(lp5345
S'Web2py Web Framework'
p5346
asbasbasbag69
(g85
g71
NtRp5347
(dp5348
g74
(dp5349
sg83
g5255
sg76
(lp5350
g69
(g90
g71
NtRp5351
(dp5352
g74
(dp5353
g94
g95
ssg83
g5347
sg76
(lp5354
S'keywords'
p5355
asbag69
(g90
g71
NtRp5356
(dp5357
g74
(dp5358
g101
g102
ssg83
g5347
sg76
(lp5359
S':'
asbag69
(g90
g71
NtRp5360
(dp5361
g74
(dp5362
sg83
g5347
sg76
(lp5363
g69
(g70
g71
NtRp5364
(dp5365
g74
(dp5366
g82
I4
ssg83
g5360
sg76
(lp5367
S'web2py, python, framework'
p5368
asbasbasbasbasbasbasbag69
(g85
g71
NtRp5369
(dp5370
g74
(dp5371
sg83
g4057
sg76
(lp5372
g69
(g90
g71
NtRp5373
(dp5374
g74
(dp5375
g94
g95
ssg83
g5369
sg76
(lp5376
S'postprocessing'
p5377
asbag69
(g90
g71
NtRp5378
(dp5379
g74
(dp5380
g101
g102
ssg83
g5369
sg76
(lp5381
S':'
asbag69
(g90
g71
NtRp5382
(dp5383
g74
(dp5384
sg83
g5369
sg76
(lp5385
g69
(g70
g71
NtRp5386
(dp5387
g74
(dp5388
g82
I5
ssg83
g5382
sg76
(lp5389
g69
(g78
g71
NtRp5390
(dp5391
g74
(dp5392
g82
I4
ssg83
Nsg76
(lp5393
sbasbasbasbag69
(g85
g71
NtRp5394
(dp5395
g74
(dp5396
sg83
g4057
sg76
(lp5397
g69
(g90
g71
NtRp5398
(dp5399
g74
(dp5400
g94
g95
ssg83
g5394
sg76
(lp5401
S'session_file'
p5402
asbag69
(g90
g71
NtRp5403
(dp5404
g74
(dp5405
g101
g102
ssg83
g5394
sg76
(lp5406
S':'
asbag69
(g90
g71
NtRp5407
(dp5408
g74
(dp5409
sg83
g5394
sg76
(lp5410
g69
(g70
g71
NtRp5411
(dp5412
g74
(dp5413
g82
I5
ssg83
g5407
sg76
(lp5414
S"<open file '/home/vishrut/web2py/applications/astra1/sessions/127.0.0.1-6c6943ea-9e10-4b64-9f35-8611eb020dd8', mode 'rb+' at 0xa2c7078>"
p5415
asbasbasbag69
(g85
g71
NtRp5416
(dp5417
g74
(dp5418
sg83
g4057
sg76
(lp5419
g69
(g90
g71
NtRp5420
(dp5421
g74
(dp5422
g94
g95
ssg83
g5416
sg76
(lp5423
S'session_filename'
p5424
asbag69
(g90
g71
NtRp5425
(dp5426
g74
(dp5427
g101
g102
ssg83
g5416
sg76
(lp5428
S':'
asbag69
(g90
g71
NtRp5429
(dp5430
g74
(dp5431
sg83
g5416
sg76
(lp5432
g69
(g70
g71
NtRp5433
(dp5434
g74
(dp5435
g82
I5
ssg83
g5429
sg76
(lp5436
S'/home/vishrut/web2py/applications/astra1/sessions/127.0.0.1-6c6943ea-9e10-4b64-9f35-8611eb020dd8'
p5437
asbasbasbag69
(g85
g71
NtRp5438
(dp5439
g74
(dp5440
sg83
g4057
sg76
(lp5441
g69
(g90
g71
NtRp5442
(dp5443
g74
(dp5444
g94
g95
ssg83
g5438
sg76
(lp5445
S'session_id'
p5446
asbag69
(g90
g71
NtRp5447
(dp5448
g74
(dp5449
g101
g102
ssg83
g5438
sg76
(lp5450
S':'
asbag69
(g90
g71
NtRp5451
(dp5452
g74
(dp5453
sg83
g5438
sg76
(lp5454
g69
(g70
g71
NtRp5455
(dp5456
g74
(dp5457
g82
I5
ssg83
g5451
sg76
(lp5458
S'127.0.0.1-6c6943ea-9e10-4b64-9f35-8611eb020dd8'
p5459
asbasbasbag69
(g85
g71
NtRp5460
(dp5461
g74
(dp5462
sg83
g4057
sg76
(lp5463
g69
(g90
g71
NtRp5464
(dp5465
g74
(dp5466
g94
g95
ssg83
g5460
sg76
(lp5467
S'session_id_name'
p5468
asbag69
(g90
g71
NtRp5469
(dp5470
g74
(dp5471
g101
g102
ssg83
g5460
sg76
(lp5472
S':'
asbag69
(g90
g71
NtRp5473
(dp5474
g74
(dp5475
sg83
g5460
sg76
(lp5476
g69
(g70
g71
NtRp5477
(dp5478
g74
(dp5479
g82
I5
ssg83
g5473
sg76
(lp5480
g4114
asbasbasbag69
(g85
g71
NtRp5481
(dp5482
g74
(dp5483
sg83
g4057
sg76
(lp5484
g69
(g90
g71
NtRp5485
(dp5486
g74
(dp5487
g94
g95
ssg83
g5481
sg76
(lp5488
S'session_locked'
p5489
asbag69
(g90
g71
NtRp5490
(dp5491
g74
(dp5492
g101
g102
ssg83
g5481
sg76
(lp5493
S':'
asbag69
(g90
g71
NtRp5494
(dp5495
g74
(dp5496
sg83
g5481
sg76
(lp5497
g69
(g70
g71
NtRp5498
(dp5499
g74
(dp5500
g82
I5
ssg83
g5494
sg76
(lp5501
g2593
asbasbasbag69
(g85
g71
NtRp5502
(dp5503
g74
(dp5504
sg83
g4057
sg76
(lp5505
g69
(g90
g71
NtRp5506
(dp5507
g74
(dp5508
g94
g95
ssg83
g5502
sg76
(lp5509
S'session_new'
p5510
asbag69
(g90
g71
NtRp5511
(dp5512
g74
(dp5513
g101
g102
ssg83
g5502
sg76
(lp5514
S':'
asbag69
(g90
g71
NtRp5515
(dp5516
g74
(dp5517
sg83
g5502
sg76
(lp5518
g69
(g70
g71
NtRp5519
(dp5520
g74
(dp5521
g82
I5
ssg83
g5515
sg76
(lp5522
g112
asbasbasbag69
(g85
g71
NtRp5523
(dp5524
g74
(dp5525
sg83
g4057
sg76
(lp5526
g69
(g90
g71
NtRp5527
(dp5528
g74
(dp5529
g94
g95
ssg83
g5523
sg76
(lp5530
S'status'
p5531
asbag69
(g90
g71
NtRp5532
(dp5533
g74
(dp5534
g101
g102
ssg83
g5523
sg76
(lp5535
S':'
asbag69
(g90
g71
NtRp5536
(dp5537
g74
(dp5538
sg83
g5523
sg76
(lp5539
g69
(g70
g71
NtRp5540
(dp5541
g74
(dp5542
g82
I5
ssg83
g5536
sg76
(lp5543
S'200'
p5544
asbasbasbag69
(g85
g71
NtRp5545
(dp5546
g74
(dp5547
sg83
g4057
sg76
(lp5548
g69
(g90
g71
NtRp5549
(dp5550
g74
(dp5551
g94
g95
ssg83
g5545
sg76
(lp5552
S'subtitle'
p5553
asbag69
(g90
g71
NtRp5554
(dp5555
g74
(dp5556
g101
g102
ssg83
g5545
sg76
(lp5557
S':'
asbag69
(g90
g71
NtRp5558
(dp5559
g74
(dp5560
sg83
g5545
sg76
(lp5561
g69
(g70
g71
NtRp5562
(dp5563
g74
(dp5564
g82
I5
ssg83
g5558
sg76
(lp5565
g4614
(S's\r\x00\x00\x00customize me!'
tRp5566
asbasbasbag69
(g85
g71
NtRp5567
(dp5568
g74
(dp5569
sg83
g4057
sg76
(lp5570
g69
(g90
g71
NtRp5571
(dp5572
g74
(dp5573
g94
g95
ssg83
g5567
sg76
(lp5574
S'title'
p5575
asbag69
(g90
g71
NtRp5576
(dp5577
g74
(dp5578
g101
g102
ssg83
g5567
sg76
(lp5579
S':'
asbag69
(g90
g71
NtRp5580
(dp5581
g74
(dp5582
sg83
g5567
sg76
(lp5583
g69
(g70
g71
NtRp5584
(dp5585
g74
(dp5586
g82
I5
ssg83
g5580
sg76
(lp5587
S'Astra1'
p5588
asbasbasbag69
(g85
g71
NtRp5589
(dp5590
g74
(dp5591
sg83
g4057
sg76
(lp5592
g69
(g90
g71
NtRp5593
(dp5594
g74
(dp5595
g94
g95
ssg83
g5589
sg76
(lp5596
g3257
asbag69
(g90
g71
NtRp5597
(dp5598
g74
(dp5599
g101
g102
ssg83
g5589
sg76
(lp5600
S':'
asbag69
(g90
g71
NtRp5601
(dp5602
g74
(dp5603
sg83
g5589
sg76
(lp5604
g69
(g70
g71
NtRp5605
(dp5606
g74
(dp5607
g82
I5
ssg83
g5601
sg76
(lp5608
g3270
asbasbasbag69
(g85
g71
NtRp5609
(dp5610
g74
(dp5611
sg83
g4057
sg76
(lp5612
g69
(g90
g71
NtRp5613
(dp5614
g74
(dp5615
g94
g95
ssg83
g5609
sg76
(lp5616
S'view'
p5617
asbag69
(g90
g71
NtRp5618
(dp5619
g74
(dp5620
g101
g102
ssg83
g5609
sg76
(lp5621
S':'
asbag69
(g90
g71
NtRp5622
(dp5623
g74
(dp5624
sg83
g5609
sg76
(lp5625
g69
(g70
g71
NtRp5626
(dp5627
g74
(dp5628
g82
I5
ssg83
g5622
sg76
(lp5629
S'default/show.html'
p5630
asbasbasbasbasbsS'locals'
p5631
(dp5632
g4
S"'/home/vishrut/web2py/applications/astra1/views/default/show.html'"
p5633
sg6
S'r"response.write(\'<!DOCTYPE html>\\n<!-- paulirish....ponse.write(\'\\n</body>\\n</html>\\n\', escape=False)"'
p5634
sssS'traceback'
p5635
S'Traceback (most recent call last):\n  File "/home/vishrut/web2py/gluon/restricted.py", line 204, in restricted\n    ccode = compile2(code,layer)\n  File "/home/vishrut/web2py/gluon/restricted.py", line 189, in compile2\n    return compile(code.rstrip().replace(\'\\r\\n\',\'\\n\')+\'\\n\', layer, \'exec\')\n  File "/home/vishrut/web2py/applications/astra1/views/default/show.html", line 88\n    response.write(URL(\'/static/\'+apple+movie.\'ogg\'))\n                                                  ^\nSyntaxError: invalid syntax\n'
p5636
s.