(dp1
S'output'
p2
S"<type 'exceptions.SyntaxError'> invalid syntax (show.html, line 92)"
p3
sS'layer'
p4
S'/home/vishrut/web2py/applications/astra1/views/default/show.html'
p5
sS'code'
p6
S'response.write(\'<!DOCTYPE html>\\n<!-- paulirish.com/2008/conditional-stylesheets-vs-css-hacks-answer-neither/ -->\\n<!--[if lt IE 7]><html class="ie ie6 ie-lte9 ie-lte8 ie-lte7 no-js" lang="\', escape=False)\nresponse.write(T.accepted_language or \'en\')\nresponse.write(\'"> <![endif]-->\\n<!--[if IE 7]><html class="ie ie7 ie-lte9 ie-lte8 ie-lte7 no-js" lang="\', escape=False)\nresponse.write(T.accepted_language or \'en\')\nresponse.write(\'"> <![endif]-->\\n<!--[if IE 8]><html class="ie ie8 ie-lte9 ie-lte8 no-js" lang="\', escape=False)\nresponse.write(T.accepted_language or \'en\')\nresponse.write(\'"> <![endif]-->\\n<!--[if IE 9]><html class="ie9 ie-lte9 no-js" lang="\', escape=False)\nresponse.write(T.accepted_language or \'en\')\nresponse.write(\'"> <![endif]-->\\n<!--[if (gt IE 9)|!(IE)]><!--> <html class="no-js" lang="\', escape=False)\nresponse.write(T.accepted_language or \'en\')\nresponse.write(\'"> <!--<![endif]-->\\n<head>\\n  <meta charset="utf-8" />\\n  <!-- www.phpied.com/conditional-comments-block-downloads/ -->\\n  <!-- Always force latest IE rendering engine\\n\\t   (even in intranet) & Chrome Frame\\n\\t   Remove this if you use the .htaccess -->\\n  <!--[if IE]>\\n    <meta http-equiv="X-UA-Compatible" content="IE=edge\', escape=False)\nresponse.write(not request.is_local and \',chrome=1\' or \'\')\nresponse.write(\'">\\n  <![endif]-->\\n  \\n  <title>\', escape=False)\nresponse.write(response.title or request.application)\nresponse.write(\'</title>\\n  \\n  <!-- http://dev.w3.org/html5/markup/meta.name.html -->\\n  <meta name="application-name" content="\', escape=False)\nresponse.write(request.application)\nresponse.write(\'" />\\n  \\n  <!-- Speaking of Google, don\\\'t forget to set your site up:\\n\\t   http://google.com/webmasters -->\\n  <meta name="google-site-verification" content="" />\\n\\n  <!--  Mobile Viewport Fix\\n\\t  j.mp/mobileviewport & davidbcalhoun.com/2010/viewport-metatag\\n\\t  device-width: Occupy full width of the screen in its current orientation\\n\\t  initial-scale = 1.0 retains dimensions instead of zooming out if page height > device height\\n\\t  user-scalable = yes allows the user to zoom in -->\\n  <meta name="viewport" content="width=device-width, initial-scale=1.0, user-scalable=yes">\\n  \\n  <!-- Place favicon.ico and apple-touch-icon.png in the root of your domain and delete these references -->\\n  <link rel="shortcut icon" href="\', escape=False)\nresponse.write(URL(\'static\',\'favicon.ico\'))\nresponse.write(\'" type="image/x-icon">\\n  <link rel="apple-touch-icon" href="\', escape=False)\nresponse.write(URL(\'static\',\'favicon.png\'))\nresponse.write(\'">\\n\\n  <!-- All JavaScript at the bottom, except for Modernizr which enables \\n\\t   HTML5 elements & feature detects -->\\n  <script src="\', escape=False)\nresponse.write(URL(\'static\',\'js/modernizr.custom.js\'))\nresponse.write(\'"></script>  \\n\\n  <!-- include stylesheets -->\\n  \', escape=False)\nresponse.files.append(URL(\'static\',\'css/skeleton.css\'))\nresponse.files.append(URL(\'static\',\'css/web2py.css\'))\nif response.menu:\n    response.files.append(URL(\'static\',\'css/superfish.css\'))\n    response.files.append(URL(\'static\',\'js/superfish.js\'))\n    pass\nresponse.write(\'\\n\\n  \', escape=False)\nresponse.write(\'<script type="text/javascript"><!--\\n    // These variables are used by the web2py_ajax_init function in web2py_ajax.js (which is loaded below).\\n    var w2p_ajax_confirm_message = "\', escape=False)\nresponse.write(T(\'Are you sure you want to delete this object?\'))\nresponse.write(\'";\\n    var w2p_ajax_date_format = "\', escape=False)\nresponse.write(T(\'%Y-%m-%d\'))\nresponse.write(\'";\\n    var w2p_ajax_datetime_format = "\', escape=False)\nresponse.write(T(\'%Y-%m-%d %H:%M:%S\'))\nresponse.write(\'";\\n    //--></script>\\n\', escape=False)\nresponse.files.insert(0,URL(\'static\',\'js/jquery.js\'))\nresponse.files.insert(1,URL(\'static\',\'css/calendar.css\'))\nresponse.files.insert(2,URL(\'static\',\'js/calendar.js\'))\nresponse.files.insert(3,URL(\'static\',\'js/web2py.js\'))\nresponse.include_meta()\nresponse.include_files()\nresponse.write(\'\\n\', escape=False)\nresponse.write(\'\\n\\n  \', escape=False)\nif response.menu:\n    response.write(\'\\n  <script type="text/javascript">\\n    jQuery(function(){ jQuery(\\\'ul.sf-menu\\\').supersubs({minWidth:12,maxWidth:30,extraWidth:3}).superfish(); });\\n  </script>\\n  \', escape=False)\n    pass\nresponse.write(\'\\n\\n  \', escape=False)\n# using sidebars need to know what sidebar you want to use\nleft_sidebar_enabled = globals().get(\'left_sidebar_enabled\',False)\nright_sidebar_enabled = globals().get(\'right_sidebar_enabled\',False)\nmiddle_columns = {0:\'sixteen\',1:\'twelve\',2:\'eight\'}[\n(left_sidebar_enabled and 1 or 0)+(right_sidebar_enabled and 1 or 0)]\nresponse.write(\'\\n\\n  <!-- uncomment here to load jquery-ui\\n  <link rel="stylesheet" href="http://ajax.googleapis.com/ajax/libs/jqueryui/1.8.16/themes/base/jquery-ui.css" type="text/css" media="all" />\\n  <script src="http://ajax.googleapis.com/ajax/libs/jqueryui/1.8.16/jquery-ui.min.js" type="text/javascript"></script>\\n  uncomment to load jquery-ui //-->\\n</head>\\n<body>\\n  <div class="wrapper"><!-- for sticky footer -->\\n  \\n    <div class="topbar">\\n      <div class="container">    \\n        <div class="sixteen columns">\\n          <div id="navbar">\', escape=False)\nresponse.write(\'auth\' in globals() and auth.navbar(separators=(\' \',\' | \',\'\')))\nresponse.write(\'</div>\\n          \', escape=False)\nis_mobile=request.user_agent().is_mobile\nresponse.write(\'\\n\\t  \', escape=False)\nif response.menu:\n    response.write(\'\\n          <div id="menu">\\n             \', escape=False)\n    response.write(MENU(response.menu, _class=\'mobile-menu\' if is_mobile else \'sf-menu\',mobile=is_mobile))\n    response.write(\'\\n          </div>\\n          \', escape=False)\n    pass\nresponse.write(\'\\n        </div>\\n      </div>\\n    </div><!-- topbar -->\\n    \\n    <div class="flash">\', escape=False)\nresponse.write(response.flash or \'\')\nresponse.write(\'</div>\\n    \\n    <div class="header">\\n      <div class="container">         \\n        <div class="sixteen columns">\\n          <h1 class="remove-bottom" style="margin-top: .5em;">\\n          \', escape=False)\nresponse.write(response.title or request.application)\nresponse.write(\'\\n          </h1>\\n          <h5>\', escape=False)\nresponse.write(response.subtitle or \'\')\nresponse.write(\'</h5>\\n        </div>\\n        <div class="sixteen columns">\\n          <div class="statusbar clearfix">\\n            \', escape=False)\nresponse.write(\'\\n            <div class="breadcrumbs">\', escape=False)\nresponse.write(request.function.replace(\'_\', \' \').title())\nresponse.write(\'</div>\\n            \', escape=False)\nresponse.write(\'\\n            <!-- AddToAny BEGIN -->\\n            <div style="float:right; padding-top: .25em;" class="a2a_kit a2a_default_style">\\n            <a class="a2a_dd" href="http://www.addtoany.com/share_save">Share</a></div>\\n            <script type="text/javascript" src="http://static.addtoany.com/menu/page.js"></script>\\n            <!-- AddToAny END -->\\n          </div>\\n        </div>\\n      </div>\\n    </div>\\n\\n    <div class="main">\\n      <div class="container">                 \\n        \', escape=False)\nif left_sidebar_enabled:\n    response.write(\'\\n        <div class="four columns left-sidebar">\\n          \', escape=False)\n    response.write(\'\\n          <h3>Left Sidebar</h3>\\n          <p></p>\\n          \', escape=False)\n    response.write(\'\\n        </div>\\n        \', escape=False)\n    pass\nresponse.write(\'\\n        \\n        <div class="\', escape=False)\nresponse.write(middle_columns)\nresponse.write(\' columns center">\\n          \', escape=False)\nresponse.write(\'\\n          \', escape=False)\nresponse.write(\'\\n<h1>This is the default/show.html template</h1>\\n\', escape=False)\nxxx=db(db.kids.username==session.username).select().first().rno\nresponse.write(\'\\n\', escape=False)\nif xxx==None:\n    response.write(\'\\n<img src="/astra1/static/hh.jpeg" width="320" height="240"> </img>\\n\', escape=False)\n    pass\nresponse.write(\'\\n\', escape=False)\nelse:\n    response.write(\'\\n<video width="320" height="240" controls="controls">  \\n        <source src="\', escape=False)\n    response.write(URL(\'static\', xxx+\'.ogv\'))\n    response.write(\'" type="video/ogg">\\n</video>\\n\', escape=False)\n    pass\nresponse.write(\'\\n\\n\', escape=False)\nfor row in db(db.rooms.active==True).select(orderby=db.rooms.rnum):\n    response.write(\'\\n<p><a href=\', escape=False)\n    response.write(URL(\'enter\', args=row.rnum))\n    response.write(\'>\', escape=False)\n    response.write(row.rnum)\n    response.write(\'</a></p>\\n\', escape=False)\n    pass\nresponse.write(\'\\n\\n<button type="button" onclick="document.location=\\\'\', escape=False)\nresponse.write(URL("logout"))\nresponse.write(\'\\\'">Logout</button>\\n\', escape=False)\npass\nresponse.write(\'\\n\', escape=False)\npass\nresponse.write(\'\\n\', escape=False)\nresponse.write(BEAUTIFY(response._vars))\nresponse.write(\'\\n\', escape=False)\nresponse.write(\'\\n          \', escape=False)\nresponse.write(\'\\n        </div>\\n        \\n        \', escape=False)\nif right_sidebar_enabled:\n    response.write(\'\\n        <div class="four columns">\\n          \', escape=False)\n    response.write(\'\\n          <h3>Right Sidebar</h3>\\n          <p></p>\\n          \', escape=False)\n    response.write(\'\\n        </div>    \\n        \', escape=False)\n    pass\nresponse.write(\'\\n        \\n      </div><!-- container -->\\n    </div><!-- main -->\\n    \\n    <div class="push"></div>\\n  </div><!-- wrapper -->\\n\\n  <div class="footer">\\n    <div class="container">    \\n      <div class="sixteen columns">\\n        \', escape=False)\nresponse.write(\' <!-- this is default footer -->\\n        <div class="footer-content clearfix">\\n          <div class="copyright">\', escape=False)\nresponse.write(T(\'Copyright\'))\nresponse.write(\' &#169; 2011</div>\\n          <div style="float: right;">\\n            <a href="http://www.web2py.com/">\\n            <img style="padding-bottom: 0;" src="\', escape=False)\nresponse.write(URL(\'static\',\'images/poweredby.png\'))\nresponse.write(\'"/>\\n            </a>\\n          </div>\\n        </div>\\n        \', escape=False)\nresponse.write(\'\\t\\n      </div>\\n    </div><!-- container -->\\n  </div><!-- footer -->\\n  \\n  <!--[if lt IE 7 ]>\\n\\t<script src="\', escape=False)\nresponse.write(URL(\'static\',\'js/dd_belatedpng.js\'))\nresponse.write(\'"></script>\\n\\t<script> DD_belatedPNG.fix(\\\'img, .png_bg\\\'); //fix any <img> or .png_bg background-images </script>\\n\\t<![endif]-->\\n  \', escape=False)\nif response.google_analytics_id:\n    response.write(\'<script type="text/javascript"> var _gaq = _gaq || []; _gaq.push([\\\'_setAccount\\\', \\\'\', escape=False)\n    response.write(response.google_analytics_id)\n    response.write("\']); _gaq.push([\'_trackPageview\']); (function() { var ga = document.createElement(\'script\'); ga.type = \'text/javascript\'; ga.async = true; ga.src = (\'https:\' == document.location.protocol ? \'https://ssl\' : \'http://www\') + \'.google-analytics.com/ga.js\'; var s = document.getElementsByTagName(\'script\')[0]; s.parentNode.insertBefore(ga, s); })(); </script> ", escape=False)\n    pass\nresponse.write(\'\\n</body>\\n</html>\\n\', escape=False)'
p7
sS'snapshot'
p8
(dp9
S'exception'
p10
(dp11
S'__getslice__'
p12
S"<method-wrapper '__getslice__' of exceptions.SyntaxError object>"
p13
sS'text'
p14
S"'else:\\n'"
p15
sS'__str__'
p16
S"<method-wrapper '__str__' of exceptions.SyntaxError object>"
p17
sS'__reduce__'
p18
S'<built-in method __reduce__ of exceptions.SyntaxError object>'
p19
sS'__dict__'
p20
S'{}'
p21
sS'__sizeof__'
p22
S'<built-in method __sizeof__ of exceptions.SyntaxError object>'
p23
sS'__init__'
p24
S"<method-wrapper '__init__' of exceptions.SyntaxError object>"
p25
sS'__setattr__'
p26
S"<method-wrapper '__setattr__' of exceptions.SyntaxError object>"
p27
sS'__reduce_ex__'
p28
S'<built-in method __reduce_ex__ of exceptions.SyntaxError object>'
p29
sS'__new__'
p30
S'<built-in method __new__ of type object>'
p31
sS'__format__'
p32
S'<built-in method __format__ of exceptions.SyntaxError object>'
p33
sS'__class__'
p34
S"<type 'exceptions.SyntaxError'>"
p35
sS'filename'
p36
S"'/home/vishrut/web2py/applications/astra1/views/default/show.html'"
p37
sS'lineno'
p38
S'92'
p39
sS'msg'
p40
S"'invalid syntax'"
p41
sS'__doc__'
p42
S"'Invalid syntax.'"
p43
sS'__getitem__'
p44
S"<method-wrapper '__getitem__' of exceptions.SyntaxError object>"
p45
sS'__setstate__'
p46
S'<built-in method __setstate__ of exceptions.SyntaxError object>'
p47
sS'__getattribute__'
p48
S"<method-wrapper '__getattribute__' of exceptions.SyntaxError object>"
p49
sS'print_file_and_line'
p50
S'None'
p51
sS'args'
p52
S"('invalid syntax', ('/home/vishrut/web2py/applications/astra1/views/default/show.html', 92, 4, 'else:\\n'))"
p53
sS'__subclasshook__'
p54
S'<built-in method __subclasshook__ of type object>'
p55
sS'offset'
p56
S'4'
sS'__unicode__'
p57
S'<built-in method __unicode__ of exceptions.SyntaxError object>'
p58
sS'__delattr__'
p59
S"<method-wrapper '__delattr__' of exceptions.SyntaxError object>"
p60
sS'__repr__'
p61
S"<method-wrapper '__repr__' of exceptions.SyntaxError object>"
p62
sS'__hash__'
p63
S"<method-wrapper '__hash__' of exceptions.SyntaxError object>"
p64
ssS'evalue'
p65
S'invalid syntax (show.html, line 92)'
p66
sS'request'
p67
ccopy_reg
_reconstructor
p68
(cgluon.html
BEAUTIFY
p69
c__builtin__
object
p70
NtRp71
(dp72
S'attributes'
p73
(dp74
sS'components'
p75
(lp76
g68
(cgluon.html
TABLE
p77
g70
NtRp78
(dp79
g73
(dp80
S'level'
p81
I5
ssS'parent'
p82
Nsg75
(lp83
g68
(cgluon.html
TR
p84
g70
NtRp85
(dp86
g73
(dp87
sg82
g78
sg75
(lp88
g68
(cgluon.html
TD
p89
g70
NtRp90
(dp91
g73
(dp92
S'_style'
p93
S'font-weight:bold;vertical-align:top'
p94
ssg82
g85
sg75
(lp95
S'ajax'
p96
asbag68
(g89
g70
NtRp97
(dp98
g73
(dp99
S'_valign'
p100
S'top'
p101
ssg82
g85
sg75
(lp102
S':'
asbag68
(g89
g70
NtRp103
(dp104
g73
(dp105
sg82
g85
sg75
(lp106
g68
(g69
g70
NtRp107
(dp108
g73
(dp109
g81
I5
ssg82
g103
sg75
(lp110
S'False'
p111
asbasbasbag68
(g84
g70
NtRp112
(dp113
g73
(dp114
sg82
g78
sg75
(lp115
g68
(g89
g70
NtRp116
(dp117
g73
(dp118
g93
g94
ssg82
g112
sg75
(lp119
S'application'
p120
asbag68
(g89
g70
NtRp121
(dp122
g73
(dp123
g100
g101
ssg82
g112
sg75
(lp124
S':'
asbag68
(g89
g70
NtRp125
(dp126
g73
(dp127
sg82
g112
sg75
(lp128
g68
(g69
g70
NtRp129
(dp130
g73
(dp131
g81
I5
ssg82
g125
sg75
(lp132
S'astra1'
p133
asbasbasbag68
(g84
g70
NtRp134
(dp135
g73
(dp136
sg82
g78
sg75
(lp137
g68
(g89
g70
NtRp138
(dp139
g73
(dp140
g93
g94
ssg82
g134
sg75
(lp141
g52
asbag68
(g89
g70
NtRp142
(dp143
g73
(dp144
g100
g101
ssg82
g134
sg75
(lp145
S':'
asbag68
(g89
g70
NtRp146
(dp147
g73
(dp148
sg82
g134
sg75
(lp149
g68
(g69
g70
NtRp150
(dp151
g73
(dp152
g81
I5
ssg82
g146
sg75
(lp153
g68
(g77
g70
NtRp154
(dp155
g73
(dp156
g81
I4
ssg82
Nsg75
(lp157
sbasbasbasbag68
(g84
g70
NtRp158
(dp159
g73
(dp160
sg82
g78
sg75
(lp161
g68
(g89
g70
NtRp162
(dp163
g73
(dp164
g93
g94
ssg82
g158
sg75
(lp165
S'body'
p166
asbag68
(g89
g70
NtRp167
(dp168
g73
(dp169
g100
g101
ssg82
g158
sg75
(lp170
S':'
asbag68
(g89
g70
NtRp171
(dp172
g73
(dp173
sg82
g158
sg75
(lp174
g68
(g69
g70
NtRp175
(dp176
g73
(dp177
g81
I5
ssg82
g171
sg75
(lp178
S'<cStringIO.StringO object at 0xa532aa0>'
p179
asbasbasbag68
(g84
g70
NtRp180
(dp181
g73
(dp182
sg82
g78
sg75
(lp183
g68
(g89
g70
NtRp184
(dp185
g73
(dp186
g93
g94
ssg82
g180
sg75
(lp187
S'client'
p188
asbag68
(g89
g70
NtRp189
(dp190
g73
(dp191
g100
g101
ssg82
g180
sg75
(lp192
S':'
asbag68
(g89
g70
NtRp193
(dp194
g73
(dp195
sg82
g180
sg75
(lp196
g68
(g69
g70
NtRp197
(dp198
g73
(dp199
g81
I5
ssg82
g193
sg75
(lp200
S'127.0.0.1'
p201
asbasbasbag68
(g84
g70
NtRp202
(dp203
g73
(dp204
sg82
g78
sg75
(lp205
g68
(g89
g70
NtRp206
(dp207
g73
(dp208
g93
g94
ssg82
g202
sg75
(lp209
S'controller'
p210
asbag68
(g89
g70
NtRp211
(dp212
g73
(dp213
g100
g101
ssg82
g202
sg75
(lp214
S':'
asbag68
(g89
g70
NtRp215
(dp216
g73
(dp217
sg82
g202
sg75
(lp218
g68
(g69
g70
NtRp219
(dp220
g73
(dp221
g81
I5
ssg82
g215
sg75
(lp222
S'default'
p223
asbasbasbag68
(g84
g70
NtRp224
(dp225
g73
(dp226
sg82
g78
sg75
(lp227
g68
(g89
g70
NtRp228
(dp229
g73
(dp230
g93
g94
ssg82
g224
sg75
(lp231
S'cookies'
p232
asbag68
(g89
g70
NtRp233
(dp234
g73
(dp235
g100
g101
ssg82
g224
sg75
(lp236
S':'
asbag68
(g89
g70
NtRp237
(dp238
g73
(dp239
sg82
g224
sg75
(lp240
g68
(g69
g70
NtRp241
(dp242
g73
(dp243
g81
I5
ssg82
g237
sg75
(lp244
g68
(g77
g70
NtRp245
(dp246
g73
(dp247
g81
I4
ssg82
Nsg75
(lp248
g68
(g84
g70
NtRp249
(dp250
g73
(dp251
sg82
g245
sg75
(lp252
g68
(g89
g70
NtRp253
(dp254
g73
(dp255
g93
g94
ssg82
g249
sg75
(lp256
S'session_id_admin'
p257
asbag68
(g89
g70
NtRp258
(dp259
g73
(dp260
g100
g101
ssg82
g249
sg75
(lp261
S':'
asbag68
(g89
g70
NtRp262
(dp263
g73
(dp264
sg82
g249
sg75
(lp265
g68
(g69
g70
NtRp266
(dp267
g73
(dp268
g81
I4
ssg82
g262
sg75
(lp269
g68
(g77
g70
NtRp270
(dp271
g73
(dp272
g81
I3
ssg82
Nsg75
(lp273
g68
(g84
g70
NtRp274
(dp275
g73
(dp276
sg82
g270
sg75
(lp277
g68
(g89
g70
NtRp278
(dp279
g73
(dp280
g93
g94
ssg82
g274
sg75
(lp281
S'comment'
p282
asbag68
(g89
g70
NtRp283
(dp284
g73
(dp285
g100
g101
ssg82
g274
sg75
(lp286
S':'
asbag68
(g89
g70
NtRp287
(dp288
g73
(dp289
sg82
g274
sg75
(lp290
g68
(g69
g70
NtRp291
(dp292
g73
(dp293
g81
I3
ssg82
g287
sg75
(lp294
S''
asbasbasbag68
(g84
g70
NtRp295
(dp296
g73
(dp297
sg82
g270
sg75
(lp298
g68
(g89
g70
NtRp299
(dp300
g73
(dp301
g93
g94
ssg82
g295
sg75
(lp302
S'domain'
p303
asbag68
(g89
g70
NtRp304
(dp305
g73
(dp306
g100
g101
ssg82
g295
sg75
(lp307
S':'
asbag68
(g89
g70
NtRp308
(dp309
g73
(dp310
sg82
g295
sg75
(lp311
g68
(g69
g70
NtRp312
(dp313
g73
(dp314
g81
I3
ssg82
g308
sg75
(lp315
S''
asbasbasbag68
(g84
g70
NtRp316
(dp317
g73
(dp318
sg82
g270
sg75
(lp319
g68
(g89
g70
NtRp320
(dp321
g73
(dp322
g93
g94
ssg82
g316
sg75
(lp323
S'expires'
p324
asbag68
(g89
g70
NtRp325
(dp326
g73
(dp327
g100
g101
ssg82
g316
sg75
(lp328
S':'
asbag68
(g89
g70
NtRp329
(dp330
g73
(dp331
sg82
g316
sg75
(lp332
g68
(g69
g70
NtRp333
(dp334
g73
(dp335
g81
I3
ssg82
g329
sg75
(lp336
S''
asbasbasbag68
(g84
g70
NtRp337
(dp338
g73
(dp339
sg82
g270
sg75
(lp340
g68
(g89
g70
NtRp341
(dp342
g73
(dp343
g93
g94
ssg82
g337
sg75
(lp344
S'httponly'
p345
asbag68
(g89
g70
NtRp346
(dp347
g73
(dp348
g100
g101
ssg82
g337
sg75
(lp349
S':'
asbag68
(g89
g70
NtRp350
(dp351
g73
(dp352
sg82
g337
sg75
(lp353
g68
(g69
g70
NtRp354
(dp355
g73
(dp356
g81
I3
ssg82
g350
sg75
(lp357
S''
asbasbasbag68
(g84
g70
NtRp358
(dp359
g73
(dp360
sg82
g270
sg75
(lp361
g68
(g89
g70
NtRp362
(dp363
g73
(dp364
g93
g94
ssg82
g358
sg75
(lp365
S'max-age'
p366
asbag68
(g89
g70
NtRp367
(dp368
g73
(dp369
g100
g101
ssg82
g358
sg75
(lp370
S':'
asbag68
(g89
g70
NtRp371
(dp372
g73
(dp373
sg82
g358
sg75
(lp374
g68
(g69
g70
NtRp375
(dp376
g73
(dp377
g81
I3
ssg82
g371
sg75
(lp378
S''
asbasbasbag68
(g84
g70
NtRp379
(dp380
g73
(dp381
sg82
g270
sg75
(lp382
g68
(g89
g70
NtRp383
(dp384
g73
(dp385
g93
g94
ssg82
g379
sg75
(lp386
S'path'
p387
asbag68
(g89
g70
NtRp388
(dp389
g73
(dp390
g100
g101
ssg82
g379
sg75
(lp391
S':'
asbag68
(g89
g70
NtRp392
(dp393
g73
(dp394
sg82
g379
sg75
(lp395
g68
(g69
g70
NtRp396
(dp397
g73
(dp398
g81
I3
ssg82
g392
sg75
(lp399
S''
asbasbasbag68
(g84
g70
NtRp400
(dp401
g73
(dp402
sg82
g270
sg75
(lp403
g68
(g89
g70
NtRp404
(dp405
g73
(dp406
g93
g94
ssg82
g400
sg75
(lp407
S'secure'
p408
asbag68
(g89
g70
NtRp409
(dp410
g73
(dp411
g100
g101
ssg82
g400
sg75
(lp412
S':'
asbag68
(g89
g70
NtRp413
(dp414
g73
(dp415
sg82
g400
sg75
(lp416
g68
(g69
g70
NtRp417
(dp418
g73
(dp419
g81
I3
ssg82
g413
sg75
(lp420
S''
asbasbasbag68
(g84
g70
NtRp421
(dp422
g73
(dp423
sg82
g270
sg75
(lp424
g68
(g89
g70
NtRp425
(dp426
g73
(dp427
g93
g94
ssg82
g421
sg75
(lp428
S'version'
p429
asbag68
(g89
g70
NtRp430
(dp431
g73
(dp432
g100
g101
ssg82
g421
sg75
(lp433
S':'
asbag68
(g89
g70
NtRp434
(dp435
g73
(dp436
sg82
g421
sg75
(lp437
g68
(g69
g70
NtRp438
(dp439
g73
(dp440
g81
I3
ssg82
g434
sg75
(lp441
S''
asbasbasbasbasbasbasbag68
(g84
g70
NtRp442
(dp443
g73
(dp444
sg82
g245
sg75
(lp445
g68
(g89
g70
NtRp446
(dp447
g73
(dp448
g93
g94
ssg82
g442
sg75
(lp449
S'session_id_astra1'
p450
asbag68
(g89
g70
NtRp451
(dp452
g73
(dp453
g100
g101
ssg82
g442
sg75
(lp454
S':'
asbag68
(g89
g70
NtRp455
(dp456
g73
(dp457
sg82
g442
sg75
(lp458
g68
(g69
g70
NtRp459
(dp460
g73
(dp461
g81
I4
ssg82
g455
sg75
(lp462
g68
(g77
g70
NtRp463
(dp464
g73
(dp465
g81
I3
ssg82
Nsg75
(lp466
g68
(g84
g70
NtRp467
(dp468
g73
(dp469
sg82
g463
sg75
(lp470
g68
(g89
g70
NtRp471
(dp472
g73
(dp473
g93
g94
ssg82
g467
sg75
(lp474
g282
asbag68
(g89
g70
NtRp475
(dp476
g73
(dp477
g100
g101
ssg82
g467
sg75
(lp478
S':'
asbag68
(g89
g70
NtRp479
(dp480
g73
(dp481
sg82
g467
sg75
(lp482
g68
(g69
g70
NtRp483
(dp484
g73
(dp485
g81
I3
ssg82
g479
sg75
(lp486
S''
asbasbasbag68
(g84
g70
NtRp487
(dp488
g73
(dp489
sg82
g463
sg75
(lp490
g68
(g89
g70
NtRp491
(dp492
g73
(dp493
g93
g94
ssg82
g487
sg75
(lp494
g303
asbag68
(g89
g70
NtRp495
(dp496
g73
(dp497
g100
g101
ssg82
g487
sg75
(lp498
S':'
asbag68
(g89
g70
NtRp499
(dp500
g73
(dp501
sg82
g487
sg75
(lp502
g68
(g69
g70
NtRp503
(dp504
g73
(dp505
g81
I3
ssg82
g499
sg75
(lp506
S''
asbasbasbag68
(g84
g70
NtRp507
(dp508
g73
(dp509
sg82
g463
sg75
(lp510
g68
(g89
g70
NtRp511
(dp512
g73
(dp513
g93
g94
ssg82
g507
sg75
(lp514
g324
asbag68
(g89
g70
NtRp515
(dp516
g73
(dp517
g100
g101
ssg82
g507
sg75
(lp518
S':'
asbag68
(g89
g70
NtRp519
(dp520
g73
(dp521
sg82
g507
sg75
(lp522
g68
(g69
g70
NtRp523
(dp524
g73
(dp525
g81
I3
ssg82
g519
sg75
(lp526
S''
asbasbasbag68
(g84
g70
NtRp527
(dp528
g73
(dp529
sg82
g463
sg75
(lp530
g68
(g89
g70
NtRp531
(dp532
g73
(dp533
g93
g94
ssg82
g527
sg75
(lp534
g345
asbag68
(g89
g70
NtRp535
(dp536
g73
(dp537
g100
g101
ssg82
g527
sg75
(lp538
S':'
asbag68
(g89
g70
NtRp539
(dp540
g73
(dp541
sg82
g527
sg75
(lp542
g68
(g69
g70
NtRp543
(dp544
g73
(dp545
g81
I3
ssg82
g539
sg75
(lp546
S''
asbasbasbag68
(g84
g70
NtRp547
(dp548
g73
(dp549
sg82
g463
sg75
(lp550
g68
(g89
g70
NtRp551
(dp552
g73
(dp553
g93
g94
ssg82
g547
sg75
(lp554
g366
asbag68
(g89
g70
NtRp555
(dp556
g73
(dp557
g100
g101
ssg82
g547
sg75
(lp558
S':'
asbag68
(g89
g70
NtRp559
(dp560
g73
(dp561
sg82
g547
sg75
(lp562
g68
(g69
g70
NtRp563
(dp564
g73
(dp565
g81
I3
ssg82
g559
sg75
(lp566
S''
asbasbasbag68
(g84
g70
NtRp567
(dp568
g73
(dp569
sg82
g463
sg75
(lp570
g68
(g89
g70
NtRp571
(dp572
g73
(dp573
g93
g94
ssg82
g567
sg75
(lp574
g387
asbag68
(g89
g70
NtRp575
(dp576
g73
(dp577
g100
g101
ssg82
g567
sg75
(lp578
S':'
asbag68
(g89
g70
NtRp579
(dp580
g73
(dp581
sg82
g567
sg75
(lp582
g68
(g69
g70
NtRp583
(dp584
g73
(dp585
g81
I3
ssg82
g579
sg75
(lp586
S''
asbasbasbag68
(g84
g70
NtRp587
(dp588
g73
(dp589
sg82
g463
sg75
(lp590
g68
(g89
g70
NtRp591
(dp592
g73
(dp593
g93
g94
ssg82
g587
sg75
(lp594
g408
asbag68
(g89
g70
NtRp595
(dp596
g73
(dp597
g100
g101
ssg82
g587
sg75
(lp598
S':'
asbag68
(g89
g70
NtRp599
(dp600
g73
(dp601
sg82
g587
sg75
(lp602
g68
(g69
g70
NtRp603
(dp604
g73
(dp605
g81
I3
ssg82
g599
sg75
(lp606
S''
asbasbasbag68
(g84
g70
NtRp607
(dp608
g73
(dp609
sg82
g463
sg75
(lp610
g68
(g89
g70
NtRp611
(dp612
g73
(dp613
g93
g94
ssg82
g607
sg75
(lp614
g429
asbag68
(g89
g70
NtRp615
(dp616
g73
(dp617
g100
g101
ssg82
g607
sg75
(lp618
S':'
asbag68
(g89
g70
NtRp619
(dp620
g73
(dp621
sg82
g607
sg75
(lp622
g68
(g69
g70
NtRp623
(dp624
g73
(dp625
g81
I3
ssg82
g619
sg75
(lp626
S''
asbasbasbasbasbasbasbag68
(g84
g70
NtRp627
(dp628
g73
(dp629
sg82
g245
sg75
(lp630
g68
(g89
g70
NtRp631
(dp632
g73
(dp633
g93
g94
ssg82
g627
sg75
(lp634
S'session_id_music'
p635
asbag68
(g89
g70
NtRp636
(dp637
g73
(dp638
g100
g101
ssg82
g627
sg75
(lp639
S':'
asbag68
(g89
g70
NtRp640
(dp641
g73
(dp642
sg82
g627
sg75
(lp643
g68
(g69
g70
NtRp644
(dp645
g73
(dp646
g81
I4
ssg82
g640
sg75
(lp647
g68
(g77
g70
NtRp648
(dp649
g73
(dp650
g81
I3
ssg82
Nsg75
(lp651
g68
(g84
g70
NtRp652
(dp653
g73
(dp654
sg82
g648
sg75
(lp655
g68
(g89
g70
NtRp656
(dp657
g73
(dp658
g93
g94
ssg82
g652
sg75
(lp659
g282
asbag68
(g89
g70
NtRp660
(dp661
g73
(dp662
g100
g101
ssg82
g652
sg75
(lp663
S':'
asbag68
(g89
g70
NtRp664
(dp665
g73
(dp666
sg82
g652
sg75
(lp667
g68
(g69
g70
NtRp668
(dp669
g73
(dp670
g81
I3
ssg82
g664
sg75
(lp671
S''
asbasbasbag68
(g84
g70
NtRp672
(dp673
g73
(dp674
sg82
g648
sg75
(lp675
g68
(g89
g70
NtRp676
(dp677
g73
(dp678
g93
g94
ssg82
g672
sg75
(lp679
g303
asbag68
(g89
g70
NtRp680
(dp681
g73
(dp682
g100
g101
ssg82
g672
sg75
(lp683
S':'
asbag68
(g89
g70
NtRp684
(dp685
g73
(dp686
sg82
g672
sg75
(lp687
g68
(g69
g70
NtRp688
(dp689
g73
(dp690
g81
I3
ssg82
g684
sg75
(lp691
S''
asbasbasbag68
(g84
g70
NtRp692
(dp693
g73
(dp694
sg82
g648
sg75
(lp695
g68
(g89
g70
NtRp696
(dp697
g73
(dp698
g93
g94
ssg82
g692
sg75
(lp699
g324
asbag68
(g89
g70
NtRp700
(dp701
g73
(dp702
g100
g101
ssg82
g692
sg75
(lp703
S':'
asbag68
(g89
g70
NtRp704
(dp705
g73
(dp706
sg82
g692
sg75
(lp707
g68
(g69
g70
NtRp708
(dp709
g73
(dp710
g81
I3
ssg82
g704
sg75
(lp711
S''
asbasbasbag68
(g84
g70
NtRp712
(dp713
g73
(dp714
sg82
g648
sg75
(lp715
g68
(g89
g70
NtRp716
(dp717
g73
(dp718
g93
g94
ssg82
g712
sg75
(lp719
g345
asbag68
(g89
g70
NtRp720
(dp721
g73
(dp722
g100
g101
ssg82
g712
sg75
(lp723
S':'
asbag68
(g89
g70
NtRp724
(dp725
g73
(dp726
sg82
g712
sg75
(lp727
g68
(g69
g70
NtRp728
(dp729
g73
(dp730
g81
I3
ssg82
g724
sg75
(lp731
S''
asbasbasbag68
(g84
g70
NtRp732
(dp733
g73
(dp734
sg82
g648
sg75
(lp735
g68
(g89
g70
NtRp736
(dp737
g73
(dp738
g93
g94
ssg82
g732
sg75
(lp739
g366
asbag68
(g89
g70
NtRp740
(dp741
g73
(dp742
g100
g101
ssg82
g732
sg75
(lp743
S':'
asbag68
(g89
g70
NtRp744
(dp745
g73
(dp746
sg82
g732
sg75
(lp747
g68
(g69
g70
NtRp748
(dp749
g73
(dp750
g81
I3
ssg82
g744
sg75
(lp751
S''
asbasbasbag68
(g84
g70
NtRp752
(dp753
g73
(dp754
sg82
g648
sg75
(lp755
g68
(g89
g70
NtRp756
(dp757
g73
(dp758
g93
g94
ssg82
g752
sg75
(lp759
g387
asbag68
(g89
g70
NtRp760
(dp761
g73
(dp762
g100
g101
ssg82
g752
sg75
(lp763
S':'
asbag68
(g89
g70
NtRp764
(dp765
g73
(dp766
sg82
g752
sg75
(lp767
g68
(g69
g70
NtRp768
(dp769
g73
(dp770
g81
I3
ssg82
g764
sg75
(lp771
S''
asbasbasbag68
(g84
g70
NtRp772
(dp773
g73
(dp774
sg82
g648
sg75
(lp775
g68
(g89
g70
NtRp776
(dp777
g73
(dp778
g93
g94
ssg82
g772
sg75
(lp779
g408
asbag68
(g89
g70
NtRp780
(dp781
g73
(dp782
g100
g101
ssg82
g772
sg75
(lp783
S':'
asbag68
(g89
g70
NtRp784
(dp785
g73
(dp786
sg82
g772
sg75
(lp787
g68
(g69
g70
NtRp788
(dp789
g73
(dp790
g81
I3
ssg82
g784
sg75
(lp791
S''
asbasbasbag68
(g84
g70
NtRp792
(dp793
g73
(dp794
sg82
g648
sg75
(lp795
g68
(g89
g70
NtRp796
(dp797
g73
(dp798
g93
g94
ssg82
g792
sg75
(lp799
g429
asbag68
(g89
g70
NtRp800
(dp801
g73
(dp802
g100
g101
ssg82
g792
sg75
(lp803
S':'
asbag68
(g89
g70
NtRp804
(dp805
g73
(dp806
sg82
g792
sg75
(lp807
g68
(g69
g70
NtRp808
(dp809
g73
(dp810
g81
I3
ssg82
g804
sg75
(lp811
S''
asbasbasbasbasbasbasbag68
(g84
g70
NtRp812
(dp813
g73
(dp814
sg82
g245
sg75
(lp815
g68
(g89
g70
NtRp816
(dp817
g73
(dp818
g93
g94
ssg82
g812
sg75
(lp819
S'session_id_music_library'
p820
asbag68
(g89
g70
NtRp821
(dp822
g73
(dp823
g100
g101
ssg82
g812
sg75
(lp824
S':'
asbag68
(g89
g70
NtRp825
(dp826
g73
(dp827
sg82
g812
sg75
(lp828
g68
(g69
g70
NtRp829
(dp830
g73
(dp831
g81
I4
ssg82
g825
sg75
(lp832
g68
(g77
g70
NtRp833
(dp834
g73
(dp835
g81
I3
ssg82
Nsg75
(lp836
g68
(g84
g70
NtRp837
(dp838
g73
(dp839
sg82
g833
sg75
(lp840
g68
(g89
g70
NtRp841
(dp842
g73
(dp843
g93
g94
ssg82
g837
sg75
(lp844
g282
asbag68
(g89
g70
NtRp845
(dp846
g73
(dp847
g100
g101
ssg82
g837
sg75
(lp848
S':'
asbag68
(g89
g70
NtRp849
(dp850
g73
(dp851
sg82
g837
sg75
(lp852
g68
(g69
g70
NtRp853
(dp854
g73
(dp855
g81
I3
ssg82
g849
sg75
(lp856
S''
asbasbasbag68
(g84
g70
NtRp857
(dp858
g73
(dp859
sg82
g833
sg75
(lp860
g68
(g89
g70
NtRp861
(dp862
g73
(dp863
g93
g94
ssg82
g857
sg75
(lp864
g303
asbag68
(g89
g70
NtRp865
(dp866
g73
(dp867
g100
g101
ssg82
g857
sg75
(lp868
S':'
asbag68
(g89
g70
NtRp869
(dp870
g73
(dp871
sg82
g857
sg75
(lp872
g68
(g69
g70
NtRp873
(dp874
g73
(dp875
g81
I3
ssg82
g869
sg75
(lp876
S''
asbasbasbag68
(g84
g70
NtRp877
(dp878
g73
(dp879
sg82
g833
sg75
(lp880
g68
(g89
g70
NtRp881
(dp882
g73
(dp883
g93
g94
ssg82
g877
sg75
(lp884
g324
asbag68
(g89
g70
NtRp885
(dp886
g73
(dp887
g100
g101
ssg82
g877
sg75
(lp888
S':'
asbag68
(g89
g70
NtRp889
(dp890
g73
(dp891
sg82
g877
sg75
(lp892
g68
(g69
g70
NtRp893
(dp894
g73
(dp895
g81
I3
ssg82
g889
sg75
(lp896
S''
asbasbasbag68
(g84
g70
NtRp897
(dp898
g73
(dp899
sg82
g833
sg75
(lp900
g68
(g89
g70
NtRp901
(dp902
g73
(dp903
g93
g94
ssg82
g897
sg75
(lp904
g345
asbag68
(g89
g70
NtRp905
(dp906
g73
(dp907
g100
g101
ssg82
g897
sg75
(lp908
S':'
asbag68
(g89
g70
NtRp909
(dp910
g73
(dp911
sg82
g897
sg75
(lp912
g68
(g69
g70
NtRp913
(dp914
g73
(dp915
g81
I3
ssg82
g909
sg75
(lp916
S''
asbasbasbag68
(g84
g70
NtRp917
(dp918
g73
(dp919
sg82
g833
sg75
(lp920
g68
(g89
g70
NtRp921
(dp922
g73
(dp923
g93
g94
ssg82
g917
sg75
(lp924
g366
asbag68
(g89
g70
NtRp925
(dp926
g73
(dp927
g100
g101
ssg82
g917
sg75
(lp928
S':'
asbag68
(g89
g70
NtRp929
(dp930
g73
(dp931
sg82
g917
sg75
(lp932
g68
(g69
g70
NtRp933
(dp934
g73
(dp935
g81
I3
ssg82
g929
sg75
(lp936
S''
asbasbasbag68
(g84
g70
NtRp937
(dp938
g73
(dp939
sg82
g833
sg75
(lp940
g68
(g89
g70
NtRp941
(dp942
g73
(dp943
g93
g94
ssg82
g937
sg75
(lp944
g387
asbag68
(g89
g70
NtRp945
(dp946
g73
(dp947
g100
g101
ssg82
g937
sg75
(lp948
S':'
asbag68
(g89
g70
NtRp949
(dp950
g73
(dp951
sg82
g937
sg75
(lp952
g68
(g69
g70
NtRp953
(dp954
g73
(dp955
g81
I3
ssg82
g949
sg75
(lp956
S''
asbasbasbag68
(g84
g70
NtRp957
(dp958
g73
(dp959
sg82
g833
sg75
(lp960
g68
(g89
g70
NtRp961
(dp962
g73
(dp963
g93
g94
ssg82
g957
sg75
(lp964
g408
asbag68
(g89
g70
NtRp965
(dp966
g73
(dp967
g100
g101
ssg82
g957
sg75
(lp968
S':'
asbag68
(g89
g70
NtRp969
(dp970
g73
(dp971
sg82
g957
sg75
(lp972
g68
(g69
g70
NtRp973
(dp974
g73
(dp975
g81
I3
ssg82
g969
sg75
(lp976
S''
asbasbasbag68
(g84
g70
NtRp977
(dp978
g73
(dp979
sg82
g833
sg75
(lp980
g68
(g89
g70
NtRp981
(dp982
g73
(dp983
g93
g94
ssg82
g977
sg75
(lp984
g429
asbag68
(g89
g70
NtRp985
(dp986
g73
(dp987
g100
g101
ssg82
g977
sg75
(lp988
S':'
asbag68
(g89
g70
NtRp989
(dp990
g73
(dp991
sg82
g977
sg75
(lp992
g68
(g69
g70
NtRp993
(dp994
g73
(dp995
g81
I3
ssg82
g989
sg75
(lp996
S''
asbasbasbasbasbasbasbag68
(g84
g70
NtRp997
(dp998
g73
(dp999
sg82
g245
sg75
(lp1000
g68
(g89
g70
NtRp1001
(dp1002
g73
(dp1003
g93
g94
ssg82
g997
sg75
(lp1004
S'session_id_photouploader'
p1005
asbag68
(g89
g70
NtRp1006
(dp1007
g73
(dp1008
g100
g101
ssg82
g997
sg75
(lp1009
S':'
asbag68
(g89
g70
NtRp1010
(dp1011
g73
(dp1012
sg82
g997
sg75
(lp1013
g68
(g69
g70
NtRp1014
(dp1015
g73
(dp1016
g81
I4
ssg82
g1010
sg75
(lp1017
g68
(g77
g70
NtRp1018
(dp1019
g73
(dp1020
g81
I3
ssg82
Nsg75
(lp1021
g68
(g84
g70
NtRp1022
(dp1023
g73
(dp1024
sg82
g1018
sg75
(lp1025
g68
(g89
g70
NtRp1026
(dp1027
g73
(dp1028
g93
g94
ssg82
g1022
sg75
(lp1029
g282
asbag68
(g89
g70
NtRp1030
(dp1031
g73
(dp1032
g100
g101
ssg82
g1022
sg75
(lp1033
S':'
asbag68
(g89
g70
NtRp1034
(dp1035
g73
(dp1036
sg82
g1022
sg75
(lp1037
g68
(g69
g70
NtRp1038
(dp1039
g73
(dp1040
g81
I3
ssg82
g1034
sg75
(lp1041
S''
asbasbasbag68
(g84
g70
NtRp1042
(dp1043
g73
(dp1044
sg82
g1018
sg75
(lp1045
g68
(g89
g70
NtRp1046
(dp1047
g73
(dp1048
g93
g94
ssg82
g1042
sg75
(lp1049
g303
asbag68
(g89
g70
NtRp1050
(dp1051
g73
(dp1052
g100
g101
ssg82
g1042
sg75
(lp1053
S':'
asbag68
(g89
g70
NtRp1054
(dp1055
g73
(dp1056
sg82
g1042
sg75
(lp1057
g68
(g69
g70
NtRp1058
(dp1059
g73
(dp1060
g81
I3
ssg82
g1054
sg75
(lp1061
S''
asbasbasbag68
(g84
g70
NtRp1062
(dp1063
g73
(dp1064
sg82
g1018
sg75
(lp1065
g68
(g89
g70
NtRp1066
(dp1067
g73
(dp1068
g93
g94
ssg82
g1062
sg75
(lp1069
g324
asbag68
(g89
g70
NtRp1070
(dp1071
g73
(dp1072
g100
g101
ssg82
g1062
sg75
(lp1073
S':'
asbag68
(g89
g70
NtRp1074
(dp1075
g73
(dp1076
sg82
g1062
sg75
(lp1077
g68
(g69
g70
NtRp1078
(dp1079
g73
(dp1080
g81
I3
ssg82
g1074
sg75
(lp1081
S''
asbasbasbag68
(g84
g70
NtRp1082
(dp1083
g73
(dp1084
sg82
g1018
sg75
(lp1085
g68
(g89
g70
NtRp1086
(dp1087
g73
(dp1088
g93
g94
ssg82
g1082
sg75
(lp1089
g345
asbag68
(g89
g70
NtRp1090
(dp1091
g73
(dp1092
g100
g101
ssg82
g1082
sg75
(lp1093
S':'
asbag68
(g89
g70
NtRp1094
(dp1095
g73
(dp1096
sg82
g1082
sg75
(lp1097
g68
(g69
g70
NtRp1098
(dp1099
g73
(dp1100
g81
I3
ssg82
g1094
sg75
(lp1101
S''
asbasbasbag68
(g84
g70
NtRp1102
(dp1103
g73
(dp1104
sg82
g1018
sg75
(lp1105
g68
(g89
g70
NtRp1106
(dp1107
g73
(dp1108
g93
g94
ssg82
g1102
sg75
(lp1109
g366
asbag68
(g89
g70
NtRp1110
(dp1111
g73
(dp1112
g100
g101
ssg82
g1102
sg75
(lp1113
S':'
asbag68
(g89
g70
NtRp1114
(dp1115
g73
(dp1116
sg82
g1102
sg75
(lp1117
g68
(g69
g70
NtRp1118
(dp1119
g73
(dp1120
g81
I3
ssg82
g1114
sg75
(lp1121
S''
asbasbasbag68
(g84
g70
NtRp1122
(dp1123
g73
(dp1124
sg82
g1018
sg75
(lp1125
g68
(g89
g70
NtRp1126
(dp1127
g73
(dp1128
g93
g94
ssg82
g1122
sg75
(lp1129
g387
asbag68
(g89
g70
NtRp1130
(dp1131
g73
(dp1132
g100
g101
ssg82
g1122
sg75
(lp1133
S':'
asbag68
(g89
g70
NtRp1134
(dp1135
g73
(dp1136
sg82
g1122
sg75
(lp1137
g68
(g69
g70
NtRp1138
(dp1139
g73
(dp1140
g81
I3
ssg82
g1134
sg75
(lp1141
S''
asbasbasbag68
(g84
g70
NtRp1142
(dp1143
g73
(dp1144
sg82
g1018
sg75
(lp1145
g68
(g89
g70
NtRp1146
(dp1147
g73
(dp1148
g93
g94
ssg82
g1142
sg75
(lp1149
g408
asbag68
(g89
g70
NtRp1150
(dp1151
g73
(dp1152
g100
g101
ssg82
g1142
sg75
(lp1153
S':'
asbag68
(g89
g70
NtRp1154
(dp1155
g73
(dp1156
sg82
g1142
sg75
(lp1157
g68
(g69
g70
NtRp1158
(dp1159
g73
(dp1160
g81
I3
ssg82
g1154
sg75
(lp1161
S''
asbasbasbag68
(g84
g70
NtRp1162
(dp1163
g73
(dp1164
sg82
g1018
sg75
(lp1165
g68
(g89
g70
NtRp1166
(dp1167
g73
(dp1168
g93
g94
ssg82
g1162
sg75
(lp1169
g429
asbag68
(g89
g70
NtRp1170
(dp1171
g73
(dp1172
g100
g101
ssg82
g1162
sg75
(lp1173
S':'
asbag68
(g89
g70
NtRp1174
(dp1175
g73
(dp1176
sg82
g1162
sg75
(lp1177
g68
(g69
g70
NtRp1178
(dp1179
g73
(dp1180
g81
I3
ssg82
g1174
sg75
(lp1181
S''
asbasbasbasbasbasbasbag68
(g84
g70
NtRp1182
(dp1183
g73
(dp1184
sg82
g245
sg75
(lp1185
g68
(g89
g70
NtRp1186
(dp1187
g73
(dp1188
g93
g94
ssg82
g1182
sg75
(lp1189
S'session_id_sudoku'
p1190
asbag68
(g89
g70
NtRp1191
(dp1192
g73
(dp1193
g100
g101
ssg82
g1182
sg75
(lp1194
S':'
asbag68
(g89
g70
NtRp1195
(dp1196
g73
(dp1197
sg82
g1182
sg75
(lp1198
g68
(g69
g70
NtRp1199
(dp1200
g73
(dp1201
g81
I4
ssg82
g1195
sg75
(lp1202
g68
(g77
g70
NtRp1203
(dp1204
g73
(dp1205
g81
I3
ssg82
Nsg75
(lp1206
g68
(g84
g70
NtRp1207
(dp1208
g73
(dp1209
sg82
g1203
sg75
(lp1210
g68
(g89
g70
NtRp1211
(dp1212
g73
(dp1213
g93
g94
ssg82
g1207
sg75
(lp1214
g282
asbag68
(g89
g70
NtRp1215
(dp1216
g73
(dp1217
g100
g101
ssg82
g1207
sg75
(lp1218
S':'
asbag68
(g89
g70
NtRp1219
(dp1220
g73
(dp1221
sg82
g1207
sg75
(lp1222
g68
(g69
g70
NtRp1223
(dp1224
g73
(dp1225
g81
I3
ssg82
g1219
sg75
(lp1226
S''
asbasbasbag68
(g84
g70
NtRp1227
(dp1228
g73
(dp1229
sg82
g1203
sg75
(lp1230
g68
(g89
g70
NtRp1231
(dp1232
g73
(dp1233
g93
g94
ssg82
g1227
sg75
(lp1234
g303
asbag68
(g89
g70
NtRp1235
(dp1236
g73
(dp1237
g100
g101
ssg82
g1227
sg75
(lp1238
S':'
asbag68
(g89
g70
NtRp1239
(dp1240
g73
(dp1241
sg82
g1227
sg75
(lp1242
g68
(g69
g70
NtRp1243
(dp1244
g73
(dp1245
g81
I3
ssg82
g1239
sg75
(lp1246
S''
asbasbasbag68
(g84
g70
NtRp1247
(dp1248
g73
(dp1249
sg82
g1203
sg75
(lp1250
g68
(g89
g70
NtRp1251
(dp1252
g73
(dp1253
g93
g94
ssg82
g1247
sg75
(lp1254
g324
asbag68
(g89
g70
NtRp1255
(dp1256
g73
(dp1257
g100
g101
ssg82
g1247
sg75
(lp1258
S':'
asbag68
(g89
g70
NtRp1259
(dp1260
g73
(dp1261
sg82
g1247
sg75
(lp1262
g68
(g69
g70
NtRp1263
(dp1264
g73
(dp1265
g81
I3
ssg82
g1259
sg75
(lp1266
S''
asbasbasbag68
(g84
g70
NtRp1267
(dp1268
g73
(dp1269
sg82
g1203
sg75
(lp1270
g68
(g89
g70
NtRp1271
(dp1272
g73
(dp1273
g93
g94
ssg82
g1267
sg75
(lp1274
g345
asbag68
(g89
g70
NtRp1275
(dp1276
g73
(dp1277
g100
g101
ssg82
g1267
sg75
(lp1278
S':'
asbag68
(g89
g70
NtRp1279
(dp1280
g73
(dp1281
sg82
g1267
sg75
(lp1282
g68
(g69
g70
NtRp1283
(dp1284
g73
(dp1285
g81
I3
ssg82
g1279
sg75
(lp1286
S''
asbasbasbag68
(g84
g70
NtRp1287
(dp1288
g73
(dp1289
sg82
g1203
sg75
(lp1290
g68
(g89
g70
NtRp1291
(dp1292
g73
(dp1293
g93
g94
ssg82
g1287
sg75
(lp1294
g366
asbag68
(g89
g70
NtRp1295
(dp1296
g73
(dp1297
g100
g101
ssg82
g1287
sg75
(lp1298
S':'
asbag68
(g89
g70
NtRp1299
(dp1300
g73
(dp1301
sg82
g1287
sg75
(lp1302
g68
(g69
g70
NtRp1303
(dp1304
g73
(dp1305
g81
I3
ssg82
g1299
sg75
(lp1306
S''
asbasbasbag68
(g84
g70
NtRp1307
(dp1308
g73
(dp1309
sg82
g1203
sg75
(lp1310
g68
(g89
g70
NtRp1311
(dp1312
g73
(dp1313
g93
g94
ssg82
g1307
sg75
(lp1314
g387
asbag68
(g89
g70
NtRp1315
(dp1316
g73
(dp1317
g100
g101
ssg82
g1307
sg75
(lp1318
S':'
asbag68
(g89
g70
NtRp1319
(dp1320
g73
(dp1321
sg82
g1307
sg75
(lp1322
g68
(g69
g70
NtRp1323
(dp1324
g73
(dp1325
g81
I3
ssg82
g1319
sg75
(lp1326
S''
asbasbasbag68
(g84
g70
NtRp1327
(dp1328
g73
(dp1329
sg82
g1203
sg75
(lp1330
g68
(g89
g70
NtRp1331
(dp1332
g73
(dp1333
g93
g94
ssg82
g1327
sg75
(lp1334
g408
asbag68
(g89
g70
NtRp1335
(dp1336
g73
(dp1337
g100
g101
ssg82
g1327
sg75
(lp1338
S':'
asbag68
(g89
g70
NtRp1339
(dp1340
g73
(dp1341
sg82
g1327
sg75
(lp1342
g68
(g69
g70
NtRp1343
(dp1344
g73
(dp1345
g81
I3
ssg82
g1339
sg75
(lp1346
S''
asbasbasbag68
(g84
g70
NtRp1347
(dp1348
g73
(dp1349
sg82
g1203
sg75
(lp1350
g68
(g89
g70
NtRp1351
(dp1352
g73
(dp1353
g93
g94
ssg82
g1347
sg75
(lp1354
g429
asbag68
(g89
g70
NtRp1355
(dp1356
g73
(dp1357
g100
g101
ssg82
g1347
sg75
(lp1358
S':'
asbag68
(g89
g70
NtRp1359
(dp1360
g73
(dp1361
sg82
g1347
sg75
(lp1362
g68
(g69
g70
NtRp1363
(dp1364
g73
(dp1365
g81
I3
ssg82
g1359
sg75
(lp1366
S''
asbasbasbasbasbasbasbag68
(g84
g70
NtRp1367
(dp1368
g73
(dp1369
sg82
g245
sg75
(lp1370
g68
(g89
g70
NtRp1371
(dp1372
g73
(dp1373
g93
g94
ssg82
g1367
sg75
(lp1374
S'session_id_vish'
p1375
asbag68
(g89
g70
NtRp1376
(dp1377
g73
(dp1378
g100
g101
ssg82
g1367
sg75
(lp1379
S':'
asbag68
(g89
g70
NtRp1380
(dp1381
g73
(dp1382
sg82
g1367
sg75
(lp1383
g68
(g69
g70
NtRp1384
(dp1385
g73
(dp1386
g81
I4
ssg82
g1380
sg75
(lp1387
g68
(g77
g70
NtRp1388
(dp1389
g73
(dp1390
g81
I3
ssg82
Nsg75
(lp1391
g68
(g84
g70
NtRp1392
(dp1393
g73
(dp1394
sg82
g1388
sg75
(lp1395
g68
(g89
g70
NtRp1396
(dp1397
g73
(dp1398
g93
g94
ssg82
g1392
sg75
(lp1399
g282
asbag68
(g89
g70
NtRp1400
(dp1401
g73
(dp1402
g100
g101
ssg82
g1392
sg75
(lp1403
S':'
asbag68
(g89
g70
NtRp1404
(dp1405
g73
(dp1406
sg82
g1392
sg75
(lp1407
g68
(g69
g70
NtRp1408
(dp1409
g73
(dp1410
g81
I3
ssg82
g1404
sg75
(lp1411
S''
asbasbasbag68
(g84
g70
NtRp1412
(dp1413
g73
(dp1414
sg82
g1388
sg75
(lp1415
g68
(g89
g70
NtRp1416
(dp1417
g73
(dp1418
g93
g94
ssg82
g1412
sg75
(lp1419
g303
asbag68
(g89
g70
NtRp1420
(dp1421
g73
(dp1422
g100
g101
ssg82
g1412
sg75
(lp1423
S':'
asbag68
(g89
g70
NtRp1424
(dp1425
g73
(dp1426
sg82
g1412
sg75
(lp1427
g68
(g69
g70
NtRp1428
(dp1429
g73
(dp1430
g81
I3
ssg82
g1424
sg75
(lp1431
S''
asbasbasbag68
(g84
g70
NtRp1432
(dp1433
g73
(dp1434
sg82
g1388
sg75
(lp1435
g68
(g89
g70
NtRp1436
(dp1437
g73
(dp1438
g93
g94
ssg82
g1432
sg75
(lp1439
g324
asbag68
(g89
g70
NtRp1440
(dp1441
g73
(dp1442
g100
g101
ssg82
g1432
sg75
(lp1443
S':'
asbag68
(g89
g70
NtRp1444
(dp1445
g73
(dp1446
sg82
g1432
sg75
(lp1447
g68
(g69
g70
NtRp1448
(dp1449
g73
(dp1450
g81
I3
ssg82
g1444
sg75
(lp1451
S''
asbasbasbag68
(g84
g70
NtRp1452
(dp1453
g73
(dp1454
sg82
g1388
sg75
(lp1455
g68
(g89
g70
NtRp1456
(dp1457
g73
(dp1458
g93
g94
ssg82
g1452
sg75
(lp1459
g345
asbag68
(g89
g70
NtRp1460
(dp1461
g73
(dp1462
g100
g101
ssg82
g1452
sg75
(lp1463
S':'
asbag68
(g89
g70
NtRp1464
(dp1465
g73
(dp1466
sg82
g1452
sg75
(lp1467
g68
(g69
g70
NtRp1468
(dp1469
g73
(dp1470
g81
I3
ssg82
g1464
sg75
(lp1471
S''
asbasbasbag68
(g84
g70
NtRp1472
(dp1473
g73
(dp1474
sg82
g1388
sg75
(lp1475
g68
(g89
g70
NtRp1476
(dp1477
g73
(dp1478
g93
g94
ssg82
g1472
sg75
(lp1479
g366
asbag68
(g89
g70
NtRp1480
(dp1481
g73
(dp1482
g100
g101
ssg82
g1472
sg75
(lp1483
S':'
asbag68
(g89
g70
NtRp1484
(dp1485
g73
(dp1486
sg82
g1472
sg75
(lp1487
g68
(g69
g70
NtRp1488
(dp1489
g73
(dp1490
g81
I3
ssg82
g1484
sg75
(lp1491
S''
asbasbasbag68
(g84
g70
NtRp1492
(dp1493
g73
(dp1494
sg82
g1388
sg75
(lp1495
g68
(g89
g70
NtRp1496
(dp1497
g73
(dp1498
g93
g94
ssg82
g1492
sg75
(lp1499
g387
asbag68
(g89
g70
NtRp1500
(dp1501
g73
(dp1502
g100
g101
ssg82
g1492
sg75
(lp1503
S':'
asbag68
(g89
g70
NtRp1504
(dp1505
g73
(dp1506
sg82
g1492
sg75
(lp1507
g68
(g69
g70
NtRp1508
(dp1509
g73
(dp1510
g81
I3
ssg82
g1504
sg75
(lp1511
S''
asbasbasbag68
(g84
g70
NtRp1512
(dp1513
g73
(dp1514
sg82
g1388
sg75
(lp1515
g68
(g89
g70
NtRp1516
(dp1517
g73
(dp1518
g93
g94
ssg82
g1512
sg75
(lp1519
g408
asbag68
(g89
g70
NtRp1520
(dp1521
g73
(dp1522
g100
g101
ssg82
g1512
sg75
(lp1523
S':'
asbag68
(g89
g70
NtRp1524
(dp1525
g73
(dp1526
sg82
g1512
sg75
(lp1527
g68
(g69
g70
NtRp1528
(dp1529
g73
(dp1530
g81
I3
ssg82
g1524
sg75
(lp1531
S''
asbasbasbag68
(g84
g70
NtRp1532
(dp1533
g73
(dp1534
sg82
g1388
sg75
(lp1535
g68
(g89
g70
NtRp1536
(dp1537
g73
(dp1538
g93
g94
ssg82
g1532
sg75
(lp1539
g429
asbag68
(g89
g70
NtRp1540
(dp1541
g73
(dp1542
g100
g101
ssg82
g1532
sg75
(lp1543
S':'
asbag68
(g89
g70
NtRp1544
(dp1545
g73
(dp1546
sg82
g1532
sg75
(lp1547
g68
(g69
g70
NtRp1548
(dp1549
g73
(dp1550
g81
I3
ssg82
g1544
sg75
(lp1551
S''
asbasbasbasbasbasbasbag68
(g84
g70
NtRp1552
(dp1553
g73
(dp1554
sg82
g245
sg75
(lp1555
g68
(g89
g70
NtRp1556
(dp1557
g73
(dp1558
g93
g94
ssg82
g1552
sg75
(lp1559
S'session_id_welcome'
p1560
asbag68
(g89
g70
NtRp1561
(dp1562
g73
(dp1563
g100
g101
ssg82
g1552
sg75
(lp1564
S':'
asbag68
(g89
g70
NtRp1565
(dp1566
g73
(dp1567
sg82
g1552
sg75
(lp1568
g68
(g69
g70
NtRp1569
(dp1570
g73
(dp1571
g81
I4
ssg82
g1565
sg75
(lp1572
g68
(g77
g70
NtRp1573
(dp1574
g73
(dp1575
g81
I3
ssg82
Nsg75
(lp1576
g68
(g84
g70
NtRp1577
(dp1578
g73
(dp1579
sg82
g1573
sg75
(lp1580
g68
(g89
g70
NtRp1581
(dp1582
g73
(dp1583
g93
g94
ssg82
g1577
sg75
(lp1584
g282
asbag68
(g89
g70
NtRp1585
(dp1586
g73
(dp1587
g100
g101
ssg82
g1577
sg75
(lp1588
S':'
asbag68
(g89
g70
NtRp1589
(dp1590
g73
(dp1591
sg82
g1577
sg75
(lp1592
g68
(g69
g70
NtRp1593
(dp1594
g73
(dp1595
g81
I3
ssg82
g1589
sg75
(lp1596
S''
asbasbasbag68
(g84
g70
NtRp1597
(dp1598
g73
(dp1599
sg82
g1573
sg75
(lp1600
g68
(g89
g70
NtRp1601
(dp1602
g73
(dp1603
g93
g94
ssg82
g1597
sg75
(lp1604
g303
asbag68
(g89
g70
NtRp1605
(dp1606
g73
(dp1607
g100
g101
ssg82
g1597
sg75
(lp1608
S':'
asbag68
(g89
g70
NtRp1609
(dp1610
g73
(dp1611
sg82
g1597
sg75
(lp1612
g68
(g69
g70
NtRp1613
(dp1614
g73
(dp1615
g81
I3
ssg82
g1609
sg75
(lp1616
S''
asbasbasbag68
(g84
g70
NtRp1617
(dp1618
g73
(dp1619
sg82
g1573
sg75
(lp1620
g68
(g89
g70
NtRp1621
(dp1622
g73
(dp1623
g93
g94
ssg82
g1617
sg75
(lp1624
g324
asbag68
(g89
g70
NtRp1625
(dp1626
g73
(dp1627
g100
g101
ssg82
g1617
sg75
(lp1628
S':'
asbag68
(g89
g70
NtRp1629
(dp1630
g73
(dp1631
sg82
g1617
sg75
(lp1632
g68
(g69
g70
NtRp1633
(dp1634
g73
(dp1635
g81
I3
ssg82
g1629
sg75
(lp1636
S''
asbasbasbag68
(g84
g70
NtRp1637
(dp1638
g73
(dp1639
sg82
g1573
sg75
(lp1640
g68
(g89
g70
NtRp1641
(dp1642
g73
(dp1643
g93
g94
ssg82
g1637
sg75
(lp1644
g345
asbag68
(g89
g70
NtRp1645
(dp1646
g73
(dp1647
g100
g101
ssg82
g1637
sg75
(lp1648
S':'
asbag68
(g89
g70
NtRp1649
(dp1650
g73
(dp1651
sg82
g1637
sg75
(lp1652
g68
(g69
g70
NtRp1653
(dp1654
g73
(dp1655
g81
I3
ssg82
g1649
sg75
(lp1656
S''
asbasbasbag68
(g84
g70
NtRp1657
(dp1658
g73
(dp1659
sg82
g1573
sg75
(lp1660
g68
(g89
g70
NtRp1661
(dp1662
g73
(dp1663
g93
g94
ssg82
g1657
sg75
(lp1664
g366
asbag68
(g89
g70
NtRp1665
(dp1666
g73
(dp1667
g100
g101
ssg82
g1657
sg75
(lp1668
S':'
asbag68
(g89
g70
NtRp1669
(dp1670
g73
(dp1671
sg82
g1657
sg75
(lp1672
g68
(g69
g70
NtRp1673
(dp1674
g73
(dp1675
g81
I3
ssg82
g1669
sg75
(lp1676
S''
asbasbasbag68
(g84
g70
NtRp1677
(dp1678
g73
(dp1679
sg82
g1573
sg75
(lp1680
g68
(g89
g70
NtRp1681
(dp1682
g73
(dp1683
g93
g94
ssg82
g1677
sg75
(lp1684
g387
asbag68
(g89
g70
NtRp1685
(dp1686
g73
(dp1687
g100
g101
ssg82
g1677
sg75
(lp1688
S':'
asbag68
(g89
g70
NtRp1689
(dp1690
g73
(dp1691
sg82
g1677
sg75
(lp1692
g68
(g69
g70
NtRp1693
(dp1694
g73
(dp1695
g81
I3
ssg82
g1689
sg75
(lp1696
S''
asbasbasbag68
(g84
g70
NtRp1697
(dp1698
g73
(dp1699
sg82
g1573
sg75
(lp1700
g68
(g89
g70
NtRp1701
(dp1702
g73
(dp1703
g93
g94
ssg82
g1697
sg75
(lp1704
g408
asbag68
(g89
g70
NtRp1705
(dp1706
g73
(dp1707
g100
g101
ssg82
g1697
sg75
(lp1708
S':'
asbag68
(g89
g70
NtRp1709
(dp1710
g73
(dp1711
sg82
g1697
sg75
(lp1712
g68
(g69
g70
NtRp1713
(dp1714
g73
(dp1715
g81
I3
ssg82
g1709
sg75
(lp1716
S''
asbasbasbag68
(g84
g70
NtRp1717
(dp1718
g73
(dp1719
sg82
g1573
sg75
(lp1720
g68
(g89
g70
NtRp1721
(dp1722
g73
(dp1723
g93
g94
ssg82
g1717
sg75
(lp1724
g429
asbag68
(g89
g70
NtRp1725
(dp1726
g73
(dp1727
g100
g101
ssg82
g1717
sg75
(lp1728
S':'
asbag68
(g89
g70
NtRp1729
(dp1730
g73
(dp1731
sg82
g1717
sg75
(lp1732
g68
(g69
g70
NtRp1733
(dp1734
g73
(dp1735
g81
I3
ssg82
g1729
sg75
(lp1736
S''
asbasbasbasbasbasbasbasbasbasbasbag68
(g84
g70
NtRp1737
(dp1738
g73
(dp1739
sg82
g78
sg75
(lp1740
g68
(g89
g70
NtRp1741
(dp1742
g73
(dp1743
g93
g94
ssg82
g1737
sg75
(lp1744
S'env'
p1745
asbag68
(g89
g70
NtRp1746
(dp1747
g73
(dp1748
g100
g101
ssg82
g1737
sg75
(lp1749
S':'
asbag68
(g89
g70
NtRp1750
(dp1751
g73
(dp1752
sg82
g1737
sg75
(lp1753
g68
(g69
g70
NtRp1754
(dp1755
g73
(dp1756
g81
I5
ssg82
g1750
sg75
(lp1757
g68
(g77
g70
NtRp1758
(dp1759
g73
(dp1760
g81
I4
ssg82
Nsg75
(lp1761
g68
(g84
g70
NtRp1762
(dp1763
g73
(dp1764
sg82
g1758
sg75
(lp1765
g68
(g89
g70
NtRp1766
(dp1767
g73
(dp1768
g93
g94
ssg82
g1762
sg75
(lp1769
S'app_folders'
p1770
asbag68
(g89
g70
NtRp1771
(dp1772
g73
(dp1773
g100
g101
ssg82
g1762
sg75
(lp1774
S':'
asbag68
(g89
g70
NtRp1775
(dp1776
g73
(dp1777
sg82
g1762
sg75
(lp1778
g68
(g69
g70
NtRp1779
(dp1780
g73
(dp1781
g81
I4
ssg82
g1775
sg75
(lp1782
S"set(['/home/vishrut/web2py/applications/astra1/', '/home/vishrut/web2py/applications/admin/', '/home/vishrut/web2py/applications/PhotoUploader/', '/home/vishrut/web2py/applications/welcome/'])"
p1783
asbasbasbag68
(g84
g70
NtRp1784
(dp1785
g73
(dp1786
sg82
g1758
sg75
(lp1787
g68
(g89
g70
NtRp1788
(dp1789
g73
(dp1790
g93
g94
ssg82
g1784
sg75
(lp1791
S'applications_parent'
p1792
asbag68
(g89
g70
NtRp1793
(dp1794
g73
(dp1795
g100
g101
ssg82
g1784
sg75
(lp1796
S':'
asbag68
(g89
g70
NtRp1797
(dp1798
g73
(dp1799
sg82
g1784
sg75
(lp1800
g68
(g69
g70
NtRp1801
(dp1802
g73
(dp1803
g81
I4
ssg82
g1797
sg75
(lp1804
S'/home/vishrut/web2py'
p1805
asbasbasbag68
(g84
g70
NtRp1806
(dp1807
g73
(dp1808
sg82
g1758
sg75
(lp1809
g68
(g89
g70
NtRp1810
(dp1811
g73
(dp1812
g93
g94
ssg82
g1806
sg75
(lp1813
S'cmd_args'
p1814
asbag68
(g89
g70
NtRp1815
(dp1816
g73
(dp1817
g100
g101
ssg82
g1806
sg75
(lp1818
S':'
asbag68
(g89
g70
NtRp1819
(dp1820
g73
(dp1821
sg82
g1806
sg75
(lp1822
g68
(g69
g70
NtRp1823
(dp1824
g73
(dp1825
g81
I4
ssg82
g1819
sg75
(lp1826
g68
(g77
g70
NtRp1827
(dp1828
g73
(dp1829
g81
I3
ssg82
Nsg75
(lp1830
sbasbasbasbag68
(g84
g70
NtRp1831
(dp1832
g73
(dp1833
sg82
g1758
sg75
(lp1834
g68
(g89
g70
NtRp1835
(dp1836
g73
(dp1837
g93
g94
ssg82
g1831
sg75
(lp1838
S'cmd_options'
p1839
asbag68
(g89
g70
NtRp1840
(dp1841
g73
(dp1842
g100
g101
ssg82
g1831
sg75
(lp1843
S':'
asbag68
(g89
g70
NtRp1844
(dp1845
g73
(dp1846
sg82
g1831
sg75
(lp1847
g68
(g69
g70
NtRp1848
(dp1849
g73
(dp1850
g81
I4
ssg82
g1844
sg75
(lp1851
S"<Values at 0x9d363cc: {'verbose': False, 'ip': '127.0.0.1', 'shutdown_timeout': 5, 'taskbar': False, 'nocron': False, 'pid_filename': 'httpserver.pid', 'maxthreads': None, 'softcron': False, 'server_name': 'vishrut-Vostro-1015', 'bpython': False, 'nogui': False, 'port': 8000, 'extcron': False, 'debuglevel': 30, 'test': None, 'folder': '/home/vishrut/web2py', 'config': '', 'import_models': False, 'winservice': '', 'shell': None, 'run': '', 'log_filename': 'httpserver.log', 'args': [''], 'socket_timeout': 5, 'ssl_ca_certificate': None, 'scheduler': None, 'profiler_filename': None, 'ssl_private_key': '', 'password': '<ask>', 'request_queue_size': 5, 'ssl_certificate': '', 'cronjob': False, 'numthreads': None, 'quiet': False, 'interfaces': None, 'minthreads': None, 'timeout': 10, 'plain': False, 'nobanner': False}>"
p1852
asbasbasbag68
(g84
g70
NtRp1853
(dp1854
g73
(dp1855
sg82
g1758
sg75
(lp1856
g68
(g89
g70
NtRp1857
(dp1858
g73
(dp1859
g93
g94
ssg82
g1853
sg75
(lp1860
S'db_sessions'
p1861
asbag68
(g89
g70
NtRp1862
(dp1863
g73
(dp1864
g100
g101
ssg82
g1853
sg75
(lp1865
S':'
asbag68
(g89
g70
NtRp1866
(dp1867
g73
(dp1868
sg82
g1853
sg75
(lp1869
g68
(g69
g70
NtRp1870
(dp1871
g73
(dp1872
g81
I4
ssg82
g1866
sg75
(lp1873
S'set([])'
p1874
asbasbasbag68
(g84
g70
NtRp1875
(dp1876
g73
(dp1877
sg82
g1758
sg75
(lp1878
g68
(g89
g70
NtRp1879
(dp1880
g73
(dp1881
g93
g94
ssg82
g1875
sg75
(lp1882
S'debugging'
p1883
asbag68
(g89
g70
NtRp1884
(dp1885
g73
(dp1886
g100
g101
ssg82
g1875
sg75
(lp1887
S':'
asbag68
(g89
g70
NtRp1888
(dp1889
g73
(dp1890
sg82
g1875
sg75
(lp1891
g68
(g69
g70
NtRp1892
(dp1893
g73
(dp1894
g81
I4
ssg82
g1888
sg75
(lp1895
g111
asbasbasbag68
(g84
g70
NtRp1896
(dp1897
g73
(dp1898
sg82
g1758
sg75
(lp1899
g68
(g89
g70
NtRp1900
(dp1901
g73
(dp1902
g93
g94
ssg82
g1896
sg75
(lp1903
S'gluon_parent'
p1904
asbag68
(g89
g70
NtRp1905
(dp1906
g73
(dp1907
g100
g101
ssg82
g1896
sg75
(lp1908
S':'
asbag68
(g89
g70
NtRp1909
(dp1910
g73
(dp1911
sg82
g1896
sg75
(lp1912
g68
(g69
g70
NtRp1913
(dp1914
g73
(dp1915
g81
I4
ssg82
g1909
sg75
(lp1916
S'/home/vishrut/web2py'
p1917
asbasbasbag68
(g84
g70
NtRp1918
(dp1919
g73
(dp1920
sg82
g1758
sg75
(lp1921
g68
(g89
g70
NtRp1922
(dp1923
g73
(dp1924
g93
g94
ssg82
g1918
sg75
(lp1925
S'http_accept'
p1926
asbag68
(g89
g70
NtRp1927
(dp1928
g73
(dp1929
g100
g101
ssg82
g1918
sg75
(lp1930
S':'
asbag68
(g89
g70
NtRp1931
(dp1932
g73
(dp1933
sg82
g1918
sg75
(lp1934
g68
(g69
g70
NtRp1935
(dp1936
g73
(dp1937
g81
I4
ssg82
g1931
sg75
(lp1938
S'text/html,application/xhtml+xml,application/xml;q=0.9,*/*;q=0.8'
p1939
asbasbasbag68
(g84
g70
NtRp1940
(dp1941
g73
(dp1942
sg82
g1758
sg75
(lp1943
g68
(g89
g70
NtRp1944
(dp1945
g73
(dp1946
g93
g94
ssg82
g1940
sg75
(lp1947
S'http_accept_encoding'
p1948
asbag68
(g89
g70
NtRp1949
(dp1950
g73
(dp1951
g100
g101
ssg82
g1940
sg75
(lp1952
S':'
asbag68
(g89
g70
NtRp1953
(dp1954
g73
(dp1955
sg82
g1940
sg75
(lp1956
g68
(g69
g70
NtRp1957
(dp1958
g73
(dp1959
g81
I4
ssg82
g1953
sg75
(lp1960
S'gzip, deflate'
p1961
asbasbasbag68
(g84
g70
NtRp1962
(dp1963
g73
(dp1964
sg82
g1758
sg75
(lp1965
g68
(g89
g70
NtRp1966
(dp1967
g73
(dp1968
g93
g94
ssg82
g1962
sg75
(lp1969
S'http_accept_language'
p1970
asbag68
(g89
g70
NtRp1971
(dp1972
g73
(dp1973
g100
g101
ssg82
g1962
sg75
(lp1974
S':'
asbag68
(g89
g70
NtRp1975
(dp1976
g73
(dp1977
sg82
g1962
sg75
(lp1978
g68
(g69
g70
NtRp1979
(dp1980
g73
(dp1981
g81
I4
ssg82
g1975
sg75
(lp1982
S'en-US,en;q=0.5'
p1983
asbasbasbag68
(g84
g70
NtRp1984
(dp1985
g73
(dp1986
sg82
g1758
sg75
(lp1987
g68
(g89
g70
NtRp1988
(dp1989
g73
(dp1990
g93
g94
ssg82
g1984
sg75
(lp1991
S'http_cache_control'
p1992
asbag68
(g89
g70
NtRp1993
(dp1994
g73
(dp1995
g100
g101
ssg82
g1984
sg75
(lp1996
S':'
asbag68
(g89
g70
NtRp1997
(dp1998
g73
(dp1999
sg82
g1984
sg75
(lp2000
g68
(g69
g70
NtRp2001
(dp2002
g73
(dp2003
g81
I4
ssg82
g1997
sg75
(lp2004
S'max-age=0'
p2005
asbasbasbag68
(g84
g70
NtRp2006
(dp2007
g73
(dp2008
sg82
g1758
sg75
(lp2009
g68
(g89
g70
NtRp2010
(dp2011
g73
(dp2012
g93
g94
ssg82
g2006
sg75
(lp2013
S'http_connection'
p2014
asbag68
(g89
g70
NtRp2015
(dp2016
g73
(dp2017
g100
g101
ssg82
g2006
sg75
(lp2018
S':'
asbag68
(g89
g70
NtRp2019
(dp2020
g73
(dp2021
sg82
g2006
sg75
(lp2022
g68
(g69
g70
NtRp2023
(dp2024
g73
(dp2025
g81
I4
ssg82
g2019
sg75
(lp2026
S'keep-alive'
p2027
asbasbasbag68
(g84
g70
NtRp2028
(dp2029
g73
(dp2030
sg82
g1758
sg75
(lp2031
g68
(g89
g70
NtRp2032
(dp2033
g73
(dp2034
g93
g94
ssg82
g2028
sg75
(lp2035
S'http_cookie'
p2036
asbag68
(g89
g70
NtRp2037
(dp2038
g73
(dp2039
g100
g101
ssg82
g2028
sg75
(lp2040
S':'
asbag68
(g89
g70
NtRp2041
(dp2042
g73
(dp2043
sg82
g2028
sg75
(lp2044
g68
(g69
g70
NtRp2045
(dp2046
g73
(dp2047
g81
I4
ssg82
g2041
sg75
(lp2048
S'session_id_photouploader=127.0.0.1-83bacd5e-b575-49a8-9b6e-fdc698e775f9; session_id_astra1=127.0.0.1-6c6943ea-9e10-4b64-9f35-8611eb020dd8; session_id_sudoku=127.0.0.1-a38f9f54-52d0-4767-a55e-9a1db318fe95; session_id_music=127.0.0.1-5772fb54-09d1-429f-9de0-d5ccdcb57f3a; session_id_welcome=127.0.0.1-ce947a26-bb3e-43d4-9cd9-87c4abcec933; session_id_admin=127.0.0.1-6c67b90d-3883-4b37-ba21-eef2525d3981; session_id_vish=127.0.0.1-bfddb273-c13f-44aa-9345-6c2c33dcf2db; session_id_music_library=127.0.0.1-868801ee-bee6-4d4d-8081-d21e25945ab6'
p2049
asbasbasbag68
(g84
g70
NtRp2050
(dp2051
g73
(dp2052
sg82
g1758
sg75
(lp2053
g68
(g89
g70
NtRp2054
(dp2055
g73
(dp2056
g93
g94
ssg82
g2050
sg75
(lp2057
S'http_host'
p2058
asbag68
(g89
g70
NtRp2059
(dp2060
g73
(dp2061
g100
g101
ssg82
g2050
sg75
(lp2062
S':'
asbag68
(g89
g70
NtRp2063
(dp2064
g73
(dp2065
sg82
g2050
sg75
(lp2066
g68
(g69
g70
NtRp2067
(dp2068
g73
(dp2069
g81
I4
ssg82
g2063
sg75
(lp2070
S'127.0.0.1:8000'
p2071
asbasbasbag68
(g84
g70
NtRp2072
(dp2073
g73
(dp2074
sg82
g1758
sg75
(lp2075
g68
(g89
g70
NtRp2076
(dp2077
g73
(dp2078
g93
g94
ssg82
g2072
sg75
(lp2079
S'http_referer'
p2080
asbag68
(g89
g70
NtRp2081
(dp2082
g73
(dp2083
g100
g101
ssg82
g2072
sg75
(lp2084
S':'
asbag68
(g89
g70
NtRp2085
(dp2086
g73
(dp2087
sg82
g2072
sg75
(lp2088
g68
(g69
g70
NtRp2089
(dp2090
g73
(dp2091
g81
I4
ssg82
g2085
sg75
(lp2092
S'http://127.0.0.1:8000/astra1/default/index'
p2093
asbasbasbag68
(g84
g70
NtRp2094
(dp2095
g73
(dp2096
sg82
g1758
sg75
(lp2097
g68
(g89
g70
NtRp2098
(dp2099
g73
(dp2100
g93
g94
ssg82
g2094
sg75
(lp2101
S'http_user_agent'
p2102
asbag68
(g89
g70
NtRp2103
(dp2104
g73
(dp2105
g100
g101
ssg82
g2094
sg75
(lp2106
S':'
asbag68
(g89
g70
NtRp2107
(dp2108
g73
(dp2109
sg82
g2094
sg75
(lp2110
g68
(g69
g70
NtRp2111
(dp2112
g73
(dp2113
g81
I4
ssg82
g2107
sg75
(lp2114
S'Mozilla/5.0 (X11; Ubuntu; Linux i686; rv:16.0) Gecko/20100101 Firefox/16.0'
p2115
asbasbasbag68
(g84
g70
NtRp2116
(dp2117
g73
(dp2118
sg82
g1758
sg75
(lp2119
g68
(g89
g70
NtRp2120
(dp2121
g73
(dp2122
g93
g94
ssg82
g2116
sg75
(lp2123
S'is_jython'
p2124
asbag68
(g89
g70
NtRp2125
(dp2126
g73
(dp2127
g100
g101
ssg82
g2116
sg75
(lp2128
S':'
asbag68
(g89
g70
NtRp2129
(dp2130
g73
(dp2131
sg82
g2116
sg75
(lp2132
g68
(g69
g70
NtRp2133
(dp2134
g73
(dp2135
g81
I4
ssg82
g2129
sg75
(lp2136
g111
asbasbasbag68
(g84
g70
NtRp2137
(dp2138
g73
(dp2139
sg82
g1758
sg75
(lp2140
g68
(g89
g70
NtRp2141
(dp2142
g73
(dp2143
g93
g94
ssg82
g2137
sg75
(lp2144
S'is_pypy'
p2145
asbag68
(g89
g70
NtRp2146
(dp2147
g73
(dp2148
g100
g101
ssg82
g2137
sg75
(lp2149
S':'
asbag68
(g89
g70
NtRp2150
(dp2151
g73
(dp2152
sg82
g2137
sg75
(lp2153
g68
(g69
g70
NtRp2154
(dp2155
g73
(dp2156
g81
I4
ssg82
g2150
sg75
(lp2157
g111
asbasbasbag68
(g84
g70
NtRp2158
(dp2159
g73
(dp2160
sg82
g1758
sg75
(lp2161
g68
(g89
g70
NtRp2162
(dp2163
g73
(dp2164
g93
g94
ssg82
g2158
sg75
(lp2165
S'path_info'
p2166
asbag68
(g89
g70
NtRp2167
(dp2168
g73
(dp2169
g100
g101
ssg82
g2158
sg75
(lp2170
S':'
asbag68
(g89
g70
NtRp2171
(dp2172
g73
(dp2173
sg82
g2158
sg75
(lp2174
g68
(g69
g70
NtRp2175
(dp2176
g73
(dp2177
g81
I4
ssg82
g2171
sg75
(lp2178
S'/astra1/default/show'
p2179
asbasbasbag68
(g84
g70
NtRp2180
(dp2181
g73
(dp2182
sg82
g1758
sg75
(lp2183
g68
(g89
g70
NtRp2184
(dp2185
g73
(dp2186
g93
g94
ssg82
g2180
sg75
(lp2187
S'query_string'
p2188
asbag68
(g89
g70
NtRp2189
(dp2190
g73
(dp2191
g100
g101
ssg82
g2180
sg75
(lp2192
S':'
asbag68
(g89
g70
NtRp2193
(dp2194
g73
(dp2195
sg82
g2180
sg75
(lp2196
g68
(g69
g70
NtRp2197
(dp2198
g73
(dp2199
g81
I4
ssg82
g2193
sg75
(lp2200
S''
asbasbasbag68
(g84
g70
NtRp2201
(dp2202
g73
(dp2203
sg82
g1758
sg75
(lp2204
g68
(g89
g70
NtRp2205
(dp2206
g73
(dp2207
g93
g94
ssg82
g2201
sg75
(lp2208
S'remote_addr'
p2209
asbag68
(g89
g70
NtRp2210
(dp2211
g73
(dp2212
g100
g101
ssg82
g2201
sg75
(lp2213
S':'
asbag68
(g89
g70
NtRp2214
(dp2215
g73
(dp2216
sg82
g2201
sg75
(lp2217
g68
(g69
g70
NtRp2218
(dp2219
g73
(dp2220
g81
I4
ssg82
g2214
sg75
(lp2221
g201
asbasbasbag68
(g84
g70
NtRp2222
(dp2223
g73
(dp2224
sg82
g1758
sg75
(lp2225
g68
(g89
g70
NtRp2226
(dp2227
g73
(dp2228
g93
g94
ssg82
g2222
sg75
(lp2229
S'remote_port'
p2230
asbag68
(g89
g70
NtRp2231
(dp2232
g73
(dp2233
g100
g101
ssg82
g2222
sg75
(lp2234
S':'
asbag68
(g89
g70
NtRp2235
(dp2236
g73
(dp2237
sg82
g2222
sg75
(lp2238
g68
(g69
g70
NtRp2239
(dp2240
g73
(dp2241
g81
I4
ssg82
g2235
sg75
(lp2242
S'45768'
p2243
asbasbasbag68
(g84
g70
NtRp2244
(dp2245
g73
(dp2246
sg82
g1758
sg75
(lp2247
g68
(g89
g70
NtRp2248
(dp2249
g73
(dp2250
g93
g94
ssg82
g2244
sg75
(lp2251
S'request_method'
p2252
asbag68
(g89
g70
NtRp2253
(dp2254
g73
(dp2255
g100
g101
ssg82
g2244
sg75
(lp2256
S':'
asbag68
(g89
g70
NtRp2257
(dp2258
g73
(dp2259
sg82
g2244
sg75
(lp2260
g68
(g69
g70
NtRp2261
(dp2262
g73
(dp2263
g81
I4
ssg82
g2257
sg75
(lp2264
S'GET'
p2265
asbasbasbag68
(g84
g70
NtRp2266
(dp2267
g73
(dp2268
sg82
g1758
sg75
(lp2269
g68
(g89
g70
NtRp2270
(dp2271
g73
(dp2272
g93
g94
ssg82
g2266
sg75
(lp2273
S'script_name'
p2274
asbag68
(g89
g70
NtRp2275
(dp2276
g73
(dp2277
g100
g101
ssg82
g2266
sg75
(lp2278
S':'
asbag68
(g89
g70
NtRp2279
(dp2280
g73
(dp2281
sg82
g2266
sg75
(lp2282
g68
(g69
g70
NtRp2283
(dp2284
g73
(dp2285
g81
I4
ssg82
g2279
sg75
(lp2286
S''
asbasbasbag68
(g84
g70
NtRp2287
(dp2288
g73
(dp2289
sg82
g1758
sg75
(lp2290
g68
(g89
g70
NtRp2291
(dp2292
g73
(dp2293
g93
g94
ssg82
g2287
sg75
(lp2294
S'server_name'
p2295
asbag68
(g89
g70
NtRp2296
(dp2297
g73
(dp2298
g100
g101
ssg82
g2287
sg75
(lp2299
S':'
asbag68
(g89
g70
NtRp2300
(dp2301
g73
(dp2302
sg82
g2287
sg75
(lp2303
g68
(g69
g70
NtRp2304
(dp2305
g73
(dp2306
g81
I4
ssg82
g2300
sg75
(lp2307
S'vishrut-Vostro-1015'
p2308
asbasbasbag68
(g84
g70
NtRp2309
(dp2310
g73
(dp2311
sg82
g1758
sg75
(lp2312
g68
(g89
g70
NtRp2313
(dp2314
g73
(dp2315
g93
g94
ssg82
g2309
sg75
(lp2316
S'server_port'
p2317
asbag68
(g89
g70
NtRp2318
(dp2319
g73
(dp2320
g100
g101
ssg82
g2309
sg75
(lp2321
S':'
asbag68
(g89
g70
NtRp2322
(dp2323
g73
(dp2324
sg82
g2309
sg75
(lp2325
g68
(g69
g70
NtRp2326
(dp2327
g73
(dp2328
g81
I4
ssg82
g2322
sg75
(lp2329
S'8000'
p2330
asbasbasbag68
(g84
g70
NtRp2331
(dp2332
g73
(dp2333
sg82
g1758
sg75
(lp2334
g68
(g89
g70
NtRp2335
(dp2336
g73
(dp2337
g93
g94
ssg82
g2331
sg75
(lp2338
S'server_protocol'
p2339
asbag68
(g89
g70
NtRp2340
(dp2341
g73
(dp2342
g100
g101
ssg82
g2331
sg75
(lp2343
S':'
asbag68
(g89
g70
NtRp2344
(dp2345
g73
(dp2346
sg82
g2331
sg75
(lp2347
g68
(g69
g70
NtRp2348
(dp2349
g73
(dp2350
g81
I4
ssg82
g2344
sg75
(lp2351
S'HTTP/1.1'
p2352
asbasbasbag68
(g84
g70
NtRp2353
(dp2354
g73
(dp2355
sg82
g1758
sg75
(lp2356
g68
(g89
g70
NtRp2357
(dp2358
g73
(dp2359
g93
g94
ssg82
g2353
sg75
(lp2360
S'server_software'
p2361
asbag68
(g89
g70
NtRp2362
(dp2363
g73
(dp2364
g100
g101
ssg82
g2353
sg75
(lp2365
S':'
asbag68
(g89
g70
NtRp2366
(dp2367
g73
(dp2368
sg82
g2353
sg75
(lp2369
g68
(g69
g70
NtRp2370
(dp2371
g73
(dp2372
g81
I4
ssg82
g2366
sg75
(lp2373
S'Rocket 1.2.4'
p2374
asbasbasbag68
(g84
g70
NtRp2375
(dp2376
g73
(dp2377
sg82
g1758
sg75
(lp2378
g68
(g89
g70
NtRp2379
(dp2380
g73
(dp2381
g93
g94
ssg82
g2375
sg75
(lp2382
S'web2py_crontype'
p2383
asbag68
(g89
g70
NtRp2384
(dp2385
g73
(dp2386
g100
g101
ssg82
g2375
sg75
(lp2387
S':'
asbag68
(g89
g70
NtRp2388
(dp2389
g73
(dp2390
sg82
g2375
sg75
(lp2391
g68
(g69
g70
NtRp2392
(dp2393
g73
(dp2394
g81
I4
ssg82
g2388
sg75
(lp2395
S'hard'
p2396
asbasbasbag68
(g84
g70
NtRp2397
(dp2398
g73
(dp2399
sg82
g1758
sg75
(lp2400
g68
(g89
g70
NtRp2401
(dp2402
g73
(dp2403
g93
g94
ssg82
g2397
sg75
(lp2404
S'web2py_path'
p2405
asbag68
(g89
g70
NtRp2406
(dp2407
g73
(dp2408
g100
g101
ssg82
g2397
sg75
(lp2409
S':'
asbag68
(g89
g70
NtRp2410
(dp2411
g73
(dp2412
sg82
g2397
sg75
(lp2413
g68
(g69
g70
NtRp2414
(dp2415
g73
(dp2416
g81
I4
ssg82
g2410
sg75
(lp2417
g1805
asbasbasbag68
(g84
g70
NtRp2418
(dp2419
g73
(dp2420
sg82
g1758
sg75
(lp2421
g68
(g89
g70
NtRp2422
(dp2423
g73
(dp2424
g93
g94
ssg82
g2418
sg75
(lp2425
S'web2py_version'
p2426
asbag68
(g89
g70
NtRp2427
(dp2428
g73
(dp2429
g100
g101
ssg82
g2418
sg75
(lp2430
S':'
asbag68
(g89
g70
NtRp2431
(dp2432
g73
(dp2433
sg82
g2418
sg75
(lp2434
g68
(g69
g70
NtRp2435
(dp2436
g73
(dp2437
g81
I4
ssg82
g2431
sg75
(lp2438
g68
(g77
g70
NtRp2439
(dp2440
g73
(dp2441
g81
I3
ssg82
Nsg75
(lp2442
g68
(g84
g70
NtRp2443
(dp2444
g73
(dp2445
sg82
g2439
sg75
(lp2446
g68
(g89
g70
NtRp2447
(dp2448
g73
(dp2449
sg82
g2443
sg75
(lp2450
g68
(g69
g70
NtRp2451
(dp2452
g73
(dp2453
g81
I3
ssg82
g2447
sg75
(lp2454
S'1'
asbasbasbag68
(g84
g70
NtRp2455
(dp2456
g73
(dp2457
sg82
g2439
sg75
(lp2458
g68
(g89
g70
NtRp2459
(dp2460
g73
(dp2461
sg82
g2455
sg75
(lp2462
g68
(g69
g70
NtRp2463
(dp2464
g73
(dp2465
g81
I3
ssg82
g2459
sg75
(lp2466
S'99'
p2467
asbasbasbag68
(g84
g70
NtRp2468
(dp2469
g73
(dp2470
sg82
g2439
sg75
(lp2471
g68
(g89
g70
NtRp2472
(dp2473
g73
(dp2474
sg82
g2468
sg75
(lp2475
g68
(g69
g70
NtRp2476
(dp2477
g73
(dp2478
g81
I3
ssg82
g2472
sg75
(lp2479
S'7'
asbasbasbag68
(g84
g70
NtRp2480
(dp2481
g73
(dp2482
sg82
g2439
sg75
(lp2483
g68
(g89
g70
NtRp2484
(dp2485
g73
(dp2486
sg82
g2480
sg75
(lp2487
g68
(g69
g70
NtRp2488
(dp2489
g73
(dp2490
g81
I3
ssg82
g2484
sg75
(lp2491
S'datetime.datetime(2012, 3, 4, 22, 12, 8)'
p2492
asbasbasbag68
(g84
g70
NtRp2493
(dp2494
g73
(dp2495
sg82
g2439
sg75
(lp2496
g68
(g89
g70
NtRp2497
(dp2498
g73
(dp2499
sg82
g2493
sg75
(lp2500
g68
(g69
g70
NtRp2501
(dp2502
g73
(dp2503
g81
I3
ssg82
g2497
sg75
(lp2504
S'stable'
p2505
asbasbasbasbasbasbasbag68
(g84
g70
NtRp2506
(dp2507
g73
(dp2508
sg82
g1758
sg75
(lp2509
g68
(g89
g70
NtRp2510
(dp2511
g73
(dp2512
g93
g94
ssg82
g2506
sg75
(lp2513
S'wsgi_errors'
p2514
asbag68
(g89
g70
NtRp2515
(dp2516
g73
(dp2517
g100
g101
ssg82
g2506
sg75
(lp2518
S':'
asbag68
(g89
g70
NtRp2519
(dp2520
g73
(dp2521
sg82
g2506
sg75
(lp2522
g68
(g69
g70
NtRp2523
(dp2524
g73
(dp2525
g81
I4
ssg82
g2519
sg75
(lp2526
S"<open file '<stderr>', mode 'w' at 0xb77bc0d0>"
p2527
asbasbasbag68
(g84
g70
NtRp2528
(dp2529
g73
(dp2530
sg82
g1758
sg75
(lp2531
g68
(g89
g70
NtRp2532
(dp2533
g73
(dp2534
g93
g94
ssg82
g2528
sg75
(lp2535
S'wsgi_file_wrapper'
p2536
asbag68
(g89
g70
NtRp2537
(dp2538
g73
(dp2539
g100
g101
ssg82
g2528
sg75
(lp2540
S':'
asbag68
(g89
g70
NtRp2541
(dp2542
g73
(dp2543
sg82
g2528
sg75
(lp2544
g68
(g69
g70
NtRp2545
(dp2546
g73
(dp2547
g81
I4
ssg82
g2541
sg75
(lp2548
S'<class wsgiref.util.FileWrapper at 0x9c55aac>'
p2549
asbasbasbag68
(g84
g70
NtRp2550
(dp2551
g73
(dp2552
sg82
g1758
sg75
(lp2553
g68
(g89
g70
NtRp2554
(dp2555
g73
(dp2556
g93
g94
ssg82
g2550
sg75
(lp2557
S'wsgi_input'
p2558
asbag68
(g89
g70
NtRp2559
(dp2560
g73
(dp2561
g100
g101
ssg82
g2550
sg75
(lp2562
S':'
asbag68
(g89
g70
NtRp2563
(dp2564
g73
(dp2565
sg82
g2550
sg75
(lp2566
g68
(g69
g70
NtRp2567
(dp2568
g73
(dp2569
g81
I4
ssg82
g2563
sg75
(lp2570
S'<socket._fileobject object at 0xa76d3ec>'
p2571
asbasbasbag68
(g84
g70
NtRp2572
(dp2573
g73
(dp2574
sg82
g1758
sg75
(lp2575
g68
(g89
g70
NtRp2576
(dp2577
g73
(dp2578
g93
g94
ssg82
g2572
sg75
(lp2579
S'wsgi_multiprocess'
p2580
asbag68
(g89
g70
NtRp2581
(dp2582
g73
(dp2583
g100
g101
ssg82
g2572
sg75
(lp2584
S':'
asbag68
(g89
g70
NtRp2585
(dp2586
g73
(dp2587
sg82
g2572
sg75
(lp2588
g68
(g69
g70
NtRp2589
(dp2590
g73
(dp2591
g81
I4
ssg82
g2585
sg75
(lp2592
g111
asbasbasbag68
(g84
g70
NtRp2593
(dp2594
g73
(dp2595
sg82
g1758
sg75
(lp2596
g68
(g89
g70
NtRp2597
(dp2598
g73
(dp2599
g93
g94
ssg82
g2593
sg75
(lp2600
S'wsgi_multithread'
p2601
asbag68
(g89
g70
NtRp2602
(dp2603
g73
(dp2604
g100
g101
ssg82
g2593
sg75
(lp2605
S':'
asbag68
(g89
g70
NtRp2606
(dp2607
g73
(dp2608
sg82
g2593
sg75
(lp2609
g68
(g69
g70
NtRp2610
(dp2611
g73
(dp2612
g81
I4
ssg82
g2606
sg75
(lp2613
S'True'
p2614
asbasbasbag68
(g84
g70
NtRp2615
(dp2616
g73
(dp2617
sg82
g1758
sg75
(lp2618
g68
(g89
g70
NtRp2619
(dp2620
g73
(dp2621
g93
g94
ssg82
g2615
sg75
(lp2622
S'wsgi_run_once'
p2623
asbag68
(g89
g70
NtRp2624
(dp2625
g73
(dp2626
g100
g101
ssg82
g2615
sg75
(lp2627
S':'
asbag68
(g89
g70
NtRp2628
(dp2629
g73
(dp2630
sg82
g2615
sg75
(lp2631
g68
(g69
g70
NtRp2632
(dp2633
g73
(dp2634
g81
I4
ssg82
g2628
sg75
(lp2635
g111
asbasbasbag68
(g84
g70
NtRp2636
(dp2637
g73
(dp2638
sg82
g1758
sg75
(lp2639
g68
(g89
g70
NtRp2640
(dp2641
g73
(dp2642
g93
g94
ssg82
g2636
sg75
(lp2643
S'wsgi_url_scheme'
p2644
asbag68
(g89
g70
NtRp2645
(dp2646
g73
(dp2647
g100
g101
ssg82
g2636
sg75
(lp2648
S':'
asbag68
(g89
g70
NtRp2649
(dp2650
g73
(dp2651
sg82
g2636
sg75
(lp2652
g68
(g69
g70
NtRp2653
(dp2654
g73
(dp2655
g81
I4
ssg82
g2649
sg75
(lp2656
S'http'
p2657
asbasbasbag68
(g84
g70
NtRp2658
(dp2659
g73
(dp2660
sg82
g1758
sg75
(lp2661
g68
(g89
g70
NtRp2662
(dp2663
g73
(dp2664
g93
g94
ssg82
g2658
sg75
(lp2665
S'wsgi_version'
p2666
asbag68
(g89
g70
NtRp2667
(dp2668
g73
(dp2669
g100
g101
ssg82
g2658
sg75
(lp2670
S':'
asbag68
(g89
g70
NtRp2671
(dp2672
g73
(dp2673
sg82
g2658
sg75
(lp2674
g68
(g69
g70
NtRp2675
(dp2676
g73
(dp2677
g81
I4
ssg82
g2671
sg75
(lp2678
g68
(g77
g70
NtRp2679
(dp2680
g73
(dp2681
g81
I3
ssg82
Nsg75
(lp2682
g68
(g84
g70
NtRp2683
(dp2684
g73
(dp2685
sg82
g2679
sg75
(lp2686
g68
(g89
g70
NtRp2687
(dp2688
g73
(dp2689
sg82
g2683
sg75
(lp2690
g68
(g69
g70
NtRp2691
(dp2692
g73
(dp2693
g81
I3
ssg82
g2687
sg75
(lp2694
S'1'
asbasbasbag68
(g84
g70
NtRp2695
(dp2696
g73
(dp2697
sg82
g2679
sg75
(lp2698
g68
(g89
g70
NtRp2699
(dp2700
g73
(dp2701
sg82
g2695
sg75
(lp2702
g68
(g69
g70
NtRp2703
(dp2704
g73
(dp2705
g81
I3
ssg82
g2699
sg75
(lp2706
S'0'
asbasbasbasbasbasbasbasbasbasbasbag68
(g84
g70
NtRp2707
(dp2708
g73
(dp2709
sg82
g78
sg75
(lp2710
g68
(g89
g70
NtRp2711
(dp2712
g73
(dp2713
g93
g94
ssg82
g2707
sg75
(lp2714
S'extension'
p2715
asbag68
(g89
g70
NtRp2716
(dp2717
g73
(dp2718
g100
g101
ssg82
g2707
sg75
(lp2719
S':'
asbag68
(g89
g70
NtRp2720
(dp2721
g73
(dp2722
sg82
g2707
sg75
(lp2723
g68
(g69
g70
NtRp2724
(dp2725
g73
(dp2726
g81
I5
ssg82
g2720
sg75
(lp2727
S'html'
p2728
asbasbasbag68
(g84
g70
NtRp2729
(dp2730
g73
(dp2731
sg82
g78
sg75
(lp2732
g68
(g89
g70
NtRp2733
(dp2734
g73
(dp2735
g93
g94
ssg82
g2729
sg75
(lp2736
S'folder'
p2737
asbag68
(g89
g70
NtRp2738
(dp2739
g73
(dp2740
g100
g101
ssg82
g2729
sg75
(lp2741
S':'
asbag68
(g89
g70
NtRp2742
(dp2743
g73
(dp2744
sg82
g2729
sg75
(lp2745
g68
(g69
g70
NtRp2746
(dp2747
g73
(dp2748
g81
I5
ssg82
g2742
sg75
(lp2749
S'/home/vishrut/web2py/applications/astra1/'
p2750
asbasbasbag68
(g84
g70
NtRp2751
(dp2752
g73
(dp2753
sg82
g78
sg75
(lp2754
g68
(g89
g70
NtRp2755
(dp2756
g73
(dp2757
g93
g94
ssg82
g2751
sg75
(lp2758
S'function'
p2759
asbag68
(g89
g70
NtRp2760
(dp2761
g73
(dp2762
g100
g101
ssg82
g2751
sg75
(lp2763
S':'
asbag68
(g89
g70
NtRp2764
(dp2765
g73
(dp2766
sg82
g2751
sg75
(lp2767
g68
(g69
g70
NtRp2768
(dp2769
g73
(dp2770
g81
I5
ssg82
g2764
sg75
(lp2771
S'show'
p2772
asbasbasbag68
(g84
g70
NtRp2773
(dp2774
g73
(dp2775
sg82
g78
sg75
(lp2776
g68
(g89
g70
NtRp2777
(dp2778
g73
(dp2779
g93
g94
ssg82
g2773
sg75
(lp2780
S'get_vars'
p2781
asbag68
(g89
g70
NtRp2782
(dp2783
g73
(dp2784
g100
g101
ssg82
g2773
sg75
(lp2785
S':'
asbag68
(g89
g70
NtRp2786
(dp2787
g73
(dp2788
sg82
g2773
sg75
(lp2789
g68
(g69
g70
NtRp2790
(dp2791
g73
(dp2792
g81
I5
ssg82
g2786
sg75
(lp2793
g68
(g77
g70
NtRp2794
(dp2795
g73
(dp2796
g81
I4
ssg82
Nsg75
(lp2797
sbasbasbasbag68
(g84
g70
NtRp2798
(dp2799
g73
(dp2800
sg82
g78
sg75
(lp2801
g68
(g89
g70
NtRp2802
(dp2803
g73
(dp2804
g93
g94
ssg82
g2798
sg75
(lp2805
S'global_settings'
p2806
asbag68
(g89
g70
NtRp2807
(dp2808
g73
(dp2809
g100
g101
ssg82
g2798
sg75
(lp2810
S':'
asbag68
(g89
g70
NtRp2811
(dp2812
g73
(dp2813
sg82
g2798
sg75
(lp2814
g68
(g69
g70
NtRp2815
(dp2816
g73
(dp2817
g81
I5
ssg82
g2811
sg75
(lp2818
g68
(g77
g70
NtRp2819
(dp2820
g73
(dp2821
g81
I4
ssg82
Nsg75
(lp2822
g68
(g84
g70
NtRp2823
(dp2824
g73
(dp2825
sg82
g2819
sg75
(lp2826
g68
(g89
g70
NtRp2827
(dp2828
g73
(dp2829
g93
g94
ssg82
g2823
sg75
(lp2830
g1770
asbag68
(g89
g70
NtRp2831
(dp2832
g73
(dp2833
g100
g101
ssg82
g2823
sg75
(lp2834
S':'
asbag68
(g89
g70
NtRp2835
(dp2836
g73
(dp2837
sg82
g2823
sg75
(lp2838
g68
(g69
g70
NtRp2839
(dp2840
g73
(dp2841
g81
I4
ssg82
g2835
sg75
(lp2842
S"set(['/home/vishrut/web2py/applications/astra1/', '/home/vishrut/web2py/applications/admin/', '/home/vishrut/web2py/applications/PhotoUploader/', '/home/vishrut/web2py/applications/welcome/'])"
p2843
asbasbasbag68
(g84
g70
NtRp2844
(dp2845
g73
(dp2846
sg82
g2819
sg75
(lp2847
g68
(g89
g70
NtRp2848
(dp2849
g73
(dp2850
g93
g94
ssg82
g2844
sg75
(lp2851
g1792
asbag68
(g89
g70
NtRp2852
(dp2853
g73
(dp2854
g100
g101
ssg82
g2844
sg75
(lp2855
S':'
asbag68
(g89
g70
NtRp2856
(dp2857
g73
(dp2858
sg82
g2844
sg75
(lp2859
g68
(g69
g70
NtRp2860
(dp2861
g73
(dp2862
g81
I4
ssg82
g2856
sg75
(lp2863
g1805
asbasbasbag68
(g84
g70
NtRp2864
(dp2865
g73
(dp2866
sg82
g2819
sg75
(lp2867
g68
(g89
g70
NtRp2868
(dp2869
g73
(dp2870
g93
g94
ssg82
g2864
sg75
(lp2871
g1814
asbag68
(g89
g70
NtRp2872
(dp2873
g73
(dp2874
g100
g101
ssg82
g2864
sg75
(lp2875
S':'
asbag68
(g89
g70
NtRp2876
(dp2877
g73
(dp2878
sg82
g2864
sg75
(lp2879
g68
(g69
g70
NtRp2880
(dp2881
g73
(dp2882
g81
I4
ssg82
g2876
sg75
(lp2883
g68
(g77
g70
NtRp2884
(dp2885
g73
(dp2886
g81
I3
ssg82
Nsg75
(lp2887
sbasbasbasbag68
(g84
g70
NtRp2888
(dp2889
g73
(dp2890
sg82
g2819
sg75
(lp2891
g68
(g89
g70
NtRp2892
(dp2893
g73
(dp2894
g93
g94
ssg82
g2888
sg75
(lp2895
g1839
asbag68
(g89
g70
NtRp2896
(dp2897
g73
(dp2898
g100
g101
ssg82
g2888
sg75
(lp2899
S':'
asbag68
(g89
g70
NtRp2900
(dp2901
g73
(dp2902
sg82
g2888
sg75
(lp2903
g68
(g69
g70
NtRp2904
(dp2905
g73
(dp2906
g81
I4
ssg82
g2900
sg75
(lp2907
S"<Values at 0x9d363cc: {'verbose': False, 'ip': '127.0.0.1', 'shutdown_timeout': 5, 'taskbar': False, 'nocron': False, 'pid_filename': 'httpserver.pid', 'maxthreads': None, 'softcron': False, 'server_name': 'vishrut-Vostro-1015', 'bpython': False, 'nogui': False, 'port': 8000, 'extcron': False, 'debuglevel': 30, 'test': None, 'folder': '/home/vishrut/web2py', 'config': '', 'import_models': False, 'winservice': '', 'shell': None, 'run': '', 'log_filename': 'httpserver.log', 'args': [''], 'socket_timeout': 5, 'ssl_ca_certificate': None, 'scheduler': None, 'profiler_filename': None, 'ssl_private_key': '', 'password': '<ask>', 'request_queue_size': 5, 'ssl_certificate': '', 'cronjob': False, 'numthreads': None, 'quiet': False, 'interfaces': None, 'minthreads': None, 'timeout': 10, 'plain': False, 'nobanner': False}>"
p2908
asbasbasbag68
(g84
g70
NtRp2909
(dp2910
g73
(dp2911
sg82
g2819
sg75
(lp2912
g68
(g89
g70
NtRp2913
(dp2914
g73
(dp2915
g93
g94
ssg82
g2909
sg75
(lp2916
g1861
asbag68
(g89
g70
NtRp2917
(dp2918
g73
(dp2919
g100
g101
ssg82
g2909
sg75
(lp2920
S':'
asbag68
(g89
g70
NtRp2921
(dp2922
g73
(dp2923
sg82
g2909
sg75
(lp2924
g68
(g69
g70
NtRp2925
(dp2926
g73
(dp2927
g81
I4
ssg82
g2921
sg75
(lp2928
S'set([])'
p2929
asbasbasbag68
(g84
g70
NtRp2930
(dp2931
g73
(dp2932
sg82
g2819
sg75
(lp2933
g68
(g89
g70
NtRp2934
(dp2935
g73
(dp2936
g93
g94
ssg82
g2930
sg75
(lp2937
g1883
asbag68
(g89
g70
NtRp2938
(dp2939
g73
(dp2940
g100
g101
ssg82
g2930
sg75
(lp2941
S':'
asbag68
(g89
g70
NtRp2942
(dp2943
g73
(dp2944
sg82
g2930
sg75
(lp2945
g68
(g69
g70
NtRp2946
(dp2947
g73
(dp2948
g81
I4
ssg82
g2942
sg75
(lp2949
g111
asbasbasbag68
(g84
g70
NtRp2950
(dp2951
g73
(dp2952
sg82
g2819
sg75
(lp2953
g68
(g89
g70
NtRp2954
(dp2955
g73
(dp2956
g93
g94
ssg82
g2950
sg75
(lp2957
g1904
asbag68
(g89
g70
NtRp2958
(dp2959
g73
(dp2960
g100
g101
ssg82
g2950
sg75
(lp2961
S':'
asbag68
(g89
g70
NtRp2962
(dp2963
g73
(dp2964
sg82
g2950
sg75
(lp2965
g68
(g69
g70
NtRp2966
(dp2967
g73
(dp2968
g81
I4
ssg82
g2962
sg75
(lp2969
g1917
asbasbasbag68
(g84
g70
NtRp2970
(dp2971
g73
(dp2972
sg82
g2819
sg75
(lp2973
g68
(g89
g70
NtRp2974
(dp2975
g73
(dp2976
g93
g94
ssg82
g2970
sg75
(lp2977
g2124
asbag68
(g89
g70
NtRp2978
(dp2979
g73
(dp2980
g100
g101
ssg82
g2970
sg75
(lp2981
S':'
asbag68
(g89
g70
NtRp2982
(dp2983
g73
(dp2984
sg82
g2970
sg75
(lp2985
g68
(g69
g70
NtRp2986
(dp2987
g73
(dp2988
g81
I4
ssg82
g2982
sg75
(lp2989
g111
asbasbasbag68
(g84
g70
NtRp2990
(dp2991
g73
(dp2992
sg82
g2819
sg75
(lp2993
g68
(g89
g70
NtRp2994
(dp2995
g73
(dp2996
g93
g94
ssg82
g2990
sg75
(lp2997
g2145
asbag68
(g89
g70
NtRp2998
(dp2999
g73
(dp3000
g100
g101
ssg82
g2990
sg75
(lp3001
S':'
asbag68
(g89
g70
NtRp3002
(dp3003
g73
(dp3004
sg82
g2990
sg75
(lp3005
g68
(g69
g70
NtRp3006
(dp3007
g73
(dp3008
g81
I4
ssg82
g3002
sg75
(lp3009
g111
asbasbasbag68
(g84
g70
NtRp3010
(dp3011
g73
(dp3012
sg82
g2819
sg75
(lp3013
g68
(g89
g70
NtRp3014
(dp3015
g73
(dp3016
g93
g94
ssg82
g3010
sg75
(lp3017
g2383
asbag68
(g89
g70
NtRp3018
(dp3019
g73
(dp3020
g100
g101
ssg82
g3010
sg75
(lp3021
S':'
asbag68
(g89
g70
NtRp3022
(dp3023
g73
(dp3024
sg82
g3010
sg75
(lp3025
g68
(g69
g70
NtRp3026
(dp3027
g73
(dp3028
g81
I4
ssg82
g3022
sg75
(lp3029
g2396
asbasbasbag68
(g84
g70
NtRp3030
(dp3031
g73
(dp3032
sg82
g2819
sg75
(lp3033
g68
(g89
g70
NtRp3034
(dp3035
g73
(dp3036
g93
g94
ssg82
g3030
sg75
(lp3037
g2426
asbag68
(g89
g70
NtRp3038
(dp3039
g73
(dp3040
g100
g101
ssg82
g3030
sg75
(lp3041
S':'
asbag68
(g89
g70
NtRp3042
(dp3043
g73
(dp3044
sg82
g3030
sg75
(lp3045
g68
(g69
g70
NtRp3046
(dp3047
g73
(dp3048
g81
I4
ssg82
g3042
sg75
(lp3049
g68
(g77
g70
NtRp3050
(dp3051
g73
(dp3052
g81
I3
ssg82
Nsg75
(lp3053
g68
(g84
g70
NtRp3054
(dp3055
g73
(dp3056
sg82
g3050
sg75
(lp3057
g68
(g89
g70
NtRp3058
(dp3059
g73
(dp3060
sg82
g3054
sg75
(lp3061
g68
(g69
g70
NtRp3062
(dp3063
g73
(dp3064
g81
I3
ssg82
g3058
sg75
(lp3065
S'1'
asbasbasbag68
(g84
g70
NtRp3066
(dp3067
g73
(dp3068
sg82
g3050
sg75
(lp3069
g68
(g89
g70
NtRp3070
(dp3071
g73
(dp3072
sg82
g3066
sg75
(lp3073
g68
(g69
g70
NtRp3074
(dp3075
g73
(dp3076
g81
I3
ssg82
g3070
sg75
(lp3077
S'99'
p3078
asbasbasbag68
(g84
g70
NtRp3079
(dp3080
g73
(dp3081
sg82
g3050
sg75
(lp3082
g68
(g89
g70
NtRp3083
(dp3084
g73
(dp3085
sg82
g3079
sg75
(lp3086
g68
(g69
g70
NtRp3087
(dp3088
g73
(dp3089
g81
I3
ssg82
g3083
sg75
(lp3090
S'7'
asbasbasbag68
(g84
g70
NtRp3091
(dp3092
g73
(dp3093
sg82
g3050
sg75
(lp3094
g68
(g89
g70
NtRp3095
(dp3096
g73
(dp3097
sg82
g3091
sg75
(lp3098
g68
(g69
g70
NtRp3099
(dp3100
g73
(dp3101
g81
I3
ssg82
g3095
sg75
(lp3102
S'datetime.datetime(2012, 3, 4, 22, 12, 8)'
p3103
asbasbasbag68
(g84
g70
NtRp3104
(dp3105
g73
(dp3106
sg82
g3050
sg75
(lp3107
g68
(g89
g70
NtRp3108
(dp3109
g73
(dp3110
sg82
g3104
sg75
(lp3111
g68
(g69
g70
NtRp3112
(dp3113
g73
(dp3114
g81
I3
ssg82
g3108
sg75
(lp3115
g2505
asbasbasbasbasbasbasbasbasbasbasbag68
(g84
g70
NtRp3116
(dp3117
g73
(dp3118
sg82
g78
sg75
(lp3119
g68
(g89
g70
NtRp3120
(dp3121
g73
(dp3122
g93
g94
ssg82
g3116
sg75
(lp3123
S'is_https'
p3124
asbag68
(g89
g70
NtRp3125
(dp3126
g73
(dp3127
g100
g101
ssg82
g3116
sg75
(lp3128
S':'
asbag68
(g89
g70
NtRp3129
(dp3130
g73
(dp3131
sg82
g3116
sg75
(lp3132
g68
(g69
g70
NtRp3133
(dp3134
g73
(dp3135
g81
I5
ssg82
g3129
sg75
(lp3136
g111
asbasbasbag68
(g84
g70
NtRp3137
(dp3138
g73
(dp3139
sg82
g78
sg75
(lp3140
g68
(g89
g70
NtRp3141
(dp3142
g73
(dp3143
g93
g94
ssg82
g3137
sg75
(lp3144
S'is_local'
p3145
asbag68
(g89
g70
NtRp3146
(dp3147
g73
(dp3148
g100
g101
ssg82
g3137
sg75
(lp3149
S':'
asbag68
(g89
g70
NtRp3150
(dp3151
g73
(dp3152
sg82
g3137
sg75
(lp3153
g68
(g69
g70
NtRp3154
(dp3155
g73
(dp3156
g81
I5
ssg82
g3150
sg75
(lp3157
g2614
asbasbasbag68
(g84
g70
NtRp3158
(dp3159
g73
(dp3160
sg82
g78
sg75
(lp3161
g68
(g89
g70
NtRp3162
(dp3163
g73
(dp3164
g93
g94
ssg82
g3158
sg75
(lp3165
S'is_restful'
p3166
asbag68
(g89
g70
NtRp3167
(dp3168
g73
(dp3169
g100
g101
ssg82
g3158
sg75
(lp3170
S':'
asbag68
(g89
g70
NtRp3171
(dp3172
g73
(dp3173
sg82
g3158
sg75
(lp3174
g68
(g69
g70
NtRp3175
(dp3176
g73
(dp3177
g81
I5
ssg82
g3171
sg75
(lp3178
g111
asbasbasbag68
(g84
g70
NtRp3179
(dp3180
g73
(dp3181
sg82
g78
sg75
(lp3182
g68
(g89
g70
NtRp3183
(dp3184
g73
(dp3185
g93
g94
ssg82
g3179
sg75
(lp3186
S'now'
p3187
asbag68
(g89
g70
NtRp3188
(dp3189
g73
(dp3190
g100
g101
ssg82
g3179
sg75
(lp3191
S':'
asbag68
(g89
g70
NtRp3192
(dp3193
g73
(dp3194
sg82
g3179
sg75
(lp3195
g68
(g69
g70
NtRp3196
(dp3197
g73
(dp3198
g81
I5
ssg82
g3192
sg75
(lp3199
S'datetime.datetime(2012, 10, 15, 1, 40, 33, 317926)'
p3200
asbasbasbag68
(g84
g70
NtRp3201
(dp3202
g73
(dp3203
sg82
g78
sg75
(lp3204
g68
(g89
g70
NtRp3205
(dp3206
g73
(dp3207
g93
g94
ssg82
g3201
sg75
(lp3208
S'post_vars'
p3209
asbag68
(g89
g70
NtRp3210
(dp3211
g73
(dp3212
g100
g101
ssg82
g3201
sg75
(lp3213
S':'
asbag68
(g89
g70
NtRp3214
(dp3215
g73
(dp3216
sg82
g3201
sg75
(lp3217
g68
(g69
g70
NtRp3218
(dp3219
g73
(dp3220
g81
I5
ssg82
g3214
sg75
(lp3221
g68
(g77
g70
NtRp3222
(dp3223
g73
(dp3224
g81
I4
ssg82
Nsg75
(lp3225
sbasbasbasbag68
(g84
g70
NtRp3226
(dp3227
g73
(dp3228
sg82
g78
sg75
(lp3229
g68
(g89
g70
NtRp3230
(dp3231
g73
(dp3232
g93
g94
ssg82
g3226
sg75
(lp3233
S'url'
p3234
asbag68
(g89
g70
NtRp3235
(dp3236
g73
(dp3237
g100
g101
ssg82
g3226
sg75
(lp3238
S':'
asbag68
(g89
g70
NtRp3239
(dp3240
g73
(dp3241
sg82
g3226
sg75
(lp3242
g68
(g69
g70
NtRp3243
(dp3244
g73
(dp3245
g81
I5
ssg82
g3239
sg75
(lp3246
S'/astra1/default/show'
p3247
asbasbasbag68
(g84
g70
NtRp3248
(dp3249
g73
(dp3250
sg82
g78
sg75
(lp3251
g68
(g89
g70
NtRp3252
(dp3253
g73
(dp3254
g93
g94
ssg82
g3248
sg75
(lp3255
S'utcnow'
p3256
asbag68
(g89
g70
NtRp3257
(dp3258
g73
(dp3259
g100
g101
ssg82
g3248
sg75
(lp3260
S':'
asbag68
(g89
g70
NtRp3261
(dp3262
g73
(dp3263
sg82
g3248
sg75
(lp3264
g68
(g69
g70
NtRp3265
(dp3266
g73
(dp3267
g81
I5
ssg82
g3261
sg75
(lp3268
S'datetime.datetime(2012, 10, 14, 20, 40, 33, 317960)'
p3269
asbasbasbag68
(g84
g70
NtRp3270
(dp3271
g73
(dp3272
sg82
g78
sg75
(lp3273
g68
(g89
g70
NtRp3274
(dp3275
g73
(dp3276
g93
g94
ssg82
g3270
sg75
(lp3277
S'uuid'
p3278
asbag68
(g89
g70
NtRp3279
(dp3280
g73
(dp3281
g100
g101
ssg82
g3270
sg75
(lp3282
S':'
asbag68
(g89
g70
NtRp3283
(dp3284
g73
(dp3285
sg82
g3270
sg75
(lp3286
g68
(g69
g70
NtRp3287
(dp3288
g73
(dp3289
g81
I5
ssg82
g3283
sg75
(lp3290
S'astra1/127.0.0.1.2012-10-15.01-40-33.8bc53e81-3296-49cb-a020-5beaa4be2fd2'
p3291
asbasbasbag68
(g84
g70
NtRp3292
(dp3293
g73
(dp3294
sg82
g78
sg75
(lp3295
g68
(g89
g70
NtRp3296
(dp3297
g73
(dp3298
g93
g94
ssg82
g3292
sg75
(lp3299
S'vars'
p3300
asbag68
(g89
g70
NtRp3301
(dp3302
g73
(dp3303
g100
g101
ssg82
g3292
sg75
(lp3304
S':'
asbag68
(g89
g70
NtRp3305
(dp3306
g73
(dp3307
sg82
g3292
sg75
(lp3308
g68
(g69
g70
NtRp3309
(dp3310
g73
(dp3311
g81
I5
ssg82
g3305
sg75
(lp3312
g68
(g77
g70
NtRp3313
(dp3314
g73
(dp3315
g81
I4
ssg82
Nsg75
(lp3316
sbasbasbasbag68
(g84
g70
NtRp3317
(dp3318
g73
(dp3319
sg82
g78
sg75
(lp3320
g68
(g89
g70
NtRp3321
(dp3322
g73
(dp3323
g93
g94
ssg82
g3317
sg75
(lp3324
S'wsgi'
p3325
asbag68
(g89
g70
NtRp3326
(dp3327
g73
(dp3328
g100
g101
ssg82
g3317
sg75
(lp3329
S':'
asbag68
(g89
g70
NtRp3330
(dp3331
g73
(dp3332
sg82
g3317
sg75
(lp3333
g68
(g69
g70
NtRp3334
(dp3335
g73
(dp3336
g81
I5
ssg82
g3330
sg75
(lp3337
g68
(g77
g70
NtRp3338
(dp3339
g73
(dp3340
g81
I4
ssg82
Nsg75
(lp3341
g68
(g84
g70
NtRp3342
(dp3343
g73
(dp3344
sg82
g3338
sg75
(lp3345
g68
(g89
g70
NtRp3346
(dp3347
g73
(dp3348
g93
g94
ssg82
g3342
sg75
(lp3349
S'environ'
p3350
asbag68
(g89
g70
NtRp3351
(dp3352
g73
(dp3353
g100
g101
ssg82
g3342
sg75
(lp3354
S':'
asbag68
(g89
g70
NtRp3355
(dp3356
g73
(dp3357
sg82
g3342
sg75
(lp3358
g68
(g69
g70
NtRp3359
(dp3360
g73
(dp3361
g81
I4
ssg82
g3355
sg75
(lp3362
g68
(g77
g70
NtRp3363
(dp3364
g73
(dp3365
g81
I3
ssg82
Nsg75
(lp3366
g68
(g84
g70
NtRp3367
(dp3368
g73
(dp3369
sg82
g3363
sg75
(lp3370
g68
(g89
g70
NtRp3371
(dp3372
g73
(dp3373
g93
g94
ssg82
g3367
sg75
(lp3374
S'HTTP_ACCEPT'
p3375
asbag68
(g89
g70
NtRp3376
(dp3377
g73
(dp3378
g100
g101
ssg82
g3367
sg75
(lp3379
S':'
asbag68
(g89
g70
NtRp3380
(dp3381
g73
(dp3382
sg82
g3367
sg75
(lp3383
g68
(g69
g70
NtRp3384
(dp3385
g73
(dp3386
g81
I3
ssg82
g3380
sg75
(lp3387
g1939
asbasbasbag68
(g84
g70
NtRp3388
(dp3389
g73
(dp3390
sg82
g3363
sg75
(lp3391
g68
(g89
g70
NtRp3392
(dp3393
g73
(dp3394
g93
g94
ssg82
g3388
sg75
(lp3395
S'HTTP_ACCEPT_ENCODING'
p3396
asbag68
(g89
g70
NtRp3397
(dp3398
g73
(dp3399
g100
g101
ssg82
g3388
sg75
(lp3400
S':'
asbag68
(g89
g70
NtRp3401
(dp3402
g73
(dp3403
sg82
g3388
sg75
(lp3404
g68
(g69
g70
NtRp3405
(dp3406
g73
(dp3407
g81
I3
ssg82
g3401
sg75
(lp3408
g1961
asbasbasbag68
(g84
g70
NtRp3409
(dp3410
g73
(dp3411
sg82
g3363
sg75
(lp3412
g68
(g89
g70
NtRp3413
(dp3414
g73
(dp3415
g93
g94
ssg82
g3409
sg75
(lp3416
S'HTTP_ACCEPT_LANGUAGE'
p3417
asbag68
(g89
g70
NtRp3418
(dp3419
g73
(dp3420
g100
g101
ssg82
g3409
sg75
(lp3421
S':'
asbag68
(g89
g70
NtRp3422
(dp3423
g73
(dp3424
sg82
g3409
sg75
(lp3425
g68
(g69
g70
NtRp3426
(dp3427
g73
(dp3428
g81
I3
ssg82
g3422
sg75
(lp3429
g1983
asbasbasbag68
(g84
g70
NtRp3430
(dp3431
g73
(dp3432
sg82
g3363
sg75
(lp3433
g68
(g89
g70
NtRp3434
(dp3435
g73
(dp3436
g93
g94
ssg82
g3430
sg75
(lp3437
S'HTTP_CACHE_CONTROL'
p3438
asbag68
(g89
g70
NtRp3439
(dp3440
g73
(dp3441
g100
g101
ssg82
g3430
sg75
(lp3442
S':'
asbag68
(g89
g70
NtRp3443
(dp3444
g73
(dp3445
sg82
g3430
sg75
(lp3446
g68
(g69
g70
NtRp3447
(dp3448
g73
(dp3449
g81
I3
ssg82
g3443
sg75
(lp3450
g2005
asbasbasbag68
(g84
g70
NtRp3451
(dp3452
g73
(dp3453
sg82
g3363
sg75
(lp3454
g68
(g89
g70
NtRp3455
(dp3456
g73
(dp3457
g93
g94
ssg82
g3451
sg75
(lp3458
S'HTTP_CONNECTION'
p3459
asbag68
(g89
g70
NtRp3460
(dp3461
g73
(dp3462
g100
g101
ssg82
g3451
sg75
(lp3463
S':'
asbag68
(g89
g70
NtRp3464
(dp3465
g73
(dp3466
sg82
g3451
sg75
(lp3467
g68
(g69
g70
NtRp3468
(dp3469
g73
(dp3470
g81
I3
ssg82
g3464
sg75
(lp3471
g2027
asbasbasbag68
(g84
g70
NtRp3472
(dp3473
g73
(dp3474
sg82
g3363
sg75
(lp3475
g68
(g89
g70
NtRp3476
(dp3477
g73
(dp3478
g93
g94
ssg82
g3472
sg75
(lp3479
S'HTTP_COOKIE'
p3480
asbag68
(g89
g70
NtRp3481
(dp3482
g73
(dp3483
g100
g101
ssg82
g3472
sg75
(lp3484
S':'
asbag68
(g89
g70
NtRp3485
(dp3486
g73
(dp3487
sg82
g3472
sg75
(lp3488
g68
(g69
g70
NtRp3489
(dp3490
g73
(dp3491
g81
I3
ssg82
g3485
sg75
(lp3492
g2049
asbasbasbag68
(g84
g70
NtRp3493
(dp3494
g73
(dp3495
sg82
g3363
sg75
(lp3496
g68
(g89
g70
NtRp3497
(dp3498
g73
(dp3499
g93
g94
ssg82
g3493
sg75
(lp3500
S'HTTP_HOST'
p3501
asbag68
(g89
g70
NtRp3502
(dp3503
g73
(dp3504
g100
g101
ssg82
g3493
sg75
(lp3505
S':'
asbag68
(g89
g70
NtRp3506
(dp3507
g73
(dp3508
sg82
g3493
sg75
(lp3509
g68
(g69
g70
NtRp3510
(dp3511
g73
(dp3512
g81
I3
ssg82
g3506
sg75
(lp3513
g2071
asbasbasbag68
(g84
g70
NtRp3514
(dp3515
g73
(dp3516
sg82
g3363
sg75
(lp3517
g68
(g89
g70
NtRp3518
(dp3519
g73
(dp3520
g93
g94
ssg82
g3514
sg75
(lp3521
S'HTTP_REFERER'
p3522
asbag68
(g89
g70
NtRp3523
(dp3524
g73
(dp3525
g100
g101
ssg82
g3514
sg75
(lp3526
S':'
asbag68
(g89
g70
NtRp3527
(dp3528
g73
(dp3529
sg82
g3514
sg75
(lp3530
g68
(g69
g70
NtRp3531
(dp3532
g73
(dp3533
g81
I3
ssg82
g3527
sg75
(lp3534
g2093
asbasbasbag68
(g84
g70
NtRp3535
(dp3536
g73
(dp3537
sg82
g3363
sg75
(lp3538
g68
(g89
g70
NtRp3539
(dp3540
g73
(dp3541
g93
g94
ssg82
g3535
sg75
(lp3542
S'HTTP_USER_AGENT'
p3543
asbag68
(g89
g70
NtRp3544
(dp3545
g73
(dp3546
g100
g101
ssg82
g3535
sg75
(lp3547
S':'
asbag68
(g89
g70
NtRp3548
(dp3549
g73
(dp3550
sg82
g3535
sg75
(lp3551
g68
(g69
g70
NtRp3552
(dp3553
g73
(dp3554
g81
I3
ssg82
g3548
sg75
(lp3555
g2115
asbasbasbag68
(g84
g70
NtRp3556
(dp3557
g73
(dp3558
sg82
g3363
sg75
(lp3559
g68
(g89
g70
NtRp3560
(dp3561
g73
(dp3562
g93
g94
ssg82
g3556
sg75
(lp3563
S'PATH_INFO'
p3564
asbag68
(g89
g70
NtRp3565
(dp3566
g73
(dp3567
g100
g101
ssg82
g3556
sg75
(lp3568
S':'
asbag68
(g89
g70
NtRp3569
(dp3570
g73
(dp3571
sg82
g3556
sg75
(lp3572
g68
(g69
g70
NtRp3573
(dp3574
g73
(dp3575
g81
I3
ssg82
g3569
sg75
(lp3576
g2179
asbasbasbag68
(g84
g70
NtRp3577
(dp3578
g73
(dp3579
sg82
g3363
sg75
(lp3580
g68
(g89
g70
NtRp3581
(dp3582
g73
(dp3583
g93
g94
ssg82
g3577
sg75
(lp3584
S'QUERY_STRING'
p3585
asbag68
(g89
g70
NtRp3586
(dp3587
g73
(dp3588
g100
g101
ssg82
g3577
sg75
(lp3589
S':'
asbag68
(g89
g70
NtRp3590
(dp3591
g73
(dp3592
sg82
g3577
sg75
(lp3593
g68
(g69
g70
NtRp3594
(dp3595
g73
(dp3596
g81
I3
ssg82
g3590
sg75
(lp3597
S''
asbasbasbag68
(g84
g70
NtRp3598
(dp3599
g73
(dp3600
sg82
g3363
sg75
(lp3601
g68
(g89
g70
NtRp3602
(dp3603
g73
(dp3604
g93
g94
ssg82
g3598
sg75
(lp3605
S'REMOTE_ADDR'
p3606
asbag68
(g89
g70
NtRp3607
(dp3608
g73
(dp3609
g100
g101
ssg82
g3598
sg75
(lp3610
S':'
asbag68
(g89
g70
NtRp3611
(dp3612
g73
(dp3613
sg82
g3598
sg75
(lp3614
g68
(g69
g70
NtRp3615
(dp3616
g73
(dp3617
g81
I3
ssg82
g3611
sg75
(lp3618
g201
asbasbasbag68
(g84
g70
NtRp3619
(dp3620
g73
(dp3621
sg82
g3363
sg75
(lp3622
g68
(g89
g70
NtRp3623
(dp3624
g73
(dp3625
g93
g94
ssg82
g3619
sg75
(lp3626
S'REMOTE_PORT'
p3627
asbag68
(g89
g70
NtRp3628
(dp3629
g73
(dp3630
g100
g101
ssg82
g3619
sg75
(lp3631
S':'
asbag68
(g89
g70
NtRp3632
(dp3633
g73
(dp3634
sg82
g3619
sg75
(lp3635
g68
(g69
g70
NtRp3636
(dp3637
g73
(dp3638
g81
I3
ssg82
g3632
sg75
(lp3639
g2243
asbasbasbag68
(g84
g70
NtRp3640
(dp3641
g73
(dp3642
sg82
g3363
sg75
(lp3643
g68
(g89
g70
NtRp3644
(dp3645
g73
(dp3646
g93
g94
ssg82
g3640
sg75
(lp3647
S'REQUEST_METHOD'
p3648
asbag68
(g89
g70
NtRp3649
(dp3650
g73
(dp3651
g100
g101
ssg82
g3640
sg75
(lp3652
S':'
asbag68
(g89
g70
NtRp3653
(dp3654
g73
(dp3655
sg82
g3640
sg75
(lp3656
g68
(g69
g70
NtRp3657
(dp3658
g73
(dp3659
g81
I3
ssg82
g3653
sg75
(lp3660
g2265
asbasbasbag68
(g84
g70
NtRp3661
(dp3662
g73
(dp3663
sg82
g3363
sg75
(lp3664
g68
(g89
g70
NtRp3665
(dp3666
g73
(dp3667
g93
g94
ssg82
g3661
sg75
(lp3668
S'SCRIPT_NAME'
p3669
asbag68
(g89
g70
NtRp3670
(dp3671
g73
(dp3672
g100
g101
ssg82
g3661
sg75
(lp3673
S':'
asbag68
(g89
g70
NtRp3674
(dp3675
g73
(dp3676
sg82
g3661
sg75
(lp3677
g68
(g69
g70
NtRp3678
(dp3679
g73
(dp3680
g81
I3
ssg82
g3674
sg75
(lp3681
S''
asbasbasbag68
(g84
g70
NtRp3682
(dp3683
g73
(dp3684
sg82
g3363
sg75
(lp3685
g68
(g89
g70
NtRp3686
(dp3687
g73
(dp3688
g93
g94
ssg82
g3682
sg75
(lp3689
S'SERVER_NAME'
p3690
asbag68
(g89
g70
NtRp3691
(dp3692
g73
(dp3693
g100
g101
ssg82
g3682
sg75
(lp3694
S':'
asbag68
(g89
g70
NtRp3695
(dp3696
g73
(dp3697
sg82
g3682
sg75
(lp3698
g68
(g69
g70
NtRp3699
(dp3700
g73
(dp3701
g81
I3
ssg82
g3695
sg75
(lp3702
g2308
asbasbasbag68
(g84
g70
NtRp3703
(dp3704
g73
(dp3705
sg82
g3363
sg75
(lp3706
g68
(g89
g70
NtRp3707
(dp3708
g73
(dp3709
g93
g94
ssg82
g3703
sg75
(lp3710
S'SERVER_PORT'
p3711
asbag68
(g89
g70
NtRp3712
(dp3713
g73
(dp3714
g100
g101
ssg82
g3703
sg75
(lp3715
S':'
asbag68
(g89
g70
NtRp3716
(dp3717
g73
(dp3718
sg82
g3703
sg75
(lp3719
g68
(g69
g70
NtRp3720
(dp3721
g73
(dp3722
g81
I3
ssg82
g3716
sg75
(lp3723
g2330
asbasbasbag68
(g84
g70
NtRp3724
(dp3725
g73
(dp3726
sg82
g3363
sg75
(lp3727
g68
(g89
g70
NtRp3728
(dp3729
g73
(dp3730
g93
g94
ssg82
g3724
sg75
(lp3731
S'SERVER_PROTOCOL'
p3732
asbag68
(g89
g70
NtRp3733
(dp3734
g73
(dp3735
g100
g101
ssg82
g3724
sg75
(lp3736
S':'
asbag68
(g89
g70
NtRp3737
(dp3738
g73
(dp3739
sg82
g3724
sg75
(lp3740
g68
(g69
g70
NtRp3741
(dp3742
g73
(dp3743
g81
I3
ssg82
g3737
sg75
(lp3744
g2352
asbasbasbag68
(g84
g70
NtRp3745
(dp3746
g73
(dp3747
sg82
g3363
sg75
(lp3748
g68
(g89
g70
NtRp3749
(dp3750
g73
(dp3751
g93
g94
ssg82
g3745
sg75
(lp3752
S'SERVER_SOFTWARE'
p3753
asbag68
(g89
g70
NtRp3754
(dp3755
g73
(dp3756
g100
g101
ssg82
g3745
sg75
(lp3757
S':'
asbag68
(g89
g70
NtRp3758
(dp3759
g73
(dp3760
sg82
g3745
sg75
(lp3761
g68
(g69
g70
NtRp3762
(dp3763
g73
(dp3764
g81
I3
ssg82
g3758
sg75
(lp3765
g2374
asbasbasbag68
(g84
g70
NtRp3766
(dp3767
g73
(dp3768
sg82
g3363
sg75
(lp3769
g68
(g89
g70
NtRp3770
(dp3771
g73
(dp3772
g93
g94
ssg82
g3766
sg75
(lp3773
S'wsgi.errors'
p3774
asbag68
(g89
g70
NtRp3775
(dp3776
g73
(dp3777
g100
g101
ssg82
g3766
sg75
(lp3778
S':'
asbag68
(g89
g70
NtRp3779
(dp3780
g73
(dp3781
sg82
g3766
sg75
(lp3782
g68
(g69
g70
NtRp3783
(dp3784
g73
(dp3785
g81
I3
ssg82
g3779
sg75
(lp3786
S"<open file '<stderr>', mode 'w' at 0xb77bc0d0>"
p3787
asbasbasbag68
(g84
g70
NtRp3788
(dp3789
g73
(dp3790
sg82
g3363
sg75
(lp3791
g68
(g89
g70
NtRp3792
(dp3793
g73
(dp3794
g93
g94
ssg82
g3788
sg75
(lp3795
S'wsgi.file_wrapper'
p3796
asbag68
(g89
g70
NtRp3797
(dp3798
g73
(dp3799
g100
g101
ssg82
g3788
sg75
(lp3800
S':'
asbag68
(g89
g70
NtRp3801
(dp3802
g73
(dp3803
sg82
g3788
sg75
(lp3804
g68
(g69
g70
NtRp3805
(dp3806
g73
(dp3807
g81
I3
ssg82
g3801
sg75
(lp3808
S'<class wsgiref.util.FileWrapper at 0x9c55aac>'
p3809
asbasbasbag68
(g84
g70
NtRp3810
(dp3811
g73
(dp3812
sg82
g3363
sg75
(lp3813
g68
(g89
g70
NtRp3814
(dp3815
g73
(dp3816
g93
g94
ssg82
g3810
sg75
(lp3817
S'wsgi.input'
p3818
asbag68
(g89
g70
NtRp3819
(dp3820
g73
(dp3821
g100
g101
ssg82
g3810
sg75
(lp3822
S':'
asbag68
(g89
g70
NtRp3823
(dp3824
g73
(dp3825
sg82
g3810
sg75
(lp3826
g68
(g69
g70
NtRp3827
(dp3828
g73
(dp3829
g81
I3
ssg82
g3823
sg75
(lp3830
S'<cStringIO.StringO object at 0xa532aa0>'
p3831
asbasbasbag68
(g84
g70
NtRp3832
(dp3833
g73
(dp3834
sg82
g3363
sg75
(lp3835
g68
(g89
g70
NtRp3836
(dp3837
g73
(dp3838
g93
g94
ssg82
g3832
sg75
(lp3839
S'wsgi.multiprocess'
p3840
asbag68
(g89
g70
NtRp3841
(dp3842
g73
(dp3843
g100
g101
ssg82
g3832
sg75
(lp3844
S':'
asbag68
(g89
g70
NtRp3845
(dp3846
g73
(dp3847
sg82
g3832
sg75
(lp3848
g68
(g69
g70
NtRp3849
(dp3850
g73
(dp3851
g81
I3
ssg82
g3845
sg75
(lp3852
g111
asbasbasbag68
(g84
g70
NtRp3853
(dp3854
g73
(dp3855
sg82
g3363
sg75
(lp3856
g68
(g89
g70
NtRp3857
(dp3858
g73
(dp3859
g93
g94
ssg82
g3853
sg75
(lp3860
S'wsgi.multithread'
p3861
asbag68
(g89
g70
NtRp3862
(dp3863
g73
(dp3864
g100
g101
ssg82
g3853
sg75
(lp3865
S':'
asbag68
(g89
g70
NtRp3866
(dp3867
g73
(dp3868
sg82
g3853
sg75
(lp3869
g68
(g69
g70
NtRp3870
(dp3871
g73
(dp3872
g81
I3
ssg82
g3866
sg75
(lp3873
g2614
asbasbasbag68
(g84
g70
NtRp3874
(dp3875
g73
(dp3876
sg82
g3363
sg75
(lp3877
g68
(g89
g70
NtRp3878
(dp3879
g73
(dp3880
g93
g94
ssg82
g3874
sg75
(lp3881
S'wsgi.run_once'
p3882
asbag68
(g89
g70
NtRp3883
(dp3884
g73
(dp3885
g100
g101
ssg82
g3874
sg75
(lp3886
S':'
asbag68
(g89
g70
NtRp3887
(dp3888
g73
(dp3889
sg82
g3874
sg75
(lp3890
g68
(g69
g70
NtRp3891
(dp3892
g73
(dp3893
g81
I3
ssg82
g3887
sg75
(lp3894
g111
asbasbasbag68
(g84
g70
NtRp3895
(dp3896
g73
(dp3897
sg82
g3363
sg75
(lp3898
g68
(g89
g70
NtRp3899
(dp3900
g73
(dp3901
g93
g94
ssg82
g3895
sg75
(lp3902
S'wsgi.url_scheme'
p3903
asbag68
(g89
g70
NtRp3904
(dp3905
g73
(dp3906
g100
g101
ssg82
g3895
sg75
(lp3907
S':'
asbag68
(g89
g70
NtRp3908
(dp3909
g73
(dp3910
sg82
g3895
sg75
(lp3911
g68
(g69
g70
NtRp3912
(dp3913
g73
(dp3914
g81
I3
ssg82
g3908
sg75
(lp3915
g2657
asbasbasbag68
(g84
g70
NtRp3916
(dp3917
g73
(dp3918
sg82
g3363
sg75
(lp3919
g68
(g89
g70
NtRp3920
(dp3921
g73
(dp3922
g93
g94
ssg82
g3916
sg75
(lp3923
S'wsgi.version'
p3924
asbag68
(g89
g70
NtRp3925
(dp3926
g73
(dp3927
g100
g101
ssg82
g3916
sg75
(lp3928
S':'
asbag68
(g89
g70
NtRp3929
(dp3930
g73
(dp3931
sg82
g3916
sg75
(lp3932
g68
(g69
g70
NtRp3933
(dp3934
g73
(dp3935
g81
I3
ssg82
g3929
sg75
(lp3936
S'1'
asbasbasbasbasbasbasbasbasbasbasbasbasbsS'frames'
p3937
(lp3938
(dp3939
S'file'
p3940
S'/home/vishrut/web2py/gluon/restricted.py'
p3941
sS'dump'
p3942
(dp3943
S'code'
p3944
S'r"response.write(\'<!DOCTYPE html>\\n<!-- paulirish....ponse.write(\'\\n</body>\\n</html>\\n\', escape=False)"'
p3945
sS'layer'
p3946
S"'/home/vishrut/web2py/applications/astra1/views/default/show.html'"
p3947
sS'global compile2'
p3948
S'<function compile2>'
p3949
sS'ccode'
p3950
S'undefined'
p3951
ssS'lnum'
p3952
I204
sS'lines'
p3953
(dp3954
I199
S"    environment['__name__'] = '__restricted__'"
p3955
sI200
S'    try:'
p3956
sI201
S'        if type(code) == types.CodeType:'
p3957
sI202
S'            ccode = code'
p3958
sI203
S'        else:'
p3959
sI204
S'            ccode = compile2(code,layer)'
p3960
sI205
S'        exec ccode in environment'
p3961
sI206
S'    except HTTP:'
p3962
sI207
S'        raise'
p3963
sI208
S'    except RestrictedError:'
p3964
ssS'call'
p3965
S'(code=r"response.write(\'<!DOCTYPE html>\\n<!-- paulirish....ponse.write(\'\\n</body>\\n</html>\\n\', escape=False)", environment={\'A\': <class \'gluon.html.A\'>, \'Auth\': <class \'gluon.tools.Auth\'>, \'B\': <class \'gluon.html.B\'>, \'BEAUTIFY\': <class \'gluon.html.BEAUTIFY\'>, \'BODY\': <class \'gluon.html.BODY\'>, \'BR\': <class \'gluon.html.BR\'>, \'BUTTON\': <class \'gluon.html.BUTTON\'>, \'CAT\': <class \'gluon.html.CAT\'>, \'CENTER\': <class \'gluon.html.CENTER\'>, \'CLEANUP\': <class \'gluon.validators.CLEANUP\'>, ...}, layer=\'/home/vishrut/web2py/applications/astra1/views/default/show.html\')'
p3966
sS'func'
p3967
S'restricted'
p3968
sa(dp3969
g3940
S'/home/vishrut/web2py/gluon/restricted.py'
p3970
sg3942
(dp3971
S'builtincompile'
p3972
S'<built-in function compile>'
p3973
sS'code'
p3974
S'r"response.write(\'<!DOCTYPE html>\\n<!-- paulirish....ponse.write(\'\\n</body>\\n</html>\\n\', escape=False)"'
p3975
sS'code.rstrip'
p3976
S'<built-in method rstrip of str object>'
p3977
sS').replace'
p3978
g3951
sS'layer'
p3979
S"'/home/vishrut/web2py/applications/astra1/views/default/show.html'"
p3980
ssg3952
I189
sg3953
(dp3981
I192
S'    """'
p3982
sI193
S'    runs code in environment and returns the output. if an exception occurs'
p3983
sI184
S''
sI185
S'def compile2(code,layer):'
p3984
sI186
S'    """'
p3985
sI187
S"    The +'\\n' is necessary else compile fails when code ends in a comment."
p3986
sI188
S'    """'
p3987
sI189
S"    return compile(code.rstrip().replace('\\r\\n','\\n')+'\\n', layer, 'exec')"
p3988
sI190
S''
sI191
S"def restricted(code, environment=None, layer='Unknown'):"
p3989
ssg3965
S'(code=r"response.write(\'<!DOCTYPE html>\\n<!-- paulirish....ponse.write(\'\\n</body>\\n</html>\\n\', escape=False)", layer=\'/home/vishrut/web2py/applications/astra1/views/default/show.html\')'
p3990
sg3967
S'compile2'
p3991
sasS'pyver'
p3992
S'Python 2.7.2+: /usr/bin/python'
p3993
sS'session'
p3994
g68
(g69
g70
NtRp3995
(dp3996
g73
(dp3997
sg75
(lp3998
g68
(g77
g70
NtRp3999
(dp4000
g73
(dp4001
g81
I5
ssg82
Nsg75
(lp4002
g68
(g84
g70
NtRp4003
(dp4004
g73
(dp4005
sg82
g3999
sg75
(lp4006
g68
(g89
g70
NtRp4007
(dp4008
g73
(dp4009
g93
g94
ssg82
g4003
sg75
(lp4010
S'last_query'
p4011
asbag68
(g89
g70
NtRp4012
(dp4013
g73
(dp4014
g100
g101
ssg82
g4003
sg75
(lp4015
S':'
asbag68
(g89
g70
NtRp4016
(dp4017
g73
(dp4018
sg82
g4003
sg75
(lp4019
g68
(g69
g70
NtRp4020
(dp4021
g73
(dp4022
g81
I5
ssg82
g4016
sg75
(lp4023
S'db.kids.id>0'
p4024
asbasbasbag68
(g84
g70
NtRp4025
(dp4026
g73
(dp4027
sg82
g3999
sg75
(lp4028
g68
(g89
g70
NtRp4029
(dp4030
g73
(dp4031
g93
g94
ssg82
g4025
sg75
(lp4032
S'logged'
p4033
asbag68
(g89
g70
NtRp4034
(dp4035
g73
(dp4036
g100
g101
ssg82
g4025
sg75
(lp4037
S':'
asbag68
(g89
g70
NtRp4038
(dp4039
g73
(dp4040
sg82
g4025
sg75
(lp4041
g68
(g69
g70
NtRp4042
(dp4043
g73
(dp4044
g81
I5
ssg82
g4038
sg75
(lp4045
S'0'
asbasbasbag68
(g84
g70
NtRp4046
(dp4047
g73
(dp4048
sg82
g3999
sg75
(lp4049
g68
(g89
g70
NtRp4050
(dp4051
g73
(dp4052
g93
g94
ssg82
g4046
sg75
(lp4053
S'name'
p4054
asbag68
(g89
g70
NtRp4055
(dp4056
g73
(dp4057
g100
g101
ssg82
g4046
sg75
(lp4058
S':'
asbag68
(g89
g70
NtRp4059
(dp4060
g73
(dp4061
sg82
g4046
sg75
(lp4062
g68
(g69
g70
NtRp4063
(dp4064
g73
(dp4065
g81
I5
ssg82
g4059
sg75
(lp4066
S'Hist'
p4067
asbasbasbag68
(g84
g70
NtRp4068
(dp4069
g73
(dp4070
sg82
g3999
sg75
(lp4071
g68
(g89
g70
NtRp4072
(dp4073
g73
(dp4074
g93
g94
ssg82
g4068
sg75
(lp4075
S'username'
p4076
asbag68
(g89
g70
NtRp4077
(dp4078
g73
(dp4079
g100
g101
ssg82
g4068
sg75
(lp4080
S':'
asbag68
(g89
g70
NtRp4081
(dp4082
g73
(dp4083
sg82
g4068
sg75
(lp4084
g68
(g69
g70
NtRp4085
(dp4086
g73
(dp4087
g81
I5
ssg82
g4081
sg75
(lp4088
S'Tushant'
p4089
asbasbasbasbasbsS'etype'
p4090
S"<type 'exceptions.SyntaxError'>"
p4091
sS'date'
p4092
S'Mon Oct 15 01:40:33 2012'
p4093
sS'response'
p4094
g68
(g69
g70
NtRp4095
(dp4096
g73
(dp4097
sg75
(lp4098
g68
(g77
g70
NtRp4099
(dp4100
g73
(dp4101
g81
I5
ssg82
Nsg75
(lp4102
g68
(g84
g70
NtRp4103
(dp4104
g73
(dp4105
sg82
g4099
sg75
(lp4106
g68
(g89
g70
NtRp4107
(dp4108
g73
(dp4109
g93
g94
ssg82
g4103
sg75
(lp4110
g166
asbag68
(g89
g70
NtRp4111
(dp4112
g73
(dp4113
g100
g101
ssg82
g4103
sg75
(lp4114
S':'
asbag68
(g89
g70
NtRp4115
(dp4116
g73
(dp4117
sg82
g4103
sg75
(lp4118
g68
(g69
g70
NtRp4119
(dp4120
g73
(dp4121
g81
I5
ssg82
g4115
sg75
(lp4122
S'<cStringIO.StringO object at 0xacd55a0>'
p4123
asbasbasbag68
(g84
g70
NtRp4124
(dp4125
g73
(dp4126
sg82
g4099
sg75
(lp4127
g68
(g89
g70
NtRp4128
(dp4129
g73
(dp4130
g93
g94
ssg82
g4124
sg75
(lp4131
g232
asbag68
(g89
g70
NtRp4132
(dp4133
g73
(dp4134
g100
g101
ssg82
g4124
sg75
(lp4135
S':'
asbag68
(g89
g70
NtRp4136
(dp4137
g73
(dp4138
sg82
g4124
sg75
(lp4139
g68
(g69
g70
NtRp4140
(dp4141
g73
(dp4142
g81
I5
ssg82
g4136
sg75
(lp4143
g68
(g77
g70
NtRp4144
(dp4145
g73
(dp4146
g81
I4
ssg82
Nsg75
(lp4147
g68
(g84
g70
NtRp4148
(dp4149
g73
(dp4150
sg82
g4144
sg75
(lp4151
g68
(g89
g70
NtRp4152
(dp4153
g73
(dp4154
g93
g94
ssg82
g4148
sg75
(lp4155
S'session_id_astra1'
p4156
asbag68
(g89
g70
NtRp4157
(dp4158
g73
(dp4159
g100
g101
ssg82
g4148
sg75
(lp4160
S':'
asbag68
(g89
g70
NtRp4161
(dp4162
g73
(dp4163
sg82
g4148
sg75
(lp4164
g68
(g69
g70
NtRp4165
(dp4166
g73
(dp4167
g81
I4
ssg82
g4161
sg75
(lp4168
g68
(g77
g70
NtRp4169
(dp4170
g73
(dp4171
g81
I3
ssg82
Nsg75
(lp4172
g68
(g84
g70
NtRp4173
(dp4174
g73
(dp4175
sg82
g4169
sg75
(lp4176
g68
(g89
g70
NtRp4177
(dp4178
g73
(dp4179
g93
g94
ssg82
g4173
sg75
(lp4180
g282
asbag68
(g89
g70
NtRp4181
(dp4182
g73
(dp4183
g100
g101
ssg82
g4173
sg75
(lp4184
S':'
asbag68
(g89
g70
NtRp4185
(dp4186
g73
(dp4187
sg82
g4173
sg75
(lp4188
g68
(g69
g70
NtRp4189
(dp4190
g73
(dp4191
g81
I3
ssg82
g4185
sg75
(lp4192
S''
asbasbasbag68
(g84
g70
NtRp4193
(dp4194
g73
(dp4195
sg82
g4169
sg75
(lp4196
g68
(g89
g70
NtRp4197
(dp4198
g73
(dp4199
g93
g94
ssg82
g4193
sg75
(lp4200
g303
asbag68
(g89
g70
NtRp4201
(dp4202
g73
(dp4203
g100
g101
ssg82
g4193
sg75
(lp4204
S':'
asbag68
(g89
g70
NtRp4205
(dp4206
g73
(dp4207
sg82
g4193
sg75
(lp4208
g68
(g69
g70
NtRp4209
(dp4210
g73
(dp4211
g81
I3
ssg82
g4205
sg75
(lp4212
S''
asbasbasbag68
(g84
g70
NtRp4213
(dp4214
g73
(dp4215
sg82
g4169
sg75
(lp4216
g68
(g89
g70
NtRp4217
(dp4218
g73
(dp4219
g93
g94
ssg82
g4213
sg75
(lp4220
g324
asbag68
(g89
g70
NtRp4221
(dp4222
g73
(dp4223
g100
g101
ssg82
g4213
sg75
(lp4224
S':'
asbag68
(g89
g70
NtRp4225
(dp4226
g73
(dp4227
sg82
g4213
sg75
(lp4228
g68
(g69
g70
NtRp4229
(dp4230
g73
(dp4231
g81
I3
ssg82
g4225
sg75
(lp4232
S''
asbasbasbag68
(g84
g70
NtRp4233
(dp4234
g73
(dp4235
sg82
g4169
sg75
(lp4236
g68
(g89
g70
NtRp4237
(dp4238
g73
(dp4239
g93
g94
ssg82
g4233
sg75
(lp4240
g345
asbag68
(g89
g70
NtRp4241
(dp4242
g73
(dp4243
g100
g101
ssg82
g4233
sg75
(lp4244
S':'
asbag68
(g89
g70
NtRp4245
(dp4246
g73
(dp4247
sg82
g4233
sg75
(lp4248
g68
(g69
g70
NtRp4249
(dp4250
g73
(dp4251
g81
I3
ssg82
g4245
sg75
(lp4252
S''
asbasbasbag68
(g84
g70
NtRp4253
(dp4254
g73
(dp4255
sg82
g4169
sg75
(lp4256
g68
(g89
g70
NtRp4257
(dp4258
g73
(dp4259
g93
g94
ssg82
g4253
sg75
(lp4260
g366
asbag68
(g89
g70
NtRp4261
(dp4262
g73
(dp4263
g100
g101
ssg82
g4253
sg75
(lp4264
S':'
asbag68
(g89
g70
NtRp4265
(dp4266
g73
(dp4267
sg82
g4253
sg75
(lp4268
g68
(g69
g70
NtRp4269
(dp4270
g73
(dp4271
g81
I3
ssg82
g4265
sg75
(lp4272
S''
asbasbasbag68
(g84
g70
NtRp4273
(dp4274
g73
(dp4275
sg82
g4169
sg75
(lp4276
g68
(g89
g70
NtRp4277
(dp4278
g73
(dp4279
g93
g94
ssg82
g4273
sg75
(lp4280
g387
asbag68
(g89
g70
NtRp4281
(dp4282
g73
(dp4283
g100
g101
ssg82
g4273
sg75
(lp4284
S':'
asbag68
(g89
g70
NtRp4285
(dp4286
g73
(dp4287
sg82
g4273
sg75
(lp4288
g68
(g69
g70
NtRp4289
(dp4290
g73
(dp4291
g81
I3
ssg82
g4285
sg75
(lp4292
S'/'
asbasbasbag68
(g84
g70
NtRp4293
(dp4294
g73
(dp4295
sg82
g4169
sg75
(lp4296
g68
(g89
g70
NtRp4297
(dp4298
g73
(dp4299
g93
g94
ssg82
g4293
sg75
(lp4300
g408
asbag68
(g89
g70
NtRp4301
(dp4302
g73
(dp4303
g100
g101
ssg82
g4293
sg75
(lp4304
S':'
asbag68
(g89
g70
NtRp4305
(dp4306
g73
(dp4307
sg82
g4293
sg75
(lp4308
g68
(g69
g70
NtRp4309
(dp4310
g73
(dp4311
g81
I3
ssg82
g4305
sg75
(lp4312
S''
asbasbasbag68
(g84
g70
NtRp4313
(dp4314
g73
(dp4315
sg82
g4169
sg75
(lp4316
g68
(g89
g70
NtRp4317
(dp4318
g73
(dp4319
g93
g94
ssg82
g4313
sg75
(lp4320
g429
asbag68
(g89
g70
NtRp4321
(dp4322
g73
(dp4323
g100
g101
ssg82
g4313
sg75
(lp4324
S':'
asbag68
(g89
g70
NtRp4325
(dp4326
g73
(dp4327
sg82
g4313
sg75
(lp4328
g68
(g69
g70
NtRp4329
(dp4330
g73
(dp4331
g81
I3
ssg82
g4325
sg75
(lp4332
S''
asbasbasbasbasbasbasbasbasbasbasbag68
(g84
g70
NtRp4333
(dp4334
g73
(dp4335
sg82
g4099
sg75
(lp4336
g68
(g89
g70
NtRp4337
(dp4338
g73
(dp4339
g93
g94
ssg82
g4333
sg75
(lp4340
S'delimiters'
p4341
asbag68
(g89
g70
NtRp4342
(dp4343
g73
(dp4344
g100
g101
ssg82
g4333
sg75
(lp4345
S':'
asbag68
(g89
g70
NtRp4346
(dp4347
g73
(dp4348
sg82
g4333
sg75
(lp4349
g68
(g69
g70
NtRp4350
(dp4351
g73
(dp4352
g81
I5
ssg82
g4346
sg75
(lp4353
g68
(g77
g70
NtRp4354
(dp4355
g73
(dp4356
g81
I4
ssg82
Nsg75
(lp4357
g68
(g84
g70
NtRp4358
(dp4359
g73
(dp4360
sg82
g4354
sg75
(lp4361
g68
(g89
g70
NtRp4362
(dp4363
g73
(dp4364
sg82
g4358
sg75
(lp4365
g68
(g69
g70
NtRp4366
(dp4367
g73
(dp4368
g81
I4
ssg82
g4362
sg75
(lp4369
S'{{'
p4370
asbasbasbag68
(g84
g70
NtRp4371
(dp4372
g73
(dp4373
sg82
g4354
sg75
(lp4374
g68
(g89
g70
NtRp4375
(dp4376
g73
(dp4377
sg82
g4371
sg75
(lp4378
g68
(g69
g70
NtRp4379
(dp4380
g73
(dp4381
g81
I4
ssg82
g4375
sg75
(lp4382
S'}}'
p4383
asbasbasbasbasbasbasbag68
(g84
g70
NtRp4384
(dp4385
g73
(dp4386
sg82
g4099
sg75
(lp4387
g68
(g89
g70
NtRp4388
(dp4389
g73
(dp4390
g93
g94
ssg82
g4384
sg75
(lp4391
S'files'
p4392
asbag68
(g89
g70
NtRp4393
(dp4394
g73
(dp4395
g100
g101
ssg82
g4384
sg75
(lp4396
S':'
asbag68
(g89
g70
NtRp4397
(dp4398
g73
(dp4399
sg82
g4384
sg75
(lp4400
g68
(g69
g70
NtRp4401
(dp4402
g73
(dp4403
g81
I5
ssg82
g4397
sg75
(lp4404
g68
(g77
g70
NtRp4405
(dp4406
g73
(dp4407
g81
I4
ssg82
Nsg75
(lp4408
sbasbasbasbag68
(g84
g70
NtRp4409
(dp4410
g73
(dp4411
sg82
g4099
sg75
(lp4412
g68
(g89
g70
NtRp4413
(dp4414
g73
(dp4415
g93
g94
ssg82
g4409
sg75
(lp4416
S'flash'
p4417
asbag68
(g89
g70
NtRp4418
(dp4419
g73
(dp4420
g100
g101
ssg82
g4409
sg75
(lp4421
S':'
asbag68
(g89
g70
NtRp4422
(dp4423
g73
(dp4424
sg82
g4409
sg75
(lp4425
g68
(g69
g70
NtRp4426
(dp4427
g73
(dp4428
g81
I5
ssg82
g4422
sg75
(lp4429
S'Welcome Tushant'
p4430
asbasbasbag68
(g84
g70
NtRp4431
(dp4432
g73
(dp4433
sg82
g4099
sg75
(lp4434
g68
(g89
g70
NtRp4435
(dp4436
g73
(dp4437
g93
g94
ssg82
g4431
sg75
(lp4438
S'generic_patterns'
p4439
asbag68
(g89
g70
NtRp4440
(dp4441
g73
(dp4442
g100
g101
ssg82
g4431
sg75
(lp4443
S':'
asbag68
(g89
g70
NtRp4444
(dp4445
g73
(dp4446
sg82
g4431
sg75
(lp4447
g68
(g69
g70
NtRp4448
(dp4449
g73
(dp4450
g81
I5
ssg82
g4444
sg75
(lp4451
g68
(g77
g70
NtRp4452
(dp4453
g73
(dp4454
g81
I4
ssg82
Nsg75
(lp4455
g68
(g84
g70
NtRp4456
(dp4457
g73
(dp4458
sg82
g4452
sg75
(lp4459
g68
(g89
g70
NtRp4460
(dp4461
g73
(dp4462
sg82
g4456
sg75
(lp4463
g68
(g69
g70
NtRp4464
(dp4465
g73
(dp4466
g81
I4
ssg82
g4460
sg75
(lp4467
S'*'
asbasbasbasbasbasbasbag68
(g84
g70
NtRp4468
(dp4469
g73
(dp4470
sg82
g4099
sg75
(lp4471
g68
(g89
g70
NtRp4472
(dp4473
g73
(dp4474
g93
g94
ssg82
g4468
sg75
(lp4475
S'headers'
p4476
asbag68
(g89
g70
NtRp4477
(dp4478
g73
(dp4479
g100
g101
ssg82
g4468
sg75
(lp4480
S':'
asbag68
(g89
g70
NtRp4481
(dp4482
g73
(dp4483
sg82
g4468
sg75
(lp4484
g68
(g69
g70
NtRp4485
(dp4486
g73
(dp4487
g81
I5
ssg82
g4481
sg75
(lp4488
g68
(g77
g70
NtRp4489
(dp4490
g73
(dp4491
g81
I4
ssg82
Nsg75
(lp4492
g68
(g84
g70
NtRp4493
(dp4494
g73
(dp4495
sg82
g4489
sg75
(lp4496
g68
(g89
g70
NtRp4497
(dp4498
g73
(dp4499
g93
g94
ssg82
g4493
sg75
(lp4500
S'Cache-Control'
p4501
asbag68
(g89
g70
NtRp4502
(dp4503
g73
(dp4504
g100
g101
ssg82
g4493
sg75
(lp4505
S':'
asbag68
(g89
g70
NtRp4506
(dp4507
g73
(dp4508
sg82
g4493
sg75
(lp4509
g68
(g69
g70
NtRp4510
(dp4511
g73
(dp4512
g81
I4
ssg82
g4506
sg75
(lp4513
S'no-store, no-cache, must-revalidate, post-check=0, pre-check=0'
p4514
asbasbasbag68
(g84
g70
NtRp4515
(dp4516
g73
(dp4517
sg82
g4489
sg75
(lp4518
g68
(g89
g70
NtRp4519
(dp4520
g73
(dp4521
g93
g94
ssg82
g4515
sg75
(lp4522
S'Content-Type'
p4523
asbag68
(g89
g70
NtRp4524
(dp4525
g73
(dp4526
g100
g101
ssg82
g4515
sg75
(lp4527
S':'
asbag68
(g89
g70
NtRp4528
(dp4529
g73
(dp4530
sg82
g4515
sg75
(lp4531
g68
(g69
g70
NtRp4532
(dp4533
g73
(dp4534
g81
I4
ssg82
g4528
sg75
(lp4535
S'text/html; charset=utf-8'
p4536
asbasbasbag68
(g84
g70
NtRp4537
(dp4538
g73
(dp4539
sg82
g4489
sg75
(lp4540
g68
(g89
g70
NtRp4541
(dp4542
g73
(dp4543
g93
g94
ssg82
g4537
sg75
(lp4544
S'Expires'
p4545
asbag68
(g89
g70
NtRp4546
(dp4547
g73
(dp4548
g100
g101
ssg82
g4537
sg75
(lp4549
S':'
asbag68
(g89
g70
NtRp4550
(dp4551
g73
(dp4552
sg82
g4537
sg75
(lp4553
g68
(g69
g70
NtRp4554
(dp4555
g73
(dp4556
g81
I4
ssg82
g4550
sg75
(lp4557
S'Sun, 14 Oct 2012 20:40:33 GMT'
p4558
asbasbasbag68
(g84
g70
NtRp4559
(dp4560
g73
(dp4561
sg82
g4489
sg75
(lp4562
g68
(g89
g70
NtRp4563
(dp4564
g73
(dp4565
g93
g94
ssg82
g4559
sg75
(lp4566
S'Pragma'
p4567
asbag68
(g89
g70
NtRp4568
(dp4569
g73
(dp4570
g100
g101
ssg82
g4559
sg75
(lp4571
S':'
asbag68
(g89
g70
NtRp4572
(dp4573
g73
(dp4574
sg82
g4559
sg75
(lp4575
g68
(g69
g70
NtRp4576
(dp4577
g73
(dp4578
g81
I4
ssg82
g4572
sg75
(lp4579
S'no-cache'
p4580
asbasbasbag68
(g84
g70
NtRp4581
(dp4582
g73
(dp4583
sg82
g4489
sg75
(lp4584
g68
(g89
g70
NtRp4585
(dp4586
g73
(dp4587
g93
g94
ssg82
g4581
sg75
(lp4588
S'X-Powered-By'
p4589
asbag68
(g89
g70
NtRp4590
(dp4591
g73
(dp4592
g100
g101
ssg82
g4581
sg75
(lp4593
S':'
asbag68
(g89
g70
NtRp4594
(dp4595
g73
(dp4596
sg82
g4581
sg75
(lp4597
g68
(g69
g70
NtRp4598
(dp4599
g73
(dp4600
g81
I4
ssg82
g4594
sg75
(lp4601
S'web2py'
p4602
asbasbasbasbasbasbasbag68
(g84
g70
NtRp4603
(dp4604
g73
(dp4605
sg82
g4099
sg75
(lp4606
g68
(g89
g70
NtRp4607
(dp4608
g73
(dp4609
g93
g94
ssg82
g4603
sg75
(lp4610
S'menu'
p4611
asbag68
(g89
g70
NtRp4612
(dp4613
g73
(dp4614
g100
g101
ssg82
g4603
sg75
(lp4615
S':'
asbag68
(g89
g70
NtRp4616
(dp4617
g73
(dp4618
sg82
g4603
sg75
(lp4619
g68
(g69
g70
NtRp4620
(dp4621
g73
(dp4622
g81
I5
ssg82
g4616
sg75
(lp4623
g68
(g77
g70
NtRp4624
(dp4625
g73
(dp4626
g81
I4
ssg82
Nsg75
(lp4627
g68
(g84
g70
NtRp4628
(dp4629
g73
(dp4630
sg82
g4624
sg75
(lp4631
g68
(g89
g70
NtRp4632
(dp4633
g73
(dp4634
sg82
g4628
sg75
(lp4635
g68
(g69
g70
NtRp4636
(dp4637
g73
(dp4638
g81
I4
ssg82
g4632
sg75
(lp4639
g68
(g77
g70
NtRp4640
(dp4641
g73
(dp4642
g81
I3
ssg82
Nsg75
(lp4643
g68
(g84
g70
NtRp4644
(dp4645
g73
(dp4646
sg82
g4640
sg75
(lp4647
g68
(g89
g70
NtRp4648
(dp4649
g73
(dp4650
sg82
g4644
sg75
(lp4651
g68
(g69
g70
NtRp4652
(dp4653
g73
(dp4654
g81
I3
ssg82
g4648
sg75
(lp4655
cgluon.languages
lazyT_unpickle
p4656
(S't\x04\x00\x00\x00Home'
tRp4657
asbasbasbag68
(g84
g70
NtRp4658
(dp4659
g73
(dp4660
sg82
g4640
sg75
(lp4661
g68
(g89
g70
NtRp4662
(dp4663
g73
(dp4664
sg82
g4658
sg75
(lp4665
g68
(g69
g70
NtRp4666
(dp4667
g73
(dp4668
g81
I3
ssg82
g4662
sg75
(lp4669
g111
asbasbasbag68
(g84
g70
NtRp4670
(dp4671
g73
(dp4672
sg82
g4640
sg75
(lp4673
g68
(g89
g70
NtRp4674
(dp4675
g73
(dp4676
sg82
g4670
sg75
(lp4677
g68
(g69
g70
NtRp4678
(dp4679
g73
(dp4680
g81
I3
ssg82
g4674
sg75
(lp4681
S'/astra1/default/index'
p4682
asbasbasbag68
(g84
g70
NtRp4683
(dp4684
g73
(dp4685
sg82
g4640
sg75
(lp4686
g68
(g89
g70
NtRp4687
(dp4688
g73
(dp4689
sg82
g4683
sg75
(lp4690
g68
(g69
g70
NtRp4691
(dp4692
g73
(dp4693
g81
I3
ssg82
g4687
sg75
(lp4694
g68
(g77
g70
NtRp4695
(dp4696
g73
(dp4697
g81
I2
ssg82
Nsg75
(lp4698
sbasbasbasbasbasbasbasbag68
(g84
g70
NtRp4699
(dp4700
g73
(dp4701
sg82
g4624
sg75
(lp4702
g68
(g89
g70
NtRp4703
(dp4704
g73
(dp4705
sg82
g4699
sg75
(lp4706
g68
(g69
g70
NtRp4707
(dp4708
g73
(dp4709
g81
I4
ssg82
g4703
sg75
(lp4710
g68
(g77
g70
NtRp4711
(dp4712
g73
(dp4713
g81
I3
ssg82
Nsg75
(lp4714
g68
(g84
g70
NtRp4715
(dp4716
g73
(dp4717
sg82
g4711
sg75
(lp4718
g68
(g89
g70
NtRp4719
(dp4720
g73
(dp4721
sg82
g4715
sg75
(lp4722
g68
(g69
g70
NtRp4723
(dp4724
g73
(dp4725
g81
I3
ssg82
g4719
sg75
(lp4726
g68
(cgluon.html
SPAN
p4727
g70
NtRp4728
(dp4729
g73
(dp4730
g93
S'color:yellow'
p4731
ssg82
Nsg75
(lp4732
g4602
asbasbasbasbag68
(g84
g70
NtRp4733
(dp4734
g73
(dp4735
sg82
g4711
sg75
(lp4736
g68
(g89
g70
NtRp4737
(dp4738
g73
(dp4739
sg82
g4733
sg75
(lp4740
g68
(g69
g70
NtRp4741
(dp4742
g73
(dp4743
g81
I3
ssg82
g4737
sg75
(lp4744
g111
asbasbasbag68
(g84
g70
NtRp4745
(dp4746
g73
(dp4747
sg82
g4711
sg75
(lp4748
g68
(g89
g70
NtRp4749
(dp4750
g73
(dp4751
sg82
g4745
sg75
(lp4752
g68
(g69
g70
NtRp4753
(dp4754
g73
(dp4755
g81
I3
ssg82
g4749
sg75
(lp4756
S'None'
p4757
asbasbasbag68
(g84
g70
NtRp4758
(dp4759
g73
(dp4760
sg82
g4711
sg75
(lp4761
g68
(g89
g70
NtRp4762
(dp4763
g73
(dp4764
sg82
g4758
sg75
(lp4765
g68
(g69
g70
NtRp4766
(dp4767
g73
(dp4768
g81
I3
ssg82
g4762
sg75
(lp4769
g68
(g77
g70
NtRp4770
(dp4771
g73
(dp4772
g81
I2
ssg82
Nsg75
(lp4773
g68
(g84
g70
NtRp4774
(dp4775
g73
(dp4776
sg82
g4770
sg75
(lp4777
g68
(g89
g70
NtRp4778
(dp4779
g73
(dp4780
sg82
g4774
sg75
(lp4781
g68
(g69
g70
NtRp4782
(dp4783
g73
(dp4784
g81
I2
ssg82
g4778
sg75
(lp4785
g68
(g77
g70
NtRp4786
(dp4787
g73
(dp4788
g81
I1
ssg82
Nsg75
(lp4789
g68
(g84
g70
NtRp4790
(dp4791
g73
(dp4792
sg82
g4786
sg75
(lp4793
g68
(g89
g70
NtRp4794
(dp4795
g73
(dp4796
sg82
g4790
sg75
(lp4797
g68
(g69
g70
NtRp4798
(dp4799
g73
(dp4800
g81
I1
ssg82
g4794
sg75
(lp4801
g4656
(S's\x08\x00\x00\x00My Sites'
tRp4802
asbasbasbag68
(g84
g70
NtRp4803
(dp4804
g73
(dp4805
sg82
g4786
sg75
(lp4806
g68
(g89
g70
NtRp4807
(dp4808
g73
(dp4809
sg82
g4803
sg75
(lp4810
g68
(g69
g70
NtRp4811
(dp4812
g73
(dp4813
g81
I1
ssg82
g4807
sg75
(lp4814
I00
asbasbasbag68
(g84
g70
NtRp4815
(dp4816
g73
(dp4817
sg82
g4786
sg75
(lp4818
g68
(g89
g70
NtRp4819
(dp4820
g73
(dp4821
sg82
g4815
sg75
(lp4822
g68
(g69
g70
NtRp4823
(dp4824
g73
(dp4825
g81
I1
ssg82
g4819
sg75
(lp4826
S'/admin/default/site'
p4827
asbasbasbasbasbasbasbag68
(g84
g70
NtRp4828
(dp4829
g73
(dp4830
sg82
g4770
sg75
(lp4831
g68
(g89
g70
NtRp4832
(dp4833
g73
(dp4834
sg82
g4828
sg75
(lp4835
g68
(g69
g70
NtRp4836
(dp4837
g73
(dp4838
g81
I2
ssg82
g4832
sg75
(lp4839
g68
(g77
g70
NtRp4840
(dp4841
g73
(dp4842
g81
I1
ssg82
Nsg75
(lp4843
g68
(g84
g70
NtRp4844
(dp4845
g73
(dp4846
sg82
g4840
sg75
(lp4847
g68
(g89
g70
NtRp4848
(dp4849
g73
(dp4850
sg82
g4844
sg75
(lp4851
g68
(g69
g70
NtRp4852
(dp4853
g73
(dp4854
g81
I1
ssg82
g4848
sg75
(lp4855
g4656
(S's\x08\x00\x00\x00This App'
tRp4856
asbasbasbag68
(g84
g70
NtRp4857
(dp4858
g73
(dp4859
sg82
g4840
sg75
(lp4860
g68
(g89
g70
NtRp4861
(dp4862
g73
(dp4863
sg82
g4857
sg75
(lp4864
g68
(g69
g70
NtRp4865
(dp4866
g73
(dp4867
g81
I1
ssg82
g4861
sg75
(lp4868
I00
asbasbasbag68
(g84
g70
NtRp4869
(dp4870
g73
(dp4871
sg82
g4840
sg75
(lp4872
g68
(g89
g70
NtRp4873
(dp4874
g73
(dp4875
sg82
g4869
sg75
(lp4876
g68
(g69
g70
NtRp4877
(dp4878
g73
(dp4879
g81
I1
ssg82
g4873
sg75
(lp4880
S'/admin/default/design/astra1'
p4881
asbasbasbag68
(g84
g70
NtRp4882
(dp4883
g73
(dp4884
sg82
g4840
sg75
(lp4885
g68
(g89
g70
NtRp4886
(dp4887
g73
(dp4888
sg82
g4882
sg75
(lp4889
g68
(g69
g70
NtRp4890
(dp4891
g73
(dp4892
g81
I1
ssg82
g4886
sg75
(lp4893
(lp4894
(g4656
(S't\n\x00\x00\x00Controller'
tRp4895
I00
S'/admin/default/edit/astra1/controllers/default.py'
tp4896
a(g4656
(S't\x04\x00\x00\x00View'
tRp4897
I00
S'/admin/default/edit/astra1/views/default/show.html'
tp4898
a(g4656
(S't\x06\x00\x00\x00Layout'
tRp4899
I00
S'/admin/default/edit/astra1/views/layout.html'
tp4900
a(g4656
(S't\n\x00\x00\x00Stylesheet'
tRp4901
I00
S'/admin/default/edit/astra1/static/css/web2py.css'
tp4902
a(g4656
(S's\x08\x00\x00\x00DB Model'
tRp4903
I00
S'/admin/default/edit/astra1/models/db.py'
tp4904
a(g4656
(S's\n\x00\x00\x00Menu Model'
tRp4905
I00
S'/admin/default/edit/astra1/models/menu.py'
tp4906
a(g4656
(S't\x08\x00\x00\x00Database'
tRp4907
I00
S'/astra1/appadmin/index'
tp4908
a(g4656
(S't\x06\x00\x00\x00Errors'
tRp4909
I00
S'/admin/default/errors/astra1'
tp4910
a(g4656
(S't\x05\x00\x00\x00About'
tRp4911
I00
S'/admin/default/about/astra1'
tp4912
aasbasbasbasbasbasbasbag68
(g84
g70
NtRp4913
(dp4914
g73
(dp4915
sg82
g4770
sg75
(lp4916
g68
(g89
g70
NtRp4917
(dp4918
g73
(dp4919
sg82
g4913
sg75
(lp4920
g68
(g69
g70
NtRp4921
(dp4922
g73
(dp4923
g81
I2
ssg82
g4917
sg75
(lp4924
g68
(g77
g70
NtRp4925
(dp4926
g73
(dp4927
g81
I1
ssg82
Nsg75
(lp4928
g68
(g84
g70
NtRp4929
(dp4930
g73
(dp4931
sg82
g4925
sg75
(lp4932
g68
(g89
g70
NtRp4933
(dp4934
g73
(dp4935
sg82
g4929
sg75
(lp4936
g68
(g69
g70
NtRp4937
(dp4938
g73
(dp4939
g81
I1
ssg82
g4933
sg75
(lp4940
S'web2py.com'
p4941
asbasbasbag68
(g84
g70
NtRp4942
(dp4943
g73
(dp4944
sg82
g4925
sg75
(lp4945
g68
(g89
g70
NtRp4946
(dp4947
g73
(dp4948
sg82
g4942
sg75
(lp4949
g68
(g69
g70
NtRp4950
(dp4951
g73
(dp4952
g81
I1
ssg82
g4946
sg75
(lp4953
I00
asbasbasbag68
(g84
g70
NtRp4954
(dp4955
g73
(dp4956
sg82
g4925
sg75
(lp4957
g68
(g89
g70
NtRp4958
(dp4959
g73
(dp4960
sg82
g4954
sg75
(lp4961
g68
(g69
g70
NtRp4962
(dp4963
g73
(dp4964
g81
I1
ssg82
g4958
sg75
(lp4965
S'http://www.web2py.com'
p4966
asbasbasbag68
(g84
g70
NtRp4967
(dp4968
g73
(dp4969
sg82
g4925
sg75
(lp4970
g68
(g89
g70
NtRp4971
(dp4972
g73
(dp4973
sg82
g4967
sg75
(lp4974
g68
(g69
g70
NtRp4975
(dp4976
g73
(dp4977
g81
I1
ssg82
g4971
sg75
(lp4978
(lp4979
(g4656
(S't\x08\x00\x00\x00Download'
tRp4980
I00
S'http://www.web2py.com/examples/default/download'
p4981
tp4982
a(g4656
(S't\x07\x00\x00\x00Support'
tRp4983
I00
S'http://www.web2py.com/examples/default/support'
p4984
tp4985
a(g4656
(S't\x04\x00\x00\x00Demo'
tRp4986
I00
S'http://web2py.com/demo_admin'
p4987
tp4988
a(g4656
(S's\x0e\x00\x00\x00Quick Examples'
tRp4989
I00
S'http://web2py.com/examples/default/examples'
p4990
tp4991
a(g4656
(S't\x03\x00\x00\x00FAQ'
tRp4992
I00
S'http://web2py.com/AlterEgo'
p4993
tp4994
a(g4656
(S't\x06\x00\x00\x00Videos'
tRp4995
I00
S'http://www.web2py.com/examples/default/videos/'
p4996
tp4997
a(g4656
(S's\x11\x00\x00\x00Free Applications'
tRp4998
I00
S'http://web2py.com/appliances'
p4999
tp5000
a(g4656
(S't\x07\x00\x00\x00Plugins'
tRp5001
I00
S'http://web2py.com/plugins'
p5002
tp5003
a(g4656
(S't\x07\x00\x00\x00Layouts'
tRp5004
I00
S'http://web2py.com/layouts'
p5005
tp5006
a(g4656
(S't\x07\x00\x00\x00Recipes'
tRp5007
I00
S'http://web2pyslices.com/'
p5008
tp5009
a(g4656
(S't\x08\x00\x00\x00Semantic'
tRp5010
I00
S'http://web2py.com/semantic'
p5011
tp5012
aasbasbasbasbasbasbasbag68
(g84
g70
NtRp5013
(dp5014
g73
(dp5015
sg82
g4770
sg75
(lp5016
g68
(g89
g70
NtRp5017
(dp5018
g73
(dp5019
sg82
g5013
sg75
(lp5020
g68
(g69
g70
NtRp5021
(dp5022
g73
(dp5023
g81
I2
ssg82
g5017
sg75
(lp5024
g68
(g77
g70
NtRp5025
(dp5026
g73
(dp5027
g81
I1
ssg82
Nsg75
(lp5028
g68
(g84
g70
NtRp5029
(dp5030
g73
(dp5031
sg82
g5025
sg75
(lp5032
g68
(g89
g70
NtRp5033
(dp5034
g73
(dp5035
sg82
g5029
sg75
(lp5036
g68
(g69
g70
NtRp5037
(dp5038
g73
(dp5039
g81
I1
ssg82
g5033
sg75
(lp5040
g4656
(S't\r\x00\x00\x00Documentation'
tRp5041
asbasbasbag68
(g84
g70
NtRp5042
(dp5043
g73
(dp5044
sg82
g5025
sg75
(lp5045
g68
(g89
g70
NtRp5046
(dp5047
g73
(dp5048
sg82
g5042
sg75
(lp5049
g68
(g69
g70
NtRp5050
(dp5051
g73
(dp5052
g81
I1
ssg82
g5046
sg75
(lp5053
I00
asbasbasbag68
(g84
g70
NtRp5054
(dp5055
g73
(dp5056
sg82
g5025
sg75
(lp5057
g68
(g89
g70
NtRp5058
(dp5059
g73
(dp5060
sg82
g5054
sg75
(lp5061
g68
(g69
g70
NtRp5062
(dp5063
g73
(dp5064
g81
I1
ssg82
g5058
sg75
(lp5065
S'http://www.web2py.com/book'
p5066
asbasbasbag68
(g84
g70
NtRp5067
(dp5068
g73
(dp5069
sg82
g5025
sg75
(lp5070
g68
(g89
g70
NtRp5071
(dp5072
g73
(dp5073
sg82
g5067
sg75
(lp5074
g68
(g69
g70
NtRp5075
(dp5076
g73
(dp5077
g81
I1
ssg82
g5071
sg75
(lp5078
(lp5079
(g4656
(S't\x07\x00\x00\x00Preface'
tRp5080
I00
S'http://www.web2py.com/book/default/chapter/00'
p5081
tp5082
a(g4656
(S't\x0c\x00\x00\x00Introduction'
tRp5083
I00
S'http://www.web2py.com/book/default/chapter/01'
p5084
tp5085
a(g4656
(S't\x06\x00\x00\x00Python'
tRp5086
I00
S'http://www.web2py.com/book/default/chapter/02'
p5087
tp5088
a(g4656
(S't\x08\x00\x00\x00Overview'
tRp5089
I00
S'http://www.web2py.com/book/default/chapter/03'
p5090
tp5091
a(g4656
(S's\x08\x00\x00\x00The Core'
tRp5092
I00
S'http://www.web2py.com/book/default/chapter/04'
p5093
tp5094
a(g4656
(S's\t\x00\x00\x00The Views'
tRp5095
I00
S'http://www.web2py.com/book/default/chapter/05'
p5096
tp5097
a(g4656
(S't\x08\x00\x00\x00Database'
tRp5098
I00
S'http://www.web2py.com/book/default/chapter/06'
p5099
tp5100
a(g4656
(S's\x14\x00\x00\x00Forms and Validators'
tRp5101
I00
S'http://www.web2py.com/book/default/chapter/07'
p5102
tp5103
a(g4656
(S's\r\x00\x00\x00Email and SMS'
tRp5104
I00
S'http://www.web2py.com/book/default/chapter/08'
p5105
tp5106
a(g4656
(S's\x0e\x00\x00\x00Access Control'
tRp5107
I00
S'http://www.web2py.com/book/default/chapter/09'
p5108
tp5109
a(g4656
(S't\x08\x00\x00\x00Services'
tRp5110
I00
S'http://www.web2py.com/book/default/chapter/10'
p5111
tp5112
a(g4656
(S's\x0c\x00\x00\x00Ajax Recipes'
tRp5113
I00
S'http://www.web2py.com/book/default/chapter/11'
p5114
tp5115
a(g4656
(S's\x16\x00\x00\x00Components and Plugins'
tRp5116
I00
S'http://www.web2py.com/book/default/chapter/12'
p5117
tp5118
a(g4656
(S's\x12\x00\x00\x00Deployment Recipes'
tRp5119
I00
S'http://www.web2py.com/book/default/chapter/13'
p5120
tp5121
a(g4656
(S's\r\x00\x00\x00Other Recipes'
tRp5122
I00
S'http://www.web2py.com/book/default/chapter/14'
p5123
tp5124
a(g4656
(S's\r\x00\x00\x00Buy this book'
tRp5125
I00
S'http://stores.lulu.com/web2py'
p5126
tp5127
aasbasbasbasbasbasbasbag68
(g84
g70
NtRp5128
(dp5129
g73
(dp5130
sg82
g4770
sg75
(lp5131
g68
(g89
g70
NtRp5132
(dp5133
g73
(dp5134
sg82
g5128
sg75
(lp5135
g68
(g69
g70
NtRp5136
(dp5137
g73
(dp5138
g81
I2
ssg82
g5132
sg75
(lp5139
g68
(g77
g70
NtRp5140
(dp5141
g73
(dp5142
g81
I1
ssg82
Nsg75
(lp5143
g68
(g84
g70
NtRp5144
(dp5145
g73
(dp5146
sg82
g5140
sg75
(lp5147
g68
(g89
g70
NtRp5148
(dp5149
g73
(dp5150
sg82
g5144
sg75
(lp5151
g68
(g69
g70
NtRp5152
(dp5153
g73
(dp5154
g81
I1
ssg82
g5148
sg75
(lp5155
g4656
(S't\t\x00\x00\x00Community'
tRp5156
asbasbasbag68
(g84
g70
NtRp5157
(dp5158
g73
(dp5159
sg82
g5140
sg75
(lp5160
g68
(g89
g70
NtRp5161
(dp5162
g73
(dp5163
sg82
g5157
sg75
(lp5164
g68
(g69
g70
NtRp5165
(dp5166
g73
(dp5167
g81
I1
ssg82
g5161
sg75
(lp5168
I00
asbasbasbag68
(g84
g70
NtRp5169
(dp5170
g73
(dp5171
sg82
g5140
sg75
(lp5172
g68
(g89
g70
NtRp5173
(dp5174
g73
(dp5175
sg82
g5169
sg75
(lp5176
g68
(g69
g70
NtRp5177
(dp5178
g73
(dp5179
g81
I1
ssg82
g5173
sg75
(lp5180
Nasbasbasbag68
(g84
g70
NtRp5181
(dp5182
g73
(dp5183
sg82
g5140
sg75
(lp5184
g68
(g89
g70
NtRp5185
(dp5186
g73
(dp5187
sg82
g5181
sg75
(lp5188
g68
(g69
g70
NtRp5189
(dp5190
g73
(dp5191
g81
I1
ssg82
g5185
sg75
(lp5192
(lp5193
(g4656
(S't\x06\x00\x00\x00Groups'
tRp5194
I00
S'http://www.web2py.com/examples/default/usergroups'
p5195
tp5196
a(g4656
(S't\x07\x00\x00\x00Twitter'
tRp5197
I00
S'http://twitter.com/web2py'
p5198
tp5199
a(g4656
(S's\t\x00\x00\x00Live Chat'
tRp5200
I00
S'http://webchat.freenode.net/?channels=web2py'
p5201
tp5202
aasbasbasbasbasbasbasbag68
(g84
g70
NtRp5203
(dp5204
g73
(dp5205
sg82
g4770
sg75
(lp5206
g68
(g89
g70
NtRp5207
(dp5208
g73
(dp5209
sg82
g5203
sg75
(lp5210
g68
(g69
g70
NtRp5211
(dp5212
g73
(dp5213
g81
I2
ssg82
g5207
sg75
(lp5214
g68
(g77
g70
NtRp5215
(dp5216
g73
(dp5217
g81
I1
ssg82
Nsg75
(lp5218
g68
(g84
g70
NtRp5219
(dp5220
g73
(dp5221
sg82
g5215
sg75
(lp5222
g68
(g89
g70
NtRp5223
(dp5224
g73
(dp5225
sg82
g5219
sg75
(lp5226
g68
(g69
g70
NtRp5227
(dp5228
g73
(dp5229
g81
I1
ssg82
g5223
sg75
(lp5230
g4656
(S't\x07\x00\x00\x00Plugins'
tRp5231
asbasbasbag68
(g84
g70
NtRp5232
(dp5233
g73
(dp5234
sg82
g5215
sg75
(lp5235
g68
(g89
g70
NtRp5236
(dp5237
g73
(dp5238
sg82
g5232
sg75
(lp5239
g68
(g69
g70
NtRp5240
(dp5241
g73
(dp5242
g81
I1
ssg82
g5236
sg75
(lp5243
I00
asbasbasbag68
(g84
g70
NtRp5244
(dp5245
g73
(dp5246
sg82
g5215
sg75
(lp5247
g68
(g89
g70
NtRp5248
(dp5249
g73
(dp5250
sg82
g5244
sg75
(lp5251
g68
(g69
g70
NtRp5252
(dp5253
g73
(dp5254
g81
I1
ssg82
g5248
sg75
(lp5255
Nasbasbasbag68
(g84
g70
NtRp5256
(dp5257
g73
(dp5258
sg82
g5215
sg75
(lp5259
g68
(g89
g70
NtRp5260
(dp5261
g73
(dp5262
sg82
g5256
sg75
(lp5263
g68
(g69
g70
NtRp5264
(dp5265
g73
(dp5266
g81
I1
ssg82
g5260
sg75
(lp5267
(lp5268
(S'plugin_wiki'
p5269
I00
S'http://web2py.com/examples/default/download'
p5270
tp5271
a(g4656
(S's\r\x00\x00\x00Other Plugins'
tRp5272
I00
g5002
tp5273
a(g4656
(S's\x0e\x00\x00\x00Layout Plugins'
tRp5274
I00
g5005
tp5275
aasbasbasbasbasbasbasbasbasbasbasbasbasbasbasbasbasbasbasbag68
(g84
g70
NtRp5276
(dp5277
g73
(dp5278
sg82
g4099
sg75
(lp5279
g68
(g89
g70
NtRp5280
(dp5281
g73
(dp5282
g93
g94
ssg82
g5276
sg75
(lp5283
S'meta'
p5284
asbag68
(g89
g70
NtRp5285
(dp5286
g73
(dp5287
g100
g101
ssg82
g5276
sg75
(lp5288
S':'
asbag68
(g89
g70
NtRp5289
(dp5290
g73
(dp5291
sg82
g5276
sg75
(lp5292
g68
(g69
g70
NtRp5293
(dp5294
g73
(dp5295
g81
I5
ssg82
g5289
sg75
(lp5296
g68
(g77
g70
NtRp5297
(dp5298
g73
(dp5299
g81
I4
ssg82
Nsg75
(lp5300
g68
(g84
g70
NtRp5301
(dp5302
g73
(dp5303
sg82
g5297
sg75
(lp5304
g68
(g89
g70
NtRp5305
(dp5306
g73
(dp5307
g93
g94
ssg82
g5301
sg75
(lp5308
S'author'
p5309
asbag68
(g89
g70
NtRp5310
(dp5311
g73
(dp5312
g100
g101
ssg82
g5301
sg75
(lp5313
S':'
asbag68
(g89
g70
NtRp5314
(dp5315
g73
(dp5316
sg82
g5301
sg75
(lp5317
g68
(g69
g70
NtRp5318
(dp5319
g73
(dp5320
g81
I4
ssg82
g5314
sg75
(lp5321
S'Your Name <you@example.com>'
p5322
asbasbasbag68
(g84
g70
NtRp5323
(dp5324
g73
(dp5325
sg82
g5297
sg75
(lp5326
g68
(g89
g70
NtRp5327
(dp5328
g73
(dp5329
g93
g94
ssg82
g5323
sg75
(lp5330
S'copyright'
p5331
asbag68
(g89
g70
NtRp5332
(dp5333
g73
(dp5334
g100
g101
ssg82
g5323
sg75
(lp5335
S':'
asbag68
(g89
g70
NtRp5336
(dp5337
g73
(dp5338
sg82
g5323
sg75
(lp5339
g68
(g69
g70
NtRp5340
(dp5341
g73
(dp5342
g81
I4
ssg82
g5336
sg75
(lp5343
S'Copyright 2011'
p5344
asbasbasbag68
(g84
g70
NtRp5345
(dp5346
g73
(dp5347
sg82
g5297
sg75
(lp5348
g68
(g89
g70
NtRp5349
(dp5350
g73
(dp5351
g93
g94
ssg82
g5345
sg75
(lp5352
S'description'
p5353
asbag68
(g89
g70
NtRp5354
(dp5355
g73
(dp5356
g100
g101
ssg82
g5345
sg75
(lp5357
S':'
asbag68
(g89
g70
NtRp5358
(dp5359
g73
(dp5360
sg82
g5345
sg75
(lp5361
g68
(g69
g70
NtRp5362
(dp5363
g73
(dp5364
g81
I4
ssg82
g5358
sg75
(lp5365
S'a cool new app'
p5366
asbasbasbag68
(g84
g70
NtRp5367
(dp5368
g73
(dp5369
sg82
g5297
sg75
(lp5370
g68
(g89
g70
NtRp5371
(dp5372
g73
(dp5373
g93
g94
ssg82
g5367
sg75
(lp5374
S'generator'
p5375
asbag68
(g89
g70
NtRp5376
(dp5377
g73
(dp5378
g100
g101
ssg82
g5367
sg75
(lp5379
S':'
asbag68
(g89
g70
NtRp5380
(dp5381
g73
(dp5382
sg82
g5367
sg75
(lp5383
g68
(g69
g70
NtRp5384
(dp5385
g73
(dp5386
g81
I4
ssg82
g5380
sg75
(lp5387
S'Web2py Web Framework'
p5388
asbasbasbag68
(g84
g70
NtRp5389
(dp5390
g73
(dp5391
sg82
g5297
sg75
(lp5392
g68
(g89
g70
NtRp5393
(dp5394
g73
(dp5395
g93
g94
ssg82
g5389
sg75
(lp5396
S'keywords'
p5397
asbag68
(g89
g70
NtRp5398
(dp5399
g73
(dp5400
g100
g101
ssg82
g5389
sg75
(lp5401
S':'
asbag68
(g89
g70
NtRp5402
(dp5403
g73
(dp5404
sg82
g5389
sg75
(lp5405
g68
(g69
g70
NtRp5406
(dp5407
g73
(dp5408
g81
I4
ssg82
g5402
sg75
(lp5409
S'web2py, python, framework'
p5410
asbasbasbasbasbasbasbag68
(g84
g70
NtRp5411
(dp5412
g73
(dp5413
sg82
g4099
sg75
(lp5414
g68
(g89
g70
NtRp5415
(dp5416
g73
(dp5417
g93
g94
ssg82
g5411
sg75
(lp5418
S'postprocessing'
p5419
asbag68
(g89
g70
NtRp5420
(dp5421
g73
(dp5422
g100
g101
ssg82
g5411
sg75
(lp5423
S':'
asbag68
(g89
g70
NtRp5424
(dp5425
g73
(dp5426
sg82
g5411
sg75
(lp5427
g68
(g69
g70
NtRp5428
(dp5429
g73
(dp5430
g81
I5
ssg82
g5424
sg75
(lp5431
g68
(g77
g70
NtRp5432
(dp5433
g73
(dp5434
g81
I4
ssg82
Nsg75
(lp5435
sbasbasbasbag68
(g84
g70
NtRp5436
(dp5437
g73
(dp5438
sg82
g4099
sg75
(lp5439
g68
(g89
g70
NtRp5440
(dp5441
g73
(dp5442
g93
g94
ssg82
g5436
sg75
(lp5443
S'session_file'
p5444
asbag68
(g89
g70
NtRp5445
(dp5446
g73
(dp5447
g100
g101
ssg82
g5436
sg75
(lp5448
S':'
asbag68
(g89
g70
NtRp5449
(dp5450
g73
(dp5451
sg82
g5436
sg75
(lp5452
g68
(g69
g70
NtRp5453
(dp5454
g73
(dp5455
g81
I5
ssg82
g5449
sg75
(lp5456
S"<open file '/home/vishrut/web2py/applications/astra1/sessions/127.0.0.1-6c6943ea-9e10-4b64-9f35-8611eb020dd8', mode 'rb+' at 0xa408f40>"
p5457
asbasbasbag68
(g84
g70
NtRp5458
(dp5459
g73
(dp5460
sg82
g4099
sg75
(lp5461
g68
(g89
g70
NtRp5462
(dp5463
g73
(dp5464
g93
g94
ssg82
g5458
sg75
(lp5465
S'session_filename'
p5466
asbag68
(g89
g70
NtRp5467
(dp5468
g73
(dp5469
g100
g101
ssg82
g5458
sg75
(lp5470
S':'
asbag68
(g89
g70
NtRp5471
(dp5472
g73
(dp5473
sg82
g5458
sg75
(lp5474
g68
(g69
g70
NtRp5475
(dp5476
g73
(dp5477
g81
I5
ssg82
g5471
sg75
(lp5478
S'/home/vishrut/web2py/applications/astra1/sessions/127.0.0.1-6c6943ea-9e10-4b64-9f35-8611eb020dd8'
p5479
asbasbasbag68
(g84
g70
NtRp5480
(dp5481
g73
(dp5482
sg82
g4099
sg75
(lp5483
g68
(g89
g70
NtRp5484
(dp5485
g73
(dp5486
g93
g94
ssg82
g5480
sg75
(lp5487
S'session_id'
p5488
asbag68
(g89
g70
NtRp5489
(dp5490
g73
(dp5491
g100
g101
ssg82
g5480
sg75
(lp5492
S':'
asbag68
(g89
g70
NtRp5493
(dp5494
g73
(dp5495
sg82
g5480
sg75
(lp5496
g68
(g69
g70
NtRp5497
(dp5498
g73
(dp5499
g81
I5
ssg82
g5493
sg75
(lp5500
S'127.0.0.1-6c6943ea-9e10-4b64-9f35-8611eb020dd8'
p5501
asbasbasbag68
(g84
g70
NtRp5502
(dp5503
g73
(dp5504
sg82
g4099
sg75
(lp5505
g68
(g89
g70
NtRp5506
(dp5507
g73
(dp5508
g93
g94
ssg82
g5502
sg75
(lp5509
S'session_id_name'
p5510
asbag68
(g89
g70
NtRp5511
(dp5512
g73
(dp5513
g100
g101
ssg82
g5502
sg75
(lp5514
S':'
asbag68
(g89
g70
NtRp5515
(dp5516
g73
(dp5517
sg82
g5502
sg75
(lp5518
g68
(g69
g70
NtRp5519
(dp5520
g73
(dp5521
g81
I5
ssg82
g5515
sg75
(lp5522
g4156
asbasbasbag68
(g84
g70
NtRp5523
(dp5524
g73
(dp5525
sg82
g4099
sg75
(lp5526
g68
(g89
g70
NtRp5527
(dp5528
g73
(dp5529
g93
g94
ssg82
g5523
sg75
(lp5530
S'session_locked'
p5531
asbag68
(g89
g70
NtRp5532
(dp5533
g73
(dp5534
g100
g101
ssg82
g5523
sg75
(lp5535
S':'
asbag68
(g89
g70
NtRp5536
(dp5537
g73
(dp5538
sg82
g5523
sg75
(lp5539
g68
(g69
g70
NtRp5540
(dp5541
g73
(dp5542
g81
I5
ssg82
g5536
sg75
(lp5543
g2614
asbasbasbag68
(g84
g70
NtRp5544
(dp5545
g73
(dp5546
sg82
g4099
sg75
(lp5547
g68
(g89
g70
NtRp5548
(dp5549
g73
(dp5550
g93
g94
ssg82
g5544
sg75
(lp5551
S'session_new'
p5552
asbag68
(g89
g70
NtRp5553
(dp5554
g73
(dp5555
g100
g101
ssg82
g5544
sg75
(lp5556
S':'
asbag68
(g89
g70
NtRp5557
(dp5558
g73
(dp5559
sg82
g5544
sg75
(lp5560
g68
(g69
g70
NtRp5561
(dp5562
g73
(dp5563
g81
I5
ssg82
g5557
sg75
(lp5564
g111
asbasbasbag68
(g84
g70
NtRp5565
(dp5566
g73
(dp5567
sg82
g4099
sg75
(lp5568
g68
(g89
g70
NtRp5569
(dp5570
g73
(dp5571
g93
g94
ssg82
g5565
sg75
(lp5572
S'status'
p5573
asbag68
(g89
g70
NtRp5574
(dp5575
g73
(dp5576
g100
g101
ssg82
g5565
sg75
(lp5577
S':'
asbag68
(g89
g70
NtRp5578
(dp5579
g73
(dp5580
sg82
g5565
sg75
(lp5581
g68
(g69
g70
NtRp5582
(dp5583
g73
(dp5584
g81
I5
ssg82
g5578
sg75
(lp5585
S'200'
p5586
asbasbasbag68
(g84
g70
NtRp5587
(dp5588
g73
(dp5589
sg82
g4099
sg75
(lp5590
g68
(g89
g70
NtRp5591
(dp5592
g73
(dp5593
g93
g94
ssg82
g5587
sg75
(lp5594
S'subtitle'
p5595
asbag68
(g89
g70
NtRp5596
(dp5597
g73
(dp5598
g100
g101
ssg82
g5587
sg75
(lp5599
S':'
asbag68
(g89
g70
NtRp5600
(dp5601
g73
(dp5602
sg82
g5587
sg75
(lp5603
g68
(g69
g70
NtRp5604
(dp5605
g73
(dp5606
g81
I5
ssg82
g5600
sg75
(lp5607
g4656
(S's\r\x00\x00\x00customize me!'
tRp5608
asbasbasbag68
(g84
g70
NtRp5609
(dp5610
g73
(dp5611
sg82
g4099
sg75
(lp5612
g68
(g89
g70
NtRp5613
(dp5614
g73
(dp5615
g93
g94
ssg82
g5609
sg75
(lp5616
S'title'
p5617
asbag68
(g89
g70
NtRp5618
(dp5619
g73
(dp5620
g100
g101
ssg82
g5609
sg75
(lp5621
S':'
asbag68
(g89
g70
NtRp5622
(dp5623
g73
(dp5624
sg82
g5609
sg75
(lp5625
g68
(g69
g70
NtRp5626
(dp5627
g73
(dp5628
g81
I5
ssg82
g5622
sg75
(lp5629
S'Astra1'
p5630
asbasbasbag68
(g84
g70
NtRp5631
(dp5632
g73
(dp5633
sg82
g4099
sg75
(lp5634
g68
(g89
g70
NtRp5635
(dp5636
g73
(dp5637
g93
g94
ssg82
g5631
sg75
(lp5638
g3278
asbag68
(g89
g70
NtRp5639
(dp5640
g73
(dp5641
g100
g101
ssg82
g5631
sg75
(lp5642
S':'
asbag68
(g89
g70
NtRp5643
(dp5644
g73
(dp5645
sg82
g5631
sg75
(lp5646
g68
(g69
g70
NtRp5647
(dp5648
g73
(dp5649
g81
I5
ssg82
g5643
sg75
(lp5650
g3291
asbasbasbag68
(g84
g70
NtRp5651
(dp5652
g73
(dp5653
sg82
g4099
sg75
(lp5654
g68
(g89
g70
NtRp5655
(dp5656
g73
(dp5657
g93
g94
ssg82
g5651
sg75
(lp5658
S'view'
p5659
asbag68
(g89
g70
NtRp5660
(dp5661
g73
(dp5662
g100
g101
ssg82
g5651
sg75
(lp5663
S':'
asbag68
(g89
g70
NtRp5664
(dp5665
g73
(dp5666
sg82
g5651
sg75
(lp5667
g68
(g69
g70
NtRp5668
(dp5669
g73
(dp5670
g81
I5
ssg82
g5664
sg75
(lp5671
S'default/show.html'
p5672
asbasbasbasbasbsS'locals'
p5673
(dp5674
g4
S"'/home/vishrut/web2py/applications/astra1/views/default/show.html'"
p5675
sg6
S'r"response.write(\'<!DOCTYPE html>\\n<!-- paulirish....ponse.write(\'\\n</body>\\n</html>\\n\', escape=False)"'
p5676
sssS'traceback'
p5677
S'Traceback (most recent call last):\n  File "/home/vishrut/web2py/gluon/restricted.py", line 204, in restricted\n    ccode = compile2(code,layer)\n  File "/home/vishrut/web2py/gluon/restricted.py", line 189, in compile2\n    return compile(code.rstrip().replace(\'\\r\\n\',\'\\n\')+\'\\n\', layer, \'exec\')\n  File "/home/vishrut/web2py/applications/astra1/views/default/show.html", line 92\n    else:\n       ^\nSyntaxError: invalid syntax\n'
p5678
s.