(dp1
S'output'
p2
S"<type 'exceptions.NameError'> name 'VIDEO' is not defined"
p3
sS'layer'
p4
S'/home/vishrut/web2py/applications/astra1/views/default/index.html'
p5
sS'code'
p6
S'response.write(\'<html>\\n\', escape=False)\nleft_sidebar_enabled,right_sidebar_enabled=False,True\nresponse.write(\'\\n\', escape=False)\nresponse.write(\'<!DOCTYPE html>\\n<!-- paulirish.com/2008/conditional-stylesheets-vs-css-hacks-answer-neither/ -->\\n<!--[if lt IE 7]><html class="ie ie6 ie-lte9 ie-lte8 ie-lte7 no-js" lang="\', escape=False)\nresponse.write(T.accepted_language or \'en\')\nresponse.write(\'"> <![endif]-->\\n<!--[if IE 7]><html class="ie ie7 ie-lte9 ie-lte8 ie-lte7 no-js" lang="\', escape=False)\nresponse.write(T.accepted_language or \'en\')\nresponse.write(\'"> <![endif]-->\\n<!--[if IE 8]><html class="ie ie8 ie-lte9 ie-lte8 no-js" lang="\', escape=False)\nresponse.write(T.accepted_language or \'en\')\nresponse.write(\'"> <![endif]-->\\n<!--[if IE 9]><html class="ie9 ie-lte9 no-js" lang="\', escape=False)\nresponse.write(T.accepted_language or \'en\')\nresponse.write(\'"> <![endif]-->\\n<!--[if (gt IE 9)|!(IE)]><!--> <html class="no-js" lang="\', escape=False)\nresponse.write(T.accepted_language or \'en\')\nresponse.write(\'"> <!--<![endif]-->\\n<head>\\n  <meta charset="utf-8" />\\n  <!-- www.phpied.com/conditional-comments-block-downloads/ -->\\n  <!-- Always force latest IE rendering engine\\n\\t   (even in intranet) & Chrome Frame\\n\\t   Remove this if you use the .htaccess -->\\n  <!--[if IE]>\\n    <meta http-equiv="X-UA-Compatible" content="IE=edge\', escape=False)\nresponse.write(not request.is_local and \',chrome=1\' or \'\')\nresponse.write(\'">\\n  <![endif]-->\\n  \\n  <title>\', escape=False)\nresponse.write(response.title or request.application)\nresponse.write(\'</title>\\n  \\n  <!-- http://dev.w3.org/html5/markup/meta.name.html -->\\n  <meta name="application-name" content="\', escape=False)\nresponse.write(request.application)\nresponse.write(\'" />\\n  \\n  <!-- Speaking of Google, don\\\'t forget to set your site up:\\n\\t   http://google.com/webmasters -->\\n  <meta name="google-site-verification" content="" />\\n\\n  <!--  Mobile Viewport Fix\\n\\t  j.mp/mobileviewport & davidbcalhoun.com/2010/viewport-metatag\\n\\t  device-width: Occupy full width of the screen in its current orientation\\n\\t  initial-scale = 1.0 retains dimensions instead of zooming out if page height > device height\\n\\t  user-scalable = yes allows the user to zoom in -->\\n  <meta name="viewport" content="width=device-width, initial-scale=1.0, user-scalable=yes">\\n  \\n  <!-- Place favicon.ico and apple-touch-icon.png in the root of your domain and delete these references -->\\n  <link rel="shortcut icon" href="\', escape=False)\nresponse.write(URL(\'static\',\'favicon.ico\'))\nresponse.write(\'" type="image/x-icon">\\n  <link rel="apple-touch-icon" href="\', escape=False)\nresponse.write(URL(\'static\',\'favicon.png\'))\nresponse.write(\'">\\n\\n  <!-- All JavaScript at the bottom, except for Modernizr which enables \\n\\t   HTML5 elements & feature detects -->\\n  <script src="\', escape=False)\nresponse.write(URL(\'static\',\'js/modernizr.custom.js\'))\nresponse.write(\'"></script>  \\n\\n  <!-- include stylesheets -->\\n  \', escape=False)\nresponse.files.append(URL(\'static\',\'css/skeleton.css\'))\nresponse.files.append(URL(\'static\',\'css/web2py.css\'))\nif response.menu:\n    response.files.append(URL(\'static\',\'css/superfish.css\'))\n    response.files.append(URL(\'static\',\'js/superfish.js\'))\n    pass\nresponse.write(\'\\n\\n  \', escape=False)\nresponse.write(\'<script type="text/javascript"><!--\\n    // These variables are used by the web2py_ajax_init function in web2py_ajax.js (which is loaded below).\\n    var w2p_ajax_confirm_message = "\', escape=False)\nresponse.write(T(\'Are you sure you want to delete this object?\'))\nresponse.write(\'";\\n    var w2p_ajax_date_format = "\', escape=False)\nresponse.write(T(\'%Y-%m-%d\'))\nresponse.write(\'";\\n    var w2p_ajax_datetime_format = "\', escape=False)\nresponse.write(T(\'%Y-%m-%d %H:%M:%S\'))\nresponse.write(\'";\\n    //--></script>\\n\', escape=False)\nresponse.files.insert(0,URL(\'static\',\'js/jquery.js\'))\nresponse.files.insert(1,URL(\'static\',\'css/calendar.css\'))\nresponse.files.insert(2,URL(\'static\',\'js/calendar.js\'))\nresponse.files.insert(3,URL(\'static\',\'js/web2py.js\'))\nresponse.include_meta()\nresponse.include_files()\nresponse.write(\'\\n\', escape=False)\nresponse.write(\'\\n\\n  \', escape=False)\nif response.menu:\n    response.write(\'\\n  <script type="text/javascript">\\n    jQuery(function(){ jQuery(\\\'ul.sf-menu\\\').supersubs({minWidth:12,maxWidth:30,extraWidth:3}).superfish(); });\\n  </script>\\n  \', escape=False)\n    pass\nresponse.write(\'\\n\\n  \', escape=False)\n# using sidebars need to know what sidebar you want to use\nleft_sidebar_enabled = globals().get(\'left_sidebar_enabled\',False)\nright_sidebar_enabled = globals().get(\'right_sidebar_enabled\',False)\nmiddle_columns = {0:\'sixteen\',1:\'twelve\',2:\'eight\'}[\n(left_sidebar_enabled and 1 or 0)+(right_sidebar_enabled and 1 or 0)]\nresponse.write(\'\\n\\n  <!-- uncomment here to load jquery-ui\\n  <link rel="stylesheet" href="http://ajax.googleapis.com/ajax/libs/jqueryui/1.8.16/themes/base/jquery-ui.css" type="text/css" media="all" />\\n  <script src="http://ajax.googleapis.com/ajax/libs/jqueryui/1.8.16/jquery-ui.min.js" type="text/javascript"></script>\\n  uncomment to load jquery-ui //-->\\n</head>\\n<body>\\n  <div class="wrapper"><!-- for sticky footer -->\\n  \\n    <div class="topbar">\\n      <div class="container">    \\n        <div class="sixteen columns">\\n          <div id="navbar">\', escape=False)\nresponse.write(\'auth\' in globals() and auth.navbar(separators=(\' \',\' | \',\'\')))\nresponse.write(\'</div>\\n          \', escape=False)\nis_mobile=request.user_agent().is_mobile\nresponse.write(\'\\n\\t  \', escape=False)\nif response.menu:\n    response.write(\'\\n          <div id="menu">\\n             \', escape=False)\n    response.write(MENU(response.menu, _class=\'mobile-menu\' if is_mobile else \'sf-menu\',mobile=is_mobile))\n    response.write(\'\\n          </div>\\n          \', escape=False)\n    pass\nresponse.write(\'\\n        </div>\\n      </div>\\n    </div><!-- topbar -->\\n    \\n    <div class="flash">\', escape=False)\nresponse.write(response.flash or \'\')\nresponse.write(\'</div>\\n    \\n    <div class="header">\\n      <div class="container">         \\n        <div class="sixteen columns">\\n          <h1 class="remove-bottom" style="margin-top: .5em;">\\n          \', escape=False)\nresponse.write(response.title or request.application)\nresponse.write(\'\\n          </h1>\\n          <h5>\', escape=False)\nresponse.write(response.subtitle or \'\')\nresponse.write(\'</h5>\\n        </div>\\n        <div class="sixteen columns">\\n          <div class="statusbar clearfix">\\n            \', escape=False)\nresponse.write(\'\\n            <div class="breadcrumbs">\', escape=False)\nresponse.write(request.function.replace(\'_\', \' \').title())\nresponse.write(\'</div>\\n            \', escape=False)\nresponse.write(\'\\n            <!-- AddToAny BEGIN -->\\n            <div style="float:right; padding-top: .25em;" class="a2a_kit a2a_default_style">\\n            <a class="a2a_dd" href="http://www.addtoany.com/share_save">Share</a></div>\\n            <script type="text/javascript" src="http://static.addtoany.com/menu/page.js"></script>\\n            <!-- AddToAny END -->\\n          </div>\\n        </div>\\n      </div>\\n    </div>\\n\\n    <div class="main">\\n      <div class="container">                 \\n        \', escape=False)\nif left_sidebar_enabled:\n    response.write(\'\\n        <div class="four columns left-sidebar">\\n          \', escape=False)\n    response.write(\'\\n          <h3>Left Sidebar</h3>\\n          <p></p>\\n          \', escape=False)\n    response.write(\'\\n        </div>\\n        \', escape=False)\n    pass\nresponse.write(\'\\n        \\n        <div class="\', escape=False)\nresponse.write(middle_columns)\nresponse.write(\' columns center">\\n          \', escape=False)\nresponse.write(\'\\n          \', escape=False)\nresponse.write(\'\\n<div>\\n\', escape=False)\nresponse.write(form)\nresponse.write(\'\\n</div>\\n\', escape=False)\nresponse.write(VIDEO(_src=URL(\'static\',\'CVSRelease.ogv\'), _alt=\'tets\'))\nresponse.write(\'\\n<!--  <video width="320" height="240" controls="controls">    \\n         <source src="~/CVSRelease.ogv" type="video/ogg">\\n  </video>-->\\n</html>\\n\', escape=False)\nresponse.write(\'\\n          \', escape=False)\nresponse.write(\'\\n        </div>\\n        \\n        \', escape=False)\nif right_sidebar_enabled:\n    response.write(\'\\n        <div class="four columns">\\n          \', escape=False)\n    response.write(\'\\n          <h3>Right Sidebar</h3>\\n          <p></p>\\n          \', escape=False)\n    response.write(\'\\n        </div>    \\n        \', escape=False)\n    pass\nresponse.write(\'\\n        \\n      </div><!-- container -->\\n    </div><!-- main -->\\n    \\n    <div class="push"></div>\\n  </div><!-- wrapper -->\\n\\n  <div class="footer">\\n    <div class="container">    \\n      <div class="sixteen columns">\\n        \', escape=False)\nresponse.write(\' <!-- this is default footer -->\\n        <div class="footer-content clearfix">\\n          <div class="copyright">\', escape=False)\nresponse.write(T(\'Copyright\'))\nresponse.write(\' &#169; 2011</div>\\n          <div style="float: right;">\\n            <a href="http://www.web2py.com/">\\n            <img style="padding-bottom: 0;" src="\', escape=False)\nresponse.write(URL(\'static\',\'images/poweredby.png\'))\nresponse.write(\'"/>\\n            </a>\\n          </div>\\n        </div>\\n        \', escape=False)\nresponse.write(\'\\t\\n      </div>\\n    </div><!-- container -->\\n  </div><!-- footer -->\\n  \\n  <!--[if lt IE 7 ]>\\n\\t<script src="\', escape=False)\nresponse.write(URL(\'static\',\'js/dd_belatedpng.js\'))\nresponse.write(\'"></script>\\n\\t<script> DD_belatedPNG.fix(\\\'img, .png_bg\\\'); //fix any <img> or .png_bg background-images </script>\\n\\t<![endif]-->\\n  \', escape=False)\nif response.google_analytics_id:\n    response.write(\'<script type="text/javascript"> var _gaq = _gaq || []; _gaq.push([\\\'_setAccount\\\', \\\'\', escape=False)\n    response.write(response.google_analytics_id)\n    response.write("\']); _gaq.push([\'_trackPageview\']); (function() { var ga = document.createElement(\'script\'); ga.type = \'text/javascript\'; ga.async = true; ga.src = (\'https:\' == document.location.protocol ? \'https://ssl\' : \'http://www\') + \'.google-analytics.com/ga.js\'; var s = document.getElementsByTagName(\'script\')[0]; s.parentNode.insertBefore(ga, s); })(); </script> ", escape=False)\n    pass\nresponse.write(\'\\n</body>\\n</html>\\n\', escape=False)'
p7
sS'snapshot'
p8
(dp9
S'exception'
p10
(dp11
S'__hash__'
p12
S"<method-wrapper '__hash__' of exceptions.NameError object>"
p13
sS'__setattr__'
p14
S"<method-wrapper '__setattr__' of exceptions.NameError object>"
p15
sS'__reduce_ex__'
p16
S'<built-in method __reduce_ex__ of exceptions.NameError object>'
p17
sS'__getslice__'
p18
S"<method-wrapper '__getslice__' of exceptions.NameError object>"
p19
sS'__getitem__'
p20
S"<method-wrapper '__getitem__' of exceptions.NameError object>"
p21
sS'__setstate__'
p22
S'<built-in method __setstate__ of exceptions.NameError object>'
p23
sS'__reduce__'
p24
S'<built-in method __reduce__ of exceptions.NameError object>'
p25
sS'__str__'
p26
S"<method-wrapper '__str__' of exceptions.NameError object>"
p27
sS'__format__'
p28
S'<built-in method __format__ of exceptions.NameError object>'
p29
sS'__getattribute__'
p30
S"<method-wrapper '__getattribute__' of exceptions.NameError object>"
p31
sS'__class__'
p32
S"<type 'exceptions.NameError'>"
p33
sS'__unicode__'
p34
S'<built-in method __unicode__ of exceptions.NameError object>'
p35
sS'__delattr__'
p36
S"<method-wrapper '__delattr__' of exceptions.NameError object>"
p37
sS'__subclasshook__'
p38
S'<built-in method __subclasshook__ of type object>'
p39
sS'__repr__'
p40
S"<method-wrapper '__repr__' of exceptions.NameError object>"
p41
sS'args'
p42
S'("name \'VIDEO\' is not defined",)'
p43
sS'__dict__'
p44
S'{}'
p45
sS'__sizeof__'
p46
S'<built-in method __sizeof__ of exceptions.NameError object>'
p47
sS'__doc__'
p48
S"'Name not found globally.'"
p49
sS'__init__'
p50
S"<method-wrapper '__init__' of exceptions.NameError object>"
p51
sS'__new__'
p52
S'<built-in method __new__ of type object>'
p53
ssS'evalue'
p54
S"name 'VIDEO' is not defined"
p55
sS'request'
p56
ccopy_reg
_reconstructor
p57
(cgluon.html
BEAUTIFY
p58
c__builtin__
object
p59
NtRp60
(dp61
S'attributes'
p62
(dp63
sS'components'
p64
(lp65
g57
(cgluon.html
TABLE
p66
g59
NtRp67
(dp68
g62
(dp69
S'level'
p70
I5
ssS'parent'
p71
Nsg64
(lp72
g57
(cgluon.html
TR
p73
g59
NtRp74
(dp75
g62
(dp76
sg71
g67
sg64
(lp77
g57
(cgluon.html
TD
p78
g59
NtRp79
(dp80
g62
(dp81
S'_style'
p82
S'font-weight:bold;vertical-align:top'
p83
ssg71
g74
sg64
(lp84
S'ajax'
p85
asbag57
(g78
g59
NtRp86
(dp87
g62
(dp88
S'_valign'
p89
S'top'
p90
ssg71
g74
sg64
(lp91
S':'
asbag57
(g78
g59
NtRp92
(dp93
g62
(dp94
sg71
g74
sg64
(lp95
g57
(g58
g59
NtRp96
(dp97
g62
(dp98
g70
I5
ssg71
g92
sg64
(lp99
S'False'
p100
asbasbasbag57
(g73
g59
NtRp101
(dp102
g62
(dp103
sg71
g67
sg64
(lp104
g57
(g78
g59
NtRp105
(dp106
g62
(dp107
g82
g83
ssg71
g101
sg64
(lp108
S'application'
p109
asbag57
(g78
g59
NtRp110
(dp111
g62
(dp112
g89
g90
ssg71
g101
sg64
(lp113
S':'
asbag57
(g78
g59
NtRp114
(dp115
g62
(dp116
sg71
g101
sg64
(lp117
g57
(g58
g59
NtRp118
(dp119
g62
(dp120
g70
I5
ssg71
g114
sg64
(lp121
S'astra1'
p122
asbasbasbag57
(g73
g59
NtRp123
(dp124
g62
(dp125
sg71
g67
sg64
(lp126
g57
(g78
g59
NtRp127
(dp128
g62
(dp129
g82
g83
ssg71
g123
sg64
(lp130
g42
asbag57
(g78
g59
NtRp131
(dp132
g62
(dp133
g89
g90
ssg71
g123
sg64
(lp134
S':'
asbag57
(g78
g59
NtRp135
(dp136
g62
(dp137
sg71
g123
sg64
(lp138
g57
(g58
g59
NtRp139
(dp140
g62
(dp141
g70
I5
ssg71
g135
sg64
(lp142
g57
(g66
g59
NtRp143
(dp144
g62
(dp145
g70
I4
ssg71
Nsg64
(lp146
sbasbasbasbag57
(g73
g59
NtRp147
(dp148
g62
(dp149
sg71
g67
sg64
(lp150
g57
(g78
g59
NtRp151
(dp152
g62
(dp153
g82
g83
ssg71
g147
sg64
(lp154
S'body'
p155
asbag57
(g78
g59
NtRp156
(dp157
g62
(dp158
g89
g90
ssg71
g147
sg64
(lp159
S':'
asbag57
(g78
g59
NtRp160
(dp161
g62
(dp162
sg71
g147
sg64
(lp163
g57
(g58
g59
NtRp164
(dp165
g62
(dp166
g70
I5
ssg71
g160
sg64
(lp167
S'<cStringIO.StringO object at 0xafa2280>'
p168
asbasbasbag57
(g73
g59
NtRp169
(dp170
g62
(dp171
sg71
g67
sg64
(lp172
g57
(g78
g59
NtRp173
(dp174
g62
(dp175
g82
g83
ssg71
g169
sg64
(lp176
S'client'
p177
asbag57
(g78
g59
NtRp178
(dp179
g62
(dp180
g89
g90
ssg71
g169
sg64
(lp181
S':'
asbag57
(g78
g59
NtRp182
(dp183
g62
(dp184
sg71
g169
sg64
(lp185
g57
(g58
g59
NtRp186
(dp187
g62
(dp188
g70
I5
ssg71
g182
sg64
(lp189
S'127.0.0.1'
p190
asbasbasbag57
(g73
g59
NtRp191
(dp192
g62
(dp193
sg71
g67
sg64
(lp194
g57
(g78
g59
NtRp195
(dp196
g62
(dp197
g82
g83
ssg71
g191
sg64
(lp198
S'controller'
p199
asbag57
(g78
g59
NtRp200
(dp201
g62
(dp202
g89
g90
ssg71
g191
sg64
(lp203
S':'
asbag57
(g78
g59
NtRp204
(dp205
g62
(dp206
sg71
g191
sg64
(lp207
g57
(g58
g59
NtRp208
(dp209
g62
(dp210
g70
I5
ssg71
g204
sg64
(lp211
S'default'
p212
asbasbasbag57
(g73
g59
NtRp213
(dp214
g62
(dp215
sg71
g67
sg64
(lp216
g57
(g78
g59
NtRp217
(dp218
g62
(dp219
g82
g83
ssg71
g213
sg64
(lp220
S'cookies'
p221
asbag57
(g78
g59
NtRp222
(dp223
g62
(dp224
g89
g90
ssg71
g213
sg64
(lp225
S':'
asbag57
(g78
g59
NtRp226
(dp227
g62
(dp228
sg71
g213
sg64
(lp229
g57
(g58
g59
NtRp230
(dp231
g62
(dp232
g70
I5
ssg71
g226
sg64
(lp233
g57
(g66
g59
NtRp234
(dp235
g62
(dp236
g70
I4
ssg71
Nsg64
(lp237
g57
(g73
g59
NtRp238
(dp239
g62
(dp240
sg71
g234
sg64
(lp241
g57
(g78
g59
NtRp242
(dp243
g62
(dp244
g82
g83
ssg71
g238
sg64
(lp245
S'session_id_admin'
p246
asbag57
(g78
g59
NtRp247
(dp248
g62
(dp249
g89
g90
ssg71
g238
sg64
(lp250
S':'
asbag57
(g78
g59
NtRp251
(dp252
g62
(dp253
sg71
g238
sg64
(lp254
g57
(g58
g59
NtRp255
(dp256
g62
(dp257
g70
I4
ssg71
g251
sg64
(lp258
g57
(g66
g59
NtRp259
(dp260
g62
(dp261
g70
I3
ssg71
Nsg64
(lp262
g57
(g73
g59
NtRp263
(dp264
g62
(dp265
sg71
g259
sg64
(lp266
g57
(g78
g59
NtRp267
(dp268
g62
(dp269
g82
g83
ssg71
g263
sg64
(lp270
S'comment'
p271
asbag57
(g78
g59
NtRp272
(dp273
g62
(dp274
g89
g90
ssg71
g263
sg64
(lp275
S':'
asbag57
(g78
g59
NtRp276
(dp277
g62
(dp278
sg71
g263
sg64
(lp279
g57
(g58
g59
NtRp280
(dp281
g62
(dp282
g70
I3
ssg71
g276
sg64
(lp283
S''
asbasbasbag57
(g73
g59
NtRp284
(dp285
g62
(dp286
sg71
g259
sg64
(lp287
g57
(g78
g59
NtRp288
(dp289
g62
(dp290
g82
g83
ssg71
g284
sg64
(lp291
S'domain'
p292
asbag57
(g78
g59
NtRp293
(dp294
g62
(dp295
g89
g90
ssg71
g284
sg64
(lp296
S':'
asbag57
(g78
g59
NtRp297
(dp298
g62
(dp299
sg71
g284
sg64
(lp300
g57
(g58
g59
NtRp301
(dp302
g62
(dp303
g70
I3
ssg71
g297
sg64
(lp304
S''
asbasbasbag57
(g73
g59
NtRp305
(dp306
g62
(dp307
sg71
g259
sg64
(lp308
g57
(g78
g59
NtRp309
(dp310
g62
(dp311
g82
g83
ssg71
g305
sg64
(lp312
S'expires'
p313
asbag57
(g78
g59
NtRp314
(dp315
g62
(dp316
g89
g90
ssg71
g305
sg64
(lp317
S':'
asbag57
(g78
g59
NtRp318
(dp319
g62
(dp320
sg71
g305
sg64
(lp321
g57
(g58
g59
NtRp322
(dp323
g62
(dp324
g70
I3
ssg71
g318
sg64
(lp325
S''
asbasbasbag57
(g73
g59
NtRp326
(dp327
g62
(dp328
sg71
g259
sg64
(lp329
g57
(g78
g59
NtRp330
(dp331
g62
(dp332
g82
g83
ssg71
g326
sg64
(lp333
S'httponly'
p334
asbag57
(g78
g59
NtRp335
(dp336
g62
(dp337
g89
g90
ssg71
g326
sg64
(lp338
S':'
asbag57
(g78
g59
NtRp339
(dp340
g62
(dp341
sg71
g326
sg64
(lp342
g57
(g58
g59
NtRp343
(dp344
g62
(dp345
g70
I3
ssg71
g339
sg64
(lp346
S''
asbasbasbag57
(g73
g59
NtRp347
(dp348
g62
(dp349
sg71
g259
sg64
(lp350
g57
(g78
g59
NtRp351
(dp352
g62
(dp353
g82
g83
ssg71
g347
sg64
(lp354
S'max-age'
p355
asbag57
(g78
g59
NtRp356
(dp357
g62
(dp358
g89
g90
ssg71
g347
sg64
(lp359
S':'
asbag57
(g78
g59
NtRp360
(dp361
g62
(dp362
sg71
g347
sg64
(lp363
g57
(g58
g59
NtRp364
(dp365
g62
(dp366
g70
I3
ssg71
g360
sg64
(lp367
S''
asbasbasbag57
(g73
g59
NtRp368
(dp369
g62
(dp370
sg71
g259
sg64
(lp371
g57
(g78
g59
NtRp372
(dp373
g62
(dp374
g82
g83
ssg71
g368
sg64
(lp375
S'path'
p376
asbag57
(g78
g59
NtRp377
(dp378
g62
(dp379
g89
g90
ssg71
g368
sg64
(lp380
S':'
asbag57
(g78
g59
NtRp381
(dp382
g62
(dp383
sg71
g368
sg64
(lp384
g57
(g58
g59
NtRp385
(dp386
g62
(dp387
g70
I3
ssg71
g381
sg64
(lp388
S''
asbasbasbag57
(g73
g59
NtRp389
(dp390
g62
(dp391
sg71
g259
sg64
(lp392
g57
(g78
g59
NtRp393
(dp394
g62
(dp395
g82
g83
ssg71
g389
sg64
(lp396
S'secure'
p397
asbag57
(g78
g59
NtRp398
(dp399
g62
(dp400
g89
g90
ssg71
g389
sg64
(lp401
S':'
asbag57
(g78
g59
NtRp402
(dp403
g62
(dp404
sg71
g389
sg64
(lp405
g57
(g58
g59
NtRp406
(dp407
g62
(dp408
g70
I3
ssg71
g402
sg64
(lp409
S''
asbasbasbag57
(g73
g59
NtRp410
(dp411
g62
(dp412
sg71
g259
sg64
(lp413
g57
(g78
g59
NtRp414
(dp415
g62
(dp416
g82
g83
ssg71
g410
sg64
(lp417
S'version'
p418
asbag57
(g78
g59
NtRp419
(dp420
g62
(dp421
g89
g90
ssg71
g410
sg64
(lp422
S':'
asbag57
(g78
g59
NtRp423
(dp424
g62
(dp425
sg71
g410
sg64
(lp426
g57
(g58
g59
NtRp427
(dp428
g62
(dp429
g70
I3
ssg71
g423
sg64
(lp430
S''
asbasbasbasbasbasbasbag57
(g73
g59
NtRp431
(dp432
g62
(dp433
sg71
g234
sg64
(lp434
g57
(g78
g59
NtRp435
(dp436
g62
(dp437
g82
g83
ssg71
g431
sg64
(lp438
S'session_id_astra1'
p439
asbag57
(g78
g59
NtRp440
(dp441
g62
(dp442
g89
g90
ssg71
g431
sg64
(lp443
S':'
asbag57
(g78
g59
NtRp444
(dp445
g62
(dp446
sg71
g431
sg64
(lp447
g57
(g58
g59
NtRp448
(dp449
g62
(dp450
g70
I4
ssg71
g444
sg64
(lp451
g57
(g66
g59
NtRp452
(dp453
g62
(dp454
g70
I3
ssg71
Nsg64
(lp455
g57
(g73
g59
NtRp456
(dp457
g62
(dp458
sg71
g452
sg64
(lp459
g57
(g78
g59
NtRp460
(dp461
g62
(dp462
g82
g83
ssg71
g456
sg64
(lp463
g271
asbag57
(g78
g59
NtRp464
(dp465
g62
(dp466
g89
g90
ssg71
g456
sg64
(lp467
S':'
asbag57
(g78
g59
NtRp468
(dp469
g62
(dp470
sg71
g456
sg64
(lp471
g57
(g58
g59
NtRp472
(dp473
g62
(dp474
g70
I3
ssg71
g468
sg64
(lp475
S''
asbasbasbag57
(g73
g59
NtRp476
(dp477
g62
(dp478
sg71
g452
sg64
(lp479
g57
(g78
g59
NtRp480
(dp481
g62
(dp482
g82
g83
ssg71
g476
sg64
(lp483
g292
asbag57
(g78
g59
NtRp484
(dp485
g62
(dp486
g89
g90
ssg71
g476
sg64
(lp487
S':'
asbag57
(g78
g59
NtRp488
(dp489
g62
(dp490
sg71
g476
sg64
(lp491
g57
(g58
g59
NtRp492
(dp493
g62
(dp494
g70
I3
ssg71
g488
sg64
(lp495
S''
asbasbasbag57
(g73
g59
NtRp496
(dp497
g62
(dp498
sg71
g452
sg64
(lp499
g57
(g78
g59
NtRp500
(dp501
g62
(dp502
g82
g83
ssg71
g496
sg64
(lp503
g313
asbag57
(g78
g59
NtRp504
(dp505
g62
(dp506
g89
g90
ssg71
g496
sg64
(lp507
S':'
asbag57
(g78
g59
NtRp508
(dp509
g62
(dp510
sg71
g496
sg64
(lp511
g57
(g58
g59
NtRp512
(dp513
g62
(dp514
g70
I3
ssg71
g508
sg64
(lp515
S''
asbasbasbag57
(g73
g59
NtRp516
(dp517
g62
(dp518
sg71
g452
sg64
(lp519
g57
(g78
g59
NtRp520
(dp521
g62
(dp522
g82
g83
ssg71
g516
sg64
(lp523
g334
asbag57
(g78
g59
NtRp524
(dp525
g62
(dp526
g89
g90
ssg71
g516
sg64
(lp527
S':'
asbag57
(g78
g59
NtRp528
(dp529
g62
(dp530
sg71
g516
sg64
(lp531
g57
(g58
g59
NtRp532
(dp533
g62
(dp534
g70
I3
ssg71
g528
sg64
(lp535
S''
asbasbasbag57
(g73
g59
NtRp536
(dp537
g62
(dp538
sg71
g452
sg64
(lp539
g57
(g78
g59
NtRp540
(dp541
g62
(dp542
g82
g83
ssg71
g536
sg64
(lp543
g355
asbag57
(g78
g59
NtRp544
(dp545
g62
(dp546
g89
g90
ssg71
g536
sg64
(lp547
S':'
asbag57
(g78
g59
NtRp548
(dp549
g62
(dp550
sg71
g536
sg64
(lp551
g57
(g58
g59
NtRp552
(dp553
g62
(dp554
g70
I3
ssg71
g548
sg64
(lp555
S''
asbasbasbag57
(g73
g59
NtRp556
(dp557
g62
(dp558
sg71
g452
sg64
(lp559
g57
(g78
g59
NtRp560
(dp561
g62
(dp562
g82
g83
ssg71
g556
sg64
(lp563
g376
asbag57
(g78
g59
NtRp564
(dp565
g62
(dp566
g89
g90
ssg71
g556
sg64
(lp567
S':'
asbag57
(g78
g59
NtRp568
(dp569
g62
(dp570
sg71
g556
sg64
(lp571
g57
(g58
g59
NtRp572
(dp573
g62
(dp574
g70
I3
ssg71
g568
sg64
(lp575
S''
asbasbasbag57
(g73
g59
NtRp576
(dp577
g62
(dp578
sg71
g452
sg64
(lp579
g57
(g78
g59
NtRp580
(dp581
g62
(dp582
g82
g83
ssg71
g576
sg64
(lp583
g397
asbag57
(g78
g59
NtRp584
(dp585
g62
(dp586
g89
g90
ssg71
g576
sg64
(lp587
S':'
asbag57
(g78
g59
NtRp588
(dp589
g62
(dp590
sg71
g576
sg64
(lp591
g57
(g58
g59
NtRp592
(dp593
g62
(dp594
g70
I3
ssg71
g588
sg64
(lp595
S''
asbasbasbag57
(g73
g59
NtRp596
(dp597
g62
(dp598
sg71
g452
sg64
(lp599
g57
(g78
g59
NtRp600
(dp601
g62
(dp602
g82
g83
ssg71
g596
sg64
(lp603
g418
asbag57
(g78
g59
NtRp604
(dp605
g62
(dp606
g89
g90
ssg71
g596
sg64
(lp607
S':'
asbag57
(g78
g59
NtRp608
(dp609
g62
(dp610
sg71
g596
sg64
(lp611
g57
(g58
g59
NtRp612
(dp613
g62
(dp614
g70
I3
ssg71
g608
sg64
(lp615
S''
asbasbasbasbasbasbasbag57
(g73
g59
NtRp616
(dp617
g62
(dp618
sg71
g234
sg64
(lp619
g57
(g78
g59
NtRp620
(dp621
g62
(dp622
g82
g83
ssg71
g616
sg64
(lp623
S'session_id_music'
p624
asbag57
(g78
g59
NtRp625
(dp626
g62
(dp627
g89
g90
ssg71
g616
sg64
(lp628
S':'
asbag57
(g78
g59
NtRp629
(dp630
g62
(dp631
sg71
g616
sg64
(lp632
g57
(g58
g59
NtRp633
(dp634
g62
(dp635
g70
I4
ssg71
g629
sg64
(lp636
g57
(g66
g59
NtRp637
(dp638
g62
(dp639
g70
I3
ssg71
Nsg64
(lp640
g57
(g73
g59
NtRp641
(dp642
g62
(dp643
sg71
g637
sg64
(lp644
g57
(g78
g59
NtRp645
(dp646
g62
(dp647
g82
g83
ssg71
g641
sg64
(lp648
g271
asbag57
(g78
g59
NtRp649
(dp650
g62
(dp651
g89
g90
ssg71
g641
sg64
(lp652
S':'
asbag57
(g78
g59
NtRp653
(dp654
g62
(dp655
sg71
g641
sg64
(lp656
g57
(g58
g59
NtRp657
(dp658
g62
(dp659
g70
I3
ssg71
g653
sg64
(lp660
S''
asbasbasbag57
(g73
g59
NtRp661
(dp662
g62
(dp663
sg71
g637
sg64
(lp664
g57
(g78
g59
NtRp665
(dp666
g62
(dp667
g82
g83
ssg71
g661
sg64
(lp668
g292
asbag57
(g78
g59
NtRp669
(dp670
g62
(dp671
g89
g90
ssg71
g661
sg64
(lp672
S':'
asbag57
(g78
g59
NtRp673
(dp674
g62
(dp675
sg71
g661
sg64
(lp676
g57
(g58
g59
NtRp677
(dp678
g62
(dp679
g70
I3
ssg71
g673
sg64
(lp680
S''
asbasbasbag57
(g73
g59
NtRp681
(dp682
g62
(dp683
sg71
g637
sg64
(lp684
g57
(g78
g59
NtRp685
(dp686
g62
(dp687
g82
g83
ssg71
g681
sg64
(lp688
g313
asbag57
(g78
g59
NtRp689
(dp690
g62
(dp691
g89
g90
ssg71
g681
sg64
(lp692
S':'
asbag57
(g78
g59
NtRp693
(dp694
g62
(dp695
sg71
g681
sg64
(lp696
g57
(g58
g59
NtRp697
(dp698
g62
(dp699
g70
I3
ssg71
g693
sg64
(lp700
S''
asbasbasbag57
(g73
g59
NtRp701
(dp702
g62
(dp703
sg71
g637
sg64
(lp704
g57
(g78
g59
NtRp705
(dp706
g62
(dp707
g82
g83
ssg71
g701
sg64
(lp708
g334
asbag57
(g78
g59
NtRp709
(dp710
g62
(dp711
g89
g90
ssg71
g701
sg64
(lp712
S':'
asbag57
(g78
g59
NtRp713
(dp714
g62
(dp715
sg71
g701
sg64
(lp716
g57
(g58
g59
NtRp717
(dp718
g62
(dp719
g70
I3
ssg71
g713
sg64
(lp720
S''
asbasbasbag57
(g73
g59
NtRp721
(dp722
g62
(dp723
sg71
g637
sg64
(lp724
g57
(g78
g59
NtRp725
(dp726
g62
(dp727
g82
g83
ssg71
g721
sg64
(lp728
g355
asbag57
(g78
g59
NtRp729
(dp730
g62
(dp731
g89
g90
ssg71
g721
sg64
(lp732
S':'
asbag57
(g78
g59
NtRp733
(dp734
g62
(dp735
sg71
g721
sg64
(lp736
g57
(g58
g59
NtRp737
(dp738
g62
(dp739
g70
I3
ssg71
g733
sg64
(lp740
S''
asbasbasbag57
(g73
g59
NtRp741
(dp742
g62
(dp743
sg71
g637
sg64
(lp744
g57
(g78
g59
NtRp745
(dp746
g62
(dp747
g82
g83
ssg71
g741
sg64
(lp748
g376
asbag57
(g78
g59
NtRp749
(dp750
g62
(dp751
g89
g90
ssg71
g741
sg64
(lp752
S':'
asbag57
(g78
g59
NtRp753
(dp754
g62
(dp755
sg71
g741
sg64
(lp756
g57
(g58
g59
NtRp757
(dp758
g62
(dp759
g70
I3
ssg71
g753
sg64
(lp760
S''
asbasbasbag57
(g73
g59
NtRp761
(dp762
g62
(dp763
sg71
g637
sg64
(lp764
g57
(g78
g59
NtRp765
(dp766
g62
(dp767
g82
g83
ssg71
g761
sg64
(lp768
g397
asbag57
(g78
g59
NtRp769
(dp770
g62
(dp771
g89
g90
ssg71
g761
sg64
(lp772
S':'
asbag57
(g78
g59
NtRp773
(dp774
g62
(dp775
sg71
g761
sg64
(lp776
g57
(g58
g59
NtRp777
(dp778
g62
(dp779
g70
I3
ssg71
g773
sg64
(lp780
S''
asbasbasbag57
(g73
g59
NtRp781
(dp782
g62
(dp783
sg71
g637
sg64
(lp784
g57
(g78
g59
NtRp785
(dp786
g62
(dp787
g82
g83
ssg71
g781
sg64
(lp788
g418
asbag57
(g78
g59
NtRp789
(dp790
g62
(dp791
g89
g90
ssg71
g781
sg64
(lp792
S':'
asbag57
(g78
g59
NtRp793
(dp794
g62
(dp795
sg71
g781
sg64
(lp796
g57
(g58
g59
NtRp797
(dp798
g62
(dp799
g70
I3
ssg71
g793
sg64
(lp800
S''
asbasbasbasbasbasbasbag57
(g73
g59
NtRp801
(dp802
g62
(dp803
sg71
g234
sg64
(lp804
g57
(g78
g59
NtRp805
(dp806
g62
(dp807
g82
g83
ssg71
g801
sg64
(lp808
S'session_id_music_library'
p809
asbag57
(g78
g59
NtRp810
(dp811
g62
(dp812
g89
g90
ssg71
g801
sg64
(lp813
S':'
asbag57
(g78
g59
NtRp814
(dp815
g62
(dp816
sg71
g801
sg64
(lp817
g57
(g58
g59
NtRp818
(dp819
g62
(dp820
g70
I4
ssg71
g814
sg64
(lp821
g57
(g66
g59
NtRp822
(dp823
g62
(dp824
g70
I3
ssg71
Nsg64
(lp825
g57
(g73
g59
NtRp826
(dp827
g62
(dp828
sg71
g822
sg64
(lp829
g57
(g78
g59
NtRp830
(dp831
g62
(dp832
g82
g83
ssg71
g826
sg64
(lp833
g271
asbag57
(g78
g59
NtRp834
(dp835
g62
(dp836
g89
g90
ssg71
g826
sg64
(lp837
S':'
asbag57
(g78
g59
NtRp838
(dp839
g62
(dp840
sg71
g826
sg64
(lp841
g57
(g58
g59
NtRp842
(dp843
g62
(dp844
g70
I3
ssg71
g838
sg64
(lp845
S''
asbasbasbag57
(g73
g59
NtRp846
(dp847
g62
(dp848
sg71
g822
sg64
(lp849
g57
(g78
g59
NtRp850
(dp851
g62
(dp852
g82
g83
ssg71
g846
sg64
(lp853
g292
asbag57
(g78
g59
NtRp854
(dp855
g62
(dp856
g89
g90
ssg71
g846
sg64
(lp857
S':'
asbag57
(g78
g59
NtRp858
(dp859
g62
(dp860
sg71
g846
sg64
(lp861
g57
(g58
g59
NtRp862
(dp863
g62
(dp864
g70
I3
ssg71
g858
sg64
(lp865
S''
asbasbasbag57
(g73
g59
NtRp866
(dp867
g62
(dp868
sg71
g822
sg64
(lp869
g57
(g78
g59
NtRp870
(dp871
g62
(dp872
g82
g83
ssg71
g866
sg64
(lp873
g313
asbag57
(g78
g59
NtRp874
(dp875
g62
(dp876
g89
g90
ssg71
g866
sg64
(lp877
S':'
asbag57
(g78
g59
NtRp878
(dp879
g62
(dp880
sg71
g866
sg64
(lp881
g57
(g58
g59
NtRp882
(dp883
g62
(dp884
g70
I3
ssg71
g878
sg64
(lp885
S''
asbasbasbag57
(g73
g59
NtRp886
(dp887
g62
(dp888
sg71
g822
sg64
(lp889
g57
(g78
g59
NtRp890
(dp891
g62
(dp892
g82
g83
ssg71
g886
sg64
(lp893
g334
asbag57
(g78
g59
NtRp894
(dp895
g62
(dp896
g89
g90
ssg71
g886
sg64
(lp897
S':'
asbag57
(g78
g59
NtRp898
(dp899
g62
(dp900
sg71
g886
sg64
(lp901
g57
(g58
g59
NtRp902
(dp903
g62
(dp904
g70
I3
ssg71
g898
sg64
(lp905
S''
asbasbasbag57
(g73
g59
NtRp906
(dp907
g62
(dp908
sg71
g822
sg64
(lp909
g57
(g78
g59
NtRp910
(dp911
g62
(dp912
g82
g83
ssg71
g906
sg64
(lp913
g355
asbag57
(g78
g59
NtRp914
(dp915
g62
(dp916
g89
g90
ssg71
g906
sg64
(lp917
S':'
asbag57
(g78
g59
NtRp918
(dp919
g62
(dp920
sg71
g906
sg64
(lp921
g57
(g58
g59
NtRp922
(dp923
g62
(dp924
g70
I3
ssg71
g918
sg64
(lp925
S''
asbasbasbag57
(g73
g59
NtRp926
(dp927
g62
(dp928
sg71
g822
sg64
(lp929
g57
(g78
g59
NtRp930
(dp931
g62
(dp932
g82
g83
ssg71
g926
sg64
(lp933
g376
asbag57
(g78
g59
NtRp934
(dp935
g62
(dp936
g89
g90
ssg71
g926
sg64
(lp937
S':'
asbag57
(g78
g59
NtRp938
(dp939
g62
(dp940
sg71
g926
sg64
(lp941
g57
(g58
g59
NtRp942
(dp943
g62
(dp944
g70
I3
ssg71
g938
sg64
(lp945
S''
asbasbasbag57
(g73
g59
NtRp946
(dp947
g62
(dp948
sg71
g822
sg64
(lp949
g57
(g78
g59
NtRp950
(dp951
g62
(dp952
g82
g83
ssg71
g946
sg64
(lp953
g397
asbag57
(g78
g59
NtRp954
(dp955
g62
(dp956
g89
g90
ssg71
g946
sg64
(lp957
S':'
asbag57
(g78
g59
NtRp958
(dp959
g62
(dp960
sg71
g946
sg64
(lp961
g57
(g58
g59
NtRp962
(dp963
g62
(dp964
g70
I3
ssg71
g958
sg64
(lp965
S''
asbasbasbag57
(g73
g59
NtRp966
(dp967
g62
(dp968
sg71
g822
sg64
(lp969
g57
(g78
g59
NtRp970
(dp971
g62
(dp972
g82
g83
ssg71
g966
sg64
(lp973
g418
asbag57
(g78
g59
NtRp974
(dp975
g62
(dp976
g89
g90
ssg71
g966
sg64
(lp977
S':'
asbag57
(g78
g59
NtRp978
(dp979
g62
(dp980
sg71
g966
sg64
(lp981
g57
(g58
g59
NtRp982
(dp983
g62
(dp984
g70
I3
ssg71
g978
sg64
(lp985
S''
asbasbasbasbasbasbasbag57
(g73
g59
NtRp986
(dp987
g62
(dp988
sg71
g234
sg64
(lp989
g57
(g78
g59
NtRp990
(dp991
g62
(dp992
g82
g83
ssg71
g986
sg64
(lp993
S'session_id_photouploader'
p994
asbag57
(g78
g59
NtRp995
(dp996
g62
(dp997
g89
g90
ssg71
g986
sg64
(lp998
S':'
asbag57
(g78
g59
NtRp999
(dp1000
g62
(dp1001
sg71
g986
sg64
(lp1002
g57
(g58
g59
NtRp1003
(dp1004
g62
(dp1005
g70
I4
ssg71
g999
sg64
(lp1006
g57
(g66
g59
NtRp1007
(dp1008
g62
(dp1009
g70
I3
ssg71
Nsg64
(lp1010
g57
(g73
g59
NtRp1011
(dp1012
g62
(dp1013
sg71
g1007
sg64
(lp1014
g57
(g78
g59
NtRp1015
(dp1016
g62
(dp1017
g82
g83
ssg71
g1011
sg64
(lp1018
g271
asbag57
(g78
g59
NtRp1019
(dp1020
g62
(dp1021
g89
g90
ssg71
g1011
sg64
(lp1022
S':'
asbag57
(g78
g59
NtRp1023
(dp1024
g62
(dp1025
sg71
g1011
sg64
(lp1026
g57
(g58
g59
NtRp1027
(dp1028
g62
(dp1029
g70
I3
ssg71
g1023
sg64
(lp1030
S''
asbasbasbag57
(g73
g59
NtRp1031
(dp1032
g62
(dp1033
sg71
g1007
sg64
(lp1034
g57
(g78
g59
NtRp1035
(dp1036
g62
(dp1037
g82
g83
ssg71
g1031
sg64
(lp1038
g292
asbag57
(g78
g59
NtRp1039
(dp1040
g62
(dp1041
g89
g90
ssg71
g1031
sg64
(lp1042
S':'
asbag57
(g78
g59
NtRp1043
(dp1044
g62
(dp1045
sg71
g1031
sg64
(lp1046
g57
(g58
g59
NtRp1047
(dp1048
g62
(dp1049
g70
I3
ssg71
g1043
sg64
(lp1050
S''
asbasbasbag57
(g73
g59
NtRp1051
(dp1052
g62
(dp1053
sg71
g1007
sg64
(lp1054
g57
(g78
g59
NtRp1055
(dp1056
g62
(dp1057
g82
g83
ssg71
g1051
sg64
(lp1058
g313
asbag57
(g78
g59
NtRp1059
(dp1060
g62
(dp1061
g89
g90
ssg71
g1051
sg64
(lp1062
S':'
asbag57
(g78
g59
NtRp1063
(dp1064
g62
(dp1065
sg71
g1051
sg64
(lp1066
g57
(g58
g59
NtRp1067
(dp1068
g62
(dp1069
g70
I3
ssg71
g1063
sg64
(lp1070
S''
asbasbasbag57
(g73
g59
NtRp1071
(dp1072
g62
(dp1073
sg71
g1007
sg64
(lp1074
g57
(g78
g59
NtRp1075
(dp1076
g62
(dp1077
g82
g83
ssg71
g1071
sg64
(lp1078
g334
asbag57
(g78
g59
NtRp1079
(dp1080
g62
(dp1081
g89
g90
ssg71
g1071
sg64
(lp1082
S':'
asbag57
(g78
g59
NtRp1083
(dp1084
g62
(dp1085
sg71
g1071
sg64
(lp1086
g57
(g58
g59
NtRp1087
(dp1088
g62
(dp1089
g70
I3
ssg71
g1083
sg64
(lp1090
S''
asbasbasbag57
(g73
g59
NtRp1091
(dp1092
g62
(dp1093
sg71
g1007
sg64
(lp1094
g57
(g78
g59
NtRp1095
(dp1096
g62
(dp1097
g82
g83
ssg71
g1091
sg64
(lp1098
g355
asbag57
(g78
g59
NtRp1099
(dp1100
g62
(dp1101
g89
g90
ssg71
g1091
sg64
(lp1102
S':'
asbag57
(g78
g59
NtRp1103
(dp1104
g62
(dp1105
sg71
g1091
sg64
(lp1106
g57
(g58
g59
NtRp1107
(dp1108
g62
(dp1109
g70
I3
ssg71
g1103
sg64
(lp1110
S''
asbasbasbag57
(g73
g59
NtRp1111
(dp1112
g62
(dp1113
sg71
g1007
sg64
(lp1114
g57
(g78
g59
NtRp1115
(dp1116
g62
(dp1117
g82
g83
ssg71
g1111
sg64
(lp1118
g376
asbag57
(g78
g59
NtRp1119
(dp1120
g62
(dp1121
g89
g90
ssg71
g1111
sg64
(lp1122
S':'
asbag57
(g78
g59
NtRp1123
(dp1124
g62
(dp1125
sg71
g1111
sg64
(lp1126
g57
(g58
g59
NtRp1127
(dp1128
g62
(dp1129
g70
I3
ssg71
g1123
sg64
(lp1130
S''
asbasbasbag57
(g73
g59
NtRp1131
(dp1132
g62
(dp1133
sg71
g1007
sg64
(lp1134
g57
(g78
g59
NtRp1135
(dp1136
g62
(dp1137
g82
g83
ssg71
g1131
sg64
(lp1138
g397
asbag57
(g78
g59
NtRp1139
(dp1140
g62
(dp1141
g89
g90
ssg71
g1131
sg64
(lp1142
S':'
asbag57
(g78
g59
NtRp1143
(dp1144
g62
(dp1145
sg71
g1131
sg64
(lp1146
g57
(g58
g59
NtRp1147
(dp1148
g62
(dp1149
g70
I3
ssg71
g1143
sg64
(lp1150
S''
asbasbasbag57
(g73
g59
NtRp1151
(dp1152
g62
(dp1153
sg71
g1007
sg64
(lp1154
g57
(g78
g59
NtRp1155
(dp1156
g62
(dp1157
g82
g83
ssg71
g1151
sg64
(lp1158
g418
asbag57
(g78
g59
NtRp1159
(dp1160
g62
(dp1161
g89
g90
ssg71
g1151
sg64
(lp1162
S':'
asbag57
(g78
g59
NtRp1163
(dp1164
g62
(dp1165
sg71
g1151
sg64
(lp1166
g57
(g58
g59
NtRp1167
(dp1168
g62
(dp1169
g70
I3
ssg71
g1163
sg64
(lp1170
S''
asbasbasbasbasbasbasbag57
(g73
g59
NtRp1171
(dp1172
g62
(dp1173
sg71
g234
sg64
(lp1174
g57
(g78
g59
NtRp1175
(dp1176
g62
(dp1177
g82
g83
ssg71
g1171
sg64
(lp1178
S'session_id_sudoku'
p1179
asbag57
(g78
g59
NtRp1180
(dp1181
g62
(dp1182
g89
g90
ssg71
g1171
sg64
(lp1183
S':'
asbag57
(g78
g59
NtRp1184
(dp1185
g62
(dp1186
sg71
g1171
sg64
(lp1187
g57
(g58
g59
NtRp1188
(dp1189
g62
(dp1190
g70
I4
ssg71
g1184
sg64
(lp1191
g57
(g66
g59
NtRp1192
(dp1193
g62
(dp1194
g70
I3
ssg71
Nsg64
(lp1195
g57
(g73
g59
NtRp1196
(dp1197
g62
(dp1198
sg71
g1192
sg64
(lp1199
g57
(g78
g59
NtRp1200
(dp1201
g62
(dp1202
g82
g83
ssg71
g1196
sg64
(lp1203
g271
asbag57
(g78
g59
NtRp1204
(dp1205
g62
(dp1206
g89
g90
ssg71
g1196
sg64
(lp1207
S':'
asbag57
(g78
g59
NtRp1208
(dp1209
g62
(dp1210
sg71
g1196
sg64
(lp1211
g57
(g58
g59
NtRp1212
(dp1213
g62
(dp1214
g70
I3
ssg71
g1208
sg64
(lp1215
S''
asbasbasbag57
(g73
g59
NtRp1216
(dp1217
g62
(dp1218
sg71
g1192
sg64
(lp1219
g57
(g78
g59
NtRp1220
(dp1221
g62
(dp1222
g82
g83
ssg71
g1216
sg64
(lp1223
g292
asbag57
(g78
g59
NtRp1224
(dp1225
g62
(dp1226
g89
g90
ssg71
g1216
sg64
(lp1227
S':'
asbag57
(g78
g59
NtRp1228
(dp1229
g62
(dp1230
sg71
g1216
sg64
(lp1231
g57
(g58
g59
NtRp1232
(dp1233
g62
(dp1234
g70
I3
ssg71
g1228
sg64
(lp1235
S''
asbasbasbag57
(g73
g59
NtRp1236
(dp1237
g62
(dp1238
sg71
g1192
sg64
(lp1239
g57
(g78
g59
NtRp1240
(dp1241
g62
(dp1242
g82
g83
ssg71
g1236
sg64
(lp1243
g313
asbag57
(g78
g59
NtRp1244
(dp1245
g62
(dp1246
g89
g90
ssg71
g1236
sg64
(lp1247
S':'
asbag57
(g78
g59
NtRp1248
(dp1249
g62
(dp1250
sg71
g1236
sg64
(lp1251
g57
(g58
g59
NtRp1252
(dp1253
g62
(dp1254
g70
I3
ssg71
g1248
sg64
(lp1255
S''
asbasbasbag57
(g73
g59
NtRp1256
(dp1257
g62
(dp1258
sg71
g1192
sg64
(lp1259
g57
(g78
g59
NtRp1260
(dp1261
g62
(dp1262
g82
g83
ssg71
g1256
sg64
(lp1263
g334
asbag57
(g78
g59
NtRp1264
(dp1265
g62
(dp1266
g89
g90
ssg71
g1256
sg64
(lp1267
S':'
asbag57
(g78
g59
NtRp1268
(dp1269
g62
(dp1270
sg71
g1256
sg64
(lp1271
g57
(g58
g59
NtRp1272
(dp1273
g62
(dp1274
g70
I3
ssg71
g1268
sg64
(lp1275
S''
asbasbasbag57
(g73
g59
NtRp1276
(dp1277
g62
(dp1278
sg71
g1192
sg64
(lp1279
g57
(g78
g59
NtRp1280
(dp1281
g62
(dp1282
g82
g83
ssg71
g1276
sg64
(lp1283
g355
asbag57
(g78
g59
NtRp1284
(dp1285
g62
(dp1286
g89
g90
ssg71
g1276
sg64
(lp1287
S':'
asbag57
(g78
g59
NtRp1288
(dp1289
g62
(dp1290
sg71
g1276
sg64
(lp1291
g57
(g58
g59
NtRp1292
(dp1293
g62
(dp1294
g70
I3
ssg71
g1288
sg64
(lp1295
S''
asbasbasbag57
(g73
g59
NtRp1296
(dp1297
g62
(dp1298
sg71
g1192
sg64
(lp1299
g57
(g78
g59
NtRp1300
(dp1301
g62
(dp1302
g82
g83
ssg71
g1296
sg64
(lp1303
g376
asbag57
(g78
g59
NtRp1304
(dp1305
g62
(dp1306
g89
g90
ssg71
g1296
sg64
(lp1307
S':'
asbag57
(g78
g59
NtRp1308
(dp1309
g62
(dp1310
sg71
g1296
sg64
(lp1311
g57
(g58
g59
NtRp1312
(dp1313
g62
(dp1314
g70
I3
ssg71
g1308
sg64
(lp1315
S''
asbasbasbag57
(g73
g59
NtRp1316
(dp1317
g62
(dp1318
sg71
g1192
sg64
(lp1319
g57
(g78
g59
NtRp1320
(dp1321
g62
(dp1322
g82
g83
ssg71
g1316
sg64
(lp1323
g397
asbag57
(g78
g59
NtRp1324
(dp1325
g62
(dp1326
g89
g90
ssg71
g1316
sg64
(lp1327
S':'
asbag57
(g78
g59
NtRp1328
(dp1329
g62
(dp1330
sg71
g1316
sg64
(lp1331
g57
(g58
g59
NtRp1332
(dp1333
g62
(dp1334
g70
I3
ssg71
g1328
sg64
(lp1335
S''
asbasbasbag57
(g73
g59
NtRp1336
(dp1337
g62
(dp1338
sg71
g1192
sg64
(lp1339
g57
(g78
g59
NtRp1340
(dp1341
g62
(dp1342
g82
g83
ssg71
g1336
sg64
(lp1343
g418
asbag57
(g78
g59
NtRp1344
(dp1345
g62
(dp1346
g89
g90
ssg71
g1336
sg64
(lp1347
S':'
asbag57
(g78
g59
NtRp1348
(dp1349
g62
(dp1350
sg71
g1336
sg64
(lp1351
g57
(g58
g59
NtRp1352
(dp1353
g62
(dp1354
g70
I3
ssg71
g1348
sg64
(lp1355
S''
asbasbasbasbasbasbasbag57
(g73
g59
NtRp1356
(dp1357
g62
(dp1358
sg71
g234
sg64
(lp1359
g57
(g78
g59
NtRp1360
(dp1361
g62
(dp1362
g82
g83
ssg71
g1356
sg64
(lp1363
S'session_id_vish'
p1364
asbag57
(g78
g59
NtRp1365
(dp1366
g62
(dp1367
g89
g90
ssg71
g1356
sg64
(lp1368
S':'
asbag57
(g78
g59
NtRp1369
(dp1370
g62
(dp1371
sg71
g1356
sg64
(lp1372
g57
(g58
g59
NtRp1373
(dp1374
g62
(dp1375
g70
I4
ssg71
g1369
sg64
(lp1376
g57
(g66
g59
NtRp1377
(dp1378
g62
(dp1379
g70
I3
ssg71
Nsg64
(lp1380
g57
(g73
g59
NtRp1381
(dp1382
g62
(dp1383
sg71
g1377
sg64
(lp1384
g57
(g78
g59
NtRp1385
(dp1386
g62
(dp1387
g82
g83
ssg71
g1381
sg64
(lp1388
g271
asbag57
(g78
g59
NtRp1389
(dp1390
g62
(dp1391
g89
g90
ssg71
g1381
sg64
(lp1392
S':'
asbag57
(g78
g59
NtRp1393
(dp1394
g62
(dp1395
sg71
g1381
sg64
(lp1396
g57
(g58
g59
NtRp1397
(dp1398
g62
(dp1399
g70
I3
ssg71
g1393
sg64
(lp1400
S''
asbasbasbag57
(g73
g59
NtRp1401
(dp1402
g62
(dp1403
sg71
g1377
sg64
(lp1404
g57
(g78
g59
NtRp1405
(dp1406
g62
(dp1407
g82
g83
ssg71
g1401
sg64
(lp1408
g292
asbag57
(g78
g59
NtRp1409
(dp1410
g62
(dp1411
g89
g90
ssg71
g1401
sg64
(lp1412
S':'
asbag57
(g78
g59
NtRp1413
(dp1414
g62
(dp1415
sg71
g1401
sg64
(lp1416
g57
(g58
g59
NtRp1417
(dp1418
g62
(dp1419
g70
I3
ssg71
g1413
sg64
(lp1420
S''
asbasbasbag57
(g73
g59
NtRp1421
(dp1422
g62
(dp1423
sg71
g1377
sg64
(lp1424
g57
(g78
g59
NtRp1425
(dp1426
g62
(dp1427
g82
g83
ssg71
g1421
sg64
(lp1428
g313
asbag57
(g78
g59
NtRp1429
(dp1430
g62
(dp1431
g89
g90
ssg71
g1421
sg64
(lp1432
S':'
asbag57
(g78
g59
NtRp1433
(dp1434
g62
(dp1435
sg71
g1421
sg64
(lp1436
g57
(g58
g59
NtRp1437
(dp1438
g62
(dp1439
g70
I3
ssg71
g1433
sg64
(lp1440
S''
asbasbasbag57
(g73
g59
NtRp1441
(dp1442
g62
(dp1443
sg71
g1377
sg64
(lp1444
g57
(g78
g59
NtRp1445
(dp1446
g62
(dp1447
g82
g83
ssg71
g1441
sg64
(lp1448
g334
asbag57
(g78
g59
NtRp1449
(dp1450
g62
(dp1451
g89
g90
ssg71
g1441
sg64
(lp1452
S':'
asbag57
(g78
g59
NtRp1453
(dp1454
g62
(dp1455
sg71
g1441
sg64
(lp1456
g57
(g58
g59
NtRp1457
(dp1458
g62
(dp1459
g70
I3
ssg71
g1453
sg64
(lp1460
S''
asbasbasbag57
(g73
g59
NtRp1461
(dp1462
g62
(dp1463
sg71
g1377
sg64
(lp1464
g57
(g78
g59
NtRp1465
(dp1466
g62
(dp1467
g82
g83
ssg71
g1461
sg64
(lp1468
g355
asbag57
(g78
g59
NtRp1469
(dp1470
g62
(dp1471
g89
g90
ssg71
g1461
sg64
(lp1472
S':'
asbag57
(g78
g59
NtRp1473
(dp1474
g62
(dp1475
sg71
g1461
sg64
(lp1476
g57
(g58
g59
NtRp1477
(dp1478
g62
(dp1479
g70
I3
ssg71
g1473
sg64
(lp1480
S''
asbasbasbag57
(g73
g59
NtRp1481
(dp1482
g62
(dp1483
sg71
g1377
sg64
(lp1484
g57
(g78
g59
NtRp1485
(dp1486
g62
(dp1487
g82
g83
ssg71
g1481
sg64
(lp1488
g376
asbag57
(g78
g59
NtRp1489
(dp1490
g62
(dp1491
g89
g90
ssg71
g1481
sg64
(lp1492
S':'
asbag57
(g78
g59
NtRp1493
(dp1494
g62
(dp1495
sg71
g1481
sg64
(lp1496
g57
(g58
g59
NtRp1497
(dp1498
g62
(dp1499
g70
I3
ssg71
g1493
sg64
(lp1500
S''
asbasbasbag57
(g73
g59
NtRp1501
(dp1502
g62
(dp1503
sg71
g1377
sg64
(lp1504
g57
(g78
g59
NtRp1505
(dp1506
g62
(dp1507
g82
g83
ssg71
g1501
sg64
(lp1508
g397
asbag57
(g78
g59
NtRp1509
(dp1510
g62
(dp1511
g89
g90
ssg71
g1501
sg64
(lp1512
S':'
asbag57
(g78
g59
NtRp1513
(dp1514
g62
(dp1515
sg71
g1501
sg64
(lp1516
g57
(g58
g59
NtRp1517
(dp1518
g62
(dp1519
g70
I3
ssg71
g1513
sg64
(lp1520
S''
asbasbasbag57
(g73
g59
NtRp1521
(dp1522
g62
(dp1523
sg71
g1377
sg64
(lp1524
g57
(g78
g59
NtRp1525
(dp1526
g62
(dp1527
g82
g83
ssg71
g1521
sg64
(lp1528
g418
asbag57
(g78
g59
NtRp1529
(dp1530
g62
(dp1531
g89
g90
ssg71
g1521
sg64
(lp1532
S':'
asbag57
(g78
g59
NtRp1533
(dp1534
g62
(dp1535
sg71
g1521
sg64
(lp1536
g57
(g58
g59
NtRp1537
(dp1538
g62
(dp1539
g70
I3
ssg71
g1533
sg64
(lp1540
S''
asbasbasbasbasbasbasbag57
(g73
g59
NtRp1541
(dp1542
g62
(dp1543
sg71
g234
sg64
(lp1544
g57
(g78
g59
NtRp1545
(dp1546
g62
(dp1547
g82
g83
ssg71
g1541
sg64
(lp1548
S'session_id_welcome'
p1549
asbag57
(g78
g59
NtRp1550
(dp1551
g62
(dp1552
g89
g90
ssg71
g1541
sg64
(lp1553
S':'
asbag57
(g78
g59
NtRp1554
(dp1555
g62
(dp1556
sg71
g1541
sg64
(lp1557
g57
(g58
g59
NtRp1558
(dp1559
g62
(dp1560
g70
I4
ssg71
g1554
sg64
(lp1561
g57
(g66
g59
NtRp1562
(dp1563
g62
(dp1564
g70
I3
ssg71
Nsg64
(lp1565
g57
(g73
g59
NtRp1566
(dp1567
g62
(dp1568
sg71
g1562
sg64
(lp1569
g57
(g78
g59
NtRp1570
(dp1571
g62
(dp1572
g82
g83
ssg71
g1566
sg64
(lp1573
g271
asbag57
(g78
g59
NtRp1574
(dp1575
g62
(dp1576
g89
g90
ssg71
g1566
sg64
(lp1577
S':'
asbag57
(g78
g59
NtRp1578
(dp1579
g62
(dp1580
sg71
g1566
sg64
(lp1581
g57
(g58
g59
NtRp1582
(dp1583
g62
(dp1584
g70
I3
ssg71
g1578
sg64
(lp1585
S''
asbasbasbag57
(g73
g59
NtRp1586
(dp1587
g62
(dp1588
sg71
g1562
sg64
(lp1589
g57
(g78
g59
NtRp1590
(dp1591
g62
(dp1592
g82
g83
ssg71
g1586
sg64
(lp1593
g292
asbag57
(g78
g59
NtRp1594
(dp1595
g62
(dp1596
g89
g90
ssg71
g1586
sg64
(lp1597
S':'
asbag57
(g78
g59
NtRp1598
(dp1599
g62
(dp1600
sg71
g1586
sg64
(lp1601
g57
(g58
g59
NtRp1602
(dp1603
g62
(dp1604
g70
I3
ssg71
g1598
sg64
(lp1605
S''
asbasbasbag57
(g73
g59
NtRp1606
(dp1607
g62
(dp1608
sg71
g1562
sg64
(lp1609
g57
(g78
g59
NtRp1610
(dp1611
g62
(dp1612
g82
g83
ssg71
g1606
sg64
(lp1613
g313
asbag57
(g78
g59
NtRp1614
(dp1615
g62
(dp1616
g89
g90
ssg71
g1606
sg64
(lp1617
S':'
asbag57
(g78
g59
NtRp1618
(dp1619
g62
(dp1620
sg71
g1606
sg64
(lp1621
g57
(g58
g59
NtRp1622
(dp1623
g62
(dp1624
g70
I3
ssg71
g1618
sg64
(lp1625
S''
asbasbasbag57
(g73
g59
NtRp1626
(dp1627
g62
(dp1628
sg71
g1562
sg64
(lp1629
g57
(g78
g59
NtRp1630
(dp1631
g62
(dp1632
g82
g83
ssg71
g1626
sg64
(lp1633
g334
asbag57
(g78
g59
NtRp1634
(dp1635
g62
(dp1636
g89
g90
ssg71
g1626
sg64
(lp1637
S':'
asbag57
(g78
g59
NtRp1638
(dp1639
g62
(dp1640
sg71
g1626
sg64
(lp1641
g57
(g58
g59
NtRp1642
(dp1643
g62
(dp1644
g70
I3
ssg71
g1638
sg64
(lp1645
S''
asbasbasbag57
(g73
g59
NtRp1646
(dp1647
g62
(dp1648
sg71
g1562
sg64
(lp1649
g57
(g78
g59
NtRp1650
(dp1651
g62
(dp1652
g82
g83
ssg71
g1646
sg64
(lp1653
g355
asbag57
(g78
g59
NtRp1654
(dp1655
g62
(dp1656
g89
g90
ssg71
g1646
sg64
(lp1657
S':'
asbag57
(g78
g59
NtRp1658
(dp1659
g62
(dp1660
sg71
g1646
sg64
(lp1661
g57
(g58
g59
NtRp1662
(dp1663
g62
(dp1664
g70
I3
ssg71
g1658
sg64
(lp1665
S''
asbasbasbag57
(g73
g59
NtRp1666
(dp1667
g62
(dp1668
sg71
g1562
sg64
(lp1669
g57
(g78
g59
NtRp1670
(dp1671
g62
(dp1672
g82
g83
ssg71
g1666
sg64
(lp1673
g376
asbag57
(g78
g59
NtRp1674
(dp1675
g62
(dp1676
g89
g90
ssg71
g1666
sg64
(lp1677
S':'
asbag57
(g78
g59
NtRp1678
(dp1679
g62
(dp1680
sg71
g1666
sg64
(lp1681
g57
(g58
g59
NtRp1682
(dp1683
g62
(dp1684
g70
I3
ssg71
g1678
sg64
(lp1685
S''
asbasbasbag57
(g73
g59
NtRp1686
(dp1687
g62
(dp1688
sg71
g1562
sg64
(lp1689
g57
(g78
g59
NtRp1690
(dp1691
g62
(dp1692
g82
g83
ssg71
g1686
sg64
(lp1693
g397
asbag57
(g78
g59
NtRp1694
(dp1695
g62
(dp1696
g89
g90
ssg71
g1686
sg64
(lp1697
S':'
asbag57
(g78
g59
NtRp1698
(dp1699
g62
(dp1700
sg71
g1686
sg64
(lp1701
g57
(g58
g59
NtRp1702
(dp1703
g62
(dp1704
g70
I3
ssg71
g1698
sg64
(lp1705
S''
asbasbasbag57
(g73
g59
NtRp1706
(dp1707
g62
(dp1708
sg71
g1562
sg64
(lp1709
g57
(g78
g59
NtRp1710
(dp1711
g62
(dp1712
g82
g83
ssg71
g1706
sg64
(lp1713
g418
asbag57
(g78
g59
NtRp1714
(dp1715
g62
(dp1716
g89
g90
ssg71
g1706
sg64
(lp1717
S':'
asbag57
(g78
g59
NtRp1718
(dp1719
g62
(dp1720
sg71
g1706
sg64
(lp1721
g57
(g58
g59
NtRp1722
(dp1723
g62
(dp1724
g70
I3
ssg71
g1718
sg64
(lp1725
S''
asbasbasbasbasbasbasbasbasbasbasbag57
(g73
g59
NtRp1726
(dp1727
g62
(dp1728
sg71
g67
sg64
(lp1729
g57
(g78
g59
NtRp1730
(dp1731
g62
(dp1732
g82
g83
ssg71
g1726
sg64
(lp1733
S'env'
p1734
asbag57
(g78
g59
NtRp1735
(dp1736
g62
(dp1737
g89
g90
ssg71
g1726
sg64
(lp1738
S':'
asbag57
(g78
g59
NtRp1739
(dp1740
g62
(dp1741
sg71
g1726
sg64
(lp1742
g57
(g58
g59
NtRp1743
(dp1744
g62
(dp1745
g70
I5
ssg71
g1739
sg64
(lp1746
g57
(g66
g59
NtRp1747
(dp1748
g62
(dp1749
g70
I4
ssg71
Nsg64
(lp1750
g57
(g73
g59
NtRp1751
(dp1752
g62
(dp1753
sg71
g1747
sg64
(lp1754
g57
(g78
g59
NtRp1755
(dp1756
g62
(dp1757
g82
g83
ssg71
g1751
sg64
(lp1758
S'app_folders'
p1759
asbag57
(g78
g59
NtRp1760
(dp1761
g62
(dp1762
g89
g90
ssg71
g1751
sg64
(lp1763
S':'
asbag57
(g78
g59
NtRp1764
(dp1765
g62
(dp1766
sg71
g1751
sg64
(lp1767
g57
(g58
g59
NtRp1768
(dp1769
g62
(dp1770
g70
I4
ssg71
g1764
sg64
(lp1771
S"set(['/home/vishrut/web2py/applications/astra1/', '/home/vishrut/web2py/applications/admin/', '/home/vishrut/web2py/applications/music_library/', '/home/vishrut/web2py/applications/music/', '/home/vishrut/web2py/applications/welcome/'])"
p1772
asbasbasbag57
(g73
g59
NtRp1773
(dp1774
g62
(dp1775
sg71
g1747
sg64
(lp1776
g57
(g78
g59
NtRp1777
(dp1778
g62
(dp1779
g82
g83
ssg71
g1773
sg64
(lp1780
S'applications_parent'
p1781
asbag57
(g78
g59
NtRp1782
(dp1783
g62
(dp1784
g89
g90
ssg71
g1773
sg64
(lp1785
S':'
asbag57
(g78
g59
NtRp1786
(dp1787
g62
(dp1788
sg71
g1773
sg64
(lp1789
g57
(g58
g59
NtRp1790
(dp1791
g62
(dp1792
g70
I4
ssg71
g1786
sg64
(lp1793
S'/home/vishrut/web2py'
p1794
asbasbasbag57
(g73
g59
NtRp1795
(dp1796
g62
(dp1797
sg71
g1747
sg64
(lp1798
g57
(g78
g59
NtRp1799
(dp1800
g62
(dp1801
g82
g83
ssg71
g1795
sg64
(lp1802
S'cmd_args'
p1803
asbag57
(g78
g59
NtRp1804
(dp1805
g62
(dp1806
g89
g90
ssg71
g1795
sg64
(lp1807
S':'
asbag57
(g78
g59
NtRp1808
(dp1809
g62
(dp1810
sg71
g1795
sg64
(lp1811
g57
(g58
g59
NtRp1812
(dp1813
g62
(dp1814
g70
I4
ssg71
g1808
sg64
(lp1815
g57
(g66
g59
NtRp1816
(dp1817
g62
(dp1818
g70
I3
ssg71
Nsg64
(lp1819
sbasbasbasbag57
(g73
g59
NtRp1820
(dp1821
g62
(dp1822
sg71
g1747
sg64
(lp1823
g57
(g78
g59
NtRp1824
(dp1825
g62
(dp1826
g82
g83
ssg71
g1820
sg64
(lp1827
S'cmd_options'
p1828
asbag57
(g78
g59
NtRp1829
(dp1830
g62
(dp1831
g89
g90
ssg71
g1820
sg64
(lp1832
S':'
asbag57
(g78
g59
NtRp1833
(dp1834
g62
(dp1835
sg71
g1820
sg64
(lp1836
g57
(g58
g59
NtRp1837
(dp1838
g62
(dp1839
g70
I4
ssg71
g1833
sg64
(lp1840
S"<Values at 0x93293cc: {'verbose': False, 'ip': '127.0.0.1', 'shutdown_timeout': 5, 'taskbar': False, 'nocron': False, 'pid_filename': 'httpserver.pid', 'maxthreads': None, 'softcron': False, 'server_name': 'vishrut-Vostro-1015', 'bpython': False, 'nogui': False, 'port': 8000, 'extcron': False, 'debuglevel': 30, 'test': None, 'folder': '/home/vishrut/web2py', 'config': '', 'import_models': False, 'winservice': '', 'shell': None, 'run': '', 'log_filename': 'httpserver.log', 'args': [''], 'socket_timeout': 5, 'ssl_ca_certificate': None, 'scheduler': None, 'profiler_filename': None, 'ssl_private_key': '', 'password': '<ask>', 'request_queue_size': 5, 'ssl_certificate': '', 'cronjob': False, 'numthreads': None, 'quiet': False, 'interfaces': None, 'minthreads': None, 'timeout': 10, 'plain': False, 'nobanner': False}>"
p1841
asbasbasbag57
(g73
g59
NtRp1842
(dp1843
g62
(dp1844
sg71
g1747
sg64
(lp1845
g57
(g78
g59
NtRp1846
(dp1847
g62
(dp1848
g82
g83
ssg71
g1842
sg64
(lp1849
S'db_sessions'
p1850
asbag57
(g78
g59
NtRp1851
(dp1852
g62
(dp1853
g89
g90
ssg71
g1842
sg64
(lp1854
S':'
asbag57
(g78
g59
NtRp1855
(dp1856
g62
(dp1857
sg71
g1842
sg64
(lp1858
g57
(g58
g59
NtRp1859
(dp1860
g62
(dp1861
g70
I4
ssg71
g1855
sg64
(lp1862
S'set([])'
p1863
asbasbasbag57
(g73
g59
NtRp1864
(dp1865
g62
(dp1866
sg71
g1747
sg64
(lp1867
g57
(g78
g59
NtRp1868
(dp1869
g62
(dp1870
g82
g83
ssg71
g1864
sg64
(lp1871
S'debugging'
p1872
asbag57
(g78
g59
NtRp1873
(dp1874
g62
(dp1875
g89
g90
ssg71
g1864
sg64
(lp1876
S':'
asbag57
(g78
g59
NtRp1877
(dp1878
g62
(dp1879
sg71
g1864
sg64
(lp1880
g57
(g58
g59
NtRp1881
(dp1882
g62
(dp1883
g70
I4
ssg71
g1877
sg64
(lp1884
g100
asbasbasbag57
(g73
g59
NtRp1885
(dp1886
g62
(dp1887
sg71
g1747
sg64
(lp1888
g57
(g78
g59
NtRp1889
(dp1890
g62
(dp1891
g82
g83
ssg71
g1885
sg64
(lp1892
S'gluon_parent'
p1893
asbag57
(g78
g59
NtRp1894
(dp1895
g62
(dp1896
g89
g90
ssg71
g1885
sg64
(lp1897
S':'
asbag57
(g78
g59
NtRp1898
(dp1899
g62
(dp1900
sg71
g1885
sg64
(lp1901
g57
(g58
g59
NtRp1902
(dp1903
g62
(dp1904
g70
I4
ssg71
g1898
sg64
(lp1905
S'/home/vishrut/web2py'
p1906
asbasbasbag57
(g73
g59
NtRp1907
(dp1908
g62
(dp1909
sg71
g1747
sg64
(lp1910
g57
(g78
g59
NtRp1911
(dp1912
g62
(dp1913
g82
g83
ssg71
g1907
sg64
(lp1914
S'http_accept'
p1915
asbag57
(g78
g59
NtRp1916
(dp1917
g62
(dp1918
g89
g90
ssg71
g1907
sg64
(lp1919
S':'
asbag57
(g78
g59
NtRp1920
(dp1921
g62
(dp1922
sg71
g1907
sg64
(lp1923
g57
(g58
g59
NtRp1924
(dp1925
g62
(dp1926
g70
I4
ssg71
g1920
sg64
(lp1927
S'text/html,application/xhtml+xml,application/xml;q=0.9,*/*;q=0.8'
p1928
asbasbasbag57
(g73
g59
NtRp1929
(dp1930
g62
(dp1931
sg71
g1747
sg64
(lp1932
g57
(g78
g59
NtRp1933
(dp1934
g62
(dp1935
g82
g83
ssg71
g1929
sg64
(lp1936
S'http_accept_encoding'
p1937
asbag57
(g78
g59
NtRp1938
(dp1939
g62
(dp1940
g89
g90
ssg71
g1929
sg64
(lp1941
S':'
asbag57
(g78
g59
NtRp1942
(dp1943
g62
(dp1944
sg71
g1929
sg64
(lp1945
g57
(g58
g59
NtRp1946
(dp1947
g62
(dp1948
g70
I4
ssg71
g1942
sg64
(lp1949
S'gzip, deflate'
p1950
asbasbasbag57
(g73
g59
NtRp1951
(dp1952
g62
(dp1953
sg71
g1747
sg64
(lp1954
g57
(g78
g59
NtRp1955
(dp1956
g62
(dp1957
g82
g83
ssg71
g1951
sg64
(lp1958
S'http_accept_language'
p1959
asbag57
(g78
g59
NtRp1960
(dp1961
g62
(dp1962
g89
g90
ssg71
g1951
sg64
(lp1963
S':'
asbag57
(g78
g59
NtRp1964
(dp1965
g62
(dp1966
sg71
g1951
sg64
(lp1967
g57
(g58
g59
NtRp1968
(dp1969
g62
(dp1970
g70
I4
ssg71
g1964
sg64
(lp1971
S'en-US,en;q=0.5'
p1972
asbasbasbag57
(g73
g59
NtRp1973
(dp1974
g62
(dp1975
sg71
g1747
sg64
(lp1976
g57
(g78
g59
NtRp1977
(dp1978
g62
(dp1979
g82
g83
ssg71
g1973
sg64
(lp1980
S'http_cache_control'
p1981
asbag57
(g78
g59
NtRp1982
(dp1983
g62
(dp1984
g89
g90
ssg71
g1973
sg64
(lp1985
S':'
asbag57
(g78
g59
NtRp1986
(dp1987
g62
(dp1988
sg71
g1973
sg64
(lp1989
g57
(g58
g59
NtRp1990
(dp1991
g62
(dp1992
g70
I4
ssg71
g1986
sg64
(lp1993
S'max-age=0'
p1994
asbasbasbag57
(g73
g59
NtRp1995
(dp1996
g62
(dp1997
sg71
g1747
sg64
(lp1998
g57
(g78
g59
NtRp1999
(dp2000
g62
(dp2001
g82
g83
ssg71
g1995
sg64
(lp2002
S'http_connection'
p2003
asbag57
(g78
g59
NtRp2004
(dp2005
g62
(dp2006
g89
g90
ssg71
g1995
sg64
(lp2007
S':'
asbag57
(g78
g59
NtRp2008
(dp2009
g62
(dp2010
sg71
g1995
sg64
(lp2011
g57
(g58
g59
NtRp2012
(dp2013
g62
(dp2014
g70
I4
ssg71
g2008
sg64
(lp2015
S'keep-alive'
p2016
asbasbasbag57
(g73
g59
NtRp2017
(dp2018
g62
(dp2019
sg71
g1747
sg64
(lp2020
g57
(g78
g59
NtRp2021
(dp2022
g62
(dp2023
g82
g83
ssg71
g2017
sg64
(lp2024
S'http_cookie'
p2025
asbag57
(g78
g59
NtRp2026
(dp2027
g62
(dp2028
g89
g90
ssg71
g2017
sg64
(lp2029
S':'
asbag57
(g78
g59
NtRp2030
(dp2031
g62
(dp2032
sg71
g2017
sg64
(lp2033
g57
(g58
g59
NtRp2034
(dp2035
g62
(dp2036
g70
I4
ssg71
g2030
sg64
(lp2037
S'session_id_photouploader=127.0.0.1-83bacd5e-b575-49a8-9b6e-fdc698e775f9; session_id_astra1=127.0.0.1-3ea7f370-71b8-4b79-b80d-e5c8cc6c433d; session_id_sudoku=127.0.0.1-a38f9f54-52d0-4767-a55e-9a1db318fe95; session_id_music=127.0.0.1-5772fb54-09d1-429f-9de0-d5ccdcb57f3a; session_id_welcome=127.0.0.1-a4a0c28f-93af-4d8d-8694-cb2ee45b0c55; session_id_admin=127.0.0.1-6c67b90d-3883-4b37-ba21-eef2525d3981; session_id_vish=127.0.0.1-bfddb273-c13f-44aa-9345-6c2c33dcf2db; session_id_music_library=127.0.0.1-868801ee-bee6-4d4d-8081-d21e25945ab6'
p2038
asbasbasbag57
(g73
g59
NtRp2039
(dp2040
g62
(dp2041
sg71
g1747
sg64
(lp2042
g57
(g78
g59
NtRp2043
(dp2044
g62
(dp2045
g82
g83
ssg71
g2039
sg64
(lp2046
S'http_host'
p2047
asbag57
(g78
g59
NtRp2048
(dp2049
g62
(dp2050
g89
g90
ssg71
g2039
sg64
(lp2051
S':'
asbag57
(g78
g59
NtRp2052
(dp2053
g62
(dp2054
sg71
g2039
sg64
(lp2055
g57
(g58
g59
NtRp2056
(dp2057
g62
(dp2058
g70
I4
ssg71
g2052
sg64
(lp2059
S'127.0.0.1:8000'
p2060
asbasbasbag57
(g73
g59
NtRp2061
(dp2062
g62
(dp2063
sg71
g1747
sg64
(lp2064
g57
(g78
g59
NtRp2065
(dp2066
g62
(dp2067
g82
g83
ssg71
g2061
sg64
(lp2068
S'http_referer'
p2069
asbag57
(g78
g59
NtRp2070
(dp2071
g62
(dp2072
g89
g90
ssg71
g2061
sg64
(lp2073
S':'
asbag57
(g78
g59
NtRp2074
(dp2075
g62
(dp2076
sg71
g2061
sg64
(lp2077
g57
(g58
g59
NtRp2078
(dp2079
g62
(dp2080
g70
I4
ssg71
g2074
sg64
(lp2081
S'http://127.0.0.1:8000/admin/default/site'
p2082
asbasbasbag57
(g73
g59
NtRp2083
(dp2084
g62
(dp2085
sg71
g1747
sg64
(lp2086
g57
(g78
g59
NtRp2087
(dp2088
g62
(dp2089
g82
g83
ssg71
g2083
sg64
(lp2090
S'http_user_agent'
p2091
asbag57
(g78
g59
NtRp2092
(dp2093
g62
(dp2094
g89
g90
ssg71
g2083
sg64
(lp2095
S':'
asbag57
(g78
g59
NtRp2096
(dp2097
g62
(dp2098
sg71
g2083
sg64
(lp2099
g57
(g58
g59
NtRp2100
(dp2101
g62
(dp2102
g70
I4
ssg71
g2096
sg64
(lp2103
S'Mozilla/5.0 (X11; Ubuntu; Linux i686; rv:16.0) Gecko/20100101 Firefox/16.0'
p2104
asbasbasbag57
(g73
g59
NtRp2105
(dp2106
g62
(dp2107
sg71
g1747
sg64
(lp2108
g57
(g78
g59
NtRp2109
(dp2110
g62
(dp2111
g82
g83
ssg71
g2105
sg64
(lp2112
S'is_jython'
p2113
asbag57
(g78
g59
NtRp2114
(dp2115
g62
(dp2116
g89
g90
ssg71
g2105
sg64
(lp2117
S':'
asbag57
(g78
g59
NtRp2118
(dp2119
g62
(dp2120
sg71
g2105
sg64
(lp2121
g57
(g58
g59
NtRp2122
(dp2123
g62
(dp2124
g70
I4
ssg71
g2118
sg64
(lp2125
g100
asbasbasbag57
(g73
g59
NtRp2126
(dp2127
g62
(dp2128
sg71
g1747
sg64
(lp2129
g57
(g78
g59
NtRp2130
(dp2131
g62
(dp2132
g82
g83
ssg71
g2126
sg64
(lp2133
S'is_pypy'
p2134
asbag57
(g78
g59
NtRp2135
(dp2136
g62
(dp2137
g89
g90
ssg71
g2126
sg64
(lp2138
S':'
asbag57
(g78
g59
NtRp2139
(dp2140
g62
(dp2141
sg71
g2126
sg64
(lp2142
g57
(g58
g59
NtRp2143
(dp2144
g62
(dp2145
g70
I4
ssg71
g2139
sg64
(lp2146
g100
asbasbasbag57
(g73
g59
NtRp2147
(dp2148
g62
(dp2149
sg71
g1747
sg64
(lp2150
g57
(g78
g59
NtRp2151
(dp2152
g62
(dp2153
g82
g83
ssg71
g2147
sg64
(lp2154
S'path_info'
p2155
asbag57
(g78
g59
NtRp2156
(dp2157
g62
(dp2158
g89
g90
ssg71
g2147
sg64
(lp2159
S':'
asbag57
(g78
g59
NtRp2160
(dp2161
g62
(dp2162
sg71
g2147
sg64
(lp2163
g57
(g58
g59
NtRp2164
(dp2165
g62
(dp2166
g70
I4
ssg71
g2160
sg64
(lp2167
S'/astra1/default/index'
p2168
asbasbasbag57
(g73
g59
NtRp2169
(dp2170
g62
(dp2171
sg71
g1747
sg64
(lp2172
g57
(g78
g59
NtRp2173
(dp2174
g62
(dp2175
g82
g83
ssg71
g2169
sg64
(lp2176
S'query_string'
p2177
asbag57
(g78
g59
NtRp2178
(dp2179
g62
(dp2180
g89
g90
ssg71
g2169
sg64
(lp2181
S':'
asbag57
(g78
g59
NtRp2182
(dp2183
g62
(dp2184
sg71
g2169
sg64
(lp2185
g57
(g58
g59
NtRp2186
(dp2187
g62
(dp2188
g70
I4
ssg71
g2182
sg64
(lp2189
S''
asbasbasbag57
(g73
g59
NtRp2190
(dp2191
g62
(dp2192
sg71
g1747
sg64
(lp2193
g57
(g78
g59
NtRp2194
(dp2195
g62
(dp2196
g82
g83
ssg71
g2190
sg64
(lp2197
S'remote_addr'
p2198
asbag57
(g78
g59
NtRp2199
(dp2200
g62
(dp2201
g89
g90
ssg71
g2190
sg64
(lp2202
S':'
asbag57
(g78
g59
NtRp2203
(dp2204
g62
(dp2205
sg71
g2190
sg64
(lp2206
g57
(g58
g59
NtRp2207
(dp2208
g62
(dp2209
g70
I4
ssg71
g2203
sg64
(lp2210
g190
asbasbasbag57
(g73
g59
NtRp2211
(dp2212
g62
(dp2213
sg71
g1747
sg64
(lp2214
g57
(g78
g59
NtRp2215
(dp2216
g62
(dp2217
g82
g83
ssg71
g2211
sg64
(lp2218
S'remote_port'
p2219
asbag57
(g78
g59
NtRp2220
(dp2221
g62
(dp2222
g89
g90
ssg71
g2211
sg64
(lp2223
S':'
asbag57
(g78
g59
NtRp2224
(dp2225
g62
(dp2226
sg71
g2211
sg64
(lp2227
g57
(g58
g59
NtRp2228
(dp2229
g62
(dp2230
g70
I4
ssg71
g2224
sg64
(lp2231
S'39114'
p2232
asbasbasbag57
(g73
g59
NtRp2233
(dp2234
g62
(dp2235
sg71
g1747
sg64
(lp2236
g57
(g78
g59
NtRp2237
(dp2238
g62
(dp2239
g82
g83
ssg71
g2233
sg64
(lp2240
S'request_method'
p2241
asbag57
(g78
g59
NtRp2242
(dp2243
g62
(dp2244
g89
g90
ssg71
g2233
sg64
(lp2245
S':'
asbag57
(g78
g59
NtRp2246
(dp2247
g62
(dp2248
sg71
g2233
sg64
(lp2249
g57
(g58
g59
NtRp2250
(dp2251
g62
(dp2252
g70
I4
ssg71
g2246
sg64
(lp2253
S'GET'
p2254
asbasbasbag57
(g73
g59
NtRp2255
(dp2256
g62
(dp2257
sg71
g1747
sg64
(lp2258
g57
(g78
g59
NtRp2259
(dp2260
g62
(dp2261
g82
g83
ssg71
g2255
sg64
(lp2262
S'script_name'
p2263
asbag57
(g78
g59
NtRp2264
(dp2265
g62
(dp2266
g89
g90
ssg71
g2255
sg64
(lp2267
S':'
asbag57
(g78
g59
NtRp2268
(dp2269
g62
(dp2270
sg71
g2255
sg64
(lp2271
g57
(g58
g59
NtRp2272
(dp2273
g62
(dp2274
g70
I4
ssg71
g2268
sg64
(lp2275
S''
asbasbasbag57
(g73
g59
NtRp2276
(dp2277
g62
(dp2278
sg71
g1747
sg64
(lp2279
g57
(g78
g59
NtRp2280
(dp2281
g62
(dp2282
g82
g83
ssg71
g2276
sg64
(lp2283
S'server_name'
p2284
asbag57
(g78
g59
NtRp2285
(dp2286
g62
(dp2287
g89
g90
ssg71
g2276
sg64
(lp2288
S':'
asbag57
(g78
g59
NtRp2289
(dp2290
g62
(dp2291
sg71
g2276
sg64
(lp2292
g57
(g58
g59
NtRp2293
(dp2294
g62
(dp2295
g70
I4
ssg71
g2289
sg64
(lp2296
S'vishrut-Vostro-1015'
p2297
asbasbasbag57
(g73
g59
NtRp2298
(dp2299
g62
(dp2300
sg71
g1747
sg64
(lp2301
g57
(g78
g59
NtRp2302
(dp2303
g62
(dp2304
g82
g83
ssg71
g2298
sg64
(lp2305
S'server_port'
p2306
asbag57
(g78
g59
NtRp2307
(dp2308
g62
(dp2309
g89
g90
ssg71
g2298
sg64
(lp2310
S':'
asbag57
(g78
g59
NtRp2311
(dp2312
g62
(dp2313
sg71
g2298
sg64
(lp2314
g57
(g58
g59
NtRp2315
(dp2316
g62
(dp2317
g70
I4
ssg71
g2311
sg64
(lp2318
S'8000'
p2319
asbasbasbag57
(g73
g59
NtRp2320
(dp2321
g62
(dp2322
sg71
g1747
sg64
(lp2323
g57
(g78
g59
NtRp2324
(dp2325
g62
(dp2326
g82
g83
ssg71
g2320
sg64
(lp2327
S'server_protocol'
p2328
asbag57
(g78
g59
NtRp2329
(dp2330
g62
(dp2331
g89
g90
ssg71
g2320
sg64
(lp2332
S':'
asbag57
(g78
g59
NtRp2333
(dp2334
g62
(dp2335
sg71
g2320
sg64
(lp2336
g57
(g58
g59
NtRp2337
(dp2338
g62
(dp2339
g70
I4
ssg71
g2333
sg64
(lp2340
S'HTTP/1.1'
p2341
asbasbasbag57
(g73
g59
NtRp2342
(dp2343
g62
(dp2344
sg71
g1747
sg64
(lp2345
g57
(g78
g59
NtRp2346
(dp2347
g62
(dp2348
g82
g83
ssg71
g2342
sg64
(lp2349
S'server_software'
p2350
asbag57
(g78
g59
NtRp2351
(dp2352
g62
(dp2353
g89
g90
ssg71
g2342
sg64
(lp2354
S':'
asbag57
(g78
g59
NtRp2355
(dp2356
g62
(dp2357
sg71
g2342
sg64
(lp2358
g57
(g58
g59
NtRp2359
(dp2360
g62
(dp2361
g70
I4
ssg71
g2355
sg64
(lp2362
S'Rocket 1.2.4'
p2363
asbasbasbag57
(g73
g59
NtRp2364
(dp2365
g62
(dp2366
sg71
g1747
sg64
(lp2367
g57
(g78
g59
NtRp2368
(dp2369
g62
(dp2370
g82
g83
ssg71
g2364
sg64
(lp2371
S'web2py_crontype'
p2372
asbag57
(g78
g59
NtRp2373
(dp2374
g62
(dp2375
g89
g90
ssg71
g2364
sg64
(lp2376
S':'
asbag57
(g78
g59
NtRp2377
(dp2378
g62
(dp2379
sg71
g2364
sg64
(lp2380
g57
(g58
g59
NtRp2381
(dp2382
g62
(dp2383
g70
I4
ssg71
g2377
sg64
(lp2384
S'hard'
p2385
asbasbasbag57
(g73
g59
NtRp2386
(dp2387
g62
(dp2388
sg71
g1747
sg64
(lp2389
g57
(g78
g59
NtRp2390
(dp2391
g62
(dp2392
g82
g83
ssg71
g2386
sg64
(lp2393
S'web2py_path'
p2394
asbag57
(g78
g59
NtRp2395
(dp2396
g62
(dp2397
g89
g90
ssg71
g2386
sg64
(lp2398
S':'
asbag57
(g78
g59
NtRp2399
(dp2400
g62
(dp2401
sg71
g2386
sg64
(lp2402
g57
(g58
g59
NtRp2403
(dp2404
g62
(dp2405
g70
I4
ssg71
g2399
sg64
(lp2406
g1794
asbasbasbag57
(g73
g59
NtRp2407
(dp2408
g62
(dp2409
sg71
g1747
sg64
(lp2410
g57
(g78
g59
NtRp2411
(dp2412
g62
(dp2413
g82
g83
ssg71
g2407
sg64
(lp2414
S'web2py_version'
p2415
asbag57
(g78
g59
NtRp2416
(dp2417
g62
(dp2418
g89
g90
ssg71
g2407
sg64
(lp2419
S':'
asbag57
(g78
g59
NtRp2420
(dp2421
g62
(dp2422
sg71
g2407
sg64
(lp2423
g57
(g58
g59
NtRp2424
(dp2425
g62
(dp2426
g70
I4
ssg71
g2420
sg64
(lp2427
g57
(g66
g59
NtRp2428
(dp2429
g62
(dp2430
g70
I3
ssg71
Nsg64
(lp2431
g57
(g73
g59
NtRp2432
(dp2433
g62
(dp2434
sg71
g2428
sg64
(lp2435
g57
(g78
g59
NtRp2436
(dp2437
g62
(dp2438
sg71
g2432
sg64
(lp2439
g57
(g58
g59
NtRp2440
(dp2441
g62
(dp2442
g70
I3
ssg71
g2436
sg64
(lp2443
S'1'
asbasbasbag57
(g73
g59
NtRp2444
(dp2445
g62
(dp2446
sg71
g2428
sg64
(lp2447
g57
(g78
g59
NtRp2448
(dp2449
g62
(dp2450
sg71
g2444
sg64
(lp2451
g57
(g58
g59
NtRp2452
(dp2453
g62
(dp2454
g70
I3
ssg71
g2448
sg64
(lp2455
S'99'
p2456
asbasbasbag57
(g73
g59
NtRp2457
(dp2458
g62
(dp2459
sg71
g2428
sg64
(lp2460
g57
(g78
g59
NtRp2461
(dp2462
g62
(dp2463
sg71
g2457
sg64
(lp2464
g57
(g58
g59
NtRp2465
(dp2466
g62
(dp2467
g70
I3
ssg71
g2461
sg64
(lp2468
S'7'
asbasbasbag57
(g73
g59
NtRp2469
(dp2470
g62
(dp2471
sg71
g2428
sg64
(lp2472
g57
(g78
g59
NtRp2473
(dp2474
g62
(dp2475
sg71
g2469
sg64
(lp2476
g57
(g58
g59
NtRp2477
(dp2478
g62
(dp2479
g70
I3
ssg71
g2473
sg64
(lp2480
S'datetime.datetime(2012, 3, 4, 22, 12, 8)'
p2481
asbasbasbag57
(g73
g59
NtRp2482
(dp2483
g62
(dp2484
sg71
g2428
sg64
(lp2485
g57
(g78
g59
NtRp2486
(dp2487
g62
(dp2488
sg71
g2482
sg64
(lp2489
g57
(g58
g59
NtRp2490
(dp2491
g62
(dp2492
g70
I3
ssg71
g2486
sg64
(lp2493
S'stable'
p2494
asbasbasbasbasbasbasbag57
(g73
g59
NtRp2495
(dp2496
g62
(dp2497
sg71
g1747
sg64
(lp2498
g57
(g78
g59
NtRp2499
(dp2500
g62
(dp2501
g82
g83
ssg71
g2495
sg64
(lp2502
S'wsgi_errors'
p2503
asbag57
(g78
g59
NtRp2504
(dp2505
g62
(dp2506
g89
g90
ssg71
g2495
sg64
(lp2507
S':'
asbag57
(g78
g59
NtRp2508
(dp2509
g62
(dp2510
sg71
g2495
sg64
(lp2511
g57
(g58
g59
NtRp2512
(dp2513
g62
(dp2514
g70
I4
ssg71
g2508
sg64
(lp2515
S"<open file '<stderr>', mode 'w' at 0xb76fc0d0>"
p2516
asbasbasbag57
(g73
g59
NtRp2517
(dp2518
g62
(dp2519
sg71
g1747
sg64
(lp2520
g57
(g78
g59
NtRp2521
(dp2522
g62
(dp2523
g82
g83
ssg71
g2517
sg64
(lp2524
S'wsgi_file_wrapper'
p2525
asbag57
(g78
g59
NtRp2526
(dp2527
g62
(dp2528
g89
g90
ssg71
g2517
sg64
(lp2529
S':'
asbag57
(g78
g59
NtRp2530
(dp2531
g62
(dp2532
sg71
g2517
sg64
(lp2533
g57
(g58
g59
NtRp2534
(dp2535
g62
(dp2536
g70
I4
ssg71
g2530
sg64
(lp2537
S'<class wsgiref.util.FileWrapper at 0x9247adc>'
p2538
asbasbasbag57
(g73
g59
NtRp2539
(dp2540
g62
(dp2541
sg71
g1747
sg64
(lp2542
g57
(g78
g59
NtRp2543
(dp2544
g62
(dp2545
g82
g83
ssg71
g2539
sg64
(lp2546
S'wsgi_input'
p2547
asbag57
(g78
g59
NtRp2548
(dp2549
g62
(dp2550
g89
g90
ssg71
g2539
sg64
(lp2551
S':'
asbag57
(g78
g59
NtRp2552
(dp2553
g62
(dp2554
sg71
g2539
sg64
(lp2555
g57
(g58
g59
NtRp2556
(dp2557
g62
(dp2558
g70
I4
ssg71
g2552
sg64
(lp2559
S'<socket._fileobject object at 0xb05c0ac>'
p2560
asbasbasbag57
(g73
g59
NtRp2561
(dp2562
g62
(dp2563
sg71
g1747
sg64
(lp2564
g57
(g78
g59
NtRp2565
(dp2566
g62
(dp2567
g82
g83
ssg71
g2561
sg64
(lp2568
S'wsgi_multiprocess'
p2569
asbag57
(g78
g59
NtRp2570
(dp2571
g62
(dp2572
g89
g90
ssg71
g2561
sg64
(lp2573
S':'
asbag57
(g78
g59
NtRp2574
(dp2575
g62
(dp2576
sg71
g2561
sg64
(lp2577
g57
(g58
g59
NtRp2578
(dp2579
g62
(dp2580
g70
I4
ssg71
g2574
sg64
(lp2581
g100
asbasbasbag57
(g73
g59
NtRp2582
(dp2583
g62
(dp2584
sg71
g1747
sg64
(lp2585
g57
(g78
g59
NtRp2586
(dp2587
g62
(dp2588
g82
g83
ssg71
g2582
sg64
(lp2589
S'wsgi_multithread'
p2590
asbag57
(g78
g59
NtRp2591
(dp2592
g62
(dp2593
g89
g90
ssg71
g2582
sg64
(lp2594
S':'
asbag57
(g78
g59
NtRp2595
(dp2596
g62
(dp2597
sg71
g2582
sg64
(lp2598
g57
(g58
g59
NtRp2599
(dp2600
g62
(dp2601
g70
I4
ssg71
g2595
sg64
(lp2602
S'True'
p2603
asbasbasbag57
(g73
g59
NtRp2604
(dp2605
g62
(dp2606
sg71
g1747
sg64
(lp2607
g57
(g78
g59
NtRp2608
(dp2609
g62
(dp2610
g82
g83
ssg71
g2604
sg64
(lp2611
S'wsgi_run_once'
p2612
asbag57
(g78
g59
NtRp2613
(dp2614
g62
(dp2615
g89
g90
ssg71
g2604
sg64
(lp2616
S':'
asbag57
(g78
g59
NtRp2617
(dp2618
g62
(dp2619
sg71
g2604
sg64
(lp2620
g57
(g58
g59
NtRp2621
(dp2622
g62
(dp2623
g70
I4
ssg71
g2617
sg64
(lp2624
g100
asbasbasbag57
(g73
g59
NtRp2625
(dp2626
g62
(dp2627
sg71
g1747
sg64
(lp2628
g57
(g78
g59
NtRp2629
(dp2630
g62
(dp2631
g82
g83
ssg71
g2625
sg64
(lp2632
S'wsgi_url_scheme'
p2633
asbag57
(g78
g59
NtRp2634
(dp2635
g62
(dp2636
g89
g90
ssg71
g2625
sg64
(lp2637
S':'
asbag57
(g78
g59
NtRp2638
(dp2639
g62
(dp2640
sg71
g2625
sg64
(lp2641
g57
(g58
g59
NtRp2642
(dp2643
g62
(dp2644
g70
I4
ssg71
g2638
sg64
(lp2645
S'http'
p2646
asbasbasbag57
(g73
g59
NtRp2647
(dp2648
g62
(dp2649
sg71
g1747
sg64
(lp2650
g57
(g78
g59
NtRp2651
(dp2652
g62
(dp2653
g82
g83
ssg71
g2647
sg64
(lp2654
S'wsgi_version'
p2655
asbag57
(g78
g59
NtRp2656
(dp2657
g62
(dp2658
g89
g90
ssg71
g2647
sg64
(lp2659
S':'
asbag57
(g78
g59
NtRp2660
(dp2661
g62
(dp2662
sg71
g2647
sg64
(lp2663
g57
(g58
g59
NtRp2664
(dp2665
g62
(dp2666
g70
I4
ssg71
g2660
sg64
(lp2667
g57
(g66
g59
NtRp2668
(dp2669
g62
(dp2670
g70
I3
ssg71
Nsg64
(lp2671
g57
(g73
g59
NtRp2672
(dp2673
g62
(dp2674
sg71
g2668
sg64
(lp2675
g57
(g78
g59
NtRp2676
(dp2677
g62
(dp2678
sg71
g2672
sg64
(lp2679
g57
(g58
g59
NtRp2680
(dp2681
g62
(dp2682
g70
I3
ssg71
g2676
sg64
(lp2683
S'1'
asbasbasbag57
(g73
g59
NtRp2684
(dp2685
g62
(dp2686
sg71
g2668
sg64
(lp2687
g57
(g78
g59
NtRp2688
(dp2689
g62
(dp2690
sg71
g2684
sg64
(lp2691
g57
(g58
g59
NtRp2692
(dp2693
g62
(dp2694
g70
I3
ssg71
g2688
sg64
(lp2695
S'0'
asbasbasbasbasbasbasbasbasbasbasbag57
(g73
g59
NtRp2696
(dp2697
g62
(dp2698
sg71
g67
sg64
(lp2699
g57
(g78
g59
NtRp2700
(dp2701
g62
(dp2702
g82
g83
ssg71
g2696
sg64
(lp2703
S'extension'
p2704
asbag57
(g78
g59
NtRp2705
(dp2706
g62
(dp2707
g89
g90
ssg71
g2696
sg64
(lp2708
S':'
asbag57
(g78
g59
NtRp2709
(dp2710
g62
(dp2711
sg71
g2696
sg64
(lp2712
g57
(g58
g59
NtRp2713
(dp2714
g62
(dp2715
g70
I5
ssg71
g2709
sg64
(lp2716
S'html'
p2717
asbasbasbag57
(g73
g59
NtRp2718
(dp2719
g62
(dp2720
sg71
g67
sg64
(lp2721
g57
(g78
g59
NtRp2722
(dp2723
g62
(dp2724
g82
g83
ssg71
g2718
sg64
(lp2725
S'folder'
p2726
asbag57
(g78
g59
NtRp2727
(dp2728
g62
(dp2729
g89
g90
ssg71
g2718
sg64
(lp2730
S':'
asbag57
(g78
g59
NtRp2731
(dp2732
g62
(dp2733
sg71
g2718
sg64
(lp2734
g57
(g58
g59
NtRp2735
(dp2736
g62
(dp2737
g70
I5
ssg71
g2731
sg64
(lp2738
S'/home/vishrut/web2py/applications/astra1/'
p2739
asbasbasbag57
(g73
g59
NtRp2740
(dp2741
g62
(dp2742
sg71
g67
sg64
(lp2743
g57
(g78
g59
NtRp2744
(dp2745
g62
(dp2746
g82
g83
ssg71
g2740
sg64
(lp2747
S'function'
p2748
asbag57
(g78
g59
NtRp2749
(dp2750
g62
(dp2751
g89
g90
ssg71
g2740
sg64
(lp2752
S':'
asbag57
(g78
g59
NtRp2753
(dp2754
g62
(dp2755
sg71
g2740
sg64
(lp2756
g57
(g58
g59
NtRp2757
(dp2758
g62
(dp2759
g70
I5
ssg71
g2753
sg64
(lp2760
S'index'
p2761
asbasbasbag57
(g73
g59
NtRp2762
(dp2763
g62
(dp2764
sg71
g67
sg64
(lp2765
g57
(g78
g59
NtRp2766
(dp2767
g62
(dp2768
g82
g83
ssg71
g2762
sg64
(lp2769
S'get_vars'
p2770
asbag57
(g78
g59
NtRp2771
(dp2772
g62
(dp2773
g89
g90
ssg71
g2762
sg64
(lp2774
S':'
asbag57
(g78
g59
NtRp2775
(dp2776
g62
(dp2777
sg71
g2762
sg64
(lp2778
g57
(g58
g59
NtRp2779
(dp2780
g62
(dp2781
g70
I5
ssg71
g2775
sg64
(lp2782
g57
(g66
g59
NtRp2783
(dp2784
g62
(dp2785
g70
I4
ssg71
Nsg64
(lp2786
sbasbasbasbag57
(g73
g59
NtRp2787
(dp2788
g62
(dp2789
sg71
g67
sg64
(lp2790
g57
(g78
g59
NtRp2791
(dp2792
g62
(dp2793
g82
g83
ssg71
g2787
sg64
(lp2794
S'global_settings'
p2795
asbag57
(g78
g59
NtRp2796
(dp2797
g62
(dp2798
g89
g90
ssg71
g2787
sg64
(lp2799
S':'
asbag57
(g78
g59
NtRp2800
(dp2801
g62
(dp2802
sg71
g2787
sg64
(lp2803
g57
(g58
g59
NtRp2804
(dp2805
g62
(dp2806
g70
I5
ssg71
g2800
sg64
(lp2807
g57
(g66
g59
NtRp2808
(dp2809
g62
(dp2810
g70
I4
ssg71
Nsg64
(lp2811
g57
(g73
g59
NtRp2812
(dp2813
g62
(dp2814
sg71
g2808
sg64
(lp2815
g57
(g78
g59
NtRp2816
(dp2817
g62
(dp2818
g82
g83
ssg71
g2812
sg64
(lp2819
g1759
asbag57
(g78
g59
NtRp2820
(dp2821
g62
(dp2822
g89
g90
ssg71
g2812
sg64
(lp2823
S':'
asbag57
(g78
g59
NtRp2824
(dp2825
g62
(dp2826
sg71
g2812
sg64
(lp2827
g57
(g58
g59
NtRp2828
(dp2829
g62
(dp2830
g70
I4
ssg71
g2824
sg64
(lp2831
S"set(['/home/vishrut/web2py/applications/astra1/', '/home/vishrut/web2py/applications/admin/', '/home/vishrut/web2py/applications/music_library/', '/home/vishrut/web2py/applications/music/', '/home/vishrut/web2py/applications/welcome/'])"
p2832
asbasbasbag57
(g73
g59
NtRp2833
(dp2834
g62
(dp2835
sg71
g2808
sg64
(lp2836
g57
(g78
g59
NtRp2837
(dp2838
g62
(dp2839
g82
g83
ssg71
g2833
sg64
(lp2840
g1781
asbag57
(g78
g59
NtRp2841
(dp2842
g62
(dp2843
g89
g90
ssg71
g2833
sg64
(lp2844
S':'
asbag57
(g78
g59
NtRp2845
(dp2846
g62
(dp2847
sg71
g2833
sg64
(lp2848
g57
(g58
g59
NtRp2849
(dp2850
g62
(dp2851
g70
I4
ssg71
g2845
sg64
(lp2852
g1794
asbasbasbag57
(g73
g59
NtRp2853
(dp2854
g62
(dp2855
sg71
g2808
sg64
(lp2856
g57
(g78
g59
NtRp2857
(dp2858
g62
(dp2859
g82
g83
ssg71
g2853
sg64
(lp2860
g1803
asbag57
(g78
g59
NtRp2861
(dp2862
g62
(dp2863
g89
g90
ssg71
g2853
sg64
(lp2864
S':'
asbag57
(g78
g59
NtRp2865
(dp2866
g62
(dp2867
sg71
g2853
sg64
(lp2868
g57
(g58
g59
NtRp2869
(dp2870
g62
(dp2871
g70
I4
ssg71
g2865
sg64
(lp2872
g57
(g66
g59
NtRp2873
(dp2874
g62
(dp2875
g70
I3
ssg71
Nsg64
(lp2876
sbasbasbasbag57
(g73
g59
NtRp2877
(dp2878
g62
(dp2879
sg71
g2808
sg64
(lp2880
g57
(g78
g59
NtRp2881
(dp2882
g62
(dp2883
g82
g83
ssg71
g2877
sg64
(lp2884
g1828
asbag57
(g78
g59
NtRp2885
(dp2886
g62
(dp2887
g89
g90
ssg71
g2877
sg64
(lp2888
S':'
asbag57
(g78
g59
NtRp2889
(dp2890
g62
(dp2891
sg71
g2877
sg64
(lp2892
g57
(g58
g59
NtRp2893
(dp2894
g62
(dp2895
g70
I4
ssg71
g2889
sg64
(lp2896
S"<Values at 0x93293cc: {'verbose': False, 'ip': '127.0.0.1', 'shutdown_timeout': 5, 'taskbar': False, 'nocron': False, 'pid_filename': 'httpserver.pid', 'maxthreads': None, 'softcron': False, 'server_name': 'vishrut-Vostro-1015', 'bpython': False, 'nogui': False, 'port': 8000, 'extcron': False, 'debuglevel': 30, 'test': None, 'folder': '/home/vishrut/web2py', 'config': '', 'import_models': False, 'winservice': '', 'shell': None, 'run': '', 'log_filename': 'httpserver.log', 'args': [''], 'socket_timeout': 5, 'ssl_ca_certificate': None, 'scheduler': None, 'profiler_filename': None, 'ssl_private_key': '', 'password': '<ask>', 'request_queue_size': 5, 'ssl_certificate': '', 'cronjob': False, 'numthreads': None, 'quiet': False, 'interfaces': None, 'minthreads': None, 'timeout': 10, 'plain': False, 'nobanner': False}>"
p2897
asbasbasbag57
(g73
g59
NtRp2898
(dp2899
g62
(dp2900
sg71
g2808
sg64
(lp2901
g57
(g78
g59
NtRp2902
(dp2903
g62
(dp2904
g82
g83
ssg71
g2898
sg64
(lp2905
g1850
asbag57
(g78
g59
NtRp2906
(dp2907
g62
(dp2908
g89
g90
ssg71
g2898
sg64
(lp2909
S':'
asbag57
(g78
g59
NtRp2910
(dp2911
g62
(dp2912
sg71
g2898
sg64
(lp2913
g57
(g58
g59
NtRp2914
(dp2915
g62
(dp2916
g70
I4
ssg71
g2910
sg64
(lp2917
S'set([])'
p2918
asbasbasbag57
(g73
g59
NtRp2919
(dp2920
g62
(dp2921
sg71
g2808
sg64
(lp2922
g57
(g78
g59
NtRp2923
(dp2924
g62
(dp2925
g82
g83
ssg71
g2919
sg64
(lp2926
g1872
asbag57
(g78
g59
NtRp2927
(dp2928
g62
(dp2929
g89
g90
ssg71
g2919
sg64
(lp2930
S':'
asbag57
(g78
g59
NtRp2931
(dp2932
g62
(dp2933
sg71
g2919
sg64
(lp2934
g57
(g58
g59
NtRp2935
(dp2936
g62
(dp2937
g70
I4
ssg71
g2931
sg64
(lp2938
g100
asbasbasbag57
(g73
g59
NtRp2939
(dp2940
g62
(dp2941
sg71
g2808
sg64
(lp2942
g57
(g78
g59
NtRp2943
(dp2944
g62
(dp2945
g82
g83
ssg71
g2939
sg64
(lp2946
g1893
asbag57
(g78
g59
NtRp2947
(dp2948
g62
(dp2949
g89
g90
ssg71
g2939
sg64
(lp2950
S':'
asbag57
(g78
g59
NtRp2951
(dp2952
g62
(dp2953
sg71
g2939
sg64
(lp2954
g57
(g58
g59
NtRp2955
(dp2956
g62
(dp2957
g70
I4
ssg71
g2951
sg64
(lp2958
g1906
asbasbasbag57
(g73
g59
NtRp2959
(dp2960
g62
(dp2961
sg71
g2808
sg64
(lp2962
g57
(g78
g59
NtRp2963
(dp2964
g62
(dp2965
g82
g83
ssg71
g2959
sg64
(lp2966
g2113
asbag57
(g78
g59
NtRp2967
(dp2968
g62
(dp2969
g89
g90
ssg71
g2959
sg64
(lp2970
S':'
asbag57
(g78
g59
NtRp2971
(dp2972
g62
(dp2973
sg71
g2959
sg64
(lp2974
g57
(g58
g59
NtRp2975
(dp2976
g62
(dp2977
g70
I4
ssg71
g2971
sg64
(lp2978
g100
asbasbasbag57
(g73
g59
NtRp2979
(dp2980
g62
(dp2981
sg71
g2808
sg64
(lp2982
g57
(g78
g59
NtRp2983
(dp2984
g62
(dp2985
g82
g83
ssg71
g2979
sg64
(lp2986
g2134
asbag57
(g78
g59
NtRp2987
(dp2988
g62
(dp2989
g89
g90
ssg71
g2979
sg64
(lp2990
S':'
asbag57
(g78
g59
NtRp2991
(dp2992
g62
(dp2993
sg71
g2979
sg64
(lp2994
g57
(g58
g59
NtRp2995
(dp2996
g62
(dp2997
g70
I4
ssg71
g2991
sg64
(lp2998
g100
asbasbasbag57
(g73
g59
NtRp2999
(dp3000
g62
(dp3001
sg71
g2808
sg64
(lp3002
g57
(g78
g59
NtRp3003
(dp3004
g62
(dp3005
g82
g83
ssg71
g2999
sg64
(lp3006
g2372
asbag57
(g78
g59
NtRp3007
(dp3008
g62
(dp3009
g89
g90
ssg71
g2999
sg64
(lp3010
S':'
asbag57
(g78
g59
NtRp3011
(dp3012
g62
(dp3013
sg71
g2999
sg64
(lp3014
g57
(g58
g59
NtRp3015
(dp3016
g62
(dp3017
g70
I4
ssg71
g3011
sg64
(lp3018
g2385
asbasbasbag57
(g73
g59
NtRp3019
(dp3020
g62
(dp3021
sg71
g2808
sg64
(lp3022
g57
(g78
g59
NtRp3023
(dp3024
g62
(dp3025
g82
g83
ssg71
g3019
sg64
(lp3026
g2415
asbag57
(g78
g59
NtRp3027
(dp3028
g62
(dp3029
g89
g90
ssg71
g3019
sg64
(lp3030
S':'
asbag57
(g78
g59
NtRp3031
(dp3032
g62
(dp3033
sg71
g3019
sg64
(lp3034
g57
(g58
g59
NtRp3035
(dp3036
g62
(dp3037
g70
I4
ssg71
g3031
sg64
(lp3038
g57
(g66
g59
NtRp3039
(dp3040
g62
(dp3041
g70
I3
ssg71
Nsg64
(lp3042
g57
(g73
g59
NtRp3043
(dp3044
g62
(dp3045
sg71
g3039
sg64
(lp3046
g57
(g78
g59
NtRp3047
(dp3048
g62
(dp3049
sg71
g3043
sg64
(lp3050
g57
(g58
g59
NtRp3051
(dp3052
g62
(dp3053
g70
I3
ssg71
g3047
sg64
(lp3054
S'1'
asbasbasbag57
(g73
g59
NtRp3055
(dp3056
g62
(dp3057
sg71
g3039
sg64
(lp3058
g57
(g78
g59
NtRp3059
(dp3060
g62
(dp3061
sg71
g3055
sg64
(lp3062
g57
(g58
g59
NtRp3063
(dp3064
g62
(dp3065
g70
I3
ssg71
g3059
sg64
(lp3066
S'99'
p3067
asbasbasbag57
(g73
g59
NtRp3068
(dp3069
g62
(dp3070
sg71
g3039
sg64
(lp3071
g57
(g78
g59
NtRp3072
(dp3073
g62
(dp3074
sg71
g3068
sg64
(lp3075
g57
(g58
g59
NtRp3076
(dp3077
g62
(dp3078
g70
I3
ssg71
g3072
sg64
(lp3079
S'7'
asbasbasbag57
(g73
g59
NtRp3080
(dp3081
g62
(dp3082
sg71
g3039
sg64
(lp3083
g57
(g78
g59
NtRp3084
(dp3085
g62
(dp3086
sg71
g3080
sg64
(lp3087
g57
(g58
g59
NtRp3088
(dp3089
g62
(dp3090
g70
I3
ssg71
g3084
sg64
(lp3091
S'datetime.datetime(2012, 3, 4, 22, 12, 8)'
p3092
asbasbasbag57
(g73
g59
NtRp3093
(dp3094
g62
(dp3095
sg71
g3039
sg64
(lp3096
g57
(g78
g59
NtRp3097
(dp3098
g62
(dp3099
sg71
g3093
sg64
(lp3100
g57
(g58
g59
NtRp3101
(dp3102
g62
(dp3103
g70
I3
ssg71
g3097
sg64
(lp3104
g2494
asbasbasbasbasbasbasbasbasbasbasbag57
(g73
g59
NtRp3105
(dp3106
g62
(dp3107
sg71
g67
sg64
(lp3108
g57
(g78
g59
NtRp3109
(dp3110
g62
(dp3111
g82
g83
ssg71
g3105
sg64
(lp3112
S'is_https'
p3113
asbag57
(g78
g59
NtRp3114
(dp3115
g62
(dp3116
g89
g90
ssg71
g3105
sg64
(lp3117
S':'
asbag57
(g78
g59
NtRp3118
(dp3119
g62
(dp3120
sg71
g3105
sg64
(lp3121
g57
(g58
g59
NtRp3122
(dp3123
g62
(dp3124
g70
I5
ssg71
g3118
sg64
(lp3125
g100
asbasbasbag57
(g73
g59
NtRp3126
(dp3127
g62
(dp3128
sg71
g67
sg64
(lp3129
g57
(g78
g59
NtRp3130
(dp3131
g62
(dp3132
g82
g83
ssg71
g3126
sg64
(lp3133
S'is_local'
p3134
asbag57
(g78
g59
NtRp3135
(dp3136
g62
(dp3137
g89
g90
ssg71
g3126
sg64
(lp3138
S':'
asbag57
(g78
g59
NtRp3139
(dp3140
g62
(dp3141
sg71
g3126
sg64
(lp3142
g57
(g58
g59
NtRp3143
(dp3144
g62
(dp3145
g70
I5
ssg71
g3139
sg64
(lp3146
g2603
asbasbasbag57
(g73
g59
NtRp3147
(dp3148
g62
(dp3149
sg71
g67
sg64
(lp3150
g57
(g78
g59
NtRp3151
(dp3152
g62
(dp3153
g82
g83
ssg71
g3147
sg64
(lp3154
S'is_restful'
p3155
asbag57
(g78
g59
NtRp3156
(dp3157
g62
(dp3158
g89
g90
ssg71
g3147
sg64
(lp3159
S':'
asbag57
(g78
g59
NtRp3160
(dp3161
g62
(dp3162
sg71
g3147
sg64
(lp3163
g57
(g58
g59
NtRp3164
(dp3165
g62
(dp3166
g70
I5
ssg71
g3160
sg64
(lp3167
g100
asbasbasbag57
(g73
g59
NtRp3168
(dp3169
g62
(dp3170
sg71
g67
sg64
(lp3171
g57
(g78
g59
NtRp3172
(dp3173
g62
(dp3174
g82
g83
ssg71
g3168
sg64
(lp3175
S'now'
p3176
asbag57
(g78
g59
NtRp3177
(dp3178
g62
(dp3179
g89
g90
ssg71
g3168
sg64
(lp3180
S':'
asbag57
(g78
g59
NtRp3181
(dp3182
g62
(dp3183
sg71
g3168
sg64
(lp3184
g57
(g58
g59
NtRp3185
(dp3186
g62
(dp3187
g70
I5
ssg71
g3181
sg64
(lp3188
S'datetime.datetime(2012, 10, 14, 18, 2, 42, 407997)'
p3189
asbasbasbag57
(g73
g59
NtRp3190
(dp3191
g62
(dp3192
sg71
g67
sg64
(lp3193
g57
(g78
g59
NtRp3194
(dp3195
g62
(dp3196
g82
g83
ssg71
g3190
sg64
(lp3197
S'post_vars'
p3198
asbag57
(g78
g59
NtRp3199
(dp3200
g62
(dp3201
g89
g90
ssg71
g3190
sg64
(lp3202
S':'
asbag57
(g78
g59
NtRp3203
(dp3204
g62
(dp3205
sg71
g3190
sg64
(lp3206
g57
(g58
g59
NtRp3207
(dp3208
g62
(dp3209
g70
I5
ssg71
g3203
sg64
(lp3210
g57
(g66
g59
NtRp3211
(dp3212
g62
(dp3213
g70
I4
ssg71
Nsg64
(lp3214
sbasbasbasbag57
(g73
g59
NtRp3215
(dp3216
g62
(dp3217
sg71
g67
sg64
(lp3218
g57
(g78
g59
NtRp3219
(dp3220
g62
(dp3221
g82
g83
ssg71
g3215
sg64
(lp3222
S'url'
p3223
asbag57
(g78
g59
NtRp3224
(dp3225
g62
(dp3226
g89
g90
ssg71
g3215
sg64
(lp3227
S':'
asbag57
(g78
g59
NtRp3228
(dp3229
g62
(dp3230
sg71
g3215
sg64
(lp3231
g57
(g58
g59
NtRp3232
(dp3233
g62
(dp3234
g70
I5
ssg71
g3228
sg64
(lp3235
S'/astra1/default/index'
p3236
asbasbasbag57
(g73
g59
NtRp3237
(dp3238
g62
(dp3239
sg71
g67
sg64
(lp3240
g57
(g78
g59
NtRp3241
(dp3242
g62
(dp3243
g82
g83
ssg71
g3237
sg64
(lp3244
S'utcnow'
p3245
asbag57
(g78
g59
NtRp3246
(dp3247
g62
(dp3248
g89
g90
ssg71
g3237
sg64
(lp3249
S':'
asbag57
(g78
g59
NtRp3250
(dp3251
g62
(dp3252
sg71
g3237
sg64
(lp3253
g57
(g58
g59
NtRp3254
(dp3255
g62
(dp3256
g70
I5
ssg71
g3250
sg64
(lp3257
S'datetime.datetime(2012, 10, 14, 13, 2, 42, 408028)'
p3258
asbasbasbag57
(g73
g59
NtRp3259
(dp3260
g62
(dp3261
sg71
g67
sg64
(lp3262
g57
(g78
g59
NtRp3263
(dp3264
g62
(dp3265
g82
g83
ssg71
g3259
sg64
(lp3266
S'uuid'
p3267
asbag57
(g78
g59
NtRp3268
(dp3269
g62
(dp3270
g89
g90
ssg71
g3259
sg64
(lp3271
S':'
asbag57
(g78
g59
NtRp3272
(dp3273
g62
(dp3274
sg71
g3259
sg64
(lp3275
g57
(g58
g59
NtRp3276
(dp3277
g62
(dp3278
g70
I5
ssg71
g3272
sg64
(lp3279
S'astra1/127.0.0.1.2012-10-14.18-02-42.1e1365c5-dc50-45eb-80a9-66f8df2731cf'
p3280
asbasbasbag57
(g73
g59
NtRp3281
(dp3282
g62
(dp3283
sg71
g67
sg64
(lp3284
g57
(g78
g59
NtRp3285
(dp3286
g62
(dp3287
g82
g83
ssg71
g3281
sg64
(lp3288
S'vars'
p3289
asbag57
(g78
g59
NtRp3290
(dp3291
g62
(dp3292
g89
g90
ssg71
g3281
sg64
(lp3293
S':'
asbag57
(g78
g59
NtRp3294
(dp3295
g62
(dp3296
sg71
g3281
sg64
(lp3297
g57
(g58
g59
NtRp3298
(dp3299
g62
(dp3300
g70
I5
ssg71
g3294
sg64
(lp3301
g57
(g66
g59
NtRp3302
(dp3303
g62
(dp3304
g70
I4
ssg71
Nsg64
(lp3305
sbasbasbasbag57
(g73
g59
NtRp3306
(dp3307
g62
(dp3308
sg71
g67
sg64
(lp3309
g57
(g78
g59
NtRp3310
(dp3311
g62
(dp3312
g82
g83
ssg71
g3306
sg64
(lp3313
S'wsgi'
p3314
asbag57
(g78
g59
NtRp3315
(dp3316
g62
(dp3317
g89
g90
ssg71
g3306
sg64
(lp3318
S':'
asbag57
(g78
g59
NtRp3319
(dp3320
g62
(dp3321
sg71
g3306
sg64
(lp3322
g57
(g58
g59
NtRp3323
(dp3324
g62
(dp3325
g70
I5
ssg71
g3319
sg64
(lp3326
g57
(g66
g59
NtRp3327
(dp3328
g62
(dp3329
g70
I4
ssg71
Nsg64
(lp3330
g57
(g73
g59
NtRp3331
(dp3332
g62
(dp3333
sg71
g3327
sg64
(lp3334
g57
(g78
g59
NtRp3335
(dp3336
g62
(dp3337
g82
g83
ssg71
g3331
sg64
(lp3338
S'environ'
p3339
asbag57
(g78
g59
NtRp3340
(dp3341
g62
(dp3342
g89
g90
ssg71
g3331
sg64
(lp3343
S':'
asbag57
(g78
g59
NtRp3344
(dp3345
g62
(dp3346
sg71
g3331
sg64
(lp3347
g57
(g58
g59
NtRp3348
(dp3349
g62
(dp3350
g70
I4
ssg71
g3344
sg64
(lp3351
g57
(g66
g59
NtRp3352
(dp3353
g62
(dp3354
g70
I3
ssg71
Nsg64
(lp3355
g57
(g73
g59
NtRp3356
(dp3357
g62
(dp3358
sg71
g3352
sg64
(lp3359
g57
(g78
g59
NtRp3360
(dp3361
g62
(dp3362
g82
g83
ssg71
g3356
sg64
(lp3363
S'HTTP_ACCEPT'
p3364
asbag57
(g78
g59
NtRp3365
(dp3366
g62
(dp3367
g89
g90
ssg71
g3356
sg64
(lp3368
S':'
asbag57
(g78
g59
NtRp3369
(dp3370
g62
(dp3371
sg71
g3356
sg64
(lp3372
g57
(g58
g59
NtRp3373
(dp3374
g62
(dp3375
g70
I3
ssg71
g3369
sg64
(lp3376
g1928
asbasbasbag57
(g73
g59
NtRp3377
(dp3378
g62
(dp3379
sg71
g3352
sg64
(lp3380
g57
(g78
g59
NtRp3381
(dp3382
g62
(dp3383
g82
g83
ssg71
g3377
sg64
(lp3384
S'HTTP_ACCEPT_ENCODING'
p3385
asbag57
(g78
g59
NtRp3386
(dp3387
g62
(dp3388
g89
g90
ssg71
g3377
sg64
(lp3389
S':'
asbag57
(g78
g59
NtRp3390
(dp3391
g62
(dp3392
sg71
g3377
sg64
(lp3393
g57
(g58
g59
NtRp3394
(dp3395
g62
(dp3396
g70
I3
ssg71
g3390
sg64
(lp3397
g1950
asbasbasbag57
(g73
g59
NtRp3398
(dp3399
g62
(dp3400
sg71
g3352
sg64
(lp3401
g57
(g78
g59
NtRp3402
(dp3403
g62
(dp3404
g82
g83
ssg71
g3398
sg64
(lp3405
S'HTTP_ACCEPT_LANGUAGE'
p3406
asbag57
(g78
g59
NtRp3407
(dp3408
g62
(dp3409
g89
g90
ssg71
g3398
sg64
(lp3410
S':'
asbag57
(g78
g59
NtRp3411
(dp3412
g62
(dp3413
sg71
g3398
sg64
(lp3414
g57
(g58
g59
NtRp3415
(dp3416
g62
(dp3417
g70
I3
ssg71
g3411
sg64
(lp3418
g1972
asbasbasbag57
(g73
g59
NtRp3419
(dp3420
g62
(dp3421
sg71
g3352
sg64
(lp3422
g57
(g78
g59
NtRp3423
(dp3424
g62
(dp3425
g82
g83
ssg71
g3419
sg64
(lp3426
S'HTTP_CACHE_CONTROL'
p3427
asbag57
(g78
g59
NtRp3428
(dp3429
g62
(dp3430
g89
g90
ssg71
g3419
sg64
(lp3431
S':'
asbag57
(g78
g59
NtRp3432
(dp3433
g62
(dp3434
sg71
g3419
sg64
(lp3435
g57
(g58
g59
NtRp3436
(dp3437
g62
(dp3438
g70
I3
ssg71
g3432
sg64
(lp3439
g1994
asbasbasbag57
(g73
g59
NtRp3440
(dp3441
g62
(dp3442
sg71
g3352
sg64
(lp3443
g57
(g78
g59
NtRp3444
(dp3445
g62
(dp3446
g82
g83
ssg71
g3440
sg64
(lp3447
S'HTTP_CONNECTION'
p3448
asbag57
(g78
g59
NtRp3449
(dp3450
g62
(dp3451
g89
g90
ssg71
g3440
sg64
(lp3452
S':'
asbag57
(g78
g59
NtRp3453
(dp3454
g62
(dp3455
sg71
g3440
sg64
(lp3456
g57
(g58
g59
NtRp3457
(dp3458
g62
(dp3459
g70
I3
ssg71
g3453
sg64
(lp3460
g2016
asbasbasbag57
(g73
g59
NtRp3461
(dp3462
g62
(dp3463
sg71
g3352
sg64
(lp3464
g57
(g78
g59
NtRp3465
(dp3466
g62
(dp3467
g82
g83
ssg71
g3461
sg64
(lp3468
S'HTTP_COOKIE'
p3469
asbag57
(g78
g59
NtRp3470
(dp3471
g62
(dp3472
g89
g90
ssg71
g3461
sg64
(lp3473
S':'
asbag57
(g78
g59
NtRp3474
(dp3475
g62
(dp3476
sg71
g3461
sg64
(lp3477
g57
(g58
g59
NtRp3478
(dp3479
g62
(dp3480
g70
I3
ssg71
g3474
sg64
(lp3481
g2038
asbasbasbag57
(g73
g59
NtRp3482
(dp3483
g62
(dp3484
sg71
g3352
sg64
(lp3485
g57
(g78
g59
NtRp3486
(dp3487
g62
(dp3488
g82
g83
ssg71
g3482
sg64
(lp3489
S'HTTP_HOST'
p3490
asbag57
(g78
g59
NtRp3491
(dp3492
g62
(dp3493
g89
g90
ssg71
g3482
sg64
(lp3494
S':'
asbag57
(g78
g59
NtRp3495
(dp3496
g62
(dp3497
sg71
g3482
sg64
(lp3498
g57
(g58
g59
NtRp3499
(dp3500
g62
(dp3501
g70
I3
ssg71
g3495
sg64
(lp3502
g2060
asbasbasbag57
(g73
g59
NtRp3503
(dp3504
g62
(dp3505
sg71
g3352
sg64
(lp3506
g57
(g78
g59
NtRp3507
(dp3508
g62
(dp3509
g82
g83
ssg71
g3503
sg64
(lp3510
S'HTTP_REFERER'
p3511
asbag57
(g78
g59
NtRp3512
(dp3513
g62
(dp3514
g89
g90
ssg71
g3503
sg64
(lp3515
S':'
asbag57
(g78
g59
NtRp3516
(dp3517
g62
(dp3518
sg71
g3503
sg64
(lp3519
g57
(g58
g59
NtRp3520
(dp3521
g62
(dp3522
g70
I3
ssg71
g3516
sg64
(lp3523
g2082
asbasbasbag57
(g73
g59
NtRp3524
(dp3525
g62
(dp3526
sg71
g3352
sg64
(lp3527
g57
(g78
g59
NtRp3528
(dp3529
g62
(dp3530
g82
g83
ssg71
g3524
sg64
(lp3531
S'HTTP_USER_AGENT'
p3532
asbag57
(g78
g59
NtRp3533
(dp3534
g62
(dp3535
g89
g90
ssg71
g3524
sg64
(lp3536
S':'
asbag57
(g78
g59
NtRp3537
(dp3538
g62
(dp3539
sg71
g3524
sg64
(lp3540
g57
(g58
g59
NtRp3541
(dp3542
g62
(dp3543
g70
I3
ssg71
g3537
sg64
(lp3544
g2104
asbasbasbag57
(g73
g59
NtRp3545
(dp3546
g62
(dp3547
sg71
g3352
sg64
(lp3548
g57
(g78
g59
NtRp3549
(dp3550
g62
(dp3551
g82
g83
ssg71
g3545
sg64
(lp3552
S'PATH_INFO'
p3553
asbag57
(g78
g59
NtRp3554
(dp3555
g62
(dp3556
g89
g90
ssg71
g3545
sg64
(lp3557
S':'
asbag57
(g78
g59
NtRp3558
(dp3559
g62
(dp3560
sg71
g3545
sg64
(lp3561
g57
(g58
g59
NtRp3562
(dp3563
g62
(dp3564
g70
I3
ssg71
g3558
sg64
(lp3565
g2168
asbasbasbag57
(g73
g59
NtRp3566
(dp3567
g62
(dp3568
sg71
g3352
sg64
(lp3569
g57
(g78
g59
NtRp3570
(dp3571
g62
(dp3572
g82
g83
ssg71
g3566
sg64
(lp3573
S'QUERY_STRING'
p3574
asbag57
(g78
g59
NtRp3575
(dp3576
g62
(dp3577
g89
g90
ssg71
g3566
sg64
(lp3578
S':'
asbag57
(g78
g59
NtRp3579
(dp3580
g62
(dp3581
sg71
g3566
sg64
(lp3582
g57
(g58
g59
NtRp3583
(dp3584
g62
(dp3585
g70
I3
ssg71
g3579
sg64
(lp3586
S''
asbasbasbag57
(g73
g59
NtRp3587
(dp3588
g62
(dp3589
sg71
g3352
sg64
(lp3590
g57
(g78
g59
NtRp3591
(dp3592
g62
(dp3593
g82
g83
ssg71
g3587
sg64
(lp3594
S'REMOTE_ADDR'
p3595
asbag57
(g78
g59
NtRp3596
(dp3597
g62
(dp3598
g89
g90
ssg71
g3587
sg64
(lp3599
S':'
asbag57
(g78
g59
NtRp3600
(dp3601
g62
(dp3602
sg71
g3587
sg64
(lp3603
g57
(g58
g59
NtRp3604
(dp3605
g62
(dp3606
g70
I3
ssg71
g3600
sg64
(lp3607
g190
asbasbasbag57
(g73
g59
NtRp3608
(dp3609
g62
(dp3610
sg71
g3352
sg64
(lp3611
g57
(g78
g59
NtRp3612
(dp3613
g62
(dp3614
g82
g83
ssg71
g3608
sg64
(lp3615
S'REMOTE_PORT'
p3616
asbag57
(g78
g59
NtRp3617
(dp3618
g62
(dp3619
g89
g90
ssg71
g3608
sg64
(lp3620
S':'
asbag57
(g78
g59
NtRp3621
(dp3622
g62
(dp3623
sg71
g3608
sg64
(lp3624
g57
(g58
g59
NtRp3625
(dp3626
g62
(dp3627
g70
I3
ssg71
g3621
sg64
(lp3628
g2232
asbasbasbag57
(g73
g59
NtRp3629
(dp3630
g62
(dp3631
sg71
g3352
sg64
(lp3632
g57
(g78
g59
NtRp3633
(dp3634
g62
(dp3635
g82
g83
ssg71
g3629
sg64
(lp3636
S'REQUEST_METHOD'
p3637
asbag57
(g78
g59
NtRp3638
(dp3639
g62
(dp3640
g89
g90
ssg71
g3629
sg64
(lp3641
S':'
asbag57
(g78
g59
NtRp3642
(dp3643
g62
(dp3644
sg71
g3629
sg64
(lp3645
g57
(g58
g59
NtRp3646
(dp3647
g62
(dp3648
g70
I3
ssg71
g3642
sg64
(lp3649
g2254
asbasbasbag57
(g73
g59
NtRp3650
(dp3651
g62
(dp3652
sg71
g3352
sg64
(lp3653
g57
(g78
g59
NtRp3654
(dp3655
g62
(dp3656
g82
g83
ssg71
g3650
sg64
(lp3657
S'SCRIPT_NAME'
p3658
asbag57
(g78
g59
NtRp3659
(dp3660
g62
(dp3661
g89
g90
ssg71
g3650
sg64
(lp3662
S':'
asbag57
(g78
g59
NtRp3663
(dp3664
g62
(dp3665
sg71
g3650
sg64
(lp3666
g57
(g58
g59
NtRp3667
(dp3668
g62
(dp3669
g70
I3
ssg71
g3663
sg64
(lp3670
S''
asbasbasbag57
(g73
g59
NtRp3671
(dp3672
g62
(dp3673
sg71
g3352
sg64
(lp3674
g57
(g78
g59
NtRp3675
(dp3676
g62
(dp3677
g82
g83
ssg71
g3671
sg64
(lp3678
S'SERVER_NAME'
p3679
asbag57
(g78
g59
NtRp3680
(dp3681
g62
(dp3682
g89
g90
ssg71
g3671
sg64
(lp3683
S':'
asbag57
(g78
g59
NtRp3684
(dp3685
g62
(dp3686
sg71
g3671
sg64
(lp3687
g57
(g58
g59
NtRp3688
(dp3689
g62
(dp3690
g70
I3
ssg71
g3684
sg64
(lp3691
g2297
asbasbasbag57
(g73
g59
NtRp3692
(dp3693
g62
(dp3694
sg71
g3352
sg64
(lp3695
g57
(g78
g59
NtRp3696
(dp3697
g62
(dp3698
g82
g83
ssg71
g3692
sg64
(lp3699
S'SERVER_PORT'
p3700
asbag57
(g78
g59
NtRp3701
(dp3702
g62
(dp3703
g89
g90
ssg71
g3692
sg64
(lp3704
S':'
asbag57
(g78
g59
NtRp3705
(dp3706
g62
(dp3707
sg71
g3692
sg64
(lp3708
g57
(g58
g59
NtRp3709
(dp3710
g62
(dp3711
g70
I3
ssg71
g3705
sg64
(lp3712
g2319
asbasbasbag57
(g73
g59
NtRp3713
(dp3714
g62
(dp3715
sg71
g3352
sg64
(lp3716
g57
(g78
g59
NtRp3717
(dp3718
g62
(dp3719
g82
g83
ssg71
g3713
sg64
(lp3720
S'SERVER_PROTOCOL'
p3721
asbag57
(g78
g59
NtRp3722
(dp3723
g62
(dp3724
g89
g90
ssg71
g3713
sg64
(lp3725
S':'
asbag57
(g78
g59
NtRp3726
(dp3727
g62
(dp3728
sg71
g3713
sg64
(lp3729
g57
(g58
g59
NtRp3730
(dp3731
g62
(dp3732
g70
I3
ssg71
g3726
sg64
(lp3733
g2341
asbasbasbag57
(g73
g59
NtRp3734
(dp3735
g62
(dp3736
sg71
g3352
sg64
(lp3737
g57
(g78
g59
NtRp3738
(dp3739
g62
(dp3740
g82
g83
ssg71
g3734
sg64
(lp3741
S'SERVER_SOFTWARE'
p3742
asbag57
(g78
g59
NtRp3743
(dp3744
g62
(dp3745
g89
g90
ssg71
g3734
sg64
(lp3746
S':'
asbag57
(g78
g59
NtRp3747
(dp3748
g62
(dp3749
sg71
g3734
sg64
(lp3750
g57
(g58
g59
NtRp3751
(dp3752
g62
(dp3753
g70
I3
ssg71
g3747
sg64
(lp3754
g2363
asbasbasbag57
(g73
g59
NtRp3755
(dp3756
g62
(dp3757
sg71
g3352
sg64
(lp3758
g57
(g78
g59
NtRp3759
(dp3760
g62
(dp3761
g82
g83
ssg71
g3755
sg64
(lp3762
S'wsgi.errors'
p3763
asbag57
(g78
g59
NtRp3764
(dp3765
g62
(dp3766
g89
g90
ssg71
g3755
sg64
(lp3767
S':'
asbag57
(g78
g59
NtRp3768
(dp3769
g62
(dp3770
sg71
g3755
sg64
(lp3771
g57
(g58
g59
NtRp3772
(dp3773
g62
(dp3774
g70
I3
ssg71
g3768
sg64
(lp3775
S"<open file '<stderr>', mode 'w' at 0xb76fc0d0>"
p3776
asbasbasbag57
(g73
g59
NtRp3777
(dp3778
g62
(dp3779
sg71
g3352
sg64
(lp3780
g57
(g78
g59
NtRp3781
(dp3782
g62
(dp3783
g82
g83
ssg71
g3777
sg64
(lp3784
S'wsgi.file_wrapper'
p3785
asbag57
(g78
g59
NtRp3786
(dp3787
g62
(dp3788
g89
g90
ssg71
g3777
sg64
(lp3789
S':'
asbag57
(g78
g59
NtRp3790
(dp3791
g62
(dp3792
sg71
g3777
sg64
(lp3793
g57
(g58
g59
NtRp3794
(dp3795
g62
(dp3796
g70
I3
ssg71
g3790
sg64
(lp3797
S'<class wsgiref.util.FileWrapper at 0x9247adc>'
p3798
asbasbasbag57
(g73
g59
NtRp3799
(dp3800
g62
(dp3801
sg71
g3352
sg64
(lp3802
g57
(g78
g59
NtRp3803
(dp3804
g62
(dp3805
g82
g83
ssg71
g3799
sg64
(lp3806
S'wsgi.input'
p3807
asbag57
(g78
g59
NtRp3808
(dp3809
g62
(dp3810
g89
g90
ssg71
g3799
sg64
(lp3811
S':'
asbag57
(g78
g59
NtRp3812
(dp3813
g62
(dp3814
sg71
g3799
sg64
(lp3815
g57
(g58
g59
NtRp3816
(dp3817
g62
(dp3818
g70
I3
ssg71
g3812
sg64
(lp3819
S'<cStringIO.StringO object at 0xafa2280>'
p3820
asbasbasbag57
(g73
g59
NtRp3821
(dp3822
g62
(dp3823
sg71
g3352
sg64
(lp3824
g57
(g78
g59
NtRp3825
(dp3826
g62
(dp3827
g82
g83
ssg71
g3821
sg64
(lp3828
S'wsgi.multiprocess'
p3829
asbag57
(g78
g59
NtRp3830
(dp3831
g62
(dp3832
g89
g90
ssg71
g3821
sg64
(lp3833
S':'
asbag57
(g78
g59
NtRp3834
(dp3835
g62
(dp3836
sg71
g3821
sg64
(lp3837
g57
(g58
g59
NtRp3838
(dp3839
g62
(dp3840
g70
I3
ssg71
g3834
sg64
(lp3841
g100
asbasbasbag57
(g73
g59
NtRp3842
(dp3843
g62
(dp3844
sg71
g3352
sg64
(lp3845
g57
(g78
g59
NtRp3846
(dp3847
g62
(dp3848
g82
g83
ssg71
g3842
sg64
(lp3849
S'wsgi.multithread'
p3850
asbag57
(g78
g59
NtRp3851
(dp3852
g62
(dp3853
g89
g90
ssg71
g3842
sg64
(lp3854
S':'
asbag57
(g78
g59
NtRp3855
(dp3856
g62
(dp3857
sg71
g3842
sg64
(lp3858
g57
(g58
g59
NtRp3859
(dp3860
g62
(dp3861
g70
I3
ssg71
g3855
sg64
(lp3862
g2603
asbasbasbag57
(g73
g59
NtRp3863
(dp3864
g62
(dp3865
sg71
g3352
sg64
(lp3866
g57
(g78
g59
NtRp3867
(dp3868
g62
(dp3869
g82
g83
ssg71
g3863
sg64
(lp3870
S'wsgi.run_once'
p3871
asbag57
(g78
g59
NtRp3872
(dp3873
g62
(dp3874
g89
g90
ssg71
g3863
sg64
(lp3875
S':'
asbag57
(g78
g59
NtRp3876
(dp3877
g62
(dp3878
sg71
g3863
sg64
(lp3879
g57
(g58
g59
NtRp3880
(dp3881
g62
(dp3882
g70
I3
ssg71
g3876
sg64
(lp3883
g100
asbasbasbag57
(g73
g59
NtRp3884
(dp3885
g62
(dp3886
sg71
g3352
sg64
(lp3887
g57
(g78
g59
NtRp3888
(dp3889
g62
(dp3890
g82
g83
ssg71
g3884
sg64
(lp3891
S'wsgi.url_scheme'
p3892
asbag57
(g78
g59
NtRp3893
(dp3894
g62
(dp3895
g89
g90
ssg71
g3884
sg64
(lp3896
S':'
asbag57
(g78
g59
NtRp3897
(dp3898
g62
(dp3899
sg71
g3884
sg64
(lp3900
g57
(g58
g59
NtRp3901
(dp3902
g62
(dp3903
g70
I3
ssg71
g3897
sg64
(lp3904
g2646
asbasbasbag57
(g73
g59
NtRp3905
(dp3906
g62
(dp3907
sg71
g3352
sg64
(lp3908
g57
(g78
g59
NtRp3909
(dp3910
g62
(dp3911
g82
g83
ssg71
g3905
sg64
(lp3912
S'wsgi.version'
p3913
asbag57
(g78
g59
NtRp3914
(dp3915
g62
(dp3916
g89
g90
ssg71
g3905
sg64
(lp3917
S':'
asbag57
(g78
g59
NtRp3918
(dp3919
g62
(dp3920
sg71
g3905
sg64
(lp3921
g57
(g58
g59
NtRp3922
(dp3923
g62
(dp3924
g70
I3
ssg71
g3918
sg64
(lp3925
S'1'
asbasbasbasbasbasbasbasbasbasbasbasbasbsS'frames'
p3926
(lp3927
(dp3928
S'file'
p3929
S'/home/vishrut/web2py/gluon/restricted.py'
p3930
sS'dump'
p3931
(dp3932
S'environment'
p3933
S"{'A': <class 'gluon.html.A'>, 'Auth': <class 'gluon.tools.Auth'>, 'B': <class 'gluon.html.B'>, 'BEAUTIFY': <class 'gluon.html.BEAUTIFY'>, 'BODY': <class 'gluon.html.BODY'>, 'BR': <class 'gluon.html.BR'>, 'BUTTON': <class 'gluon.html.BUTTON'>, 'CAT': <class 'gluon.html.CAT'>, 'CENTER': <class 'gluon.html.CENTER'>, 'CLEANUP': <class 'gluon.validators.CLEANUP'>, ...}"
p3934
sS'ccode'
p3935
S'<code object <module> at 0x96f0458, file "/home/...cations/astra1/views/default/index.html", line 1>'
p3936
ssS'lnum'
p3937
I205
sS'lines'
p3938
(dp3939
I200
S'    try:'
p3940
sI201
S'        if type(code) == types.CodeType:'
p3941
sI202
S'            ccode = code'
p3942
sI203
S'        else:'
p3943
sI204
S'            ccode = compile2(code,layer)'
p3944
sI205
S'        exec ccode in environment'
p3945
sI206
S'    except HTTP:'
p3946
sI207
S'        raise'
p3947
sI208
S'    except RestrictedError:'
p3948
sI209
S'        # do not encapsulate (obfuscate) the original RestrictedError'
p3949
ssS'call'
p3950
S'(code="response.write(\'<html>\\\\n\', escape=False)\\nleft_si...ponse.write(\'\\\\n</body>\\\\n</html>\\\\n\', escape=False)", environment={\'A\': <class \'gluon.html.A\'>, \'Auth\': <class \'gluon.tools.Auth\'>, \'B\': <class \'gluon.html.B\'>, \'BEAUTIFY\': <class \'gluon.html.BEAUTIFY\'>, \'BODY\': <class \'gluon.html.BODY\'>, \'BR\': <class \'gluon.html.BR\'>, \'BUTTON\': <class \'gluon.html.BUTTON\'>, \'CAT\': <class \'gluon.html.CAT\'>, \'CENTER\': <class \'gluon.html.CENTER\'>, \'CLEANUP\': <class \'gluon.validators.CLEANUP\'>, ...}, layer=\'/home/vishrut/web2py/applications/astra1/views/default/index.html\')'
p3951
sS'func'
p3952
S'restricted'
p3953
sa(dp3954
g3929
S'/home/vishrut/web2py/applications/astra1/views/default/index.html'
p3955
sg3931
(dp3956
sg3937
I91
sg3938
(dp3957
I96
S'    response.write(\'\\n        <div class="four columns">\\n          \', escape=False)'
p3958
sI97
S"    response.write('\\n          <h3>Right Sidebar</h3>\\n          <p></p>\\n          ', escape=False)"
p3959
sI98
S"    response.write('\\n        </div>    \\n        ', escape=False)"
p3960
sI99
S'    pass'
p3961
sI100
S'response.write(\'\\n        \\n      </div><!-- container -->\\n    </div><!-- main -->\\n    \\n    <div class="push"></div>\\n  </div><!-- wrapper -->\\n\\n  <div class="footer">\\n    <div class="container">    \\n      <div class="sixteen columns">\\n        \', escape=False)'
p3962
sI101
S'response.write(\' <!-- this is default footer -->\\n        <div class="footer-content clearfix">\\n          <div class="copyright">\', escape=False)'
p3963
sI82
S"    response.write('\\n        </div>\\n        ', escape=False)"
p3964
sI83
S'    pass'
p3965
sI84
S'response.write(\'\\n        \\n        <div class="\', escape=False)'
p3966
sI85
S'response.write(middle_columns)'
p3967
sI86
S'response.write(\' columns center">\\n          \', escape=False)'
p3968
sI87
S"response.write('\\n          ', escape=False)"
p3969
sI88
S"response.write('\\n<div>\\n', escape=False)"
p3970
sI89
S'response.write(form)'
p3971
sI90
S"response.write('\\n</div>\\n', escape=False)"
p3972
sI91
S"response.write(VIDEO(_src=URL('static','CVSRelease.ogv'), _alt='tets'))"
p3973
sI92
S'response.write(\'\\n<!--  <video width="320" height="240" controls="controls">    \\n         <source src="~/CVSRelease.ogv" type="video/ogg">\\n  </video>-->\\n</html>\\n\', escape=False)'
p3974
sI93
S"response.write('\\n          ', escape=False)"
p3975
sI94
S"response.write('\\n        </div>\\n        \\n        ', escape=False)"
p3976
sI95
S'if right_sidebar_enabled:'
p3977
ssg3950
S'()'
p3978
sg3952
S'<module>'
p3979
sasS'pyver'
p3980
S'Python 2.7.2+: /usr/bin/python'
p3981
sS'session'
p3982
g57
(g58
g59
NtRp3983
(dp3984
g62
(dp3985
sg64
(lp3986
g57
(g66
g59
NtRp3987
(dp3988
g62
(dp3989
g70
I5
ssg71
Nsg64
(lp3990
g57
(g73
g59
NtRp3991
(dp3992
g62
(dp3993
sg71
g3987
sg64
(lp3994
g57
(g78
g59
NtRp3995
(dp3996
g62
(dp3997
g82
g83
ssg71
g3991
sg64
(lp3998
S'last_query'
p3999
asbag57
(g78
g59
NtRp4000
(dp4001
g62
(dp4002
g89
g90
ssg71
g3991
sg64
(lp4003
S':'
asbag57
(g78
g59
NtRp4004
(dp4005
g62
(dp4006
sg71
g3991
sg64
(lp4007
g57
(g58
g59
NtRp4008
(dp4009
g62
(dp4010
g70
I5
ssg71
g4004
sg64
(lp4011
S'db.kids.id>0'
p4012
asbasbasbasbasbsS'etype'
p4013
S"<type 'exceptions.NameError'>"
p4014
sS'date'
p4015
S'Sun Oct 14 18:02:42 2012'
p4016
sS'response'
p4017
g57
(g58
g59
NtRp4018
(dp4019
g62
(dp4020
sg64
(lp4021
g57
(g66
g59
NtRp4022
(dp4023
g62
(dp4024
g70
I5
ssg71
Nsg64
(lp4025
g57
(g73
g59
NtRp4026
(dp4027
g62
(dp4028
sg71
g4022
sg64
(lp4029
g57
(g78
g59
NtRp4030
(dp4031
g62
(dp4032
g82
g83
ssg71
g4026
sg64
(lp4033
g155
asbag57
(g78
g59
NtRp4034
(dp4035
g62
(dp4036
g89
g90
ssg71
g4026
sg64
(lp4037
S':'
asbag57
(g78
g59
NtRp4038
(dp4039
g62
(dp4040
sg71
g4026
sg64
(lp4041
g57
(g58
g59
NtRp4042
(dp4043
g62
(dp4044
g70
I5
ssg71
g4038
sg64
(lp4045
S'<cStringIO.StringO object at 0xabebc60>'
p4046
asbasbasbag57
(g73
g59
NtRp4047
(dp4048
g62
(dp4049
sg71
g4022
sg64
(lp4050
g57
(g78
g59
NtRp4051
(dp4052
g62
(dp4053
g82
g83
ssg71
g4047
sg64
(lp4054
g221
asbag57
(g78
g59
NtRp4055
(dp4056
g62
(dp4057
g89
g90
ssg71
g4047
sg64
(lp4058
S':'
asbag57
(g78
g59
NtRp4059
(dp4060
g62
(dp4061
sg71
g4047
sg64
(lp4062
g57
(g58
g59
NtRp4063
(dp4064
g62
(dp4065
g70
I5
ssg71
g4059
sg64
(lp4066
g57
(g66
g59
NtRp4067
(dp4068
g62
(dp4069
g70
I4
ssg71
Nsg64
(lp4070
g57
(g73
g59
NtRp4071
(dp4072
g62
(dp4073
sg71
g4067
sg64
(lp4074
g57
(g78
g59
NtRp4075
(dp4076
g62
(dp4077
g82
g83
ssg71
g4071
sg64
(lp4078
S'session_id_astra1'
p4079
asbag57
(g78
g59
NtRp4080
(dp4081
g62
(dp4082
g89
g90
ssg71
g4071
sg64
(lp4083
S':'
asbag57
(g78
g59
NtRp4084
(dp4085
g62
(dp4086
sg71
g4071
sg64
(lp4087
g57
(g58
g59
NtRp4088
(dp4089
g62
(dp4090
g70
I4
ssg71
g4084
sg64
(lp4091
g57
(g66
g59
NtRp4092
(dp4093
g62
(dp4094
g70
I3
ssg71
Nsg64
(lp4095
g57
(g73
g59
NtRp4096
(dp4097
g62
(dp4098
sg71
g4092
sg64
(lp4099
g57
(g78
g59
NtRp4100
(dp4101
g62
(dp4102
g82
g83
ssg71
g4096
sg64
(lp4103
g271
asbag57
(g78
g59
NtRp4104
(dp4105
g62
(dp4106
g89
g90
ssg71
g4096
sg64
(lp4107
S':'
asbag57
(g78
g59
NtRp4108
(dp4109
g62
(dp4110
sg71
g4096
sg64
(lp4111
g57
(g58
g59
NtRp4112
(dp4113
g62
(dp4114
g70
I3
ssg71
g4108
sg64
(lp4115
S''
asbasbasbag57
(g73
g59
NtRp4116
(dp4117
g62
(dp4118
sg71
g4092
sg64
(lp4119
g57
(g78
g59
NtRp4120
(dp4121
g62
(dp4122
g82
g83
ssg71
g4116
sg64
(lp4123
g292
asbag57
(g78
g59
NtRp4124
(dp4125
g62
(dp4126
g89
g90
ssg71
g4116
sg64
(lp4127
S':'
asbag57
(g78
g59
NtRp4128
(dp4129
g62
(dp4130
sg71
g4116
sg64
(lp4131
g57
(g58
g59
NtRp4132
(dp4133
g62
(dp4134
g70
I3
ssg71
g4128
sg64
(lp4135
S''
asbasbasbag57
(g73
g59
NtRp4136
(dp4137
g62
(dp4138
sg71
g4092
sg64
(lp4139
g57
(g78
g59
NtRp4140
(dp4141
g62
(dp4142
g82
g83
ssg71
g4136
sg64
(lp4143
g313
asbag57
(g78
g59
NtRp4144
(dp4145
g62
(dp4146
g89
g90
ssg71
g4136
sg64
(lp4147
S':'
asbag57
(g78
g59
NtRp4148
(dp4149
g62
(dp4150
sg71
g4136
sg64
(lp4151
g57
(g58
g59
NtRp4152
(dp4153
g62
(dp4154
g70
I3
ssg71
g4148
sg64
(lp4155
S''
asbasbasbag57
(g73
g59
NtRp4156
(dp4157
g62
(dp4158
sg71
g4092
sg64
(lp4159
g57
(g78
g59
NtRp4160
(dp4161
g62
(dp4162
g82
g83
ssg71
g4156
sg64
(lp4163
g334
asbag57
(g78
g59
NtRp4164
(dp4165
g62
(dp4166
g89
g90
ssg71
g4156
sg64
(lp4167
S':'
asbag57
(g78
g59
NtRp4168
(dp4169
g62
(dp4170
sg71
g4156
sg64
(lp4171
g57
(g58
g59
NtRp4172
(dp4173
g62
(dp4174
g70
I3
ssg71
g4168
sg64
(lp4175
S''
asbasbasbag57
(g73
g59
NtRp4176
(dp4177
g62
(dp4178
sg71
g4092
sg64
(lp4179
g57
(g78
g59
NtRp4180
(dp4181
g62
(dp4182
g82
g83
ssg71
g4176
sg64
(lp4183
g355
asbag57
(g78
g59
NtRp4184
(dp4185
g62
(dp4186
g89
g90
ssg71
g4176
sg64
(lp4187
S':'
asbag57
(g78
g59
NtRp4188
(dp4189
g62
(dp4190
sg71
g4176
sg64
(lp4191
g57
(g58
g59
NtRp4192
(dp4193
g62
(dp4194
g70
I3
ssg71
g4188
sg64
(lp4195
S''
asbasbasbag57
(g73
g59
NtRp4196
(dp4197
g62
(dp4198
sg71
g4092
sg64
(lp4199
g57
(g78
g59
NtRp4200
(dp4201
g62
(dp4202
g82
g83
ssg71
g4196
sg64
(lp4203
g376
asbag57
(g78
g59
NtRp4204
(dp4205
g62
(dp4206
g89
g90
ssg71
g4196
sg64
(lp4207
S':'
asbag57
(g78
g59
NtRp4208
(dp4209
g62
(dp4210
sg71
g4196
sg64
(lp4211
g57
(g58
g59
NtRp4212
(dp4213
g62
(dp4214
g70
I3
ssg71
g4208
sg64
(lp4215
S'/'
asbasbasbag57
(g73
g59
NtRp4216
(dp4217
g62
(dp4218
sg71
g4092
sg64
(lp4219
g57
(g78
g59
NtRp4220
(dp4221
g62
(dp4222
g82
g83
ssg71
g4216
sg64
(lp4223
g397
asbag57
(g78
g59
NtRp4224
(dp4225
g62
(dp4226
g89
g90
ssg71
g4216
sg64
(lp4227
S':'
asbag57
(g78
g59
NtRp4228
(dp4229
g62
(dp4230
sg71
g4216
sg64
(lp4231
g57
(g58
g59
NtRp4232
(dp4233
g62
(dp4234
g70
I3
ssg71
g4228
sg64
(lp4235
S''
asbasbasbag57
(g73
g59
NtRp4236
(dp4237
g62
(dp4238
sg71
g4092
sg64
(lp4239
g57
(g78
g59
NtRp4240
(dp4241
g62
(dp4242
g82
g83
ssg71
g4236
sg64
(lp4243
g418
asbag57
(g78
g59
NtRp4244
(dp4245
g62
(dp4246
g89
g90
ssg71
g4236
sg64
(lp4247
S':'
asbag57
(g78
g59
NtRp4248
(dp4249
g62
(dp4250
sg71
g4236
sg64
(lp4251
g57
(g58
g59
NtRp4252
(dp4253
g62
(dp4254
g70
I3
ssg71
g4248
sg64
(lp4255
S''
asbasbasbasbasbasbasbasbasbasbasbag57
(g73
g59
NtRp4256
(dp4257
g62
(dp4258
sg71
g4022
sg64
(lp4259
g57
(g78
g59
NtRp4260
(dp4261
g62
(dp4262
g82
g83
ssg71
g4256
sg64
(lp4263
S'delimiters'
p4264
asbag57
(g78
g59
NtRp4265
(dp4266
g62
(dp4267
g89
g90
ssg71
g4256
sg64
(lp4268
S':'
asbag57
(g78
g59
NtRp4269
(dp4270
g62
(dp4271
sg71
g4256
sg64
(lp4272
g57
(g58
g59
NtRp4273
(dp4274
g62
(dp4275
g70
I5
ssg71
g4269
sg64
(lp4276
g57
(g66
g59
NtRp4277
(dp4278
g62
(dp4279
g70
I4
ssg71
Nsg64
(lp4280
g57
(g73
g59
NtRp4281
(dp4282
g62
(dp4283
sg71
g4277
sg64
(lp4284
g57
(g78
g59
NtRp4285
(dp4286
g62
(dp4287
sg71
g4281
sg64
(lp4288
g57
(g58
g59
NtRp4289
(dp4290
g62
(dp4291
g70
I4
ssg71
g4285
sg64
(lp4292
S'{{'
p4293
asbasbasbag57
(g73
g59
NtRp4294
(dp4295
g62
(dp4296
sg71
g4277
sg64
(lp4297
g57
(g78
g59
NtRp4298
(dp4299
g62
(dp4300
sg71
g4294
sg64
(lp4301
g57
(g58
g59
NtRp4302
(dp4303
g62
(dp4304
g70
I4
ssg71
g4298
sg64
(lp4305
S'}}'
p4306
asbasbasbasbasbasbasbag57
(g73
g59
NtRp4307
(dp4308
g62
(dp4309
sg71
g4022
sg64
(lp4310
g57
(g78
g59
NtRp4311
(dp4312
g62
(dp4313
g82
g83
ssg71
g4307
sg64
(lp4314
S'files'
p4315
asbag57
(g78
g59
NtRp4316
(dp4317
g62
(dp4318
g89
g90
ssg71
g4307
sg64
(lp4319
S':'
asbag57
(g78
g59
NtRp4320
(dp4321
g62
(dp4322
sg71
g4307
sg64
(lp4323
g57
(g58
g59
NtRp4324
(dp4325
g62
(dp4326
g70
I5
ssg71
g4320
sg64
(lp4327
g57
(g66
g59
NtRp4328
(dp4329
g62
(dp4330
g70
I4
ssg71
Nsg64
(lp4331
g57
(g73
g59
NtRp4332
(dp4333
g62
(dp4334
sg71
g4328
sg64
(lp4335
g57
(g78
g59
NtRp4336
(dp4337
g62
(dp4338
sg71
g4332
sg64
(lp4339
g57
(g58
g59
NtRp4340
(dp4341
g62
(dp4342
g70
I4
ssg71
g4336
sg64
(lp4343
S'/astra1/static/js/jquery.js'
p4344
asbasbasbag57
(g73
g59
NtRp4345
(dp4346
g62
(dp4347
sg71
g4328
sg64
(lp4348
g57
(g78
g59
NtRp4349
(dp4350
g62
(dp4351
sg71
g4345
sg64
(lp4352
g57
(g58
g59
NtRp4353
(dp4354
g62
(dp4355
g70
I4
ssg71
g4349
sg64
(lp4356
S'/astra1/static/css/calendar.css'
p4357
asbasbasbag57
(g73
g59
NtRp4358
(dp4359
g62
(dp4360
sg71
g4328
sg64
(lp4361
g57
(g78
g59
NtRp4362
(dp4363
g62
(dp4364
sg71
g4358
sg64
(lp4365
g57
(g58
g59
NtRp4366
(dp4367
g62
(dp4368
g70
I4
ssg71
g4362
sg64
(lp4369
S'/astra1/static/js/calendar.js'
p4370
asbasbasbag57
(g73
g59
NtRp4371
(dp4372
g62
(dp4373
sg71
g4328
sg64
(lp4374
g57
(g78
g59
NtRp4375
(dp4376
g62
(dp4377
sg71
g4371
sg64
(lp4378
g57
(g58
g59
NtRp4379
(dp4380
g62
(dp4381
g70
I4
ssg71
g4375
sg64
(lp4382
S'/astra1/static/js/web2py.js'
p4383
asbasbasbag57
(g73
g59
NtRp4384
(dp4385
g62
(dp4386
sg71
g4328
sg64
(lp4387
g57
(g78
g59
NtRp4388
(dp4389
g62
(dp4390
sg71
g4384
sg64
(lp4391
g57
(g58
g59
NtRp4392
(dp4393
g62
(dp4394
g70
I4
ssg71
g4388
sg64
(lp4395
S'/astra1/static/css/skeleton.css'
p4396
asbasbasbag57
(g73
g59
NtRp4397
(dp4398
g62
(dp4399
sg71
g4328
sg64
(lp4400
g57
(g78
g59
NtRp4401
(dp4402
g62
(dp4403
sg71
g4397
sg64
(lp4404
g57
(g58
g59
NtRp4405
(dp4406
g62
(dp4407
g70
I4
ssg71
g4401
sg64
(lp4408
S'/astra1/static/css/web2py.css'
p4409
asbasbasbag57
(g73
g59
NtRp4410
(dp4411
g62
(dp4412
sg71
g4328
sg64
(lp4413
g57
(g78
g59
NtRp4414
(dp4415
g62
(dp4416
sg71
g4410
sg64
(lp4417
g57
(g58
g59
NtRp4418
(dp4419
g62
(dp4420
g70
I4
ssg71
g4414
sg64
(lp4421
S'/astra1/static/css/superfish.css'
p4422
asbasbasbag57
(g73
g59
NtRp4423
(dp4424
g62
(dp4425
sg71
g4328
sg64
(lp4426
g57
(g78
g59
NtRp4427
(dp4428
g62
(dp4429
sg71
g4423
sg64
(lp4430
g57
(g58
g59
NtRp4431
(dp4432
g62
(dp4433
g70
I4
ssg71
g4427
sg64
(lp4434
S'/astra1/static/js/superfish.js'
p4435
asbasbasbasbasbasbasbag57
(g73
g59
NtRp4436
(dp4437
g62
(dp4438
sg71
g4022
sg64
(lp4439
g57
(g78
g59
NtRp4440
(dp4441
g62
(dp4442
g82
g83
ssg71
g4436
sg64
(lp4443
S'flash'
p4444
asbag57
(g78
g59
NtRp4445
(dp4446
g62
(dp4447
g89
g90
ssg71
g4436
sg64
(lp4448
S':'
asbag57
(g78
g59
NtRp4449
(dp4450
g62
(dp4451
sg71
g4436
sg64
(lp4452
g57
(g58
g59
NtRp4453
(dp4454
g62
(dp4455
g70
I5
ssg71
g4449
sg64
(lp4456
S''
asbasbasbag57
(g73
g59
NtRp4457
(dp4458
g62
(dp4459
sg71
g4022
sg64
(lp4460
g57
(g78
g59
NtRp4461
(dp4462
g62
(dp4463
g82
g83
ssg71
g4457
sg64
(lp4464
S'generic_patterns'
p4465
asbag57
(g78
g59
NtRp4466
(dp4467
g62
(dp4468
g89
g90
ssg71
g4457
sg64
(lp4469
S':'
asbag57
(g78
g59
NtRp4470
(dp4471
g62
(dp4472
sg71
g4457
sg64
(lp4473
g57
(g58
g59
NtRp4474
(dp4475
g62
(dp4476
g70
I5
ssg71
g4470
sg64
(lp4477
g57
(g66
g59
NtRp4478
(dp4479
g62
(dp4480
g70
I4
ssg71
Nsg64
(lp4481
g57
(g73
g59
NtRp4482
(dp4483
g62
(dp4484
sg71
g4478
sg64
(lp4485
g57
(g78
g59
NtRp4486
(dp4487
g62
(dp4488
sg71
g4482
sg64
(lp4489
g57
(g58
g59
NtRp4490
(dp4491
g62
(dp4492
g70
I4
ssg71
g4486
sg64
(lp4493
S'*'
asbasbasbasbasbasbasbag57
(g73
g59
NtRp4494
(dp4495
g62
(dp4496
sg71
g4022
sg64
(lp4497
g57
(g78
g59
NtRp4498
(dp4499
g62
(dp4500
g82
g83
ssg71
g4494
sg64
(lp4501
S'headers'
p4502
asbag57
(g78
g59
NtRp4503
(dp4504
g62
(dp4505
g89
g90
ssg71
g4494
sg64
(lp4506
S':'
asbag57
(g78
g59
NtRp4507
(dp4508
g62
(dp4509
sg71
g4494
sg64
(lp4510
g57
(g58
g59
NtRp4511
(dp4512
g62
(dp4513
g70
I5
ssg71
g4507
sg64
(lp4514
g57
(g66
g59
NtRp4515
(dp4516
g62
(dp4517
g70
I4
ssg71
Nsg64
(lp4518
g57
(g73
g59
NtRp4519
(dp4520
g62
(dp4521
sg71
g4515
sg64
(lp4522
g57
(g78
g59
NtRp4523
(dp4524
g62
(dp4525
g82
g83
ssg71
g4519
sg64
(lp4526
S'Cache-Control'
p4527
asbag57
(g78
g59
NtRp4528
(dp4529
g62
(dp4530
g89
g90
ssg71
g4519
sg64
(lp4531
S':'
asbag57
(g78
g59
NtRp4532
(dp4533
g62
(dp4534
sg71
g4519
sg64
(lp4535
g57
(g58
g59
NtRp4536
(dp4537
g62
(dp4538
g70
I4
ssg71
g4532
sg64
(lp4539
S'no-store, no-cache, must-revalidate, post-check=0, pre-check=0'
p4540
asbasbasbag57
(g73
g59
NtRp4541
(dp4542
g62
(dp4543
sg71
g4515
sg64
(lp4544
g57
(g78
g59
NtRp4545
(dp4546
g62
(dp4547
g82
g83
ssg71
g4541
sg64
(lp4548
S'Content-Type'
p4549
asbag57
(g78
g59
NtRp4550
(dp4551
g62
(dp4552
g89
g90
ssg71
g4541
sg64
(lp4553
S':'
asbag57
(g78
g59
NtRp4554
(dp4555
g62
(dp4556
sg71
g4541
sg64
(lp4557
g57
(g58
g59
NtRp4558
(dp4559
g62
(dp4560
g70
I4
ssg71
g4554
sg64
(lp4561
S'text/html; charset=utf-8'
p4562
asbasbasbag57
(g73
g59
NtRp4563
(dp4564
g62
(dp4565
sg71
g4515
sg64
(lp4566
g57
(g78
g59
NtRp4567
(dp4568
g62
(dp4569
g82
g83
ssg71
g4563
sg64
(lp4570
S'Expires'
p4571
asbag57
(g78
g59
NtRp4572
(dp4573
g62
(dp4574
g89
g90
ssg71
g4563
sg64
(lp4575
S':'
asbag57
(g78
g59
NtRp4576
(dp4577
g62
(dp4578
sg71
g4563
sg64
(lp4579
g57
(g58
g59
NtRp4580
(dp4581
g62
(dp4582
g70
I4
ssg71
g4576
sg64
(lp4583
S'Sun, 14 Oct 2012 13:02:42 GMT'
p4584
asbasbasbag57
(g73
g59
NtRp4585
(dp4586
g62
(dp4587
sg71
g4515
sg64
(lp4588
g57
(g78
g59
NtRp4589
(dp4590
g62
(dp4591
g82
g83
ssg71
g4585
sg64
(lp4592
S'Pragma'
p4593
asbag57
(g78
g59
NtRp4594
(dp4595
g62
(dp4596
g89
g90
ssg71
g4585
sg64
(lp4597
S':'
asbag57
(g78
g59
NtRp4598
(dp4599
g62
(dp4600
sg71
g4585
sg64
(lp4601
g57
(g58
g59
NtRp4602
(dp4603
g62
(dp4604
g70
I4
ssg71
g4598
sg64
(lp4605
S'no-cache'
p4606
asbasbasbag57
(g73
g59
NtRp4607
(dp4608
g62
(dp4609
sg71
g4515
sg64
(lp4610
g57
(g78
g59
NtRp4611
(dp4612
g62
(dp4613
g82
g83
ssg71
g4607
sg64
(lp4614
S'X-Powered-By'
p4615
asbag57
(g78
g59
NtRp4616
(dp4617
g62
(dp4618
g89
g90
ssg71
g4607
sg64
(lp4619
S':'
asbag57
(g78
g59
NtRp4620
(dp4621
g62
(dp4622
sg71
g4607
sg64
(lp4623
g57
(g58
g59
NtRp4624
(dp4625
g62
(dp4626
g70
I4
ssg71
g4620
sg64
(lp4627
S'web2py'
p4628
asbasbasbasbasbasbasbag57
(g73
g59
NtRp4629
(dp4630
g62
(dp4631
sg71
g4022
sg64
(lp4632
g57
(g78
g59
NtRp4633
(dp4634
g62
(dp4635
g82
g83
ssg71
g4629
sg64
(lp4636
S'menu'
p4637
asbag57
(g78
g59
NtRp4638
(dp4639
g62
(dp4640
g89
g90
ssg71
g4629
sg64
(lp4641
S':'
asbag57
(g78
g59
NtRp4642
(dp4643
g62
(dp4644
sg71
g4629
sg64
(lp4645
g57
(g58
g59
NtRp4646
(dp4647
g62
(dp4648
g70
I5
ssg71
g4642
sg64
(lp4649
g57
(g66
g59
NtRp4650
(dp4651
g62
(dp4652
g70
I4
ssg71
Nsg64
(lp4653
g57
(g73
g59
NtRp4654
(dp4655
g62
(dp4656
sg71
g4650
sg64
(lp4657
g57
(g78
g59
NtRp4658
(dp4659
g62
(dp4660
sg71
g4654
sg64
(lp4661
g57
(g58
g59
NtRp4662
(dp4663
g62
(dp4664
g70
I4
ssg71
g4658
sg64
(lp4665
g57
(g66
g59
NtRp4666
(dp4667
g62
(dp4668
g70
I3
ssg71
Nsg64
(lp4669
g57
(g73
g59
NtRp4670
(dp4671
g62
(dp4672
sg71
g4666
sg64
(lp4673
g57
(g78
g59
NtRp4674
(dp4675
g62
(dp4676
sg71
g4670
sg64
(lp4677
g57
(g58
g59
NtRp4678
(dp4679
g62
(dp4680
g70
I3
ssg71
g4674
sg64
(lp4681
cgluon.languages
lazyT_unpickle
p4682
(S't\x04\x00\x00\x00Home'
tRp4683
asbasbasbag57
(g73
g59
NtRp4684
(dp4685
g62
(dp4686
sg71
g4666
sg64
(lp4687
g57
(g78
g59
NtRp4688
(dp4689
g62
(dp4690
sg71
g4684
sg64
(lp4691
g57
(g58
g59
NtRp4692
(dp4693
g62
(dp4694
g70
I3
ssg71
g4688
sg64
(lp4695
g100
asbasbasbag57
(g73
g59
NtRp4696
(dp4697
g62
(dp4698
sg71
g4666
sg64
(lp4699
g57
(g78
g59
NtRp4700
(dp4701
g62
(dp4702
sg71
g4696
sg64
(lp4703
g57
(g58
g59
NtRp4704
(dp4705
g62
(dp4706
g70
I3
ssg71
g4700
sg64
(lp4707
S'/astra1/default/index'
p4708
asbasbasbag57
(g73
g59
NtRp4709
(dp4710
g62
(dp4711
sg71
g4666
sg64
(lp4712
g57
(g78
g59
NtRp4713
(dp4714
g62
(dp4715
sg71
g4709
sg64
(lp4716
g57
(g58
g59
NtRp4717
(dp4718
g62
(dp4719
g70
I3
ssg71
g4713
sg64
(lp4720
g57
(g66
g59
NtRp4721
(dp4722
g62
(dp4723
g70
I2
ssg71
Nsg64
(lp4724
sbasbasbasbasbasbasbasbag57
(g73
g59
NtRp4725
(dp4726
g62
(dp4727
sg71
g4650
sg64
(lp4728
g57
(g78
g59
NtRp4729
(dp4730
g62
(dp4731
sg71
g4725
sg64
(lp4732
g57
(g58
g59
NtRp4733
(dp4734
g62
(dp4735
g70
I4
ssg71
g4729
sg64
(lp4736
g57
(g66
g59
NtRp4737
(dp4738
g62
(dp4739
g70
I3
ssg71
Nsg64
(lp4740
g57
(g73
g59
NtRp4741
(dp4742
g62
(dp4743
sg71
g4737
sg64
(lp4744
g57
(g78
g59
NtRp4745
(dp4746
g62
(dp4747
sg71
g4741
sg64
(lp4748
g57
(g58
g59
NtRp4749
(dp4750
g62
(dp4751
g70
I3
ssg71
g4745
sg64
(lp4752
g57
(cgluon.html
SPAN
p4753
g59
NtRp4754
(dp4755
g62
(dp4756
g82
S'color:yellow'
p4757
ssg71
g57
(cgluon.html
A
p4758
g59
NtRp4759
(dp4760
g62
(dp4761
S'_onclick'
p4762
S'javascript:void(0);return false;'
p4763
sS'_href'
p4764
S'#'
ssg71
g57
(cgluon.html
LI
p4765
g59
NtRp4766
(dp4767
g62
(dp4768
S'_class'
p4769
S'web2py-menu-expand'
p4770
ssg71
g57
(cgluon.html
UL
p4771
g59
NtRp4772
(dp4773
g62
(dp4774
S'mobile'
p4775
I00
sS'li_class'
p4776
g4770
sg4769
S'sf-menu'
p4777
sS'ul_class'
p4778
S'web2py-menu-vertical'
p4779
sS'li_active'
p4780
S'web2py-menu-active'
p4781
ssg71
Nsg64
(lp4782
g57
(g4765
g59
NtRp4783
(dp4784
g62
(dp4785
sg71
g4772
sg64
(lp4786
g57
(g4758
g59
NtRp4787
(dp4788
g62
(dp4789
g4764
g4708
ssg71
g4783
sg64
(lp4790
g4683
asbasbag4766
asbsg64
(lp4791
g4759
ag57
(g4771
g59
NtRp4792
(dp4793
g62
(dp4794
g4769
g4779
ssg71
g4766
sg64
(lp4795
g57
(g4765
g59
NtRp4796
(dp4797
g62
(dp4798
sg71
g4792
sg64
(lp4799
g57
(g4758
g59
NtRp4800
(dp4801
g62
(dp4802
g4764
S'/admin/default/site'
p4803
ssg71
g4796
sg64
(lp4804
g4682
(S's\x08\x00\x00\x00My Sites'
tRp4805
asbasbag57
(g4765
g59
NtRp4806
(dp4807
g62
(dp4808
g4769
g4770
ssg71
g4792
sg64
(lp4809
g57
(g4758
g59
NtRp4810
(dp4811
g62
(dp4812
g4764
S'/admin/default/design/astra1'
p4813
ssg71
g4806
sg64
(lp4814
g4682
(S's\x08\x00\x00\x00This App'
tRp4815
asbag57
(g4771
g59
NtRp4816
(dp4817
g62
(dp4818
g4769
g4779
ssg71
g4806
sg64
(lp4819
g57
(g4765
g59
NtRp4820
(dp4821
g62
(dp4822
sg71
g4816
sg64
(lp4823
g57
(g4758
g59
NtRp4824
(dp4825
g62
(dp4826
g4764
S'/admin/default/edit/astra1/controllers/default.py'
p4827
ssg71
g4820
sg64
(lp4828
g4682
(S't\n\x00\x00\x00Controller'
tRp4829
asbasbag57
(g4765
g59
NtRp4830
(dp4831
g62
(dp4832
sg71
g4816
sg64
(lp4833
g57
(g4758
g59
NtRp4834
(dp4835
g62
(dp4836
g4764
S'/admin/default/edit/astra1/views/default/index.html'
p4837
ssg71
g4830
sg64
(lp4838
g4682
(S't\x04\x00\x00\x00View'
tRp4839
asbasbag57
(g4765
g59
NtRp4840
(dp4841
g62
(dp4842
sg71
g4816
sg64
(lp4843
g57
(g4758
g59
NtRp4844
(dp4845
g62
(dp4846
g4764
S'/admin/default/edit/astra1/views/layout.html'
p4847
ssg71
g4840
sg64
(lp4848
g4682
(S't\x06\x00\x00\x00Layout'
tRp4849
asbasbag57
(g4765
g59
NtRp4850
(dp4851
g62
(dp4852
sg71
g4816
sg64
(lp4853
g57
(g4758
g59
NtRp4854
(dp4855
g62
(dp4856
g4764
S'/admin/default/edit/astra1/static/css/web2py.css'
p4857
ssg71
g4850
sg64
(lp4858
g4682
(S't\n\x00\x00\x00Stylesheet'
tRp4859
asbasbag57
(g4765
g59
NtRp4860
(dp4861
g62
(dp4862
sg71
g4816
sg64
(lp4863
g57
(g4758
g59
NtRp4864
(dp4865
g62
(dp4866
g4764
S'/admin/default/edit/astra1/models/db.py'
p4867
ssg71
g4860
sg64
(lp4868
g4682
(S's\x08\x00\x00\x00DB Model'
tRp4869
asbasbag57
(g4765
g59
NtRp4870
(dp4871
g62
(dp4872
sg71
g4816
sg64
(lp4873
g57
(g4758
g59
NtRp4874
(dp4875
g62
(dp4876
g4764
S'/admin/default/edit/astra1/models/menu.py'
p4877
ssg71
g4870
sg64
(lp4878
g4682
(S's\n\x00\x00\x00Menu Model'
tRp4879
asbasbag57
(g4765
g59
NtRp4880
(dp4881
g62
(dp4882
sg71
g4816
sg64
(lp4883
g57
(g4758
g59
NtRp4884
(dp4885
g62
(dp4886
g4764
S'/astra1/appadmin/index'
p4887
ssg71
g4880
sg64
(lp4888
g4682
(S't\x08\x00\x00\x00Database'
tRp4889
asbasbag57
(g4765
g59
NtRp4890
(dp4891
g62
(dp4892
sg71
g4816
sg64
(lp4893
g57
(g4758
g59
NtRp4894
(dp4895
g62
(dp4896
g4764
S'/admin/default/errors/astra1'
p4897
ssg71
g4890
sg64
(lp4898
g4682
(S't\x06\x00\x00\x00Errors'
tRp4899
asbasbag57
(g4765
g59
NtRp4900
(dp4901
g62
(dp4902
sg71
g4816
sg64
(lp4903
g57
(g4758
g59
NtRp4904
(dp4905
g62
(dp4906
g4764
S'/admin/default/about/astra1'
p4907
ssg71
g4900
sg64
(lp4908
g4682
(S't\x05\x00\x00\x00About'
tRp4909
asbasbasbasbag57
(g4765
g59
NtRp4910
(dp4911
g62
(dp4912
g4769
g4770
ssg71
g4792
sg64
(lp4913
g57
(g4758
g59
NtRp4914
(dp4915
g62
(dp4916
g4764
S'http://www.web2py.com'
p4917
ssg71
g4910
sg64
(lp4918
S'web2py.com'
p4919
asbag57
(g4771
g59
NtRp4920
(dp4921
g62
(dp4922
g4769
g4779
ssg71
g4910
sg64
(lp4923
g57
(g4765
g59
NtRp4924
(dp4925
g62
(dp4926
sg71
g4920
sg64
(lp4927
g57
(g4758
g59
NtRp4928
(dp4929
g62
(dp4930
g4764
S'http://www.web2py.com/examples/default/download'
p4931
ssg71
g4924
sg64
(lp4932
g4682
(S't\x08\x00\x00\x00Download'
tRp4933
asbasbag57
(g4765
g59
NtRp4934
(dp4935
g62
(dp4936
sg71
g4920
sg64
(lp4937
g57
(g4758
g59
NtRp4938
(dp4939
g62
(dp4940
g4764
S'http://www.web2py.com/examples/default/support'
p4941
ssg71
g4934
sg64
(lp4942
g4682
(S't\x07\x00\x00\x00Support'
tRp4943
asbasbag57
(g4765
g59
NtRp4944
(dp4945
g62
(dp4946
sg71
g4920
sg64
(lp4947
g57
(g4758
g59
NtRp4948
(dp4949
g62
(dp4950
g4764
S'http://web2py.com/demo_admin'
p4951
ssg71
g4944
sg64
(lp4952
g4682
(S't\x04\x00\x00\x00Demo'
tRp4953
asbasbag57
(g4765
g59
NtRp4954
(dp4955
g62
(dp4956
sg71
g4920
sg64
(lp4957
g57
(g4758
g59
NtRp4958
(dp4959
g62
(dp4960
g4764
S'http://web2py.com/examples/default/examples'
p4961
ssg71
g4954
sg64
(lp4962
g4682
(S's\x0e\x00\x00\x00Quick Examples'
tRp4963
asbasbag57
(g4765
g59
NtRp4964
(dp4965
g62
(dp4966
sg71
g4920
sg64
(lp4967
g57
(g4758
g59
NtRp4968
(dp4969
g62
(dp4970
g4764
S'http://web2py.com/AlterEgo'
p4971
ssg71
g4964
sg64
(lp4972
g4682
(S't\x03\x00\x00\x00FAQ'
tRp4973
asbasbag57
(g4765
g59
NtRp4974
(dp4975
g62
(dp4976
sg71
g4920
sg64
(lp4977
g57
(g4758
g59
NtRp4978
(dp4979
g62
(dp4980
g4764
S'http://www.web2py.com/examples/default/videos/'
p4981
ssg71
g4974
sg64
(lp4982
g4682
(S't\x06\x00\x00\x00Videos'
tRp4983
asbasbag57
(g4765
g59
NtRp4984
(dp4985
g62
(dp4986
sg71
g4920
sg64
(lp4987
g57
(g4758
g59
NtRp4988
(dp4989
g62
(dp4990
g4764
S'http://web2py.com/appliances'
p4991
ssg71
g4984
sg64
(lp4992
g4682
(S's\x11\x00\x00\x00Free Applications'
tRp4993
asbasbag57
(g4765
g59
NtRp4994
(dp4995
g62
(dp4996
sg71
g4920
sg64
(lp4997
g57
(g4758
g59
NtRp4998
(dp4999
g62
(dp5000
g4764
S'http://web2py.com/plugins'
p5001
ssg71
g4994
sg64
(lp5002
g4682
(S't\x07\x00\x00\x00Plugins'
tRp5003
asbasbag57
(g4765
g59
NtRp5004
(dp5005
g62
(dp5006
sg71
g4920
sg64
(lp5007
g57
(g4758
g59
NtRp5008
(dp5009
g62
(dp5010
g4764
S'http://web2py.com/layouts'
p5011
ssg71
g5004
sg64
(lp5012
g4682
(S't\x07\x00\x00\x00Layouts'
tRp5013
asbasbag57
(g4765
g59
NtRp5014
(dp5015
g62
(dp5016
sg71
g4920
sg64
(lp5017
g57
(g4758
g59
NtRp5018
(dp5019
g62
(dp5020
g4764
S'http://web2pyslices.com/'
p5021
ssg71
g5014
sg64
(lp5022
g4682
(S't\x07\x00\x00\x00Recipes'
tRp5023
asbasbag57
(g4765
g59
NtRp5024
(dp5025
g62
(dp5026
sg71
g4920
sg64
(lp5027
g57
(g4758
g59
NtRp5028
(dp5029
g62
(dp5030
g4764
S'http://web2py.com/semantic'
p5031
ssg71
g5024
sg64
(lp5032
g4682
(S't\x08\x00\x00\x00Semantic'
tRp5033
asbasbasbasbag57
(g4765
g59
NtRp5034
(dp5035
g62
(dp5036
g4769
g4770
ssg71
g4792
sg64
(lp5037
g57
(g4758
g59
NtRp5038
(dp5039
g62
(dp5040
g4764
S'http://www.web2py.com/book'
p5041
ssg71
g5034
sg64
(lp5042
g4682
(S't\r\x00\x00\x00Documentation'
tRp5043
asbag57
(g4771
g59
NtRp5044
(dp5045
g62
(dp5046
g4769
g4779
ssg71
g5034
sg64
(lp5047
g57
(g4765
g59
NtRp5048
(dp5049
g62
(dp5050
sg71
g5044
sg64
(lp5051
g57
(g4758
g59
NtRp5052
(dp5053
g62
(dp5054
g4764
S'http://www.web2py.com/book/default/chapter/00'
p5055
ssg71
g5048
sg64
(lp5056
g4682
(S't\x07\x00\x00\x00Preface'
tRp5057
asbasbag57
(g4765
g59
NtRp5058
(dp5059
g62
(dp5060
sg71
g5044
sg64
(lp5061
g57
(g4758
g59
NtRp5062
(dp5063
g62
(dp5064
g4764
S'http://www.web2py.com/book/default/chapter/01'
p5065
ssg71
g5058
sg64
(lp5066
g4682
(S't\x0c\x00\x00\x00Introduction'
tRp5067
asbasbag57
(g4765
g59
NtRp5068
(dp5069
g62
(dp5070
sg71
g5044
sg64
(lp5071
g57
(g4758
g59
NtRp5072
(dp5073
g62
(dp5074
g4764
S'http://www.web2py.com/book/default/chapter/02'
p5075
ssg71
g5068
sg64
(lp5076
g4682
(S't\x06\x00\x00\x00Python'
tRp5077
asbasbag57
(g4765
g59
NtRp5078
(dp5079
g62
(dp5080
sg71
g5044
sg64
(lp5081
g57
(g4758
g59
NtRp5082
(dp5083
g62
(dp5084
g4764
S'http://www.web2py.com/book/default/chapter/03'
p5085
ssg71
g5078
sg64
(lp5086
g4682
(S't\x08\x00\x00\x00Overview'
tRp5087
asbasbag57
(g4765
g59
NtRp5088
(dp5089
g62
(dp5090
sg71
g5044
sg64
(lp5091
g57
(g4758
g59
NtRp5092
(dp5093
g62
(dp5094
g4764
S'http://www.web2py.com/book/default/chapter/04'
p5095
ssg71
g5088
sg64
(lp5096
g4682
(S's\x08\x00\x00\x00The Core'
tRp5097
asbasbag57
(g4765
g59
NtRp5098
(dp5099
g62
(dp5100
sg71
g5044
sg64
(lp5101
g57
(g4758
g59
NtRp5102
(dp5103
g62
(dp5104
g4764
S'http://www.web2py.com/book/default/chapter/05'
p5105
ssg71
g5098
sg64
(lp5106
g4682
(S's\t\x00\x00\x00The Views'
tRp5107
asbasbag57
(g4765
g59
NtRp5108
(dp5109
g62
(dp5110
sg71
g5044
sg64
(lp5111
g57
(g4758
g59
NtRp5112
(dp5113
g62
(dp5114
g4764
S'http://www.web2py.com/book/default/chapter/06'
p5115
ssg71
g5108
sg64
(lp5116
g4682
(S't\x08\x00\x00\x00Database'
tRp5117
asbasbag57
(g4765
g59
NtRp5118
(dp5119
g62
(dp5120
sg71
g5044
sg64
(lp5121
g57
(g4758
g59
NtRp5122
(dp5123
g62
(dp5124
g4764
S'http://www.web2py.com/book/default/chapter/07'
p5125
ssg71
g5118
sg64
(lp5126
g4682
(S's\x14\x00\x00\x00Forms and Validators'
tRp5127
asbasbag57
(g4765
g59
NtRp5128
(dp5129
g62
(dp5130
sg71
g5044
sg64
(lp5131
g57
(g4758
g59
NtRp5132
(dp5133
g62
(dp5134
g4764
S'http://www.web2py.com/book/default/chapter/08'
p5135
ssg71
g5128
sg64
(lp5136
g4682
(S's\r\x00\x00\x00Email and SMS'
tRp5137
asbasbag57
(g4765
g59
NtRp5138
(dp5139
g62
(dp5140
sg71
g5044
sg64
(lp5141
g57
(g4758
g59
NtRp5142
(dp5143
g62
(dp5144
g4764
S'http://www.web2py.com/book/default/chapter/09'
p5145
ssg71
g5138
sg64
(lp5146
g4682
(S's\x0e\x00\x00\x00Access Control'
tRp5147
asbasbag57
(g4765
g59
NtRp5148
(dp5149
g62
(dp5150
sg71
g5044
sg64
(lp5151
g57
(g4758
g59
NtRp5152
(dp5153
g62
(dp5154
g4764
S'http://www.web2py.com/book/default/chapter/10'
p5155
ssg71
g5148
sg64
(lp5156
g4682
(S't\x08\x00\x00\x00Services'
tRp5157
asbasbag57
(g4765
g59
NtRp5158
(dp5159
g62
(dp5160
sg71
g5044
sg64
(lp5161
g57
(g4758
g59
NtRp5162
(dp5163
g62
(dp5164
g4764
S'http://www.web2py.com/book/default/chapter/11'
p5165
ssg71
g5158
sg64
(lp5166
g4682
(S's\x0c\x00\x00\x00Ajax Recipes'
tRp5167
asbasbag57
(g4765
g59
NtRp5168
(dp5169
g62
(dp5170
sg71
g5044
sg64
(lp5171
g57
(g4758
g59
NtRp5172
(dp5173
g62
(dp5174
g4764
S'http://www.web2py.com/book/default/chapter/12'
p5175
ssg71
g5168
sg64
(lp5176
g4682
(S's\x16\x00\x00\x00Components and Plugins'
tRp5177
asbasbag57
(g4765
g59
NtRp5178
(dp5179
g62
(dp5180
sg71
g5044
sg64
(lp5181
g57
(g4758
g59
NtRp5182
(dp5183
g62
(dp5184
g4764
S'http://www.web2py.com/book/default/chapter/13'
p5185
ssg71
g5178
sg64
(lp5186
g4682
(S's\x12\x00\x00\x00Deployment Recipes'
tRp5187
asbasbag57
(g4765
g59
NtRp5188
(dp5189
g62
(dp5190
sg71
g5044
sg64
(lp5191
g57
(g4758
g59
NtRp5192
(dp5193
g62
(dp5194
g4764
S'http://www.web2py.com/book/default/chapter/14'
p5195
ssg71
g5188
sg64
(lp5196
g4682
(S's\r\x00\x00\x00Other Recipes'
tRp5197
asbasbag57
(g4765
g59
NtRp5198
(dp5199
g62
(dp5200
sg71
g5044
sg64
(lp5201
g57
(g4758
g59
NtRp5202
(dp5203
g62
(dp5204
g4764
S'http://stores.lulu.com/web2py'
p5205
ssg71
g5198
sg64
(lp5206
g4682
(S's\r\x00\x00\x00Buy this book'
tRp5207
asbasbasbasbag57
(g4765
g59
NtRp5208
(dp5209
g62
(dp5210
g4769
g4770
ssg71
g4792
sg64
(lp5211
g57
(g4758
g59
NtRp5212
(dp5213
g62
(dp5214
g4762
g4763
sg4764
S'#'
ssg71
g5208
sg64
(lp5215
g4682
(S't\t\x00\x00\x00Community'
tRp5216
asbag57
(g4771
g59
NtRp5217
(dp5218
g62
(dp5219
g4769
g4779
ssg71
g5208
sg64
(lp5220
g57
(g4765
g59
NtRp5221
(dp5222
g62
(dp5223
sg71
g5217
sg64
(lp5224
g57
(g4758
g59
NtRp5225
(dp5226
g62
(dp5227
g4764
S'http://www.web2py.com/examples/default/usergroups'
p5228
ssg71
g5221
sg64
(lp5229
g4682
(S't\x06\x00\x00\x00Groups'
tRp5230
asbasbag57
(g4765
g59
NtRp5231
(dp5232
g62
(dp5233
sg71
g5217
sg64
(lp5234
g57
(g4758
g59
NtRp5235
(dp5236
g62
(dp5237
g4764
S'http://twitter.com/web2py'
p5238
ssg71
g5231
sg64
(lp5239
g4682
(S't\x07\x00\x00\x00Twitter'
tRp5240
asbasbag57
(g4765
g59
NtRp5241
(dp5242
g62
(dp5243
sg71
g5217
sg64
(lp5244
g57
(g4758
g59
NtRp5245
(dp5246
g62
(dp5247
g4764
S'http://webchat.freenode.net/?channels=web2py'
p5248
ssg71
g5241
sg64
(lp5249
g4682
(S's\t\x00\x00\x00Live Chat'
tRp5250
asbasbasbasbag57
(g4765
g59
NtRp5251
(dp5252
g62
(dp5253
g4769
g4770
ssg71
g4792
sg64
(lp5254
g57
(g4758
g59
NtRp5255
(dp5256
g62
(dp5257
g4762
g4763
sg4764
S'#'
ssg71
g5251
sg64
(lp5258
g4682
(S't\x07\x00\x00\x00Plugins'
tRp5259
asbag57
(g4771
g59
NtRp5260
(dp5261
g62
(dp5262
g4769
g4779
ssg71
g5251
sg64
(lp5263
g57
(g4765
g59
NtRp5264
(dp5265
g62
(dp5266
sg71
g5260
sg64
(lp5267
g57
(g4758
g59
NtRp5268
(dp5269
g62
(dp5270
g4764
S'http://web2py.com/examples/default/download'
p5271
ssg71
g5264
sg64
(lp5272
S'plugin_wiki'
p5273
asbasbag57
(g4765
g59
NtRp5274
(dp5275
g62
(dp5276
sg71
g5260
sg64
(lp5277
g57
(g4758
g59
NtRp5278
(dp5279
g62
(dp5280
g4764
g5001
ssg71
g5274
sg64
(lp5281
g4682
(S's\r\x00\x00\x00Other Plugins'
tRp5282
asbasbag57
(g4765
g59
NtRp5283
(dp5284
g62
(dp5285
sg71
g5260
sg64
(lp5286
g57
(g4758
g59
NtRp5287
(dp5288
g62
(dp5289
g4764
g5011
ssg71
g5283
sg64
(lp5290
g4682
(S's\x0e\x00\x00\x00Layout Plugins'
tRp5291
asbasbasbasbasbasbsg64
(lp5292
g4754
asbsg64
(lp5293
g4628
asbasbasbasbag57
(g73
g59
NtRp5294
(dp5295
g62
(dp5296
sg71
g4737
sg64
(lp5297
g57
(g78
g59
NtRp5298
(dp5299
g62
(dp5300
sg71
g5294
sg64
(lp5301
g57
(g58
g59
NtRp5302
(dp5303
g62
(dp5304
g70
I3
ssg71
g5298
sg64
(lp5305
g100
asbasbasbag57
(g73
g59
NtRp5306
(dp5307
g62
(dp5308
sg71
g4737
sg64
(lp5309
g57
(g78
g59
NtRp5310
(dp5311
g62
(dp5312
sg71
g5306
sg64
(lp5313
g57
(g58
g59
NtRp5314
(dp5315
g62
(dp5316
g70
I3
ssg71
g5310
sg64
(lp5317
S'None'
p5318
asbasbasbag57
(g73
g59
NtRp5319
(dp5320
g62
(dp5321
sg71
g4737
sg64
(lp5322
g57
(g78
g59
NtRp5323
(dp5324
g62
(dp5325
sg71
g5319
sg64
(lp5326
g57
(g58
g59
NtRp5327
(dp5328
g62
(dp5329
g70
I3
ssg71
g5323
sg64
(lp5330
g57
(g66
g59
NtRp5331
(dp5332
g62
(dp5333
g70
I2
ssg71
Nsg64
(lp5334
g57
(g73
g59
NtRp5335
(dp5336
g62
(dp5337
sg71
g5331
sg64
(lp5338
g57
(g78
g59
NtRp5339
(dp5340
g62
(dp5341
sg71
g5335
sg64
(lp5342
g57
(g58
g59
NtRp5343
(dp5344
g62
(dp5345
g70
I2
ssg71
g5339
sg64
(lp5346
g57
(g66
g59
NtRp5347
(dp5348
g62
(dp5349
g70
I1
ssg71
Nsg64
(lp5350
g57
(g73
g59
NtRp5351
(dp5352
g62
(dp5353
sg71
g5347
sg64
(lp5354
g57
(g78
g59
NtRp5355
(dp5356
g62
(dp5357
sg71
g5351
sg64
(lp5358
g57
(g58
g59
NtRp5359
(dp5360
g62
(dp5361
g70
I1
ssg71
g5355
sg64
(lp5362
g4805
asbasbasbag57
(g73
g59
NtRp5363
(dp5364
g62
(dp5365
sg71
g5347
sg64
(lp5366
g57
(g78
g59
NtRp5367
(dp5368
g62
(dp5369
sg71
g5363
sg64
(lp5370
g57
(g58
g59
NtRp5371
(dp5372
g62
(dp5373
g70
I1
ssg71
g5367
sg64
(lp5374
I00
asbasbasbag57
(g73
g59
NtRp5375
(dp5376
g62
(dp5377
sg71
g5347
sg64
(lp5378
g57
(g78
g59
NtRp5379
(dp5380
g62
(dp5381
sg71
g5375
sg64
(lp5382
g57
(g58
g59
NtRp5383
(dp5384
g62
(dp5385
g70
I1
ssg71
g5379
sg64
(lp5386
g4803
asbasbasbasbasbasbasbag57
(g73
g59
NtRp5387
(dp5388
g62
(dp5389
sg71
g5331
sg64
(lp5390
g57
(g78
g59
NtRp5391
(dp5392
g62
(dp5393
sg71
g5387
sg64
(lp5394
g57
(g58
g59
NtRp5395
(dp5396
g62
(dp5397
g70
I2
ssg71
g5391
sg64
(lp5398
g57
(g66
g59
NtRp5399
(dp5400
g62
(dp5401
g70
I1
ssg71
Nsg64
(lp5402
g57
(g73
g59
NtRp5403
(dp5404
g62
(dp5405
sg71
g5399
sg64
(lp5406
g57
(g78
g59
NtRp5407
(dp5408
g62
(dp5409
sg71
g5403
sg64
(lp5410
g57
(g58
g59
NtRp5411
(dp5412
g62
(dp5413
g70
I1
ssg71
g5407
sg64
(lp5414
g4815
asbasbasbag57
(g73
g59
NtRp5415
(dp5416
g62
(dp5417
sg71
g5399
sg64
(lp5418
g57
(g78
g59
NtRp5419
(dp5420
g62
(dp5421
sg71
g5415
sg64
(lp5422
g57
(g58
g59
NtRp5423
(dp5424
g62
(dp5425
g70
I1
ssg71
g5419
sg64
(lp5426
I00
asbasbasbag57
(g73
g59
NtRp5427
(dp5428
g62
(dp5429
sg71
g5399
sg64
(lp5430
g57
(g78
g59
NtRp5431
(dp5432
g62
(dp5433
sg71
g5427
sg64
(lp5434
g57
(g58
g59
NtRp5435
(dp5436
g62
(dp5437
g70
I1
ssg71
g5431
sg64
(lp5438
g4813
asbasbasbag57
(g73
g59
NtRp5439
(dp5440
g62
(dp5441
sg71
g5399
sg64
(lp5442
g57
(g78
g59
NtRp5443
(dp5444
g62
(dp5445
sg71
g5439
sg64
(lp5446
g57
(g58
g59
NtRp5447
(dp5448
g62
(dp5449
g70
I1
ssg71
g5443
sg64
(lp5450
(lp5451
(g4829
I00
g4827
tp5452
a(g4839
I00
g4837
tp5453
a(g4849
I00
g4847
tp5454
a(g4859
I00
g4857
tp5455
a(g4869
I00
g4867
tp5456
a(g4879
I00
g4877
tp5457
a(g4889
I00
g4887
tp5458
a(g4899
I00
g4897
tp5459
a(g4909
I00
g4907
tp5460
aasbasbasbasbasbasbasbag57
(g73
g59
NtRp5461
(dp5462
g62
(dp5463
sg71
g5331
sg64
(lp5464
g57
(g78
g59
NtRp5465
(dp5466
g62
(dp5467
sg71
g5461
sg64
(lp5468
g57
(g58
g59
NtRp5469
(dp5470
g62
(dp5471
g70
I2
ssg71
g5465
sg64
(lp5472
g57
(g66
g59
NtRp5473
(dp5474
g62
(dp5475
g70
I1
ssg71
Nsg64
(lp5476
g57
(g73
g59
NtRp5477
(dp5478
g62
(dp5479
sg71
g5473
sg64
(lp5480
g57
(g78
g59
NtRp5481
(dp5482
g62
(dp5483
sg71
g5477
sg64
(lp5484
g57
(g58
g59
NtRp5485
(dp5486
g62
(dp5487
g70
I1
ssg71
g5481
sg64
(lp5488
g4919
asbasbasbag57
(g73
g59
NtRp5489
(dp5490
g62
(dp5491
sg71
g5473
sg64
(lp5492
g57
(g78
g59
NtRp5493
(dp5494
g62
(dp5495
sg71
g5489
sg64
(lp5496
g57
(g58
g59
NtRp5497
(dp5498
g62
(dp5499
g70
I1
ssg71
g5493
sg64
(lp5500
I00
asbasbasbag57
(g73
g59
NtRp5501
(dp5502
g62
(dp5503
sg71
g5473
sg64
(lp5504
g57
(g78
g59
NtRp5505
(dp5506
g62
(dp5507
sg71
g5501
sg64
(lp5508
g57
(g58
g59
NtRp5509
(dp5510
g62
(dp5511
g70
I1
ssg71
g5505
sg64
(lp5512
g4917
asbasbasbag57
(g73
g59
NtRp5513
(dp5514
g62
(dp5515
sg71
g5473
sg64
(lp5516
g57
(g78
g59
NtRp5517
(dp5518
g62
(dp5519
sg71
g5513
sg64
(lp5520
g57
(g58
g59
NtRp5521
(dp5522
g62
(dp5523
g70
I1
ssg71
g5517
sg64
(lp5524
(lp5525
(g4933
I00
g4931
tp5526
a(g4943
I00
g4941
tp5527
a(g4953
I00
g4951
tp5528
a(g4963
I00
g4961
tp5529
a(g4973
I00
g4971
tp5530
a(g4983
I00
g4981
tp5531
a(g4993
I00
g4991
tp5532
a(g5003
I00
g5001
tp5533
a(g5013
I00
g5011
tp5534
a(g5023
I00
g5021
tp5535
a(g5033
I00
g5031
tp5536
aasbasbasbasbasbasbasbag57
(g73
g59
NtRp5537
(dp5538
g62
(dp5539
sg71
g5331
sg64
(lp5540
g57
(g78
g59
NtRp5541
(dp5542
g62
(dp5543
sg71
g5537
sg64
(lp5544
g57
(g58
g59
NtRp5545
(dp5546
g62
(dp5547
g70
I2
ssg71
g5541
sg64
(lp5548
g57
(g66
g59
NtRp5549
(dp5550
g62
(dp5551
g70
I1
ssg71
Nsg64
(lp5552
g57
(g73
g59
NtRp5553
(dp5554
g62
(dp5555
sg71
g5549
sg64
(lp5556
g57
(g78
g59
NtRp5557
(dp5558
g62
(dp5559
sg71
g5553
sg64
(lp5560
g57
(g58
g59
NtRp5561
(dp5562
g62
(dp5563
g70
I1
ssg71
g5557
sg64
(lp5564
g5043
asbasbasbag57
(g73
g59
NtRp5565
(dp5566
g62
(dp5567
sg71
g5549
sg64
(lp5568
g57
(g78
g59
NtRp5569
(dp5570
g62
(dp5571
sg71
g5565
sg64
(lp5572
g57
(g58
g59
NtRp5573
(dp5574
g62
(dp5575
g70
I1
ssg71
g5569
sg64
(lp5576
I00
asbasbasbag57
(g73
g59
NtRp5577
(dp5578
g62
(dp5579
sg71
g5549
sg64
(lp5580
g57
(g78
g59
NtRp5581
(dp5582
g62
(dp5583
sg71
g5577
sg64
(lp5584
g57
(g58
g59
NtRp5585
(dp5586
g62
(dp5587
g70
I1
ssg71
g5581
sg64
(lp5588
g5041
asbasbasbag57
(g73
g59
NtRp5589
(dp5590
g62
(dp5591
sg71
g5549
sg64
(lp5592
g57
(g78
g59
NtRp5593
(dp5594
g62
(dp5595
sg71
g5589
sg64
(lp5596
g57
(g58
g59
NtRp5597
(dp5598
g62
(dp5599
g70
I1
ssg71
g5593
sg64
(lp5600
(lp5601
(g5057
I00
g5055
tp5602
a(g5067
I00
g5065
tp5603
a(g5077
I00
g5075
tp5604
a(g5087
I00
g5085
tp5605
a(g5097
I00
g5095
tp5606
a(g5107
I00
g5105
tp5607
a(g5117
I00
g5115
tp5608
a(g5127
I00
g5125
tp5609
a(g5137
I00
g5135
tp5610
a(g5147
I00
g5145
tp5611
a(g5157
I00
g5155
tp5612
a(g5167
I00
g5165
tp5613
a(g5177
I00
g5175
tp5614
a(g5187
I00
g5185
tp5615
a(g5197
I00
g5195
tp5616
a(g5207
I00
g5205
tp5617
aasbasbasbasbasbasbasbag57
(g73
g59
NtRp5618
(dp5619
g62
(dp5620
sg71
g5331
sg64
(lp5621
g57
(g78
g59
NtRp5622
(dp5623
g62
(dp5624
sg71
g5618
sg64
(lp5625
g57
(g58
g59
NtRp5626
(dp5627
g62
(dp5628
g70
I2
ssg71
g5622
sg64
(lp5629
g57
(g66
g59
NtRp5630
(dp5631
g62
(dp5632
g70
I1
ssg71
Nsg64
(lp5633
g57
(g73
g59
NtRp5634
(dp5635
g62
(dp5636
sg71
g5630
sg64
(lp5637
g57
(g78
g59
NtRp5638
(dp5639
g62
(dp5640
sg71
g5634
sg64
(lp5641
g57
(g58
g59
NtRp5642
(dp5643
g62
(dp5644
g70
I1
ssg71
g5638
sg64
(lp5645
g5216
asbasbasbag57
(g73
g59
NtRp5646
(dp5647
g62
(dp5648
sg71
g5630
sg64
(lp5649
g57
(g78
g59
NtRp5650
(dp5651
g62
(dp5652
sg71
g5646
sg64
(lp5653
g57
(g58
g59
NtRp5654
(dp5655
g62
(dp5656
g70
I1
ssg71
g5650
sg64
(lp5657
I00
asbasbasbag57
(g73
g59
NtRp5658
(dp5659
g62
(dp5660
sg71
g5630
sg64
(lp5661
g57
(g78
g59
NtRp5662
(dp5663
g62
(dp5664
sg71
g5658
sg64
(lp5665
g57
(g58
g59
NtRp5666
(dp5667
g62
(dp5668
g70
I1
ssg71
g5662
sg64
(lp5669
Nasbasbasbag57
(g73
g59
NtRp5670
(dp5671
g62
(dp5672
sg71
g5630
sg64
(lp5673
g57
(g78
g59
NtRp5674
(dp5675
g62
(dp5676
sg71
g5670
sg64
(lp5677
g57
(g58
g59
NtRp5678
(dp5679
g62
(dp5680
g70
I1
ssg71
g5674
sg64
(lp5681
(lp5682
(g5230
I00
g5228
tp5683
a(g5240
I00
g5238
tp5684
a(g5250
I00
g5248
tp5685
aasbasbasbasbasbasbasbag57
(g73
g59
NtRp5686
(dp5687
g62
(dp5688
sg71
g5331
sg64
(lp5689
g57
(g78
g59
NtRp5690
(dp5691
g62
(dp5692
sg71
g5686
sg64
(lp5693
g57
(g58
g59
NtRp5694
(dp5695
g62
(dp5696
g70
I2
ssg71
g5690
sg64
(lp5697
g57
(g66
g59
NtRp5698
(dp5699
g62
(dp5700
g70
I1
ssg71
Nsg64
(lp5701
g57
(g73
g59
NtRp5702
(dp5703
g62
(dp5704
sg71
g5698
sg64
(lp5705
g57
(g78
g59
NtRp5706
(dp5707
g62
(dp5708
sg71
g5702
sg64
(lp5709
g57
(g58
g59
NtRp5710
(dp5711
g62
(dp5712
g70
I1
ssg71
g5706
sg64
(lp5713
g5259
asbasbasbag57
(g73
g59
NtRp5714
(dp5715
g62
(dp5716
sg71
g5698
sg64
(lp5717
g57
(g78
g59
NtRp5718
(dp5719
g62
(dp5720
sg71
g5714
sg64
(lp5721
g57
(g58
g59
NtRp5722
(dp5723
g62
(dp5724
g70
I1
ssg71
g5718
sg64
(lp5725
I00
asbasbasbag57
(g73
g59
NtRp5726
(dp5727
g62
(dp5728
sg71
g5698
sg64
(lp5729
g57
(g78
g59
NtRp5730
(dp5731
g62
(dp5732
sg71
g5726
sg64
(lp5733
g57
(g58
g59
NtRp5734
(dp5735
g62
(dp5736
g70
I1
ssg71
g5730
sg64
(lp5737
Nasbasbasbag57
(g73
g59
NtRp5738
(dp5739
g62
(dp5740
sg71
g5698
sg64
(lp5741
g57
(g78
g59
NtRp5742
(dp5743
g62
(dp5744
sg71
g5738
sg64
(lp5745
g57
(g58
g59
NtRp5746
(dp5747
g62
(dp5748
g70
I1
ssg71
g5742
sg64
(lp5749
(lp5750
(g5273
I00
g5271
tp5751
a(g5282
I00
g5001
tp5752
a(g5291
I00
g5011
tp5753
aasbasbasbasbasbasbasbasbasbasbasbasbasbasbasbasbasbasbasbag57
(g73
g59
NtRp5754
(dp5755
g62
(dp5756
sg71
g4022
sg64
(lp5757
g57
(g78
g59
NtRp5758
(dp5759
g62
(dp5760
g82
g83
ssg71
g5754
sg64
(lp5761
S'meta'
p5762
asbag57
(g78
g59
NtRp5763
(dp5764
g62
(dp5765
g89
g90
ssg71
g5754
sg64
(lp5766
S':'
asbag57
(g78
g59
NtRp5767
(dp5768
g62
(dp5769
sg71
g5754
sg64
(lp5770
g57
(g58
g59
NtRp5771
(dp5772
g62
(dp5773
g70
I5
ssg71
g5767
sg64
(lp5774
g57
(g66
g59
NtRp5775
(dp5776
g62
(dp5777
g70
I4
ssg71
Nsg64
(lp5778
g57
(g73
g59
NtRp5779
(dp5780
g62
(dp5781
sg71
g5775
sg64
(lp5782
g57
(g78
g59
NtRp5783
(dp5784
g62
(dp5785
g82
g83
ssg71
g5779
sg64
(lp5786
S'author'
p5787
asbag57
(g78
g59
NtRp5788
(dp5789
g62
(dp5790
g89
g90
ssg71
g5779
sg64
(lp5791
S':'
asbag57
(g78
g59
NtRp5792
(dp5793
g62
(dp5794
sg71
g5779
sg64
(lp5795
g57
(g58
g59
NtRp5796
(dp5797
g62
(dp5798
g70
I4
ssg71
g5792
sg64
(lp5799
S'Your Name <you@example.com>'
p5800
asbasbasbag57
(g73
g59
NtRp5801
(dp5802
g62
(dp5803
sg71
g5775
sg64
(lp5804
g57
(g78
g59
NtRp5805
(dp5806
g62
(dp5807
g82
g83
ssg71
g5801
sg64
(lp5808
S'copyright'
p5809
asbag57
(g78
g59
NtRp5810
(dp5811
g62
(dp5812
g89
g90
ssg71
g5801
sg64
(lp5813
S':'
asbag57
(g78
g59
NtRp5814
(dp5815
g62
(dp5816
sg71
g5801
sg64
(lp5817
g57
(g58
g59
NtRp5818
(dp5819
g62
(dp5820
g70
I4
ssg71
g5814
sg64
(lp5821
S'Copyright 2011'
p5822
asbasbasbag57
(g73
g59
NtRp5823
(dp5824
g62
(dp5825
sg71
g5775
sg64
(lp5826
g57
(g78
g59
NtRp5827
(dp5828
g62
(dp5829
g82
g83
ssg71
g5823
sg64
(lp5830
S'description'
p5831
asbag57
(g78
g59
NtRp5832
(dp5833
g62
(dp5834
g89
g90
ssg71
g5823
sg64
(lp5835
S':'
asbag57
(g78
g59
NtRp5836
(dp5837
g62
(dp5838
sg71
g5823
sg64
(lp5839
g57
(g58
g59
NtRp5840
(dp5841
g62
(dp5842
g70
I4
ssg71
g5836
sg64
(lp5843
S'a cool new app'
p5844
asbasbasbag57
(g73
g59
NtRp5845
(dp5846
g62
(dp5847
sg71
g5775
sg64
(lp5848
g57
(g78
g59
NtRp5849
(dp5850
g62
(dp5851
g82
g83
ssg71
g5845
sg64
(lp5852
S'generator'
p5853
asbag57
(g78
g59
NtRp5854
(dp5855
g62
(dp5856
g89
g90
ssg71
g5845
sg64
(lp5857
S':'
asbag57
(g78
g59
NtRp5858
(dp5859
g62
(dp5860
sg71
g5845
sg64
(lp5861
g57
(g58
g59
NtRp5862
(dp5863
g62
(dp5864
g70
I4
ssg71
g5858
sg64
(lp5865
S'Web2py Web Framework'
p5866
asbasbasbag57
(g73
g59
NtRp5867
(dp5868
g62
(dp5869
sg71
g5775
sg64
(lp5870
g57
(g78
g59
NtRp5871
(dp5872
g62
(dp5873
g82
g83
ssg71
g5867
sg64
(lp5874
S'keywords'
p5875
asbag57
(g78
g59
NtRp5876
(dp5877
g62
(dp5878
g89
g90
ssg71
g5867
sg64
(lp5879
S':'
asbag57
(g78
g59
NtRp5880
(dp5881
g62
(dp5882
sg71
g5867
sg64
(lp5883
g57
(g58
g59
NtRp5884
(dp5885
g62
(dp5886
g70
I4
ssg71
g5880
sg64
(lp5887
S'web2py, python, framework'
p5888
asbasbasbasbasbasbasbag57
(g73
g59
NtRp5889
(dp5890
g62
(dp5891
sg71
g4022
sg64
(lp5892
g57
(g78
g59
NtRp5893
(dp5894
g62
(dp5895
g82
g83
ssg71
g5889
sg64
(lp5896
S'postprocessing'
p5897
asbag57
(g78
g59
NtRp5898
(dp5899
g62
(dp5900
g89
g90
ssg71
g5889
sg64
(lp5901
S':'
asbag57
(g78
g59
NtRp5902
(dp5903
g62
(dp5904
sg71
g5889
sg64
(lp5905
g57
(g58
g59
NtRp5906
(dp5907
g62
(dp5908
g70
I5
ssg71
g5902
sg64
(lp5909
g57
(g66
g59
NtRp5910
(dp5911
g62
(dp5912
g70
I4
ssg71
Nsg64
(lp5913
sbasbasbasbag57
(g73
g59
NtRp5914
(dp5915
g62
(dp5916
sg71
g4022
sg64
(lp5917
g57
(g78
g59
NtRp5918
(dp5919
g62
(dp5920
g82
g83
ssg71
g5914
sg64
(lp5921
S'session_file'
p5922
asbag57
(g78
g59
NtRp5923
(dp5924
g62
(dp5925
g89
g90
ssg71
g5914
sg64
(lp5926
S':'
asbag57
(g78
g59
NtRp5927
(dp5928
g62
(dp5929
sg71
g5914
sg64
(lp5930
g57
(g58
g59
NtRp5931
(dp5932
g62
(dp5933
g70
I5
ssg71
g5927
sg64
(lp5934
S"<open file '/home/vishrut/web2py/applications/astra1/sessions/127.0.0.1-3ea7f370-71b8-4b79-b80d-e5c8cc6c433d', mode 'rb+' at 0xb121078>"
p5935
asbasbasbag57
(g73
g59
NtRp5936
(dp5937
g62
(dp5938
sg71
g4022
sg64
(lp5939
g57
(g78
g59
NtRp5940
(dp5941
g62
(dp5942
g82
g83
ssg71
g5936
sg64
(lp5943
S'session_filename'
p5944
asbag57
(g78
g59
NtRp5945
(dp5946
g62
(dp5947
g89
g90
ssg71
g5936
sg64
(lp5948
S':'
asbag57
(g78
g59
NtRp5949
(dp5950
g62
(dp5951
sg71
g5936
sg64
(lp5952
g57
(g58
g59
NtRp5953
(dp5954
g62
(dp5955
g70
I5
ssg71
g5949
sg64
(lp5956
S'/home/vishrut/web2py/applications/astra1/sessions/127.0.0.1-3ea7f370-71b8-4b79-b80d-e5c8cc6c433d'
p5957
asbasbasbag57
(g73
g59
NtRp5958
(dp5959
g62
(dp5960
sg71
g4022
sg64
(lp5961
g57
(g78
g59
NtRp5962
(dp5963
g62
(dp5964
g82
g83
ssg71
g5958
sg64
(lp5965
S'session_id'
p5966
asbag57
(g78
g59
NtRp5967
(dp5968
g62
(dp5969
g89
g90
ssg71
g5958
sg64
(lp5970
S':'
asbag57
(g78
g59
NtRp5971
(dp5972
g62
(dp5973
sg71
g5958
sg64
(lp5974
g57
(g58
g59
NtRp5975
(dp5976
g62
(dp5977
g70
I5
ssg71
g5971
sg64
(lp5978
S'127.0.0.1-3ea7f370-71b8-4b79-b80d-e5c8cc6c433d'
p5979
asbasbasbag57
(g73
g59
NtRp5980
(dp5981
g62
(dp5982
sg71
g4022
sg64
(lp5983
g57
(g78
g59
NtRp5984
(dp5985
g62
(dp5986
g82
g83
ssg71
g5980
sg64
(lp5987
S'session_id_name'
p5988
asbag57
(g78
g59
NtRp5989
(dp5990
g62
(dp5991
g89
g90
ssg71
g5980
sg64
(lp5992
S':'
asbag57
(g78
g59
NtRp5993
(dp5994
g62
(dp5995
sg71
g5980
sg64
(lp5996
g57
(g58
g59
NtRp5997
(dp5998
g62
(dp5999
g70
I5
ssg71
g5993
sg64
(lp6000
g4079
asbasbasbag57
(g73
g59
NtRp6001
(dp6002
g62
(dp6003
sg71
g4022
sg64
(lp6004
g57
(g78
g59
NtRp6005
(dp6006
g62
(dp6007
g82
g83
ssg71
g6001
sg64
(lp6008
S'session_locked'
p6009
asbag57
(g78
g59
NtRp6010
(dp6011
g62
(dp6012
g89
g90
ssg71
g6001
sg64
(lp6013
S':'
asbag57
(g78
g59
NtRp6014
(dp6015
g62
(dp6016
sg71
g6001
sg64
(lp6017
g57
(g58
g59
NtRp6018
(dp6019
g62
(dp6020
g70
I5
ssg71
g6014
sg64
(lp6021
g2603
asbasbasbag57
(g73
g59
NtRp6022
(dp6023
g62
(dp6024
sg71
g4022
sg64
(lp6025
g57
(g78
g59
NtRp6026
(dp6027
g62
(dp6028
g82
g83
ssg71
g6022
sg64
(lp6029
S'session_new'
p6030
asbag57
(g78
g59
NtRp6031
(dp6032
g62
(dp6033
g89
g90
ssg71
g6022
sg64
(lp6034
S':'
asbag57
(g78
g59
NtRp6035
(dp6036
g62
(dp6037
sg71
g6022
sg64
(lp6038
g57
(g58
g59
NtRp6039
(dp6040
g62
(dp6041
g70
I5
ssg71
g6035
sg64
(lp6042
g100
asbasbasbag57
(g73
g59
NtRp6043
(dp6044
g62
(dp6045
sg71
g4022
sg64
(lp6046
g57
(g78
g59
NtRp6047
(dp6048
g62
(dp6049
g82
g83
ssg71
g6043
sg64
(lp6050
S'status'
p6051
asbag57
(g78
g59
NtRp6052
(dp6053
g62
(dp6054
g89
g90
ssg71
g6043
sg64
(lp6055
S':'
asbag57
(g78
g59
NtRp6056
(dp6057
g62
(dp6058
sg71
g6043
sg64
(lp6059
g57
(g58
g59
NtRp6060
(dp6061
g62
(dp6062
g70
I5
ssg71
g6056
sg64
(lp6063
S'200'
p6064
asbasbasbag57
(g73
g59
NtRp6065
(dp6066
g62
(dp6067
sg71
g4022
sg64
(lp6068
g57
(g78
g59
NtRp6069
(dp6070
g62
(dp6071
g82
g83
ssg71
g6065
sg64
(lp6072
S'subtitle'
p6073
asbag57
(g78
g59
NtRp6074
(dp6075
g62
(dp6076
g89
g90
ssg71
g6065
sg64
(lp6077
S':'
asbag57
(g78
g59
NtRp6078
(dp6079
g62
(dp6080
sg71
g6065
sg64
(lp6081
g57
(g58
g59
NtRp6082
(dp6083
g62
(dp6084
g70
I5
ssg71
g6078
sg64
(lp6085
g4682
(S's\r\x00\x00\x00customize me!'
tRp6086
asbasbasbag57
(g73
g59
NtRp6087
(dp6088
g62
(dp6089
sg71
g4022
sg64
(lp6090
g57
(g78
g59
NtRp6091
(dp6092
g62
(dp6093
g82
g83
ssg71
g6087
sg64
(lp6094
S'title'
p6095
asbag57
(g78
g59
NtRp6096
(dp6097
g62
(dp6098
g89
g90
ssg71
g6087
sg64
(lp6099
S':'
asbag57
(g78
g59
NtRp6100
(dp6101
g62
(dp6102
sg71
g6087
sg64
(lp6103
g57
(g58
g59
NtRp6104
(dp6105
g62
(dp6106
g70
I5
ssg71
g6100
sg64
(lp6107
S'Astra1'
p6108
asbasbasbag57
(g73
g59
NtRp6109
(dp6110
g62
(dp6111
sg71
g4022
sg64
(lp6112
g57
(g78
g59
NtRp6113
(dp6114
g62
(dp6115
g82
g83
ssg71
g6109
sg64
(lp6116
g3267
asbag57
(g78
g59
NtRp6117
(dp6118
g62
(dp6119
g89
g90
ssg71
g6109
sg64
(lp6120
S':'
asbag57
(g78
g59
NtRp6121
(dp6122
g62
(dp6123
sg71
g6109
sg64
(lp6124
g57
(g58
g59
NtRp6125
(dp6126
g62
(dp6127
g70
I5
ssg71
g6121
sg64
(lp6128
g3280
asbasbasbag57
(g73
g59
NtRp6129
(dp6130
g62
(dp6131
sg71
g4022
sg64
(lp6132
g57
(g78
g59
NtRp6133
(dp6134
g62
(dp6135
g82
g83
ssg71
g6129
sg64
(lp6136
S'view'
p6137
asbag57
(g78
g59
NtRp6138
(dp6139
g62
(dp6140
g89
g90
ssg71
g6129
sg64
(lp6141
S':'
asbag57
(g78
g59
NtRp6142
(dp6143
g62
(dp6144
sg71
g6129
sg64
(lp6145
g57
(g58
g59
NtRp6146
(dp6147
g62
(dp6148
g70
I5
ssg71
g6142
sg64
(lp6149
S'default/index.html'
p6150
asbasbasbasbasbsS'locals'
p6151
(dp6152
S'Service'
p6153
S"<class 'gluon.tools.Service'>"
p6154
sS'OBJECT'
p6155
S"<class 'gluon.html.OBJECT'>"
p6156
sS'SQLDB'
p6157
S"<class 'gluon.dal.DAL'>"
p6158
sg3982
S'<Storage {\'_Session__hash\': \'\\xc7\\xf5"a\\xc1L\\xcd...ids/5]\': \'3c85e357-a2aa-4c27-a6e4-ebd0e4350902\'}>'
p6159
sS'LINK'
p6160
S"<class 'gluon.html.LINK'>"
p6161
sS'BR'
p6162
S"<class 'gluon.html.BR'>"
p6163
sS'local_import'
p6164
S'<function <lambda>>'
p6165
sS'OPTGROUP'
p6166
S"<class 'gluon.html.OPTGROUP'>"
p6167
sS'__package__'
p6168
S'None'
p6169
sS'PRE'
p6170
S"<class 'gluon.html.PRE'>"
p6171
sS'IS_INT_IN_RANGE'
p6172
S"<class 'gluon.validators.IS_INT_IN_RANGE'>"
p6173
sS'left_sidebar_enabled'
p6174
g100
sS'IS_LOWER'
p6175
S"<class 'gluon.validators.IS_LOWER'>"
p6176
sS'IS_STRONG'
p6177
S"<class 'gluon.validators.IS_STRONG'>"
p6178
sS'cache'
p6179
S'<gluon.cache.Cache object>'
p6180
sS'IS_IN_DB'
p6181
S"<class 'gluon.validators.IS_IN_DB'>"
p6182
sS'TAG'
p6183
S'<gluon.html.__TAG__ object>'
p6184
sS'SQLField'
p6185
S"<class 'gluon.dal.Field'>"
p6186
sS'mail'
p6187
S'<gluon.tools.Mail object>'
p6188
sS'BODY'
p6189
S"<class 'gluon.html.BODY'>"
p6190
sS'IS_DATE_IN_RANGE'
p6191
S"<class 'gluon.validators.IS_DATE_IN_RANGE'>"
p6192
sS'TH'
p6193
S"<class 'gluon.html.TH'>"
p6194
sS'URL'
p6195
S'<function URL>'
p6196
sS'__file__'
p6197
S"'/home/vishrut/web2py/applications/astra1/views/default/index.html'"
p6198
sS'db'
p6199
S"<DAL {'auth_event': <Table {'origin': <gluon.dal...n_key': <gluon.dal.Field object at 0xa956c4c>}>}>"
p6200
sS'auth'
p6201
S'<gluon.tools.Auth object>'
p6202
sS'P'
S"<class 'gluon.html.P'>"
p6203
sS'TFOOT'
p6204
S"<class 'gluon.html.TFOOT'>"
p6205
sS'XHTML'
p6206
S"<class 'gluon.html.XHTML'>"
p6207
sS'ON'
p6208
g2603
sS'OL'
p6209
S"<class 'gluon.html.OL'>"
p6210
sS'TEXTAREA'
p6211
S"<class 'gluon.html.TEXTAREA'>"
p6212
sS'MENU'
p6213
S"<class 'gluon.html.MENU'>"
p6214
sS'LOAD'
p6215
S'<function LOAD>'
p6216
sS'CODE'
p6217
S"<class 'gluon.html.CODE'>"
p6218
sS'HTTP'
p6219
S"<class 'gluon.http.HTTP'>"
p6220
sS'HR'
p6221
S"<class 'gluon.html.HR'>"
p6222
sS'IS_DATETIME'
p6223
S"<class 'gluon.validators.IS_DATETIME'>"
p6224
sS'HEAD'
p6225
S"<class 'gluon.html.HEAD'>"
p6226
sS'LABEL'
p6227
S"<class 'gluon.html.LABEL'>"
p6228
sS'CLEANUP'
p6229
S"<class 'gluon.validators.CLEANUP'>"
p6230
sS'plugins'
p6231
S'<gluon.tools.PluginManager object>'
p6232
sS'SELECT'
p6233
S"<class 'gluon.html.SELECT'>"
p6234
sS'use_janrain'
p6235
S'<function use_janrain>'
p6236
sS'CENTER'
p6237
S"<class 'gluon.html.CENTER'>"
p6238
sS'prettydate'
p6239
S'<function prettydate>'
p6240
sS'Crud'
p6241
S"<class 'gluon.tools.Crud'>"
p6242
sS'Auth'
p6243
S"<class 'gluon.tools.Auth'>"
p6244
sS'__builtins__'
p6245
S"{'ArithmeticError': <type 'exceptions.ArithmeticError'>, 'AssertionError': <type 'exceptions.AssertionError'>, 'AttributeError': <type 'exceptions.AttributeError'>, 'BaseException': <type 'exceptions.BaseException'>, 'BufferError': <type 'exceptions.BufferError'>, 'BytesWarning': <type 'exceptions.BytesWarning'>, 'DeprecationWarning': <type 'exceptions.DeprecationWarning'>, 'EOFError': <type 'exceptions.EOFError'>, 'Ellipsis': Ellipsis, 'EnvironmentError': <type 'exceptions.EnvironmentError'>, ...}"
p6246
sS'HTML'
p6247
S"<class 'gluon.html.HTML'>"
p6248
sS'SQLFORM'
p6249
S"<class 'gluon.sqlhtml.SQLFORM'>"
p6250
sS'EM'
p6251
S"<class 'gluon.html.EM'>"
p6252
sS'redirect'
p6253
S'<function redirect>'
p6254
sS'FIELDSET'
p6255
S"<class 'gluon.html.FIELDSET'>"
p6256
sS'IS_EQUAL_TO'
p6257
S"<class 'gluon.validators.IS_EQUAL_TO'>"
p6258
sS'embed64'
p6259
S'<function embed64>'
p6260
sS'IS_LIST_OF'
p6261
S"<class 'gluon.validators.IS_LIST_OF'>"
p6262
sS'__name__'
p6263
S"'__restricted__'"
p6264
sS'EMBED'
p6265
S"<class 'gluon.html.EMBED'>"
p6266
sS'_'
S'<function _>'
p6267
sS'FORM'
p6268
S"<class 'gluon.html.FORM'>"
p6269
sS'H2'
p6270
S"<class 'gluon.html.H2'>"
p6271
sS'H3'
p6272
S"<class 'gluon.html.H3'>"
p6273
sS'BUTTON'
p6274
S"<class 'gluon.html.BUTTON'>"
p6275
sS'H1'
p6276
S"<class 'gluon.html.H1'>"
p6277
sS'H6'
p6278
S"<class 'gluon.html.H6'>"
p6279
sS'H4'
p6280
S"<class 'gluon.html.H4'>"
p6281
sS'H5'
p6282
S"<class 'gluon.html.H5'>"
p6283
sS'UL'
p6284
S"<class 'gluon.html.UL'>"
p6285
sS'IS_UPPER'
p6286
S"<class 'gluon.validators.IS_UPPER'>"
p6287
sS'xmlescape'
p6288
S'<function xmlescape>'
p6289
sS'IS_TIME'
p6290
S"<class 'gluon.validators.IS_TIME'>"
p6291
sS'OPTION'
p6292
S"<class 'gluon.html.OPTION'>"
p6293
sS'TITLE'
p6294
S"<class 'gluon.html.TITLE'>"
p6295
sS'CRYPT'
p6296
S"<class 'gluon.validators.CRYPT'>"
p6297
sS'IS_EMPTY_OR'
p6298
S"<class 'gluon.validators.IS_EMPTY_OR'>"
p6299
sS'MARKMIN'
p6300
S"<class 'gluon.html.MARKMIN'>"
p6301
sS'INPUT'
p6302
S"<class 'gluon.html.INPUT'>"
p6303
sS'message'
p6304
S"'yoo'"
p6305
sS'COL'
p6306
S"<class 'gluon.html.COL'>"
p6307
sS'service'
p6308
S'<gluon.tools.Service object>'
p6309
sS'SCRIPT'
p6310
S"<class 'gluon.html.SCRIPT'>"
p6311
sS'is_mobile'
p6312
g100
sS'usr'
p6313
S'<gluon.dal.Rows object>'
p6314
sS'TABLE'
p6315
S"<class 'gluon.html.TABLE'>"
p6316
sS'IS_IPV4'
p6317
S"<class 'gluon.validators.IS_IPV4'>"
p6318
sS'IS_LENGTH'
p6319
S"<class 'gluon.validators.IS_LENGTH'>"
p6320
sS'XML'
p6321
S"<class 'gluon.html.XML'>"
p6322
sS'B'
S"<class 'gluon.html.B'>"
p6323
sS'form'
p6324
S'<gluon.sqlhtml.SQLFORM object>'
p6325
sS'SQLTABLE'
p6326
S"<class 'gluon.sqlhtml.SQLTABLE'>"
p6327
sS'IS_MATCH'
p6328
S"<class 'gluon.validators.IS_MATCH'>"
p6329
sS'IS_ALPHANUMERIC'
p6330
S"<class 'gluon.validators.IS_ALPHANUMERIC'>"
p6331
sS'SPAN'
p6332
S"<class 'gluon.html.SPAN'>"
p6333
sS'IS_SLUG'
p6334
S"<class 'gluon.validators.IS_SLUG'>"
p6335
sS'BEAUTIFY'
p6336
S"<class 'gluon.html.BEAUTIFY'>"
p6337
sS'META'
p6338
S"<class 'gluon.html.META'>"
p6339
sS'IS_DATE'
p6340
S"<class 'gluon.validators.IS_DATE'>"
p6341
sS'IS_EMAIL'
p6342
S"<class 'gluon.validators.IS_EMAIL'>"
p6343
sS'IS_NOT_EMPTY'
p6344
S"<class 'gluon.validators.IS_NOT_EMPTY'>"
p6345
sS'IS_FLOAT_IN_RANGE'
p6346
S"<class 'gluon.validators.IS_FLOAT_IN_RANGE'>"
p6347
sS'TBODY'
p6348
S"<class 'gluon.html.TBODY'>"
p6349
sS'CAT'
p6350
S"<class 'gluon.html.CAT'>"
p6351
sS'Field'
p6352
S"<class 'gluon.dal.Field'>"
p6353
sS'middle_columns'
p6354
S"'twelve'"
p6355
sS'DIV'
p6356
S"<class 'gluon.html.DIV'>"
p6357
sS'LEGEND'
p6358
S"<class 'gluon.html.LEGEND'>"
p6359
sS'IMG'
p6360
S"<class 'gluon.html.IMG'>"
p6361
sS'COLGROUP'
p6362
S"<class 'gluon.html.COLGROUP'>"
p6363
sS'DAL'
p6364
S"<class 'gluon.dal.DAL'>"
p6365
sS'TT'
p6366
S"<class 'gluon.html.TT'>"
p6367
sS'TR'
p6368
S"<class 'gluon.html.TR'>"
p6369
sS'LI'
p6370
S"<class 'gluon.html.LI'>"
p6371
sS'right_sidebar_enabled'
p6372
g2603
sS'IFRAME'
p6373
S"<class 'gluon.html.IFRAME'>"
p6374
sS'TD'
p6375
S"<class 'gluon.html.TD'>"
p6376
sS'PluginManager'
p6377
S"<class 'gluon.tools.PluginManager'>"
p6378
sS'IS_URL'
p6379
S"<class 'gluon.validators.IS_URL'>"
p6380
sS'A'
S"<class 'gluon.html.A'>"
p6381
sS'STYLE'
p6382
S"<class 'gluon.html.STYLE'>"
p6383
sS'IS_DATETIME_IN_RANGE'
p6384
S"<class 'gluon.validators.IS_DATETIME_IN_RANGE'>"
p6385
sS'IS_IMAGE'
p6386
S"<class 'gluon.validators.IS_IMAGE'>"
p6387
sS'I'
S"<class 'gluon.html.I'>"
p6388
sS'crud'
p6389
S'<gluon.tools.Crud object>'
p6390
sS'IS_NOT_IN_DB'
p6391
S"<class 'gluon.validators.IS_NOT_IN_DB'>"
p6392
sg4017
S"<Storage {'body': <cStringIO.StringO object at 0...da> at 0xb2bef0c>, 'view': 'default/index.html'}>"
p6393
sS'THEAD'
p6394
S"<class 'gluon.html.THEAD'>"
p6395
sS'IS_NULL_OR'
p6396
S"<class 'gluon.validators.IS_EMPTY_OR'>"
p6397
sg56
S"<Storage {'body': <cStringIO.StringO object at 0..._vars': <Storage {}>, 'post_vars': <Storage {}>}>"
p6398
sS'IS_EXPR'
p6399
S"<class 'gluon.validators.IS_EXPR'>"
p6400
sS'T'
S'<gluon.languages.translator object>'
p6401
sS'IS_IN_SET'
p6402
S"<class 'gluon.validators.IS_IN_SET'>"
p6403
sS'IS_UPLOAD_FILENAME'
p6404
S"<class 'gluon.validators.IS_UPLOAD_FILENAME'>"
p6405
sS'IS_DECIMAL_IN_RANGE'
p6406
S"<class 'gluon.validators.IS_DECIMAL_IN_RANGE'>"
p6407
sssS'traceback'
p6408
S'Traceback (most recent call last):\n  File "/home/vishrut/web2py/gluon/restricted.py", line 205, in restricted\n    exec ccode in environment\n  File "/home/vishrut/web2py/applications/astra1/views/default/index.html", line 91, in <module>\nNameError: name \'VIDEO\' is not defined\n'
p6409
s.